
enclave.signed.so:     file format elf64-x86-64


Disassembly of section .plt:

0000000000000630 <.plt>:
 630:	ff 35 42 79 22 00    	push   QWORD PTR [rip+0x227942]        # 227f78 <_GLOBAL_OFFSET_TABLE_+0x8>
 636:	ff 25 44 79 22 00    	jmp    QWORD PTR [rip+0x227944]        # 227f80 <_GLOBAL_OFFSET_TABLE_+0x10>
 63c:	0f 1f 40 00          	nop    DWORD PTR [rax+0x0]

Disassembly of section .plt.got:

0000000000000640 <_Z9pcl_entryPvS_@plt>:
 640:	ff 25 72 79 22 00    	jmp    QWORD PTR [rip+0x227972]        # 227fb8 <_Z9pcl_entryPvS_>
 646:	66 90                	xchg   ax,ax

0000000000000648 <ippcpSetCpuFeatures@plt>:
 648:	ff 25 aa 79 22 00    	jmp    QWORD PTR [rip+0x2279aa]        # 227ff8 <ippcpSetCpuFeatures>
 64e:	66 90                	xchg   ax,ax

Disassembly of section .text:

0000000000000680 <trts_access_version_dummy1>:
     680:	48 8d 05 89 79 22 00 	lea    rax,[rip+0x227989]        # 228010 <sgx_trts_version>
     687:	c6 00 73             	mov    BYTE PTR [rax],0x73
     68a:	c3                   	ret    
     68b:	0f 1f 44 00 00       	nop    DWORD PTR [rax+rax*1+0x0]

0000000000000690 <tstdc_access_version_dummy1>:
     690:	c6 05 a9 79 22 00 73 	mov    BYTE PTR [rip+0x2279a9],0x73        # 228040 <sgx_tstdc_version>
     697:	48 8d 05 a2 79 22 00 	lea    rax,[rip+0x2279a2]        # 228040 <sgx_tstdc_version>
     69e:	c3                   	ret    
     69f:	90                   	nop

00000000000006a0 <tcrypto_access_version_dummy1>:
     6a0:	c6 05 19 82 22 00 73 	mov    BYTE PTR [rip+0x228219],0x73        # 2288c0 <sgx_tcrypto_version>
     6a7:	48 8d 05 12 82 22 00 	lea    rax,[rip+0x228212]        # 2288c0 <sgx_tcrypto_version>
     6ae:	c3                   	ret    
     6af:	90                   	nop

00000000000006b0 <tservice_access_version_dummy1>:
     6b0:	c6 05 49 82 22 00 73 	mov    BYTE PTR [rip+0x228249],0x73        # 228900 <sgx_tservice_version>
     6b7:	48 8d 05 42 82 22 00 	lea    rax,[rip+0x228242]        # 228900 <sgx_tservice_version>
     6be:	c3                   	ret    

00000000000006bf <sgx_hello>:
     6bf:	55                   	push   rbp
     6c0:	48 89 e5             	mov    rbp,rsp
     6c3:	48 83 ec 20          	sub    rsp,0x20
     6c7:	48 89 7d e8          	mov    QWORD PTR [rbp-0x18],rdi
     6cb:	c7 45 fc 00 00 00 00 	mov    DWORD PTR [rbp-0x4],0x0
     6d2:	48 83 7d e8 00       	cmp    QWORD PTR [rbp-0x18],0x0
     6d7:	74 07                	je     6e0 <sgx_hello+0x21>
     6d9:	b8 02 00 00 00       	mov    eax,0x2
     6de:	eb 08                	jmp    6e8 <sgx_hello+0x29>
     6e0:	e8 6d 01 00 00       	call   852 <hello>
     6e5:	8b 45 fc             	mov    eax,DWORD PTR [rbp-0x4]
     6e8:	c9                   	leave  
     6e9:	c3                   	ret    

00000000000006ea <ocall_print_string>:
     6ea:	55                   	push   rbp
     6eb:	48 89 e5             	mov    rbp,rsp
     6ee:	48 83 ec 40          	sub    rsp,0x40
     6f2:	48 89 7d c8          	mov    QWORD PTR [rbp-0x38],rdi
     6f6:	c7 45 dc 00 00 00 00 	mov    DWORD PTR [rbp-0x24],0x0
     6fd:	48 83 7d c8 00       	cmp    QWORD PTR [rbp-0x38],0x0
     702:	74 12                	je     716 <ocall_print_string+0x2c>
     704:	48 8b 45 c8          	mov    rax,QWORD PTR [rbp-0x38]
     708:	48 89 c7             	mov    rdi,rax
     70b:	e8 f0 62 00 00       	call   6a00 <strlen>
     710:	48 83 c0 01          	add    rax,0x1
     714:	eb 05                	jmp    71b <ocall_print_string+0x31>
     716:	b8 00 00 00 00       	mov    eax,0x0
     71b:	48 89 45 e0          	mov    QWORD PTR [rbp-0x20],rax
     71f:	48 c7 45 e8 00 00 00 	mov    QWORD PTR [rbp-0x18],0x0
     726:	00 
     727:	48 c7 45 f0 08 00 00 	mov    QWORD PTR [rbp-0x10],0x8
     72e:	00 
     72f:	48 c7 45 f8 00 00 00 	mov    QWORD PTR [rbp-0x8],0x0
     736:	00 
     737:	48 83 7d c8 00       	cmp    QWORD PTR [rbp-0x38],0x0
     73c:	74 21                	je     75f <ocall_print_string+0x75>
     73e:	48 8b 55 e0          	mov    rdx,QWORD PTR [rbp-0x20]
     742:	48 8b 45 c8          	mov    rax,QWORD PTR [rbp-0x38]
     746:	48 89 d6             	mov    rsi,rdx
     749:	48 89 c7             	mov    rdi,rax
     74c:	e8 9f 03 00 00       	call   af0 <sgx_is_within_enclave>
     751:	85 c0                	test   eax,eax
     753:	75 0a                	jne    75f <ocall_print_string+0x75>
     755:	b8 02 00 00 00       	mov    eax,0x2
     75a:	e9 f1 00 00 00       	jmp    850 <ocall_print_string+0x166>
     75f:	48 83 7d c8 00       	cmp    QWORD PTR [rbp-0x38],0x0
     764:	74 06                	je     76c <ocall_print_string+0x82>
     766:	48 8b 45 e0          	mov    rax,QWORD PTR [rbp-0x20]
     76a:	eb 05                	jmp    771 <ocall_print_string+0x87>
     76c:	b8 00 00 00 00       	mov    eax,0x0
     771:	48 01 45 f0          	add    QWORD PTR [rbp-0x10],rax
     775:	48 83 7d c8 00       	cmp    QWORD PTR [rbp-0x38],0x0
     77a:	74 06                	je     782 <ocall_print_string+0x98>
     77c:	48 8b 45 e0          	mov    rax,QWORD PTR [rbp-0x20]
     780:	eb 05                	jmp    787 <ocall_print_string+0x9d>
     782:	b8 00 00 00 00       	mov    eax,0x0
     787:	48 39 45 f0          	cmp    QWORD PTR [rbp-0x10],rax
     78b:	73 0a                	jae    797 <ocall_print_string+0xad>
     78d:	b8 02 00 00 00       	mov    eax,0x2
     792:	e9 b9 00 00 00       	jmp    850 <ocall_print_string+0x166>
     797:	48 8b 45 f0          	mov    rax,QWORD PTR [rbp-0x10]
     79b:	48 89 c7             	mov    rdi,rax
     79e:	e8 ed 03 00 00       	call   b90 <sgx_ocalloc>
     7a3:	48 89 45 f8          	mov    QWORD PTR [rbp-0x8],rax
     7a7:	48 83 7d f8 00       	cmp    QWORD PTR [rbp-0x8],0x0
     7ac:	75 0f                	jne    7bd <ocall_print_string+0xd3>
     7ae:	e8 cd 04 00 00       	call   c80 <sgx_ocfree>
     7b3:	b8 01 00 00 00       	mov    eax,0x1
     7b8:	e9 93 00 00 00       	jmp    850 <ocall_print_string+0x166>
     7bd:	48 8b 45 f8          	mov    rax,QWORD PTR [rbp-0x8]
     7c1:	48 89 45 e8          	mov    QWORD PTR [rbp-0x18],rax
     7c5:	48 8b 45 f8          	mov    rax,QWORD PTR [rbp-0x8]
     7c9:	48 83 c0 08          	add    rax,0x8
     7cd:	48 89 45 f8          	mov    QWORD PTR [rbp-0x8],rax
     7d1:	48 83 6d f0 08       	sub    QWORD PTR [rbp-0x10],0x8
     7d6:	48 83 7d c8 00       	cmp    QWORD PTR [rbp-0x38],0x0
     7db:	74 4c                	je     829 <ocall_print_string+0x13f>
     7dd:	48 8b 45 e8          	mov    rax,QWORD PTR [rbp-0x18]
     7e1:	48 8b 55 f8          	mov    rdx,QWORD PTR [rbp-0x8]
     7e5:	48 89 10             	mov    QWORD PTR [rax],rdx
     7e8:	48 8b 4d e0          	mov    rcx,QWORD PTR [rbp-0x20]
     7ec:	48 8b 55 c8          	mov    rdx,QWORD PTR [rbp-0x38]
     7f0:	48 8b 75 f0          	mov    rsi,QWORD PTR [rbp-0x10]
     7f4:	48 8b 45 f8          	mov    rax,QWORD PTR [rbp-0x8]
     7f8:	48 89 c7             	mov    rdi,rax
     7fb:	e8 20 63 00 00       	call   6b20 <memcpy_s>
     800:	85 c0                	test   eax,eax
     802:	74 0c                	je     810 <ocall_print_string+0x126>
     804:	e8 77 04 00 00       	call   c80 <sgx_ocfree>
     809:	b8 01 00 00 00       	mov    eax,0x1
     80e:	eb 40                	jmp    850 <ocall_print_string+0x166>
     810:	48 8b 55 f8          	mov    rdx,QWORD PTR [rbp-0x8]
     814:	48 8b 45 e0          	mov    rax,QWORD PTR [rbp-0x20]
     818:	48 01 d0             	add    rax,rdx
     81b:	48 89 45 f8          	mov    QWORD PTR [rbp-0x8],rax
     81f:	48 8b 45 e0          	mov    rax,QWORD PTR [rbp-0x20]
     823:	48 29 45 f0          	sub    QWORD PTR [rbp-0x10],rax
     827:	eb 0b                	jmp    834 <ocall_print_string+0x14a>
     829:	48 8b 45 e8          	mov    rax,QWORD PTR [rbp-0x18]
     82d:	48 c7 00 00 00 00 00 	mov    QWORD PTR [rax],0x0
     834:	48 8b 45 e8          	mov    rax,QWORD PTR [rbp-0x18]
     838:	48 89 c6             	mov    rsi,rax
     83b:	bf 00 00 00 00       	mov    edi,0x0
     840:	e8 5b 19 00 00       	call   21a0 <sgx_ocall>
     845:	89 45 dc             	mov    DWORD PTR [rbp-0x24],eax
     848:	e8 33 04 00 00       	call   c80 <sgx_ocfree>
     84d:	8b 45 dc             	mov    eax,DWORD PTR [rbp-0x24]
     850:	c9                   	leave  
     851:	c3                   	ret    

0000000000000852 <hello>:
     852:	55                   	push   rbp
     853:	48 89 e5             	mov    rbp,rsp
     856:	48 8d 3d 53 33 02 00 	lea    rdi,[rip+0x23353]        # 23bb0 <g_dyn_entry_table+0x10>
     85d:	b8 00 00 00 00       	mov    eax,0x0
     862:	e8 03 00 00 00       	call   86a <printf>
     867:	90                   	nop
     868:	5d                   	pop    rbp
     869:	c3                   	ret    

000000000000086a <printf>:
     86a:	55                   	push   rbp
     86b:	48 89 e5             	mov    rbp,rsp
     86e:	48 81 ec f0 20 00 00 	sub    rsp,0x20f0
     875:	48 89 bd 18 df ff ff 	mov    QWORD PTR [rbp-0x20e8],rdi
     87c:	48 89 b5 58 ff ff ff 	mov    QWORD PTR [rbp-0xa8],rsi
     883:	48 89 95 60 ff ff ff 	mov    QWORD PTR [rbp-0xa0],rdx
     88a:	48 89 8d 68 ff ff ff 	mov    QWORD PTR [rbp-0x98],rcx
     891:	4c 89 85 70 ff ff ff 	mov    QWORD PTR [rbp-0x90],r8
     898:	4c 89 8d 78 ff ff ff 	mov    QWORD PTR [rbp-0x88],r9
     89f:	84 c0                	test   al,al
     8a1:	74 20                	je     8c3 <printf+0x59>
     8a3:	0f 29 45 80          	movaps XMMWORD PTR [rbp-0x80],xmm0
     8a7:	0f 29 4d 90          	movaps XMMWORD PTR [rbp-0x70],xmm1
     8ab:	0f 29 55 a0          	movaps XMMWORD PTR [rbp-0x60],xmm2
     8af:	0f 29 5d b0          	movaps XMMWORD PTR [rbp-0x50],xmm3
     8b3:	0f 29 65 c0          	movaps XMMWORD PTR [rbp-0x40],xmm4
     8b7:	0f 29 6d d0          	movaps XMMWORD PTR [rbp-0x30],xmm5
     8bb:	0f 29 75 e0          	movaps XMMWORD PTR [rbp-0x20],xmm6
     8bf:	0f 29 7d f0          	movaps XMMWORD PTR [rbp-0x10],xmm7
     8c3:	64 48 8b 04 25 28 00 	mov    rax,QWORD PTR fs:0x28
     8ca:	00 00 
     8cc:	48 89 85 48 ff ff ff 	mov    QWORD PTR [rbp-0xb8],rax
     8d3:	31 c0                	xor    eax,eax
     8d5:	48 8d 95 40 df ff ff 	lea    rdx,[rbp-0x20c0]
     8dc:	b8 00 00 00 00       	mov    eax,0x0
     8e1:	b9 00 04 00 00       	mov    ecx,0x400
     8e6:	48 89 d7             	mov    rdi,rdx
     8e9:	f3 48 ab             	rep stos QWORD PTR es:[rdi],rax
     8ec:	c7 85 28 df ff ff 08 	mov    DWORD PTR [rbp-0x20d8],0x8
     8f3:	00 00 00 
     8f6:	c7 85 2c df ff ff 30 	mov    DWORD PTR [rbp-0x20d4],0x30
     8fd:	00 00 00 
     900:	48 8d 45 10          	lea    rax,[rbp+0x10]
     904:	48 89 85 30 df ff ff 	mov    QWORD PTR [rbp-0x20d0],rax
     90b:	48 8d 85 50 ff ff ff 	lea    rax,[rbp-0xb0]
     912:	48 89 85 38 df ff ff 	mov    QWORD PTR [rbp-0x20c8],rax
     919:	48 8d 8d 28 df ff ff 	lea    rcx,[rbp-0x20d8]
     920:	48 8b 95 18 df ff ff 	mov    rdx,QWORD PTR [rbp-0x20e8]
     927:	48 8d 85 40 df ff ff 	lea    rax,[rbp-0x20c0]
     92e:	be 00 20 00 00       	mov    esi,0x2000
     933:	48 89 c7             	mov    rdi,rax
     936:	e8 15 61 00 00       	call   6a50 <vsnprintf>
     93b:	48 8d 85 40 df ff ff 	lea    rax,[rbp-0x20c0]
     942:	48 89 c7             	mov    rdi,rax
     945:	e8 a0 fd ff ff       	call   6ea <ocall_print_string>
     94a:	48 8d 85 40 df ff ff 	lea    rax,[rbp-0x20c0]
     951:	be ff 1f 00 00       	mov    esi,0x1fff
     956:	48 89 c7             	mov    rdi,rax
     959:	e8 b2 60 00 00       	call   6a10 <strnlen>
     95e:	83 c0 01             	add    eax,0x1
     961:	48 8b b5 48 ff ff ff 	mov    rsi,QWORD PTR [rbp-0xb8]
     968:	64 48 33 34 25 28 00 	xor    rsi,QWORD PTR fs:0x28
     96f:	00 00 
     971:	74 05                	je     978 <printf+0x10e>
     973:	e8 b8 29 00 00       	call   3330 <__stack_chk_fail>
     978:	c9                   	leave  
     979:	c3                   	ret    
     97a:	66 0f 1f 44 00 00    	nop    WORD PTR [rax+rax*1+0x0]

0000000000000980 <init_optimized_libs>:
     980:	48 8d 05 9d 7f 22 00 	lea    rax,[rip+0x227f9d]        # 228924 <g_enclave_state>
     987:	83 38 01             	cmp    DWORD PTR [rax],0x1
     98a:	0f 85 50 01 00 00    	jne    ae0 <init_optimized_libs+0x160>
     990:	55                   	push   rbp
     991:	53                   	push   rbx
     992:	48 b8 00 00 00 00 00 	movabs rax,0xff00000000000000
     999:	00 00 ff 
     99c:	48 89 f5             	mov    rbp,rsi
     99f:	48 83 ec 08          	sub    rsp,0x8
     9a3:	48 85 c7             	test   rdi,rax
     9a6:	0f 85 d4 00 00 00    	jne    a80 <init_optimized_libs+0x100>
     9ac:	48 f7 c7 00 fe ff ff 	test   rdi,0xfffffffffffffe00
     9b3:	0f 84 ef 00 00 00    	je     aa8 <init_optimized_libs+0x128>
     9b9:	40 f6 c7 20          	test   dil,0x20
     9bd:	74 10                	je     9cf <init_optimized_libs+0x4f>
     9bf:	48 89 f8             	mov    rax,rdi
     9c2:	83 e0 1f             	and    eax,0x1f
     9c5:	48 83 f8 1f          	cmp    rax,0x1f
     9c9:	0f 85 d9 00 00 00    	jne    aa8 <init_optimized_libs+0x128>
     9cf:	40 f6 c7 40          	test   dil,0x40
     9d3:	74 10                	je     9e5 <init_optimized_libs+0x65>
     9d5:	48 89 f8             	mov    rax,rdi
     9d8:	83 e0 3f             	and    eax,0x3f
     9db:	48 83 f8 3f          	cmp    rax,0x3f
     9df:	0f 85 c3 00 00 00    	jne    aa8 <init_optimized_libs+0x128>
     9e5:	40 f6 c7 80          	test   dil,0x80
     9e9:	74 10                	je     9fb <init_optimized_libs+0x7b>
     9eb:	48 89 f8             	mov    rax,rdi
     9ee:	83 e0 7f             	and    eax,0x7f
     9f1:	48 83 f8 7f          	cmp    rax,0x7f
     9f5:	0f 85 ad 00 00 00    	jne    aa8 <init_optimized_libs+0x128>
     9fb:	f7 c7 00 01 00 00    	test   edi,0x100
     a01:	74 10                	je     a13 <init_optimized_libs+0x93>
     a03:	40 0f b6 c7          	movzx  eax,dil
     a07:	48 3d ff 00 00 00    	cmp    rax,0xff
     a0d:	0f 85 95 00 00 00    	jne    aa8 <init_optimized_libs+0x128>
     a13:	f7 c7 00 02 00 00    	test   edi,0x200
     a19:	74 10                	je     a2b <init_optimized_libs+0xab>
     a1b:	48 89 f8             	mov    rax,rdi
     a1e:	25 ff 01 00 00       	and    eax,0x1ff
     a23:	48 3d ff 01 00 00    	cmp    rax,0x1ff
     a29:	75 7d                	jne    aa8 <init_optimized_libs+0x128>
     a2b:	f7 c7 00 04 00 00    	test   edi,0x400
     a31:	75 65                	jne    a98 <init_optimized_libs+0x118>
     a33:	48 89 d0             	mov    rax,rdx
     a36:	83 e0 06             	and    eax,0x6
     a39:	48 83 f8 06          	cmp    rax,0x6
     a3d:	74 79                	je     ab8 <init_optimized_libs+0x138>
     a3f:	48 b8 ff 7f 12 86 08 	movabs rax,0xfffe200886127fff
     a46:	20 fe ff 
     a49:	48 21 c7             	and    rdi,rax
     a4c:	48 8d 1d 55 73 22 00 	lea    rbx,[rip+0x227355]        # 227da8 <g_cpu_feature_indicator>
     a53:	48 89 3b             	mov    QWORD PTR [rbx],rdi
     a56:	e8 95 5d 00 00       	call   67f0 <sgx_init_string_lib>
     a5b:	85 c0                	test   eax,eax
     a5d:	75 49                	jne    aa8 <init_optimized_libs+0x128>
     a5f:	48 8b 3b             	mov    rdi,QWORD PTR [rbx]
     a62:	48 89 ee             	mov    rsi,rbp
     a65:	e8 e6 23 02 00       	call   22e50 <sgx_init_crypto_lib>
     a6a:	85 c0                	test   eax,eax
     a6c:	0f 95 c0             	setne  al
     a6f:	48 83 c4 08          	add    rsp,0x8
     a73:	0f b6 c0             	movzx  eax,al
     a76:	f7 d8                	neg    eax
     a78:	5b                   	pop    rbx
     a79:	5d                   	pop    rbp
     a7a:	c3                   	ret    
     a7b:	0f 1f 44 00 00       	nop    DWORD PTR [rax+rax*1+0x0]
     a80:	48 b8 ff ff ff ff ff 	movabs rax,0xffffffffffffff
     a87:	ff ff 00 
     a8a:	48 21 c7             	and    rdi,rax
     a8d:	e9 1a ff ff ff       	jmp    9ac <init_optimized_libs+0x2c>
     a92:	66 0f 1f 44 00 00    	nop    WORD PTR [rax+rax*1+0x0]
     a98:	48 89 f8             	mov    rax,rdi
     a9b:	25 ff 03 00 00       	and    eax,0x3ff
     aa0:	48 3d ff 03 00 00    	cmp    rax,0x3ff
     aa6:	74 8b                	je     a33 <init_optimized_libs+0xb3>
     aa8:	48 83 c4 08          	add    rsp,0x8
     aac:	b8 ff ff ff ff       	mov    eax,0xffffffff
     ab1:	5b                   	pop    rbx
     ab2:	5d                   	pop    rbp
     ab3:	c3                   	ret    
     ab4:	0f 1f 40 00          	nop    DWORD PTR [rax+0x0]
     ab8:	81 e2 e0 00 00 00    	and    edx,0xe0
     abe:	48 81 fa e0 00 00 00 	cmp    rdx,0xe0
     ac5:	74 85                	je     a4c <init_optimized_libs+0xcc>
     ac7:	48 b8 ff ff ff b6 18 	movabs rax,0xfffee018b6ffffff
     ace:	e0 fe ff 
     ad1:	48 21 c7             	and    rdi,rax
     ad4:	e9 73 ff ff ff       	jmp    a4c <init_optimized_libs+0xcc>
     ad9:	0f 1f 80 00 00 00 00 	nop    DWORD PTR [rax+0x0]
     ae0:	b8 ff ff ff ff       	mov    eax,0xffffffff
     ae5:	c3                   	ret    
     ae6:	66 2e 0f 1f 84 00 00 	nop    WORD PTR cs:[rax+rax*1+0x0]
     aed:	00 00 00 

0000000000000af0 <sgx_is_within_enclave>:
     af0:	48 8d 05 89 3e 02 00 	lea    rax,[rip+0x23e89]        # 24980 <g_global_data>
     af7:	48 8d 0d 02 f5 ff ff 	lea    rcx,[rip+0xfffffffffffff502]        # 0 <enclave.so>
     afe:	48 85 f6             	test   rsi,rsi
     b01:	48 8b 00             	mov    rax,QWORD PTR [rax]
     b04:	4c 8d 44 08 ff       	lea    r8,[rax+rcx*1-0x1]
     b09:	74 25                	je     b30 <sgx_is_within_enclave+0x40>
     b0b:	48 83 ee 01          	sub    rsi,0x1
     b0f:	48 01 fe             	add    rsi,rdi
     b12:	0f 93 c2             	setae  dl
     b15:	48 39 cf             	cmp    rdi,rcx
     b18:	0f 93 c0             	setae  al
     b1b:	21 c2                	and    edx,eax
     b1d:	31 c0                	xor    eax,eax
     b1f:	4c 39 c6             	cmp    rsi,r8
     b22:	0f 96 c0             	setbe  al
     b25:	21 d0                	and    eax,edx
     b27:	c3                   	ret    
     b28:	0f 1f 84 00 00 00 00 	nop    DWORD PTR [rax+rax*1+0x0]
     b2f:	00 
     b30:	48 89 fe             	mov    rsi,rdi
     b33:	ba 01 00 00 00       	mov    edx,0x1
     b38:	eb db                	jmp    b15 <sgx_is_within_enclave+0x25>
     b3a:	66 0f 1f 44 00 00    	nop    WORD PTR [rax+rax*1+0x0]

0000000000000b40 <sgx_is_outside_enclave>:
     b40:	48 8d 05 39 3e 02 00 	lea    rax,[rip+0x23e39]        # 24980 <g_global_data>
     b47:	48 85 f6             	test   rsi,rsi
     b4a:	48 8b 00             	mov    rax,QWORD PTR [rax]
     b4d:	74 11                	je     b60 <sgx_is_outside_enclave+0x20>
     b4f:	48 83 ee 01          	sub    rsi,0x1
     b53:	48 01 fe             	add    rsi,rdi
     b56:	73 0b                	jae    b63 <sgx_is_outside_enclave+0x23>
     b58:	31 c0                	xor    eax,eax
     b5a:	c3                   	ret    
     b5b:	0f 1f 44 00 00       	nop    DWORD PTR [rax+rax*1+0x0]
     b60:	48 89 fe             	mov    rsi,rdi
     b63:	48 8d 15 96 f4 ff ff 	lea    rdx,[rip+0xfffffffffffff496]        # 0 <enclave.so>
     b6a:	48 8d 44 10 ff       	lea    rax,[rax+rdx*1-0x1]
     b6f:	48 39 c7             	cmp    rdi,rax
     b72:	0f 97 c0             	seta   al
     b75:	48 39 f2             	cmp    rdx,rsi
     b78:	0f 97 c2             	seta   dl
     b7b:	09 d0                	or     eax,edx
     b7d:	0f b6 c0             	movzx  eax,al
     b80:	c3                   	ret    
     b81:	66 2e 0f 1f 84 00 00 	nop    WORD PTR cs:[rax+rax*1+0x0]
     b88:	00 00 00 
     b8b:	0f 1f 44 00 00       	nop    DWORD PTR [rax+rax*1+0x0]

0000000000000b90 <sgx_ocalloc>:
     b90:	53                   	push   rbx
     b91:	48 89 fb             	mov    rbx,rdi
     b94:	48 83 ec 10          	sub    rsp,0x10
     b98:	e8 93 2c 02 00       	call   23830 <get_thread_data>
     b9d:	4c 8d 05 dc 3d 02 00 	lea    r8,[rip+0x23ddc]        # 24980 <g_global_data>
     ba4:	48 8b 70 20          	mov    rsi,QWORD PTR [rax+0x20]
     ba8:	48 8d 3d 51 f4 ff ff 	lea    rdi,[rip+0xfffffffffffff451]        # 0 <enclave.so>
     baf:	49 8b 00             	mov    rax,QWORD PTR [r8]
     bb2:	48 8b 96 90 00 00 00 	mov    rdx,QWORD PTR [rsi+0x90]
     bb9:	48 8d 4c 07 ff       	lea    rcx,[rdi+rax*1-0x1]
     bbe:	48 89 d0             	mov    rax,rdx
     bc1:	48 83 c0 07          	add    rax,0x7
     bc5:	0f 82 ae 00 00 00    	jb     c79 <sgx_ocalloc+0xe9>
     bcb:	48 39 c7             	cmp    rdi,rax
     bce:	77 09                	ja     bd9 <sgx_ocalloc+0x49>
     bd0:	48 39 ca             	cmp    rdx,rcx
     bd3:	0f 86 a0 00 00 00    	jbe    c79 <sgx_ocalloc+0xe9>
     bd9:	48 39 da             	cmp    rdx,rbx
     bdc:	0f 82 97 00 00 00    	jb     c79 <sgx_ocalloc+0xe9>
     be2:	48 89 d1             	mov    rcx,rdx
     be5:	4d 8b 00             	mov    r8,QWORD PTR [r8]
     be8:	48 29 d9             	sub    rcx,rbx
     beb:	48 89 c8             	mov    rax,rcx
     bee:	48 83 e0 f0          	and    rax,0xfffffffffffffff0
     bf2:	48 85 db             	test   rbx,rbx
     bf5:	4e 8d 44 07 ff       	lea    r8,[rdi+r8*1-0x1]
     bfa:	75 74                	jne    c70 <sgx_ocalloc+0xe0>
     bfc:	48 89 c3             	mov    rbx,rax
     bff:	48 39 df             	cmp    rdi,rbx
     c02:	77 05                	ja     c09 <sgx_ocalloc+0x79>
     c04:	4c 39 c0             	cmp    rax,r8
     c07:	76 70                	jbe    c79 <sgx_ocalloc+0xe9>
     c09:	48 83 ea 01          	sub    rdx,0x1
     c0d:	48 81 e2 00 f0 ff ff 	and    rdx,0xfffffffffffff000
     c14:	48 81 e1 00 f0 ff ff 	and    rcx,0xfffffffffffff000
     c1b:	74 5c                	je     c79 <sgx_ocalloc+0xe9>
     c1d:	48 89 54 24 08       	mov    QWORD PTR [rsp+0x8],rdx
     c22:	48 8b 54 24 08       	mov    rdx,QWORD PTR [rsp+0x8]
     c27:	48 39 d1             	cmp    rcx,rdx
     c2a:	77 33                	ja     c5f <sgx_ocalloc+0xcf>
     c2c:	0f 1f 40 00          	nop    DWORD PTR [rax+0x0]
     c30:	48 8b 54 24 08       	mov    rdx,QWORD PTR [rsp+0x8]
     c35:	48 89 96 90 00 00 00 	mov    QWORD PTR [rsi+0x90],rdx
     c3c:	48 8b 54 24 08       	mov    rdx,QWORD PTR [rsp+0x8]
     c41:	c6 02 00             	mov    BYTE PTR [rdx],0x0
     c44:	48 8b 54 24 08       	mov    rdx,QWORD PTR [rsp+0x8]
     c49:	48 81 ea 00 10 00 00 	sub    rdx,0x1000
     c50:	48 89 54 24 08       	mov    QWORD PTR [rsp+0x8],rdx
     c55:	48 8b 54 24 08       	mov    rdx,QWORD PTR [rsp+0x8]
     c5a:	48 39 ca             	cmp    rdx,rcx
     c5d:	73 d1                	jae    c30 <sgx_ocalloc+0xa0>
     c5f:	48 89 86 90 00 00 00 	mov    QWORD PTR [rsi+0x90],rax
     c66:	48 83 c4 10          	add    rsp,0x10
     c6a:	5b                   	pop    rbx
     c6b:	c3                   	ret    
     c6c:	0f 1f 40 00          	nop    DWORD PTR [rax+0x0]
     c70:	48 83 eb 01          	sub    rbx,0x1
     c74:	48 01 c3             	add    rbx,rax
     c77:	73 86                	jae    bff <sgx_ocalloc+0x6f>
     c79:	e8 ae 2e 02 00       	call   23b2c <abort>
     c7e:	66 90                	xchg   ax,ax

0000000000000c80 <sgx_ocfree>:
     c80:	48 83 ec 08          	sub    rsp,0x8
     c84:	e8 a7 2b 02 00       	call   23830 <get_thread_data>
     c89:	48 8d 0d f0 3c 02 00 	lea    rcx,[rip+0x23cf0]        # 24980 <g_global_data>
     c90:	48 8b 70 20          	mov    rsi,QWORD PTR [rax+0x20]
     c94:	48 8b 40 08          	mov    rax,QWORD PTR [rax+0x8]
     c98:	48 8d 15 61 f3 ff ff 	lea    rdx,[rip+0xfffffffffffff361]        # 0 <enclave.so>
     c9f:	48 8b 09             	mov    rcx,QWORD PTR [rcx]
     ca2:	48 8b 40 e8          	mov    rax,QWORD PTR [rax-0x18]
     ca6:	48 8d 7c 0a ff       	lea    rdi,[rdx+rcx*1-0x1]
     cab:	48 89 c1             	mov    rcx,rax
     cae:	48 83 c1 07          	add    rcx,0x7
     cb2:	72 16                	jb     cca <sgx_ocfree+0x4a>
     cb4:	48 39 ca             	cmp    rdx,rcx
     cb7:	77 05                	ja     cbe <sgx_ocfree+0x3e>
     cb9:	48 39 f8             	cmp    rax,rdi
     cbc:	76 0c                	jbe    cca <sgx_ocfree+0x4a>
     cbe:	48 89 86 90 00 00 00 	mov    QWORD PTR [rsi+0x90],rax
     cc5:	48 83 c4 08          	add    rsp,0x8
     cc9:	c3                   	ret    
     cca:	e8 5d 2e 02 00       	call   23b2c <abort>
     ccf:	90                   	nop

0000000000000cd0 <sgx_read_rand>:
     cd0:	41 56                	push   r14
     cd2:	41 55                	push   r13
     cd4:	41 54                	push   r12
     cd6:	55                   	push   rbp
     cd7:	53                   	push   rbx
     cd8:	48 83 ec 10          	sub    rsp,0x10
     cdc:	64 48 8b 04 25 28 00 	mov    rax,QWORD PTR fs:0x28
     ce3:	00 00 
     ce5:	48 89 44 24 08       	mov    QWORD PTR [rsp+0x8],rax
     cea:	31 c0                	xor    eax,eax
     cec:	48 85 ff             	test   rdi,rdi
     cef:	0f 84 cb 00 00 00    	je     dc0 <sgx_read_rand+0xf0>
     cf5:	48 85 f6             	test   rsi,rsi
     cf8:	48 89 f3             	mov    rbx,rsi
     cfb:	0f 84 bf 00 00 00    	je     dc0 <sgx_read_rand+0xf0>
     d01:	48 8d 43 ff          	lea    rax,[rbx-0x1]
     d05:	49 89 fc             	mov    r12,rdi
     d08:	48 8d 35 71 3c 02 00 	lea    rsi,[rip+0x23c71]        # 24980 <g_global_data>
     d0f:	48 8d 0d ea f2 ff ff 	lea    rcx,[rip+0xfffffffffffff2ea]        # 0 <enclave.so>
     d16:	4c 01 e0             	add    rax,r12
     d19:	41 0f 92 c0          	setb   r8b
     d1d:	48 8b 3e             	mov    rdi,QWORD PTR [rsi]
     d20:	48 89 c2             	mov    rdx,rax
     d23:	45 0f b6 c0          	movzx  r8d,r8b
     d27:	0f 82 db 00 00 00    	jb     e08 <sgx_read_rand+0x138>
     d2d:	49 39 cc             	cmp    r12,rcx
     d30:	0f 82 d2 00 00 00    	jb     e08 <sgx_read_rand+0x138>
     d36:	48 8d 44 39 ff       	lea    rax,[rcx+rdi*1-0x1]
     d3b:	48 39 d0             	cmp    rax,rdx
     d3e:	0f 82 9c 00 00 00    	jb     de0 <sgx_read_rand+0x110>
     d44:	4c 8d 6c 24 04       	lea    r13,[rsp+0x4]
     d49:	c7 44 24 04 00 00 00 	mov    DWORD PTR [rsp+0x4],0x0
     d50:	00 
     d51:	41 be 04 00 00 00    	mov    r14d,0x4
     d57:	66 0f 1f 84 00 00 00 	nop    WORD PTR [rax+rax*1+0x0]
     d5e:	00 00 
     d60:	4c 89 ef             	mov    rdi,r13
     d63:	e8 a5 2d 02 00       	call   23b0d <do_rdrand>
     d68:	85 c0                	test   eax,eax
     d6a:	74 64                	je     dd0 <sgx_read_rand+0x100>
     d6c:	48 83 fb 04          	cmp    rbx,0x4
     d70:	4c 89 f5             	mov    rbp,r14
     d73:	4c 89 e7             	mov    rdi,r12
     d76:	48 0f 46 eb          	cmovbe rbp,rbx
     d7a:	4c 89 ee             	mov    rsi,r13
     d7d:	48 89 ea             	mov    rdx,rbp
     d80:	49 01 ec             	add    r12,rbp
     d83:	e8 68 58 00 00       	call   65f0 <memcpy>
     d88:	48 29 eb             	sub    rbx,rbp
     d8b:	75 d3                	jne    d60 <sgx_read_rand+0x90>
     d8d:	b9 04 00 00 00       	mov    ecx,0x4
     d92:	31 d2                	xor    edx,edx
     d94:	be 04 00 00 00       	mov    esi,0x4
     d99:	4c 89 ef             	mov    rdi,r13
     d9c:	e8 8f 58 00 00       	call   6630 <memset_s>
     da1:	31 c0                	xor    eax,eax
     da3:	48 8b 4c 24 08       	mov    rcx,QWORD PTR [rsp+0x8]
     da8:	64 48 33 0c 25 28 00 	xor    rcx,QWORD PTR fs:0x28
     daf:	00 00 
     db1:	75 69                	jne    e1c <sgx_read_rand+0x14c>
     db3:	48 83 c4 10          	add    rsp,0x10
     db7:	5b                   	pop    rbx
     db8:	5d                   	pop    rbp
     db9:	41 5c                	pop    r12
     dbb:	41 5d                	pop    r13
     dbd:	41 5e                	pop    r14
     dbf:	c3                   	ret    
     dc0:	b8 02 00 00 00       	mov    eax,0x2
     dc5:	eb dc                	jmp    da3 <sgx_read_rand+0xd3>
     dc7:	66 0f 1f 84 00 00 00 	nop    WORD PTR [rax+rax*1+0x0]
     dce:	00 00 
     dd0:	b8 01 00 00 00       	mov    eax,0x1
     dd5:	eb cc                	jmp    da3 <sgx_read_rand+0xd3>
     dd7:	66 0f 1f 84 00 00 00 	nop    WORD PTR [rax+rax*1+0x0]
     dde:	00 00 
     de0:	48 8b 06             	mov    rax,QWORD PTR [rsi]
     de3:	48 8d 74 01 ff       	lea    rsi,[rcx+rax*1-0x1]
     de8:	48 39 d1             	cmp    rcx,rdx
     deb:	0f 87 53 ff ff ff    	ja     d44 <sgx_read_rand+0x74>
     df1:	49 39 f4             	cmp    r12,rsi
     df4:	b8 02 00 00 00       	mov    eax,0x2
     df9:	0f 87 45 ff ff ff    	ja     d44 <sgx_read_rand+0x74>
     dff:	eb a2                	jmp    da3 <sgx_read_rand+0xd3>
     e01:	0f 1f 80 00 00 00 00 	nop    DWORD PTR [rax+0x0]
     e08:	4d 85 c0             	test   r8,r8
     e0b:	48 8b 36             	mov    rsi,QWORD PTR [rsi]
     e0e:	b8 02 00 00 00       	mov    eax,0x2
     e13:	75 8e                	jne    da3 <sgx_read_rand+0xd3>
     e15:	48 8d 74 31 ff       	lea    rsi,[rcx+rsi*1-0x1]
     e1a:	eb cc                	jmp    de8 <sgx_read_rand+0x118>
     e1c:	e8 0f 25 00 00       	call   3330 <__stack_chk_fail>
     e21:	66 2e 0f 1f 84 00 00 	nop    WORD PTR cs:[rax+rax*1+0x0]
     e28:	00 00 00 
     e2b:	0f 1f 44 00 00       	nop    DWORD PTR [rax+rax*1+0x0]

0000000000000e30 <check_static_stack_canary>:
     e30:	48 8d 05 61 6f 22 00 	lea    rax,[rip+0x226f61]        # 227d98 <__intel_security_cookie>
     e37:	48 8b 00             	mov    rax,QWORD PTR [rax]
     e3a:	48 39 87 58 fd fe ff 	cmp    QWORD PTR [rdi-0x102a8],rax
     e41:	0f 95 c0             	setne  al
     e44:	0f b6 c0             	movzx  eax,al
     e47:	f7 d8                	neg    eax
     e49:	c3                   	ret    
     e4a:	66 0f 1f 44 00 00    	nop    WORD PTR [rax+rax*1+0x0]

0000000000000e50 <random_stack_notify_gdb>:
     e50:	f3 c3                	repz ret 
     e52:	66 2e 0f 1f 84 00 00 	nop    WORD PTR cs:[rax+rax*1+0x0]
     e59:	00 00 00 
     e5c:	0f 1f 40 00          	nop    DWORD PTR [rax+0x0]

0000000000000e60 <_ZL19sgx_accept_backwardmmm>:
     e60:	4c 8d 54 24 08       	lea    r10,[rsp+0x8]
     e65:	48 83 e4 c0          	and    rsp,0xffffffffffffffc0
     e69:	41 ff 72 f8          	push   QWORD PTR [r10-0x8]
     e6d:	55                   	push   rbp
     e6e:	48 89 e5             	mov    rbp,rsp
     e71:	41 55                	push   r13
     e73:	41 54                	push   r12
     e75:	41 52                	push   r10
     e77:	53                   	push   rbx
     e78:	48 81 ec 90 00 00 00 	sub    rsp,0x90
     e7f:	48 89 bd 50 ff ff ff 	mov    QWORD PTR [rbp-0xb0],rdi
     e86:	48 c7 85 58 ff ff ff 	mov    QWORD PTR [rbp-0xa8],0x0
     e8d:	00 00 00 00 
     e91:	64 48 8b 04 25 28 00 	mov    rax,QWORD PTR fs:0x28
     e98:	00 00 
     e9a:	48 89 45 c8          	mov    QWORD PTR [rbp-0x38],rax
     e9e:	31 c0                	xor    eax,eax
     ea0:	48 39 f2             	cmp    rdx,rsi
     ea3:	48 c7 85 60 ff ff ff 	mov    QWORD PTR [rbp-0xa0],0x0
     eaa:	00 00 00 00 
     eae:	48 c7 85 68 ff ff ff 	mov    QWORD PTR [rbp-0x98],0x0
     eb5:	00 00 00 00 
     eb9:	48 c7 85 70 ff ff ff 	mov    QWORD PTR [rbp-0x90],0x0
     ec0:	00 00 00 00 
     ec4:	48 c7 85 78 ff ff ff 	mov    QWORD PTR [rbp-0x88],0x0
     ecb:	00 00 00 00 
     ecf:	48 c7 45 80 00 00 00 	mov    QWORD PTR [rbp-0x80],0x0
     ed6:	00 
     ed7:	48 c7 45 88 00 00 00 	mov    QWORD PTR [rbp-0x78],0x0
     ede:	00 
     edf:	76 2a                	jbe    f0b <_ZL19sgx_accept_backwardmmm+0xab>
     ee1:	4c 8d ad 50 ff ff ff 	lea    r13,[rbp-0xb0]
     ee8:	49 89 f4             	mov    r12,rsi
     eeb:	48 89 d3             	mov    rbx,rdx
     eee:	66 90                	xchg   ax,ax
     ef0:	48 81 eb 00 10 00 00 	sub    rbx,0x1000
     ef7:	4c 89 ef             	mov    rdi,r13
     efa:	48 89 de             	mov    rsi,rbx
     efd:	e8 dc 2b 02 00       	call   23ade <do_eaccept>
     f02:	85 c0                	test   eax,eax
     f04:	75 2a                	jne    f30 <_ZL19sgx_accept_backwardmmm+0xd0>
     f06:	49 39 dc             	cmp    r12,rbx
     f09:	72 e5                	jb     ef0 <_ZL19sgx_accept_backwardmmm+0x90>
     f0b:	31 c0                	xor    eax,eax
     f0d:	48 8b 4d c8          	mov    rcx,QWORD PTR [rbp-0x38]
     f11:	64 48 33 0c 25 28 00 	xor    rcx,QWORD PTR fs:0x28
     f18:	00 00 
     f1a:	75 19                	jne    f35 <_ZL19sgx_accept_backwardmmm+0xd5>
     f1c:	48 81 c4 90 00 00 00 	add    rsp,0x90
     f23:	5b                   	pop    rbx
     f24:	41 5a                	pop    r10
     f26:	41 5c                	pop    r12
     f28:	41 5d                	pop    r13
     f2a:	5d                   	pop    rbp
     f2b:	49 8d 62 f8          	lea    rsp,[r10-0x8]
     f2f:	c3                   	ret    
     f30:	e8 f7 2b 02 00       	call   23b2c <abort>
     f35:	e8 f6 23 00 00       	call   3330 <__stack_chk_fail>
     f3a:	66 0f 1f 44 00 00    	nop    WORD PTR [rax+rax*1+0x0]

0000000000000f40 <_ZL25check_dynamic_entry_rangePvmtmP24dynamic_flags_attributes.part.0>:
     f40:	41 57                	push   r15
     f42:	41 56                	push   r14
     f44:	41 55                	push   r13
     f46:	41 54                	push   r12
     f48:	55                   	push   rbp
     f49:	53                   	push   rbx
     f4a:	48 83 ec 08          	sub    rsp,0x8
     f4e:	48 8d 1d 2b 3a 02 00 	lea    rbx,[rip+0x23a2b]        # 24980 <g_global_data>
     f55:	8b 83 18 01 00 00    	mov    eax,DWORD PTR [rbx+0x118]
     f5b:	85 c0                	test   eax,eax
     f5d:	74 3c                	je     f9b <_ZL25check_dynamic_entry_rangePvmtmP24dynamic_flags_attributes.part.0+0x5b>
     f5f:	0f b7 83 20 01 00 00 	movzx  eax,WORD PTR [rbx+0x120]
     f66:	66 39 c2             	cmp    dx,ax
     f69:	74 45                	je     fb0 <_ZL25check_dynamic_entry_rangePvmtmP24dynamic_flags_attributes.part.0+0x70>
     f6b:	41 89 d1             	mov    r9d,edx
     f6e:	31 d2                	xor    edx,edx
     f70:	eb 1c                	jmp    f8e <_ZL25check_dynamic_entry_rangePvmtmP24dynamic_flags_attributes.part.0+0x4e>
     f72:	66 0f 1f 44 00 00    	nop    WORD PTR [rax+rax*1+0x0]
     f78:	89 d5                	mov    ebp,edx
     f7a:	48 8d 45 09          	lea    rax,[rbp+0x9]
     f7e:	48 c1 e0 05          	shl    rax,0x5
     f82:	48 01 d8             	add    rax,rbx
     f85:	0f b7 00             	movzx  eax,WORD PTR [rax]
     f88:	66 44 39 c8          	cmp    ax,r9w
     f8c:	74 2a                	je     fb8 <_ZL25check_dynamic_entry_rangePvmtmP24dynamic_flags_attributes.part.0+0x78>
     f8e:	8b 83 18 01 00 00    	mov    eax,DWORD PTR [rbx+0x118]
     f94:	83 c2 01             	add    edx,0x1
     f97:	39 d0                	cmp    eax,edx
     f99:	77 dd                	ja     f78 <_ZL25check_dynamic_entry_rangePvmtmP24dynamic_flags_attributes.part.0+0x38>
     f9b:	b8 ff ff ff ff       	mov    eax,0xffffffff
     fa0:	48 83 c4 08          	add    rsp,0x8
     fa4:	5b                   	pop    rbx
     fa5:	5d                   	pop    rbp
     fa6:	41 5c                	pop    r12
     fa8:	41 5d                	pop    r13
     faa:	41 5e                	pop    r14
     fac:	41 5f                	pop    r15
     fae:	c3                   	ret    
     faf:	90                   	nop
     fb0:	31 ed                	xor    ebp,ebp
     fb2:	66 0f 1f 44 00 00    	nop    WORD PTR [rax+rax*1+0x0]
     fb8:	49 89 cd             	mov    r13,rcx
     fbb:	49 89 ff             	mov    r15,rdi
     fbe:	4d 89 c6             	mov    r14,r8
     fc1:	49 89 f4             	mov    r12,rsi
     fc4:	e8 2c 28 02 00       	call   237f5 <get_enclave_base>
     fc9:	48 8d 55 09          	lea    rdx,[rbp+0x9]
     fcd:	48 c1 e2 05          	shl    rdx,0x5
     fd1:	48 01 da             	add    rdx,rbx
     fd4:	48 8b 4a 08          	mov    rcx,QWORD PTR [rdx+0x8]
     fd8:	48 01 c8             	add    rax,rcx
     fdb:	4a 8d 0c 28          	lea    rcx,[rax+r13*1]
     fdf:	8b 42 04             	mov    eax,DWORD PTR [rdx+0x4]
     fe2:	4c 39 f9             	cmp    rcx,r15
     fe5:	77 b4                	ja     f9b <_ZL25check_dynamic_entry_rangePvmtmP24dynamic_flags_attributes.part.0+0x5b>
     fe7:	49 c1 e4 0c          	shl    r12,0xc
     feb:	48 c1 e0 0c          	shl    rax,0xc
     fef:	4b 8d 3c 3c          	lea    rdi,[r12+r15*1]
     ff3:	48 01 c8             	add    rax,rcx
     ff6:	48 39 c7             	cmp    rdi,rax
     ff9:	77 a0                	ja     f9b <_ZL25check_dynamic_entry_rangePvmtmP24dynamic_flags_attributes.part.0+0x5b>
     ffb:	31 c0                	xor    eax,eax
     ffd:	4d 85 f6             	test   r14,r14
    1000:	74 9e                	je     fa0 <_ZL25check_dynamic_entry_rangePvmtmP24dynamic_flags_attributes.part.0+0x60>
    1002:	48 c1 e5 05          	shl    rbp,0x5
    1006:	48 01 eb             	add    rbx,rbp
    1009:	48 8b 8b 38 01 00 00 	mov    rcx,QWORD PTR [rbx+0x138]
    1010:	0f b7 52 02          	movzx  edx,WORD PTR [rdx+0x2]
    1014:	49 89 0e             	mov    QWORD PTR [r14],rcx
    1017:	66 41 89 56 08       	mov    WORD PTR [r14+0x8],dx
    101c:	48 83 c4 08          	add    rsp,0x8
    1020:	5b                   	pop    rbx
    1021:	5d                   	pop    rbp
    1022:	41 5c                	pop    r12
    1024:	41 5d                	pop    r13
    1026:	41 5e                	pop    r14
    1028:	41 5f                	pop    r15
    102a:	c3                   	ret    
    102b:	0f 1f 44 00 00       	nop    DWORD PTR [rax+rax*1+0x0]

0000000000001030 <_ZL19check_dynamic_rangePvmPmP24dynamic_flags_attributes>:
    1030:	41 57                	push   r15
    1032:	49 89 f7             	mov    r15,rsi
    1035:	41 56                	push   r14
    1037:	49 c1 e7 0c          	shl    r15,0xc
    103b:	41 55                	push   r13
    103d:	41 54                	push   r12
    103f:	4c 89 f8             	mov    rax,r15
    1042:	55                   	push   rbp
    1043:	53                   	push   rbx
    1044:	48 f7 d0             	not    rax
    1047:	48 83 ec 28          	sub    rsp,0x28
    104b:	48 39 f8             	cmp    rax,rdi
    104e:	0f 82 fb 00 00 00    	jb     114f <_ZL19check_dynamic_rangePvmPmP24dynamic_flags_attributes+0x11f>
    1054:	48 89 fb             	mov    rbx,rdi
    1057:	48 89 cd             	mov    rbp,rcx
    105a:	48 89 54 24 18       	mov    QWORD PTR [rsp+0x18],rdx
    105f:	49 89 f4             	mov    r12,rsi
    1062:	e8 09 13 00 00       	call   2370 <get_heap_base>
    1067:	49 89 c5             	mov    r13,rax
    106a:	e8 81 13 00 00       	call   23f0 <get_heap_min_size>
    106f:	49 01 c5             	add    r13,rax
    1072:	e8 19 13 00 00       	call   2390 <get_heap_size>
    1077:	49 89 c6             	mov    r14,rax
    107a:	e8 71 13 00 00       	call   23f0 <get_heap_min_size>
    107f:	49 29 c6             	sub    r14,rax
    1082:	4c 39 eb             	cmp    rbx,r13
    1085:	72 39                	jb     10c0 <_ZL19check_dynamic_rangePvmPmP24dynamic_flags_attributes+0x90>
    1087:	49 01 df             	add    r15,rbx
    108a:	4d 01 f5             	add    r13,r14
    108d:	4d 39 ef             	cmp    r15,r13
    1090:	77 2e                	ja     10c0 <_ZL19check_dynamic_rangePvmPmP24dynamic_flags_attributes+0x90>
    1092:	48 85 ed             	test   rbp,rbp
    1095:	74 11                	je     10a8 <_ZL19check_dynamic_rangePvmPmP24dynamic_flags_attributes+0x78>
    1097:	b8 08 00 00 00       	mov    eax,0x8
    109c:	48 c7 45 00 03 02 00 	mov    QWORD PTR [rbp+0x0],0x203
    10a3:	00 
    10a4:	66 89 45 08          	mov    WORD PTR [rbp+0x8],ax
    10a8:	31 c0                	xor    eax,eax
    10aa:	48 83 c4 28          	add    rsp,0x28
    10ae:	5b                   	pop    rbx
    10af:	5d                   	pop    rbp
    10b0:	41 5c                	pop    r12
    10b2:	41 5d                	pop    r13
    10b4:	41 5e                	pop    r14
    10b6:	41 5f                	pop    r15
    10b8:	c3                   	ret    
    10b9:	0f 1f 80 00 00 00 00 	nop    DWORD PTR [rax+0x0]
    10c0:	31 c9                	xor    ecx,ecx
    10c2:	49 89 e8             	mov    r8,rbp
    10c5:	ba 07 00 00 00       	mov    edx,0x7
    10ca:	4c 89 e6             	mov    rsi,r12
    10cd:	48 89 df             	mov    rdi,rbx
    10d0:	e8 6b fe ff ff       	call   f40 <_ZL25check_dynamic_entry_rangePvmtmP24dynamic_flags_attributes.part.0>
    10d5:	85 c0                	test   eax,eax
    10d7:	74 cf                	je     10a8 <_ZL19check_dynamic_rangePvmPmP24dynamic_flags_attributes+0x78>
    10d9:	48 8d 0d a0 38 02 00 	lea    rcx,[rip+0x238a0]        # 24980 <g_global_data>
    10e0:	8b 81 18 01 00 00    	mov    eax,DWORD PTR [rcx+0x118]
    10e6:	85 c0                	test   eax,eax
    10e8:	74 3a                	je     1124 <_ZL19check_dynamic_rangePvmPmP24dynamic_flags_attributes+0xf4>
    10ea:	0f b7 81 20 01 00 00 	movzx  eax,WORD PTR [rcx+0x120]
    10f1:	66 3d 13 10          	cmp    ax,0x1013
    10f5:	74 71                	je     1168 <_ZL19check_dynamic_rangePvmPmP24dynamic_flags_attributes+0x138>
    10f7:	31 d2                	xor    edx,edx
    10f9:	eb 1c                	jmp    1117 <_ZL19check_dynamic_rangePvmPmP24dynamic_flags_attributes+0xe7>
    10fb:	0f 1f 44 00 00       	nop    DWORD PTR [rax+rax*1+0x0]
    1100:	41 89 d1             	mov    r9d,edx
    1103:	49 8d 41 09          	lea    rax,[r9+0x9]
    1107:	48 c1 e0 05          	shl    rax,0x5
    110b:	48 01 c8             	add    rax,rcx
    110e:	0f b7 00             	movzx  eax,WORD PTR [rax]
    1111:	66 3d 13 10          	cmp    ax,0x1013
    1115:	74 59                	je     1170 <_ZL19check_dynamic_rangePvmPmP24dynamic_flags_attributes+0x140>
    1117:	8b 81 18 01 00 00    	mov    eax,DWORD PTR [rcx+0x118]
    111d:	83 c2 01             	add    edx,0x1
    1120:	39 d0                	cmp    eax,edx
    1122:	77 dc                	ja     1100 <_ZL19check_dynamic_rangePvmPmP24dynamic_flags_attributes+0xd0>
    1124:	41 bd 0e 00 00 00    	mov    r13d,0xe
    112a:	31 c9                	xor    ecx,ecx
    112c:	49 89 e8             	mov    r8,rbp
    112f:	44 89 ea             	mov    edx,r13d
    1132:	4c 89 e6             	mov    rsi,r12
    1135:	48 89 df             	mov    rdi,rbx
    1138:	e8 03 fe ff ff       	call   f40 <_ZL25check_dynamic_entry_rangePvmtmP24dynamic_flags_attributes.part.0>
    113d:	85 c0                	test   eax,eax
    113f:	0f 84 cb 00 00 00    	je     1210 <_ZL19check_dynamic_rangePvmPmP24dynamic_flags_attributes+0x1e0>
    1145:	41 83 c5 01          	add    r13d,0x1
    1149:	41 83 fd 13          	cmp    r13d,0x13
    114d:	75 db                	jne    112a <_ZL19check_dynamic_rangePvmPmP24dynamic_flags_attributes+0xfa>
    114f:	48 83 c4 28          	add    rsp,0x28
    1153:	b8 ff ff ff ff       	mov    eax,0xffffffff
    1158:	5b                   	pop    rbx
    1159:	5d                   	pop    rbp
    115a:	41 5c                	pop    r12
    115c:	41 5d                	pop    r13
    115e:	41 5e                	pop    r14
    1160:	41 5f                	pop    r15
    1162:	c3                   	ret    
    1163:	0f 1f 44 00 00       	nop    DWORD PTR [rax+rax*1+0x0]
    1168:	45 31 c9             	xor    r9d,r9d
    116b:	0f 1f 44 00 00       	nop    DWORD PTR [rax+rax*1+0x0]
    1170:	49 83 c1 09          	add    r9,0x9
    1174:	c7 44 24 0c 0e 00 00 	mov    DWORD PTR [rsp+0xc],0xe
    117b:	00 
    117c:	49 c1 e1 05          	shl    r9,0x5
    1180:	4e 8d 34 09          	lea    r14,[rcx+r9*1]
    1184:	41 8b 46 04          	mov    eax,DWORD PTR [r14+0x4]
    1188:	83 f8 ff             	cmp    eax,0xffffffff
    118b:	74 6b                	je     11f8 <_ZL19check_dynamic_rangePvmPmP24dynamic_flags_attributes+0x1c8>
    118d:	45 31 ff             	xor    r15d,r15d
    1190:	eb 16                	jmp    11a8 <_ZL19check_dynamic_rangePvmPmP24dynamic_flags_attributes+0x178>
    1192:	66 0f 1f 44 00 00    	nop    WORD PTR [rax+rax*1+0x0]
    1198:	41 8b 46 04          	mov    eax,DWORD PTR [r14+0x4]
    119c:	41 83 c7 01          	add    r15d,0x1
    11a0:	83 c0 01             	add    eax,0x1
    11a3:	44 39 f8             	cmp    eax,r15d
    11a6:	76 50                	jbe    11f8 <_ZL19check_dynamic_rangePvmPmP24dynamic_flags_attributes+0x1c8>
    11a8:	49 8b 4e 08          	mov    rcx,QWORD PTR [r14+0x8]
    11ac:	45 89 fd             	mov    r13d,r15d
    11af:	8b 54 24 0c          	mov    edx,DWORD PTR [rsp+0xc]
    11b3:	49 8d 46 08          	lea    rax,[r14+0x8]
    11b7:	49 89 e8             	mov    r8,rbp
    11ba:	4c 89 e6             	mov    rsi,r12
    11bd:	48 89 df             	mov    rdi,rbx
    11c0:	49 0f af cd          	imul   rcx,r13
    11c4:	48 89 44 24 10       	mov    QWORD PTR [rsp+0x10],rax
    11c9:	e8 72 fd ff ff       	call   f40 <_ZL25check_dynamic_entry_rangePvmtmP24dynamic_flags_attributes.part.0>
    11ce:	85 c0                	test   eax,eax
    11d0:	75 c6                	jne    1198 <_ZL19check_dynamic_rangePvmPmP24dynamic_flags_attributes+0x168>
    11d2:	48 8b 5c 24 18       	mov    rbx,QWORD PTR [rsp+0x18]
    11d7:	48 85 db             	test   rbx,rbx
    11da:	0f 84 c8 fe ff ff    	je     10a8 <_ZL19check_dynamic_rangePvmPmP24dynamic_flags_attributes+0x78>
    11e0:	48 8b 74 24 10       	mov    rsi,QWORD PTR [rsp+0x10]
    11e5:	48 8b 16             	mov    rdx,QWORD PTR [rsi]
    11e8:	4c 0f af ea          	imul   r13,rdx
    11ec:	4c 89 2b             	mov    QWORD PTR [rbx],r13
    11ef:	e9 b6 fe ff ff       	jmp    10aa <_ZL19check_dynamic_rangePvmPmP24dynamic_flags_attributes+0x7a>
    11f4:	0f 1f 40 00          	nop    DWORD PTR [rax+0x0]
    11f8:	83 44 24 0c 01       	add    DWORD PTR [rsp+0xc],0x1
    11fd:	8b 44 24 0c          	mov    eax,DWORD PTR [rsp+0xc]
    1201:	83 f8 13             	cmp    eax,0x13
    1204:	0f 85 7a ff ff ff    	jne    1184 <_ZL19check_dynamic_rangePvmPmP24dynamic_flags_attributes+0x154>
    120a:	e9 40 ff ff ff       	jmp    114f <_ZL19check_dynamic_rangePvmPmP24dynamic_flags_attributes+0x11f>
    120f:	90                   	nop
    1210:	48 8b 5c 24 18       	mov    rbx,QWORD PTR [rsp+0x18]
    1215:	48 85 db             	test   rbx,rbx
    1218:	0f 84 8a fe ff ff    	je     10a8 <_ZL19check_dynamic_rangePvmPmP24dynamic_flags_attributes+0x78>
    121e:	48 c7 03 00 00 00 00 	mov    QWORD PTR [rbx],0x0
    1225:	e9 80 fe ff ff       	jmp    10aa <_ZL19check_dynamic_rangePvmPmP24dynamic_flags_attributes+0x7a>
    122a:	66 0f 1f 44 00 00    	nop    WORD PTR [rax+rax*1+0x0]

0000000000001230 <is_dynamic_thread>:
    1230:	48 83 ec 28          	sub    rsp,0x28
    1234:	64 48 8b 04 25 28 00 	mov    rax,QWORD PTR fs:0x28
    123b:	00 00 
    123d:	48 89 44 24 18       	mov    QWORD PTR [rsp+0x18],rax
    1242:	31 c0                	xor    eax,eax
    1244:	48 85 ff             	test   rdi,rdi
    1247:	74 27                	je     1270 <is_dynamic_thread+0x40>
    1249:	31 d2                	xor    edx,edx
    124b:	48 89 e1             	mov    rcx,rsp
    124e:	be 01 00 00 00       	mov    esi,0x1
    1253:	e8 d8 fd ff ff       	call   1030 <_ZL19check_dynamic_rangePvmPmP24dynamic_flags_attributes>
    1258:	85 c0                	test   eax,eax
    125a:	75 14                	jne    1270 <is_dynamic_thread+0x40>
    125c:	31 c0                	xor    eax,eax
    125e:	48 81 3c 24 00 01 00 	cmp    QWORD PTR [rsp],0x100
    1265:	00 
    1266:	0f 94 c0             	sete   al
    1269:	eb 07                	jmp    1272 <is_dynamic_thread+0x42>
    126b:	0f 1f 44 00 00       	nop    DWORD PTR [rax+rax*1+0x0]
    1270:	31 c0                	xor    eax,eax
    1272:	48 8b 54 24 18       	mov    rdx,QWORD PTR [rsp+0x18]
    1277:	64 48 33 14 25 28 00 	xor    rdx,QWORD PTR fs:0x28
    127e:	00 00 
    1280:	75 05                	jne    1287 <is_dynamic_thread+0x57>
    1282:	48 83 c4 28          	add    rsp,0x28
    1286:	c3                   	ret    
    1287:	e8 a4 20 00 00       	call   3330 <__stack_chk_fail>
    128c:	0f 1f 40 00          	nop    DWORD PTR [rax+0x0]

0000000000001290 <get_dynamic_stack_max_page>:
    1290:	48 8d 0d e9 36 02 00 	lea    rcx,[rip+0x236e9]        # 24980 <g_global_data>
    1297:	8b 81 18 01 00 00    	mov    eax,DWORD PTR [rcx+0x118]
    129d:	85 c0                	test   eax,eax
    129f:	74 3c                	je     12dd <get_dynamic_stack_max_page+0x4d>
    12a1:	0f b7 81 20 01 00 00 	movzx  eax,WORD PTR [rcx+0x120]
    12a8:	66 83 f8 07          	cmp    ax,0x7
    12ac:	74 32                	je     12e0 <get_dynamic_stack_max_page+0x50>
    12ae:	31 d2                	xor    edx,edx
    12b0:	eb 1c                	jmp    12ce <get_dynamic_stack_max_page+0x3e>
    12b2:	66 0f 1f 44 00 00    	nop    WORD PTR [rax+rax*1+0x0]
    12b8:	89 d6                	mov    esi,edx
    12ba:	48 8d 46 09          	lea    rax,[rsi+0x9]
    12be:	48 c1 e0 05          	shl    rax,0x5
    12c2:	48 01 c8             	add    rax,rcx
    12c5:	0f b7 00             	movzx  eax,WORD PTR [rax]
    12c8:	66 83 f8 07          	cmp    ax,0x7
    12cc:	74 14                	je     12e2 <get_dynamic_stack_max_page+0x52>
    12ce:	8b 81 18 01 00 00    	mov    eax,DWORD PTR [rcx+0x118]
    12d4:	83 c2 01             	add    edx,0x1
    12d7:	39 d0                	cmp    eax,edx
    12d9:	77 dd                	ja     12b8 <get_dynamic_stack_max_page+0x28>
    12db:	31 c0                	xor    eax,eax
    12dd:	f3 c3                	repz ret 
    12df:	90                   	nop
    12e0:	31 f6                	xor    esi,esi
    12e2:	48 83 c6 09          	add    rsi,0x9
    12e6:	48 c1 e6 05          	shl    rsi,0x5
    12ea:	48 01 f1             	add    rcx,rsi
    12ed:	8b 41 04             	mov    eax,DWORD PTR [rcx+0x4]
    12f0:	c3                   	ret    
    12f1:	66 2e 0f 1f 84 00 00 	nop    WORD PTR cs:[rax+rax*1+0x0]
    12f8:	00 00 00 
    12fb:	0f 1f 44 00 00       	nop    DWORD PTR [rax+rax*1+0x0]

0000000000001300 <sgx_accept_forward>:
    1300:	4c 8d 54 24 08       	lea    r10,[rsp+0x8]
    1305:	48 83 e4 c0          	and    rsp,0xffffffffffffffc0
    1309:	41 ff 72 f8          	push   QWORD PTR [r10-0x8]
    130d:	55                   	push   rbp
    130e:	48 89 e5             	mov    rbp,rsp
    1311:	41 55                	push   r13
    1313:	41 54                	push   r12
    1315:	41 52                	push   r10
    1317:	53                   	push   rbx
    1318:	48 81 ec 90 00 00 00 	sub    rsp,0x90
    131f:	48 89 bd 50 ff ff ff 	mov    QWORD PTR [rbp-0xb0],rdi
    1326:	48 c7 85 58 ff ff ff 	mov    QWORD PTR [rbp-0xa8],0x0
    132d:	00 00 00 00 
    1331:	64 48 8b 04 25 28 00 	mov    rax,QWORD PTR fs:0x28
    1338:	00 00 
    133a:	48 89 45 c8          	mov    QWORD PTR [rbp-0x38],rax
    133e:	31 c0                	xor    eax,eax
    1340:	48 39 d6             	cmp    rsi,rdx
    1343:	48 c7 85 60 ff ff ff 	mov    QWORD PTR [rbp-0xa0],0x0
    134a:	00 00 00 00 
    134e:	48 c7 85 68 ff ff ff 	mov    QWORD PTR [rbp-0x98],0x0
    1355:	00 00 00 00 
    1359:	48 c7 85 70 ff ff ff 	mov    QWORD PTR [rbp-0x90],0x0
    1360:	00 00 00 00 
    1364:	48 c7 85 78 ff ff ff 	mov    QWORD PTR [rbp-0x88],0x0
    136b:	00 00 00 00 
    136f:	48 c7 45 80 00 00 00 	mov    QWORD PTR [rbp-0x80],0x0
    1376:	00 
    1377:	48 c7 45 88 00 00 00 	mov    QWORD PTR [rbp-0x78],0x0
    137e:	00 
    137f:	73 2a                	jae    13ab <sgx_accept_forward+0xab>
    1381:	4c 8d ad 50 ff ff ff 	lea    r13,[rbp-0xb0]
    1388:	48 89 f3             	mov    rbx,rsi
    138b:	49 89 d4             	mov    r12,rdx
    138e:	66 90                	xchg   ax,ax
    1390:	48 89 de             	mov    rsi,rbx
    1393:	4c 89 ef             	mov    rdi,r13
    1396:	e8 43 27 02 00       	call   23ade <do_eaccept>
    139b:	85 c0                	test   eax,eax
    139d:	75 31                	jne    13d0 <sgx_accept_forward+0xd0>
    139f:	48 81 c3 00 10 00 00 	add    rbx,0x1000
    13a6:	49 39 dc             	cmp    r12,rbx
    13a9:	77 e5                	ja     1390 <sgx_accept_forward+0x90>
    13ab:	31 c0                	xor    eax,eax
    13ad:	48 8b 4d c8          	mov    rcx,QWORD PTR [rbp-0x38]
    13b1:	64 48 33 0c 25 28 00 	xor    rcx,QWORD PTR fs:0x28
    13b8:	00 00 
    13ba:	75 19                	jne    13d5 <sgx_accept_forward+0xd5>
    13bc:	48 81 c4 90 00 00 00 	add    rsp,0x90
    13c3:	5b                   	pop    rbx
    13c4:	41 5a                	pop    r10
    13c6:	41 5c                	pop    r12
    13c8:	41 5d                	pop    r13
    13ca:	5d                   	pop    rbp
    13cb:	49 8d 62 f8          	lea    rsp,[r10-0x8]
    13cf:	c3                   	ret    
    13d0:	e8 57 27 02 00       	call   23b2c <abort>
    13d5:	e8 56 1f 00 00       	call   3330 <__stack_chk_fail>
    13da:	66 0f 1f 44 00 00    	nop    WORD PTR [rax+rax*1+0x0]

00000000000013e0 <_Z18accept_post_removePVK9_layout_tS1_m>:
    13e0:	48 39 f7             	cmp    rdi,rsi
    13e3:	0f 83 d7 00 00 00    	jae    14c0 <_Z18accept_post_removePVK9_layout_tS1_m+0xe0>
    13e9:	41 56                	push   r14
    13eb:	41 55                	push   r13
    13ed:	41 54                	push   r12
    13ef:	49 89 d4             	mov    r12,rdx
    13f2:	55                   	push   rbp
    13f3:	48 89 f5             	mov    rbp,rsi
    13f6:	53                   	push   rbx
    13f7:	48 89 fb             	mov    rbx,rdi
    13fa:	eb 19                	jmp    1415 <_Z18accept_post_removePVK9_layout_tS1_m+0x35>
    13fc:	0f 1f 40 00          	nop    DWORD PTR [rax+0x0]
    1400:	0f b7 03             	movzx  eax,WORD PTR [rbx]
    1403:	f6 c4 10             	test   ah,0x10
    1406:	75 58                	jne    1460 <_Z18accept_post_removePVK9_layout_tS1_m+0x80>
    1408:	48 83 c3 20          	add    rbx,0x20
    140c:	48 39 dd             	cmp    rbp,rbx
    140f:	0f 86 97 00 00 00    	jbe    14ac <_Z18accept_post_removePVK9_layout_tS1_m+0xcc>
    1415:	0f b7 03             	movzx  eax,WORD PTR [rbx]
    1418:	f6 c4 10             	test   ah,0x10
    141b:	75 e3                	jne    1400 <_Z18accept_post_removePVK9_layout_tS1_m+0x20>
    141d:	0f b7 43 02          	movzx  eax,WORD PTR [rbx+0x2]
    1421:	a8 10                	test   al,0x10
    1423:	74 db                	je     1400 <_Z18accept_post_removePVK9_layout_tS1_m+0x20>
    1425:	48 8b 73 08          	mov    rsi,QWORD PTR [rbx+0x8]
    1429:	4e 8d 2c 26          	lea    r13,[rsi+r12*1]
    142d:	e8 c3 23 02 00       	call   237f5 <get_enclave_base>
    1432:	8b 53 04             	mov    edx,DWORD PTR [rbx+0x4]
    1435:	4a 8d 34 28          	lea    rsi,[rax+r13*1]
    1439:	bf 10 04 00 00       	mov    edi,0x410
    143e:	48 c1 e2 0c          	shl    rdx,0xc
    1442:	48 01 f2             	add    rdx,rsi
    1445:	e8 b6 fe ff ff       	call   1300 <sgx_accept_forward>
    144a:	85 c0                	test   eax,eax
    144c:	74 ba                	je     1408 <_Z18accept_post_removePVK9_layout_tS1_m+0x28>
    144e:	5b                   	pop    rbx
    144f:	5d                   	pop    rbp
    1450:	41 5c                	pop    r12
    1452:	41 5d                	pop    r13
    1454:	41 5e                	pop    r14
    1456:	c3                   	ret    
    1457:	66 0f 1f 84 00 00 00 	nop    WORD PTR [rax+rax*1+0x0]
    145e:	00 00 
    1460:	8b 43 04             	mov    eax,DWORD PTR [rbx+0x4]
    1463:	85 c0                	test   eax,eax
    1465:	74 a1                	je     1408 <_Z18accept_post_removePVK9_layout_tS1_m+0x28>
    1467:	45 31 f6             	xor    r14d,r14d
    146a:	45 31 ed             	xor    r13d,r13d
    146d:	48 8b 43 08          	mov    rax,QWORD PTR [rbx+0x8]
    1471:	0f b7 7b 02          	movzx  edi,WORD PTR [rbx+0x2]
    1475:	48 89 de             	mov    rsi,rbx
    1478:	49 01 c5             	add    r13,rax
    147b:	f7 df                	neg    edi
    147d:	4c 89 ea             	mov    rdx,r13
    1480:	48 63 ff             	movsxd rdi,edi
    1483:	48 c1 e7 05          	shl    rdi,0x5
    1487:	48 01 df             	add    rdi,rbx
    148a:	e8 51 ff ff ff       	call   13e0 <_Z18accept_post_removePVK9_layout_tS1_m>
    148f:	85 c0                	test   eax,eax
    1491:	75 bb                	jne    144e <_Z18accept_post_removePVK9_layout_tS1_m+0x6e>
    1493:	8b 43 04             	mov    eax,DWORD PTR [rbx+0x4]
    1496:	41 83 c6 01          	add    r14d,0x1
    149a:	44 39 f0             	cmp    eax,r14d
    149d:	77 ce                	ja     146d <_Z18accept_post_removePVK9_layout_tS1_m+0x8d>
    149f:	48 83 c3 20          	add    rbx,0x20
    14a3:	48 39 dd             	cmp    rbp,rbx
    14a6:	0f 87 69 ff ff ff    	ja     1415 <_Z18accept_post_removePVK9_layout_tS1_m+0x35>
    14ac:	5b                   	pop    rbx
    14ad:	31 c0                	xor    eax,eax
    14af:	5d                   	pop    rbp
    14b0:	41 5c                	pop    r12
    14b2:	41 5d                	pop    r13
    14b4:	41 5e                	pop    r14
    14b6:	c3                   	ret    
    14b7:	66 0f 1f 84 00 00 00 	nop    WORD PTR [rax+rax*1+0x0]
    14be:	00 00 
    14c0:	31 c0                	xor    eax,eax
    14c2:	c3                   	ret    
    14c3:	66 2e 0f 1f 84 00 00 	nop    WORD PTR cs:[rax+rax*1+0x0]
    14ca:	00 00 00 
    14cd:	0f 1f 00             	nop    DWORD PTR [rax]

00000000000014d0 <apply_pages_within_exception>:
    14d0:	4c 8d 54 24 08       	lea    r10,[rsp+0x8]
    14d5:	48 83 e4 c0          	and    rsp,0xffffffffffffffc0
    14d9:	41 ff 72 f8          	push   QWORD PTR [r10-0x8]
    14dd:	55                   	push   rbp
    14de:	48 89 e5             	mov    rbp,rsp
    14e1:	41 56                	push   r14
    14e3:	41 55                	push   r13
    14e5:	41 54                	push   r12
    14e7:	41 52                	push   r10
    14e9:	53                   	push   rbx
    14ea:	48 81 ec 88 00 00 00 	sub    rsp,0x88
    14f1:	64 48 8b 04 25 28 00 	mov    rax,QWORD PTR fs:0x28
    14f8:	00 00 
    14fa:	48 89 45 c8          	mov    QWORD PTR [rbp-0x38],rax
    14fe:	31 c0                	xor    eax,eax
    1500:	48 85 ff             	test   rdi,rdi
    1503:	0f 84 ca 00 00 00    	je     15d3 <apply_pages_within_exception+0x103>
    1509:	31 c9                	xor    ecx,ecx
    150b:	31 d2                	xor    edx,edx
    150d:	48 89 fb             	mov    rbx,rdi
    1510:	49 89 f4             	mov    r12,rsi
    1513:	e8 18 fb ff ff       	call   1030 <_ZL19check_dynamic_rangePvmPmP24dynamic_flags_attributes>
    1518:	85 c0                	test   eax,eax
    151a:	41 89 c5             	mov    r13d,eax
    151d:	0f 85 b0 00 00 00    	jne    15d3 <apply_pages_within_exception+0x103>
    1523:	49 c1 e4 0c          	shl    r12,0xc
    1527:	48 c7 85 50 ff ff ff 	mov    QWORD PTR [rbp-0xb0],0x20b
    152e:	0b 02 00 00 
    1532:	48 c7 85 58 ff ff ff 	mov    QWORD PTR [rbp-0xa8],0x0
    1539:	00 00 00 00 
    153d:	49 01 dc             	add    r12,rbx
    1540:	48 c7 85 60 ff ff ff 	mov    QWORD PTR [rbp-0xa0],0x0
    1547:	00 00 00 00 
    154b:	48 c7 85 68 ff ff ff 	mov    QWORD PTR [rbp-0x98],0x0
    1552:	00 00 00 00 
    1556:	4c 39 e3             	cmp    rbx,r12
    1559:	48 c7 85 70 ff ff ff 	mov    QWORD PTR [rbp-0x90],0x0
    1560:	00 00 00 00 
    1564:	48 c7 85 78 ff ff ff 	mov    QWORD PTR [rbp-0x88],0x0
    156b:	00 00 00 00 
    156f:	48 c7 45 80 00 00 00 	mov    QWORD PTR [rbp-0x80],0x0
    1576:	00 
    1577:	48 c7 45 88 00 00 00 	mov    QWORD PTR [rbp-0x78],0x0
    157e:	00 
    157f:	73 2a                	jae    15ab <apply_pages_within_exception+0xdb>
    1581:	4c 8d b5 50 ff ff ff 	lea    r14,[rbp-0xb0]
    1588:	0f 1f 84 00 00 00 00 	nop    DWORD PTR [rax+rax*1+0x0]
    158f:	00 
    1590:	48 89 de             	mov    rsi,rbx
    1593:	4c 89 f7             	mov    rdi,r14
    1596:	e8 43 25 02 00       	call   23ade <do_eaccept>
    159b:	85 c0                	test   eax,eax
    159d:	75 3c                	jne    15db <apply_pages_within_exception+0x10b>
    159f:	48 81 c3 00 10 00 00 	add    rbx,0x1000
    15a6:	49 39 dc             	cmp    r12,rbx
    15a9:	77 e5                	ja     1590 <apply_pages_within_exception+0xc0>
    15ab:	48 8b 55 c8          	mov    rdx,QWORD PTR [rbp-0x38]
    15af:	64 48 33 14 25 28 00 	xor    rdx,QWORD PTR fs:0x28
    15b6:	00 00 
    15b8:	44 89 e8             	mov    eax,r13d
    15bb:	75 23                	jne    15e0 <apply_pages_within_exception+0x110>
    15bd:	48 81 c4 88 00 00 00 	add    rsp,0x88
    15c4:	5b                   	pop    rbx
    15c5:	41 5a                	pop    r10
    15c7:	41 5c                	pop    r12
    15c9:	41 5d                	pop    r13
    15cb:	41 5e                	pop    r14
    15cd:	5d                   	pop    rbp
    15ce:	49 8d 62 f8          	lea    rsp,[r10-0x8]
    15d2:	c3                   	ret    
    15d3:	41 bd ff ff ff ff    	mov    r13d,0xffffffff
    15d9:	eb d0                	jmp    15ab <apply_pages_within_exception+0xdb>
    15db:	e8 4c 25 02 00       	call   23b2c <abort>
    15e0:	e8 4b 1d 00 00       	call   3330 <__stack_chk_fail>
    15e5:	66 2e 0f 1f 84 00 00 	nop    WORD PTR cs:[rax+rax*1+0x0]
    15ec:	00 00 00 
    15ef:	90                   	nop

00000000000015f0 <apply_EPC_pages>:
    15f0:	55                   	push   rbp
    15f1:	53                   	push   rbx
    15f2:	48 83 ec 28          	sub    rsp,0x28
    15f6:	64 48 8b 04 25 28 00 	mov    rax,QWORD PTR fs:0x28
    15fd:	00 00 
    15ff:	48 89 44 24 18       	mov    QWORD PTR [rsp+0x18],rax
    1604:	31 c0                	xor    eax,eax
    1606:	48 85 ff             	test   rdi,rdi
    1609:	74 55                	je     1660 <apply_EPC_pages+0x70>
    160b:	31 d2                	xor    edx,edx
    160d:	48 89 e1             	mov    rcx,rsp
    1610:	48 89 fd             	mov    rbp,rdi
    1613:	48 89 f3             	mov    rbx,rsi
    1616:	e8 15 fa ff ff       	call   1030 <_ZL19check_dynamic_rangePvmPmP24dynamic_flags_attributes>
    161b:	85 c0                	test   eax,eax
    161d:	75 41                	jne    1660 <apply_EPC_pages+0x70>
    161f:	48 c1 e3 0c          	shl    rbx,0xc
    1623:	f6 44 24 08 40       	test   BYTE PTR [rsp+0x8],0x40
    1628:	48 89 ee             	mov    rsi,rbp
    162b:	48 8d 14 2b          	lea    rdx,[rbx+rbp*1]
    162f:	bf 0b 02 00 00       	mov    edi,0x20b
    1634:	75 22                	jne    1658 <apply_EPC_pages+0x68>
    1636:	e8 25 f8 ff ff       	call   e60 <_ZL19sgx_accept_backwardmmm>
    163b:	48 8b 74 24 18       	mov    rsi,QWORD PTR [rsp+0x18]
    1640:	64 48 33 34 25 28 00 	xor    rsi,QWORD PTR fs:0x28
    1647:	00 00 
    1649:	75 1c                	jne    1667 <apply_EPC_pages+0x77>
    164b:	48 83 c4 28          	add    rsp,0x28
    164f:	5b                   	pop    rbx
    1650:	5d                   	pop    rbp
    1651:	c3                   	ret    
    1652:	66 0f 1f 44 00 00    	nop    WORD PTR [rax+rax*1+0x0]
    1658:	e8 a3 fc ff ff       	call   1300 <sgx_accept_forward>
    165d:	eb dc                	jmp    163b <apply_EPC_pages+0x4b>
    165f:	90                   	nop
    1660:	b8 ff ff ff ff       	mov    eax,0xffffffff
    1665:	eb d4                	jmp    163b <apply_EPC_pages+0x4b>
    1667:	e8 c4 1c 00 00       	call   3330 <__stack_chk_fail>
    166c:	0f 1f 40 00          	nop    DWORD PTR [rax+0x0]

0000000000001670 <trim_EPC_pages>:
    1670:	48 85 ff             	test   rdi,rdi
    1673:	74 65                	je     16da <trim_EPC_pages+0x6a>
    1675:	55                   	push   rbp
    1676:	53                   	push   rbx
    1677:	31 c9                	xor    ecx,ecx
    1679:	31 d2                	xor    edx,edx
    167b:	48 89 f5             	mov    rbp,rsi
    167e:	48 89 fb             	mov    rbx,rdi
    1681:	48 83 ec 08          	sub    rsp,0x8
    1685:	e8 a6 f9 ff ff       	call   1030 <_ZL19check_dynamic_rangePvmPmP24dynamic_flags_attributes>
    168a:	85 c0                	test   eax,eax
    168c:	75 45                	jne    16d3 <trim_EPC_pages+0x63>
    168e:	48 c1 e5 0c          	shl    rbp,0xc
    1692:	48 89 df             	mov    rdi,rbx
    1695:	48 01 dd             	add    rbp,rbx
    1698:	48 89 ee             	mov    rsi,rbp
    169b:	e8 30 0c 00 00       	call   22d0 <trim_range_ocall>
    16a0:	48 89 ea             	mov    rdx,rbp
    16a3:	48 89 de             	mov    rsi,rbx
    16a6:	bf 10 04 00 00       	mov    edi,0x410
    16ab:	e8 50 fc ff ff       	call   1300 <sgx_accept_forward>
    16b0:	48 39 eb             	cmp    rbx,rbp
    16b3:	73 17                	jae    16cc <trim_EPC_pages+0x5c>
    16b5:	0f 1f 00             	nop    DWORD PTR [rax]
    16b8:	48 89 df             	mov    rdi,rbx
    16bb:	48 81 c3 00 10 00 00 	add    rbx,0x1000
    16c2:	e8 69 0c 00 00       	call   2330 <trim_range_commit_ocall>
    16c7:	48 39 dd             	cmp    rbp,rbx
    16ca:	77 ec                	ja     16b8 <trim_EPC_pages+0x48>
    16cc:	48 83 c4 08          	add    rsp,0x8
    16d0:	5b                   	pop    rbx
    16d1:	5d                   	pop    rbp
    16d2:	c3                   	ret    
    16d3:	b8 ff ff ff ff       	mov    eax,0xffffffff
    16d8:	eb f2                	jmp    16cc <trim_EPC_pages+0x5c>
    16da:	b8 ff ff ff ff       	mov    eax,0xffffffff
    16df:	c3                   	ret    

00000000000016e0 <do_add_thread>:
    16e0:	41 56                	push   r14
    16e2:	41 55                	push   r13
    16e4:	41 54                	push   r12
    16e6:	55                   	push   rbp
    16e7:	48 89 fd             	mov    rbp,rdi
    16ea:	53                   	push   rbx
    16eb:	48 83 ec 10          	sub    rsp,0x10
    16ef:	64 48 8b 04 25 28 00 	mov    rax,QWORD PTR fs:0x28
    16f6:	00 00 
    16f8:	48 89 44 24 08       	mov    QWORD PTR [rsp+0x8],rax
    16fd:	31 c0                	xor    eax,eax
    16ff:	48 c7 04 24 00 00 00 	mov    QWORD PTR [rsp],0x0
    1706:	00 
    1707:	e8 e9 20 02 00       	call   237f5 <get_enclave_base>
    170c:	31 c9                	xor    ecx,ecx
    170e:	48 89 e2             	mov    rdx,rsp
    1711:	be 01 00 00 00       	mov    esi,0x1
    1716:	48 89 ef             	mov    rdi,rbp
    1719:	49 89 c4             	mov    r12,rax
    171c:	e8 0f f9 ff ff       	call   1030 <_ZL19check_dynamic_rangePvmPmP24dynamic_flags_attributes>
    1721:	85 c0                	test   eax,eax
    1723:	75 4e                	jne    1773 <do_add_thread+0x93>
    1725:	48 8d 1d 54 32 02 00 	lea    rbx,[rip+0x23254]        # 24980 <g_global_data>
    172c:	8b 83 18 01 00 00    	mov    eax,DWORD PTR [rbx+0x118]
    1732:	85 c0                	test   eax,eax
    1734:	74 3d                	je     1773 <do_add_thread+0x93>
    1736:	0f b7 83 20 01 00 00 	movzx  eax,WORD PTR [rbx+0x120]
    173d:	66 83 f8 0e          	cmp    ax,0xe
    1741:	74 56                	je     1799 <do_add_thread+0xb9>
    1743:	31 d2                	xor    edx,edx
    1745:	eb 1f                	jmp    1766 <do_add_thread+0x86>
    1747:	66 0f 1f 84 00 00 00 	nop    WORD PTR [rax+rax*1+0x0]
    174e:	00 00 
    1750:	89 d1                	mov    ecx,edx
    1752:	48 8d 41 09          	lea    rax,[rcx+0x9]
    1756:	48 c1 e0 05          	shl    rax,0x5
    175a:	48 01 d8             	add    rax,rbx
    175d:	0f b7 00             	movzx  eax,WORD PTR [rax]
    1760:	66 83 f8 0e          	cmp    ax,0xe
    1764:	74 3a                	je     17a0 <do_add_thread+0xc0>
    1766:	8b 83 18 01 00 00    	mov    eax,DWORD PTR [rbx+0x118]
    176c:	83 c2 01             	add    edx,0x1
    176f:	39 d0                	cmp    eax,edx
    1771:	77 dd                	ja     1750 <do_add_thread+0x70>
    1773:	b8 01 00 00 00       	mov    eax,0x1
    1778:	48 8b 74 24 08       	mov    rsi,QWORD PTR [rsp+0x8]
    177d:	64 48 33 34 25 28 00 	xor    rsi,QWORD PTR fs:0x28
    1784:	00 00 
    1786:	0f 85 55 01 00 00    	jne    18e1 <do_add_thread+0x201>
    178c:	48 83 c4 10          	add    rsp,0x10
    1790:	5b                   	pop    rbx
    1791:	5d                   	pop    rbp
    1792:	41 5c                	pop    r12
    1794:	41 5d                	pop    r13
    1796:	41 5e                	pop    r14
    1798:	c3                   	ret    
    1799:	31 c9                	xor    ecx,ecx
    179b:	0f 1f 44 00 00       	nop    DWORD PTR [rax+rax*1+0x0]
    17a0:	48 83 c1 09          	add    rcx,0x9
    17a4:	4c 8b 2c 24          	mov    r13,QWORD PTR [rsp]
    17a8:	41 be 0e 00 00 00    	mov    r14d,0xe
    17ae:	48 c1 e1 05          	shl    rcx,0x5
    17b2:	48 01 d9             	add    rcx,rbx
    17b5:	48 8b 41 08          	mov    rax,QWORD PTR [rcx+0x8]
    17b9:	4d 01 e5             	add    r13,r12
    17bc:	49 01 c5             	add    r13,rax
    17bf:	4c 39 ed             	cmp    rbp,r13
    17c2:	75 af                	jne    1773 <do_add_thread+0x93>
    17c4:	0f 1f 40 00          	nop    DWORD PTR [rax+0x0]
    17c8:	8b 83 18 01 00 00    	mov    eax,DWORD PTR [rbx+0x118]
    17ce:	85 c0                	test   eax,eax
    17d0:	74 45                	je     1817 <do_add_thread+0x137>
    17d2:	0f b7 83 20 01 00 00 	movzx  eax,WORD PTR [rbx+0x120]
    17d9:	66 44 39 f0          	cmp    ax,r14w
    17dd:	0f 84 ad 00 00 00    	je     1890 <do_add_thread+0x1b0>
    17e3:	31 d2                	xor    edx,edx
    17e5:	eb 23                	jmp    180a <do_add_thread+0x12a>
    17e7:	66 0f 1f 84 00 00 00 	nop    WORD PTR [rax+rax*1+0x0]
    17ee:	00 00 
    17f0:	89 d1                	mov    ecx,edx
    17f2:	48 8d 41 09          	lea    rax,[rcx+0x9]
    17f6:	48 c1 e0 05          	shl    rax,0x5
    17fa:	48 01 d8             	add    rax,rbx
    17fd:	0f b7 00             	movzx  eax,WORD PTR [rax]
    1800:	66 44 39 f0          	cmp    ax,r14w
    1804:	0f 84 8e 00 00 00    	je     1898 <do_add_thread+0x1b8>
    180a:	8b 83 18 01 00 00    	mov    eax,DWORD PTR [rbx+0x118]
    1810:	83 c2 01             	add    edx,0x1
    1813:	39 d0                	cmp    eax,edx
    1815:	77 d9                	ja     17f0 <do_add_thread+0x110>
    1817:	41 83 c6 01          	add    r14d,0x1
    181b:	66 41 83 fe 13       	cmp    r14w,0x13
    1820:	75 a6                	jne    17c8 <do_add_thread+0xe8>
    1822:	48 8d b3 d0 00 00 00 	lea    rsi,[rbx+0xd0]
    1829:	ba 48 00 00 00       	mov    edx,0x48
    182e:	48 89 ef             	mov    rdi,rbp
    1831:	e8 ba 4d 00 00       	call   65f0 <memcpy>
    1836:	4c 89 e8             	mov    rax,r13
    1839:	31 ff                	xor    edi,edi
    183b:	48 89 ee             	mov    rsi,rbp
    183e:	4c 29 e0             	sub    rax,r12
    1841:	48 01 45 10          	add    QWORD PTR [rbp+0x10],rax
    1845:	4c 89 e8             	mov    rax,r13
    1848:	4c 29 e0             	sub    rax,r12
    184b:	48 01 45 30          	add    QWORD PTR [rbp+0x30],rax
    184f:	4c 89 e8             	mov    rax,r13
    1852:	4c 29 e0             	sub    rax,r12
    1855:	48 01 45 38          	add    QWORD PTR [rbp+0x38],rax
    1859:	e8 42 09 00 00       	call   21a0 <sgx_ocall>
    185e:	85 c0                	test   eax,eax
    1860:	0f 85 0d ff ff ff    	jne    1773 <do_add_thread+0x93>
    1866:	49 8d 95 00 10 00 00 	lea    rdx,[r13+0x1000]
    186d:	4c 89 ee             	mov    rsi,r13
    1870:	bf 10 01 00 00       	mov    edi,0x110
    1875:	e8 e6 f5 ff ff       	call   e60 <_ZL19sgx_accept_backwardmmm>
    187a:	85 c0                	test   eax,eax
    187c:	0f 95 c0             	setne  al
    187f:	0f b6 c0             	movzx  eax,al
    1882:	e9 f1 fe ff ff       	jmp    1778 <do_add_thread+0x98>
    1887:	66 0f 1f 84 00 00 00 	nop    WORD PTR [rax+rax*1+0x0]
    188e:	00 00 
    1890:	31 c9                	xor    ecx,ecx
    1892:	66 0f 1f 44 00 00    	nop    WORD PTR [rax+rax*1+0x0]
    1898:	48 83 c1 09          	add    rcx,0x9
    189c:	48 c1 e1 05          	shl    rcx,0x5
    18a0:	48 01 d9             	add    rcx,rbx
    18a3:	0f b7 41 02          	movzx  eax,WORD PTR [rcx+0x2]
    18a7:	a8 20                	test   al,0x20
    18a9:	0f 84 68 ff ff ff    	je     1817 <do_add_thread+0x137>
    18af:	48 8b 3c 24          	mov    rdi,QWORD PTR [rsp]
    18b3:	8b 71 04             	mov    esi,DWORD PTR [rcx+0x4]
    18b6:	48 8b 41 08          	mov    rax,QWORD PTR [rcx+0x8]
    18ba:	4c 01 e7             	add    rdi,r12
    18bd:	48 01 c7             	add    rdi,rax
    18c0:	e8 2b fd ff ff       	call   15f0 <apply_EPC_pages>
    18c5:	85 c0                	test   eax,eax
    18c7:	0f 85 a6 fe ff ff    	jne    1773 <do_add_thread+0x93>
    18cd:	41 83 c6 01          	add    r14d,0x1
    18d1:	66 41 83 fe 13       	cmp    r14w,0x13
    18d6:	0f 85 ec fe ff ff    	jne    17c8 <do_add_thread+0xe8>
    18dc:	e9 41 ff ff ff       	jmp    1822 <do_add_thread+0x142>
    18e1:	e8 4a 1a 00 00       	call   3330 <__stack_chk_fail>
    18e6:	66 2e 0f 1f 84 00 00 	nop    WORD PTR cs:[rax+rax*1+0x0]
    18ed:	00 00 00 

00000000000018f0 <_Z30_random_stack_noinline_wrapperI9_status_tJjPvEJRiRS1_EET_PFS4_DpT0_EDpOT1_.isra.0>:
    18f0:	48 89 f8             	mov    rax,rdi
    18f3:	89 f7                	mov    edi,esi
    18f5:	48 89 d6             	mov    rsi,rdx
    18f8:	ff e0                	jmp    rax
    18fa:	66 0f 1f 44 00 00    	nop    WORD PTR [rax+rax*1+0x0]

0000000000001900 <_ZL10trts_ecalljPv>:
    1900:	0f b6 05 f9 66 22 00 	movzx  eax,BYTE PTR [rip+0x2266f9]        # 228000 <_ZL16g_is_first_ecall>
    1907:	41 54                	push   r12
    1909:	49 89 f4             	mov    r12,rsi
    190c:	55                   	push   rbp
    190d:	53                   	push   rbx
    190e:	89 fb                	mov    ebx,edi
    1910:	84 c0                	test   al,al
    1912:	0f 85 b8 00 00 00    	jne    19d0 <_ZL10trts_ecalljPv+0xd0>
    1918:	83 fb fa             	cmp    ebx,0xfffffffa
    191b:	0f 84 8f 00 00 00    	je     19b0 <_ZL10trts_ecalljPv+0xb0>
    1921:	83 fb f9             	cmp    ebx,0xfffffff9
    1924:	0f 84 de 00 00 00    	je     1a08 <_ZL10trts_ecalljPv+0x108>
    192a:	48 8d 2d 4f 64 22 00 	lea    rbp,[rip+0x22644f]        # 227d80 <g_ecall_table>
    1931:	48 3b 5d 00          	cmp    rbx,QWORD PTR [rbp+0x0]
    1935:	73 69                	jae    19a0 <_ZL10trts_ecalljPv+0xa0>
    1937:	e8 f4 1e 02 00       	call   23830 <get_thread_data>
    193c:	0f ae e8             	lfence 
    193f:	48 8b 50 08          	mov    rdx,QWORD PTR [rax+0x8]
    1943:	48 3b 50 10          	cmp    rdx,QWORD PTR [rax+0x10]
    1947:	0f 84 a3 00 00 00    	je     19f0 <_ZL10trts_ecalljPv+0xf0>
    194d:	48 81 7a 20 44 49 43 	cmp    QWORD PTR [rdx+0x20],0x4f434944
    1954:	4f 
    1955:	0f 85 42 01 00 00    	jne    1a9d <_ZL10trts_ecalljPv+0x19d>
    195b:	48 8d 05 3e 22 02 00 	lea    rax,[rip+0x2223e]        # 23ba0 <g_dyn_entry_table>
    1962:	48 8b 52 28          	mov    rdx,QWORD PTR [rdx+0x28]
    1966:	48 3b 10             	cmp    rdx,QWORD PTR [rax]
    1969:	73 35                	jae    19a0 <_ZL10trts_ecalljPv+0xa0>
    196b:	48 0f af 55 00       	imul   rdx,QWORD PTR [rbp+0x0]
    1970:	48 01 d8             	add    rax,rbx
    1973:	80 7c 02 08 00       	cmp    BYTE PTR [rdx+rax*1+0x8],0x0
    1978:	74 65                	je     19df <_ZL10trts_ecalljPv+0xdf>
    197a:	48 c1 e3 04          	shl    rbx,0x4
    197e:	31 f6                	xor    esi,esi
    1980:	48 8b 5c 1d 08       	mov    rbx,QWORD PTR [rbp+rbx*1+0x8]
    1985:	48 89 df             	mov    rdi,rbx
    1988:	e8 63 f1 ff ff       	call   af0 <sgx_is_within_enclave>
    198d:	85 c0                	test   eax,eax
    198f:	48 89 da             	mov    rdx,rbx
    1992:	74 2f                	je     19c3 <_ZL10trts_ecalljPv+0xc3>
    1994:	0f ae e8             	lfence 
    1997:	4c 89 e7             	mov    rdi,r12
    199a:	5b                   	pop    rbx
    199b:	5d                   	pop    rbp
    199c:	41 5c                	pop    r12
    199e:	ff e2                	jmp    rdx
    19a0:	bd 01 10 00 00       	mov    ebp,0x1001
    19a5:	89 e8                	mov    eax,ebp
    19a7:	5b                   	pop    rbx
    19a8:	5d                   	pop    rbp
    19a9:	41 5c                	pop    r12
    19ab:	c3                   	ret    
    19ac:	0f 1f 40 00          	nop    DWORD PTR [rax+0x0]
    19b0:	e8 7b 1e 02 00       	call   23830 <get_thread_data>
    19b5:	48 8b 48 10          	mov    rcx,QWORD PTR [rax+0x10]
    19b9:	48 39 48 08          	cmp    QWORD PTR [rax+0x8],rcx
    19bd:	0f 84 bd 00 00 00    	je     1a80 <_ZL10trts_ecalljPv+0x180>
    19c3:	bd 01 00 00 00       	mov    ebp,0x1
    19c8:	89 e8                	mov    eax,ebp
    19ca:	5b                   	pop    rbx
    19cb:	5d                   	pop    rbp
    19cc:	41 5c                	pop    r12
    19ce:	c3                   	ret    
    19cf:	90                   	nop
    19d0:	e8 5b 1e 02 00       	call   23830 <get_thread_data>
    19d5:	48 8b 48 10          	mov    rcx,QWORD PTR [rax+0x10]
    19d9:	48 39 48 08          	cmp    QWORD PTR [rax+0x8],rcx
    19dd:	74 49                	je     1a28 <_ZL10trts_ecalljPv+0x128>
    19df:	bd 07 10 00 00       	mov    ebp,0x1007
    19e4:	eb bf                	jmp    19a5 <_ZL10trts_ecalljPv+0xa5>
    19e6:	66 2e 0f 1f 84 00 00 	nop    WORD PTR cs:[rax+rax*1+0x0]
    19ed:	00 00 00 
    19f0:	48 89 d8             	mov    rax,rbx
    19f3:	48 c1 e0 04          	shl    rax,0x4
    19f7:	80 7c 05 10 00       	cmp    BYTE PTR [rbp+rax*1+0x10],0x0
    19fc:	0f 84 78 ff ff ff    	je     197a <_ZL10trts_ecalljPv+0x7a>
    1a02:	eb db                	jmp    19df <_ZL10trts_ecalljPv+0xdf>
    1a04:	0f 1f 40 00          	nop    DWORD PTR [rax+0x0]
    1a08:	e8 23 1e 02 00       	call   23830 <get_thread_data>
    1a0d:	48 8b 48 10          	mov    rcx,QWORD PTR [rax+0x10]
    1a11:	48 39 48 08          	cmp    QWORD PTR [rax+0x8],rcx
    1a15:	75 ac                	jne    19c3 <_ZL10trts_ecalljPv+0xc3>
    1a17:	48 8d 15 a2 08 00 00 	lea    rdx,[rip+0x8a2]        # 22c0 <do_run_switchless_tworker>
    1a1e:	e9 71 ff ff ff       	jmp    1994 <_ZL10trts_ecalljPv+0x94>
    1a23:	0f 1f 44 00 00       	nop    DWORD PTR [rax+rax*1+0x0]
    1a28:	48 8d 3d 11 6f 22 00 	lea    rdi,[rip+0x226f11]        # 228940 <_ZL10g_ife_lock>
    1a2f:	e8 5c 4f 00 00       	call   6990 <sgx_spin_lock>
    1a34:	0f b6 05 c5 65 22 00 	movzx  eax,BYTE PTR [rip+0x2265c5]        # 228000 <_ZL16g_is_first_ecall>
    1a3b:	84 c0                	test   al,al
    1a3d:	74 2b                	je     1a6a <_ZL10trts_ecalljPv+0x16a>
    1a3f:	48 8d 05 5e 63 22 00 	lea    rax,[rip+0x22635e]        # 227da4 <EDMM_supported>
    1a46:	8b 00                	mov    eax,DWORD PTR [rax]
    1a48:	85 c0                	test   eax,eax
    1a4a:	74 12                	je     1a5e <_ZL10trts_ecalljPv+0x15e>
    1a4c:	48 8d 3d ad e5 ff ff 	lea    rdi,[rip+0xffffffffffffe5ad]        # 0 <enclave.so>
    1a53:	e8 58 15 00 00       	call   2fb0 <change_protection>
    1a58:	85 c0                	test   eax,eax
    1a5a:	89 c5                	mov    ebp,eax
    1a5c:	75 2e                	jne    1a8c <_ZL10trts_ecalljPv+0x18c>
    1a5e:	e8 3d 17 00 00       	call   31a0 <init_global_object>
    1a63:	c6 05 96 65 22 00 00 	mov    BYTE PTR [rip+0x226596],0x0        # 228000 <_ZL16g_is_first_ecall>
    1a6a:	48 8d 3d cf 6e 22 00 	lea    rdi,[rip+0x226ecf]        # 228940 <_ZL10g_ife_lock>
    1a71:	e8 7a 4f 00 00       	call   69f0 <sgx_spin_unlock>
    1a76:	e9 9d fe ff ff       	jmp    1918 <_ZL10trts_ecalljPv+0x18>
    1a7b:	0f 1f 44 00 00       	nop    DWORD PTR [rax+rax*1+0x0]
    1a80:	48 8d 15 29 08 00 00 	lea    rdx,[rip+0x829]        # 22b0 <do_init_switchless>
    1a87:	e9 08 ff ff ff       	jmp    1994 <_ZL10trts_ecalljPv+0x94>
    1a8c:	48 8d 3d ad 6e 22 00 	lea    rdi,[rip+0x226ead]        # 228940 <_ZL10g_ife_lock>
    1a93:	e8 58 4f 00 00       	call   69f0 <sgx_spin_unlock>
    1a98:	e9 08 ff ff ff       	jmp    19a5 <_ZL10trts_ecalljPv+0xa5>
    1a9d:	e8 8a 20 02 00       	call   23b2c <abort>
    1aa2:	66 2e 0f 1f 84 00 00 	nop    WORD PTR cs:[rax+rax*1+0x0]
    1aa9:	00 00 00 
    1aac:	0f 1f 40 00          	nop    DWORD PTR [rax+0x0]

0000000000001ab0 <do_init_thread>:
    1ab0:	41 57                	push   r15
    1ab2:	41 56                	push   r14
    1ab4:	ba a0 00 00 00       	mov    edx,0xa0
    1ab9:	41 55                	push   r13
    1abb:	41 54                	push   r12
    1abd:	41 89 f5             	mov    r13d,esi
    1ac0:	55                   	push   rbp
    1ac1:	53                   	push   rbx
    1ac2:	48 89 fd             	mov    rbp,rdi
    1ac5:	48 83 ec 28          	sub    rsp,0x28
    1ac9:	64 48 8b 04 25 28 00 	mov    rax,QWORD PTR fs:0x28
    1ad0:	00 00 
    1ad2:	48 89 44 24 18       	mov    QWORD PTR [rsp+0x18],rax
    1ad7:	31 c0                	xor    eax,eax
    1ad9:	48 8d 05 a0 2e 02 00 	lea    rax,[rip+0x22ea0]        # 24980 <g_global_data>
    1ae0:	48 8b 58 30          	mov    rbx,QWORD PTR [rax+0x30]
    1ae4:	48 8d 70 30          	lea    rsi,[rax+0x30]
    1ae8:	48 01 fb             	add    rbx,rdi
    1aeb:	48 89 df             	mov    rdi,rbx
    1aee:	4c 8b 7b 28          	mov    r15,QWORD PTR [rbx+0x28]
    1af2:	4c 8b 73 30          	mov    r14,QWORD PTR [rbx+0x30]
    1af6:	4c 8b a3 98 00 00 00 	mov    r12,QWORD PTR [rbx+0x98]
    1afd:	e8 ee 4a 00 00       	call   65f0 <memcpy>
    1b02:	48 8b 53 18          	mov    rdx,QWORD PTR [rbx+0x18]
    1b06:	48 8d 85 50 fd ff ff 	lea    rax,[rbp-0x2b0]
    1b0d:	48 01 2b             	add    QWORD PTR [rbx],rbp
    1b10:	48 01 6b 20          	add    QWORD PTR [rbx+0x20],rbp
    1b14:	4c 89 7b 28          	mov    QWORD PTR [rbx+0x28],r15
    1b18:	48 01 6b 58          	add    QWORD PTR [rbx+0x58],rbp
    1b1c:	4c 89 73 30          	mov    QWORD PTR [rbx+0x30],r14
    1b20:	48 01 ea             	add    rdx,rbp
    1b23:	48 01 6b 50          	add    QWORD PTR [rbx+0x50],rbp
    1b27:	48 89 53 18          	mov    QWORD PTR [rbx+0x18],rdx
    1b2b:	48 89 93 98 00 00 00 	mov    QWORD PTR [rbx+0x98],rdx
    1b32:	48 8b 53 08          	mov    rdx,QWORD PTR [rbx+0x8]
    1b36:	48 01 c2             	add    rdx,rax
    1b39:	48 03 43 10          	add    rax,QWORD PTR [rbx+0x10]
    1b3d:	45 84 ed             	test   r13b,r13b
    1b40:	48 89 53 08          	mov    QWORD PTR [rbx+0x8],rdx
    1b44:	48 89 43 10          	mov    QWORD PTR [rbx+0x10],rax
    1b48:	48 8d 05 49 62 22 00 	lea    rax,[rip+0x226249]        # 227d98 <__intel_security_cookie>
    1b4f:	48 8b 00             	mov    rax,QWORD PTR [rax]
    1b52:	48 89 85 58 fd fe ff 	mov    QWORD PTR [rbp-0x102a8],rax
    1b59:	74 08                	je     1b63 <do_init_thread+0xb3>
    1b5b:	48 c7 43 30 01 00 00 	mov    QWORD PTR [rbx+0x30],0x1
    1b62:	00 
    1b63:	4d 85 e4             	test   r12,r12
    1b66:	75 70                	jne    1bd8 <do_init_thread+0x128>
    1b68:	48 8d 05 35 62 22 00 	lea    rax,[rip+0x226235]        # 227da4 <EDMM_supported>
    1b6f:	8b 00                	mov    eax,DWORD PTR [rax]
    1b71:	85 c0                	test   eax,eax
    1b73:	75 73                	jne    1be8 <do_init_thread+0x138>
    1b75:	48 8d 3d 84 e4 ff ff 	lea    rdi,[rip+0xffffffffffffe484]        # 0 <enclave.so>
    1b7c:	48 8d 54 24 10       	lea    rdx,[rsp+0x10]
    1b81:	48 8d 74 24 08       	lea    rsi,[rsp+0x8]
    1b86:	48 c7 44 24 08 00 00 	mov    QWORD PTR [rsp+0x8],0x0
    1b8d:	00 00 
    1b8f:	48 c7 44 24 10 00 00 	mov    QWORD PTR [rsp+0x10],0x0
    1b96:	00 00 
    1b98:	e8 b3 11 00 00       	call   2d50 <elf_tls_info>
    1b9d:	85 c0                	test   eax,eax
    1b9f:	ba 01 00 00 00       	mov    edx,0x1
    1ba4:	75 0a                	jne    1bb0 <do_init_thread+0x100>
    1ba6:	48 83 7c 24 08 00    	cmp    QWORD PTR [rsp+0x8],0x0
    1bac:	75 5a                	jne    1c08 <do_init_thread+0x158>
    1bae:	31 d2                	xor    edx,edx
    1bb0:	48 8b 4c 24 18       	mov    rcx,QWORD PTR [rsp+0x18]
    1bb5:	64 48 33 0c 25 28 00 	xor    rcx,QWORD PTR fs:0x28
    1bbc:	00 00 
    1bbe:	89 d0                	mov    eax,edx
    1bc0:	0f 85 a3 00 00 00    	jne    1c69 <do_init_thread+0x1b9>
    1bc6:	48 83 c4 28          	add    rsp,0x28
    1bca:	5b                   	pop    rbx
    1bcb:	5d                   	pop    rbp
    1bcc:	41 5c                	pop    r12
    1bce:	41 5d                	pop    r13
    1bd0:	41 5e                	pop    r14
    1bd2:	41 5f                	pop    r15
    1bd4:	c3                   	ret    
    1bd5:	0f 1f 00             	nop    DWORD PTR [rax]
    1bd8:	4c 89 a3 98 00 00 00 	mov    QWORD PTR [rbx+0x98],r12
    1bdf:	eb 94                	jmp    1b75 <do_init_thread+0xc5>
    1be1:	0f 1f 80 00 00 00 00 	nop    DWORD PTR [rax+0x0]
    1be8:	45 84 ed             	test   r13b,r13b
    1beb:	74 6b                	je     1c58 <do_init_thread+0x1a8>
    1bed:	e8 9e f6 ff ff       	call   1290 <get_dynamic_stack_max_page>
    1bf2:	89 c0                	mov    eax,eax
    1bf4:	48 c1 e0 0c          	shl    rax,0xc
    1bf8:	48 01 83 98 00 00 00 	add    QWORD PTR [rbx+0x98],rax
    1bff:	e9 71 ff ff ff       	jmp    1b75 <do_init_thread+0xc5>
    1c04:	0f 1f 40 00          	nop    DWORD PTR [rax+0x0]
    1c08:	48 8b 03             	mov    rax,QWORD PTR [rbx]
    1c0b:	48 8b 7b 50          	mov    rdi,QWORD PTR [rbx+0x50]
    1c0f:	31 f6                	xor    esi,esi
    1c11:	48 8d 90 ff 0f 00 00 	lea    rdx,[rax+0xfff]
    1c18:	48 29 fa             	sub    rdx,rdi
    1c1b:	48 81 e7 00 f0 ff ff 	and    rdi,0xfffffffffffff000
    1c22:	48 81 e2 00 f0 ff ff 	and    rdx,0xfffffffffffff000
    1c29:	e8 f2 49 00 00       	call   6620 <memset>
    1c2e:	48 8b 7b 50          	mov    rdi,QWORD PTR [rbx+0x50]
    1c32:	48 8b 03             	mov    rax,QWORD PTR [rbx]
    1c35:	48 8b 54 24 10       	mov    rdx,QWORD PTR [rsp+0x10]
    1c3a:	48 29 f8             	sub    rax,rdi
    1c3d:	48 39 c2             	cmp    rdx,rax
    1c40:	0f 87 68 ff ff ff    	ja     1bae <do_init_thread+0xfe>
    1c46:	48 8b 74 24 08       	mov    rsi,QWORD PTR [rsp+0x8]
    1c4b:	e8 a0 49 00 00       	call   65f0 <memcpy>
    1c50:	e9 59 ff ff ff       	jmp    1bae <do_init_thread+0xfe>
    1c55:	0f 1f 00             	nop    DWORD PTR [rax]
    1c58:	48 89 ef             	mov    rdi,rbp
    1c5b:	e8 d0 f5 ff ff       	call   1230 <is_dynamic_thread>
    1c60:	85 c0                	test   eax,eax
    1c62:	75 89                	jne    1bed <do_init_thread+0x13d>
    1c64:	e9 0c ff ff ff       	jmp    1b75 <do_init_thread+0xc5>
    1c69:	e8 c2 16 00 00       	call   3330 <__stack_chk_fail>
    1c6e:	66 90                	xchg   ax,ax

0000000000001c70 <do_ecall>:
    1c70:	55                   	push   rbp
    1c71:	48 89 e5             	mov    rbp,rsp
    1c74:	41 55                	push   r13
    1c76:	41 54                	push   r12
    1c78:	53                   	push   rbx
    1c79:	49 89 d5             	mov    r13,rdx
    1c7c:	89 fb                	mov    ebx,edi
    1c7e:	49 89 f4             	mov    r12,rsi
    1c81:	48 83 ec 18          	sub    rsp,0x18
    1c85:	64 48 8b 04 25 28 00 	mov    rax,QWORD PTR fs:0x28
    1c8c:	00 00 
    1c8e:	48 89 45 d8          	mov    QWORD PTR [rbp-0x28],rax
    1c92:	31 c0                	xor    eax,eax
    1c94:	e8 64 1b 02 00       	call   237fd <get_enclave_state>
    1c99:	83 f8 02             	cmp    eax,0x2
    1c9c:	ba 01 00 00 00       	mov    edx,0x1
    1ca1:	74 25                	je     1cc8 <do_ecall+0x58>
    1ca3:	48 8b 4d d8          	mov    rcx,QWORD PTR [rbp-0x28]
    1ca7:	64 48 33 0c 25 28 00 	xor    rcx,QWORD PTR fs:0x28
    1cae:	00 00 
    1cb0:	89 d0                	mov    eax,edx
    1cb2:	0f 85 c2 00 00 00    	jne    1d7a <do_ecall+0x10a>
    1cb8:	48 8d 65 e8          	lea    rsp,[rbp-0x18]
    1cbc:	5b                   	pop    rbx
    1cbd:	41 5c                	pop    r12
    1cbf:	41 5d                	pop    r13
    1cc1:	5d                   	pop    rbp
    1cc2:	c3                   	ret    
    1cc3:	0f 1f 44 00 00       	nop    DWORD PTR [rax+rax*1+0x0]
    1cc8:	e8 63 1b 02 00       	call   23830 <get_thread_data>
    1ccd:	48 85 c0             	test   rax,rax
    1cd0:	74 3e                	je     1d10 <do_ecall+0xa0>
    1cd2:	48 8b 78 08          	mov    rdi,QWORD PTR [rax+0x8]
    1cd6:	48 39 78 10          	cmp    QWORD PTR [rax+0x10],rdi
    1cda:	74 24                	je     1d00 <do_ecall+0x90>
    1cdc:	e8 4f 1b 02 00       	call   23830 <get_thread_data>
    1ce1:	48 8b 48 08          	mov    rcx,QWORD PTR [rax+0x8]
    1ce5:	48 39 48 10          	cmp    QWORD PTR [rax+0x10],rcx
    1ce9:	74 3d                	je     1d28 <do_ecall+0xb8>
    1ceb:	4c 89 e6             	mov    rsi,r12
    1cee:	89 df                	mov    edi,ebx
    1cf0:	e8 0b fc ff ff       	call   1900 <_ZL10trts_ecalljPv>
    1cf5:	89 c2                	mov    edx,eax
    1cf7:	eb aa                	jmp    1ca3 <do_ecall+0x33>
    1cf9:	0f 1f 80 00 00 00 00 	nop    DWORD PTR [rax+0x0]
    1d00:	48 8d 05 79 2c 02 00 	lea    rax,[rip+0x22c79]        # 24980 <g_global_data>
    1d07:	48 8b 40 28          	mov    rax,QWORD PTR [rax+0x28]
    1d0b:	48 85 c0             	test   rax,rax
    1d0e:	74 cc                	je     1cdc <do_ecall+0x6c>
    1d10:	31 f6                	xor    esi,esi
    1d12:	4c 89 ef             	mov    rdi,r13
    1d15:	e8 96 fd ff ff       	call   1ab0 <do_init_thread>
    1d1a:	85 c0                	test   eax,eax
    1d1c:	89 c2                	mov    edx,eax
    1d1e:	74 bc                	je     1cdc <do_ecall+0x6c>
    1d20:	eb 81                	jmp    1ca3 <do_ecall+0x33>
    1d22:	66 0f 1f 44 00 00    	nop    WORD PTR [rax+rax*1+0x0]
    1d28:	49 89 e5             	mov    r13,rsp
    1d2b:	0f c7 f6             	rdrand esi
    1d2e:	81 e6 ff 07 00 00    	and    esi,0x7ff
    1d34:	83 c6 01             	add    esi,0x1
    1d37:	48 8d 46 0f          	lea    rax,[rsi+0xf]
    1d3b:	25 f0 1f 00 00       	and    eax,0x1ff0
    1d40:	48 29 c4             	sub    rsp,rax
    1d43:	48 8d 05 5a 60 22 00 	lea    rax,[rip+0x22605a]        # 227da4 <EDMM_supported>
    1d4a:	8b 00                	mov    eax,DWORD PTR [rax]
    1d4c:	85 c0                	test   eax,eax
    1d4e:	74 20                	je     1d70 <do_ecall+0x100>
    1d50:	48 8d 3d a9 fb ff ff 	lea    rdi,[rip+0xfffffffffffffba9]        # 1900 <_ZL10trts_ecalljPv>
    1d57:	4c 89 e2             	mov    rdx,r12
    1d5a:	89 de                	mov    esi,ebx
    1d5c:	e8 8f fb ff ff       	call   18f0 <_Z30_random_stack_noinline_wrapperI9_status_tJjPvEJRiRS1_EET_PFS4_DpT0_EDpOT1_.isra.0>
    1d61:	89 c2                	mov    edx,eax
    1d63:	4c 89 ec             	mov    rsp,r13
    1d66:	e9 38 ff ff ff       	jmp    1ca3 <do_ecall+0x33>
    1d6b:	0f 1f 44 00 00       	nop    DWORD PTR [rax+rax*1+0x0]
    1d70:	48 89 e7             	mov    rdi,rsp
    1d73:	e8 d8 f0 ff ff       	call   e50 <random_stack_notify_gdb>
    1d78:	eb d6                	jmp    1d50 <do_ecall+0xe0>
    1d7a:	e8 b1 15 00 00       	call   3330 <__stack_chk_fail>
    1d7f:	90                   	nop

0000000000001d80 <do_ecall_add_thread>:
    1d80:	55                   	push   rbp
    1d81:	53                   	push   rbx
    1d82:	48 89 fb             	mov    rbx,rdi
    1d85:	48 83 ec 18          	sub    rsp,0x18
    1d89:	64 48 8b 04 25 28 00 	mov    rax,QWORD PTR fs:0x28
    1d90:	00 00 
    1d92:	48 89 44 24 08       	mov    QWORD PTR [rsp+0x8],rax
    1d97:	31 c0                	xor    eax,eax
    1d99:	e8 92 1a 02 00       	call   23830 <get_thread_data>
    1d9e:	48 85 c0             	test   rax,rax
    1da1:	0f 84 59 01 00 00    	je     1f00 <do_ecall_add_thread+0x180>
    1da7:	f6 40 30 01          	test   BYTE PTR [rax+0x30],0x1
    1dab:	0f 84 4f 01 00 00    	je     1f00 <do_ecall_add_thread+0x180>
    1db1:	48 85 db             	test   rbx,rbx
    1db4:	0f 84 46 01 00 00    	je     1f00 <do_ecall_add_thread+0x180>
    1dba:	be 08 00 00 00       	mov    esi,0x8
    1dbf:	48 89 df             	mov    rdi,rbx
    1dc2:	e8 79 ed ff ff       	call   b40 <sgx_is_outside_enclave>
    1dc7:	85 c0                	test   eax,eax
    1dc9:	0f 84 31 01 00 00    	je     1f00 <do_ecall_add_thread+0x180>
    1dcf:	48 8b 2b             	mov    rbp,QWORD PTR [rbx]
    1dd2:	48 85 ed             	test   rbp,rbp
    1dd5:	0f 84 25 01 00 00    	je     1f00 <do_ecall_add_thread+0x180>
    1ddb:	0f ae e8             	lfence 
    1dde:	e8 4d 1a 02 00       	call   23830 <get_thread_data>
    1de3:	48 85 c0             	test   rax,rax
    1de6:	0f 84 14 01 00 00    	je     1f00 <do_ecall_add_thread+0x180>
    1dec:	f6 40 30 01          	test   BYTE PTR [rax+0x30],0x1
    1df0:	0f 84 0a 01 00 00    	je     1f00 <do_ecall_add_thread+0x180>
    1df6:	48 83 3d 4a 6b 22 00 	cmp    QWORD PTR [rip+0x226b4a],0x0        # 228948 <_ZL12g_tcs_cookie>
    1dfd:	00 
    1dfe:	0f 84 c5 00 00 00    	je     1ec9 <do_ecall_add_thread+0x149>
    1e04:	bf 10 00 00 00       	mov    edi,0x10
    1e09:	e8 82 1d 00 00       	call   3b90 <dlmalloc>
    1e0e:	48 85 c0             	test   rax,rax
    1e11:	0f 84 e9 00 00 00    	je     1f00 <do_ecall_add_thread+0x180>
    1e17:	48 8b 15 2a 6b 22 00 	mov    rdx,QWORD PTR [rip+0x226b2a]        # 228948 <_ZL12g_tcs_cookie>
    1e1e:	48 89 ef             	mov    rdi,rbp
    1e21:	48 31 ea             	xor    rdx,rbp
    1e24:	48 89 10             	mov    QWORD PTR [rax],rdx
    1e27:	48 8b 15 22 6b 22 00 	mov    rdx,QWORD PTR [rip+0x226b22]        # 228950 <_ZL10g_tcs_node>
    1e2e:	48 89 05 1b 6b 22 00 	mov    QWORD PTR [rip+0x226b1b],rax        # 228950 <_ZL10g_tcs_node>
    1e35:	48 89 50 08          	mov    QWORD PTR [rax+0x8],rdx
    1e39:	e8 a2 f8 ff ff       	call   16e0 <do_add_thread>
    1e3e:	85 c0                	test   eax,eax
    1e40:	89 c3                	mov    ebx,eax
    1e42:	0f 84 bd 00 00 00    	je     1f05 <do_ecall_add_thread+0x185>
    1e48:	e8 e3 19 02 00       	call   23830 <get_thread_data>
    1e4d:	48 85 c0             	test   rax,rax
    1e50:	0f 84 af 00 00 00    	je     1f05 <do_ecall_add_thread+0x185>
    1e56:	f6 40 30 01          	test   BYTE PTR [rax+0x30],0x1
    1e5a:	0f 84 a5 00 00 00    	je     1f05 <do_ecall_add_thread+0x185>
    1e60:	48 8b 3d e9 6a 22 00 	mov    rdi,QWORD PTR [rip+0x226ae9]        # 228950 <_ZL10g_tcs_node>
    1e67:	48 85 ff             	test   rdi,rdi
    1e6a:	0f 84 95 00 00 00    	je     1f05 <do_ecall_add_thread+0x185>
    1e70:	48 8b 35 d1 6a 22 00 	mov    rsi,QWORD PTR [rip+0x226ad1]        # 228948 <_ZL12g_tcs_cookie>
    1e77:	48 8b 07             	mov    rax,QWORD PTR [rdi]
    1e7a:	48 8b 57 08          	mov    rdx,QWORD PTR [rdi+0x8]
    1e7e:	48 31 f0             	xor    rax,rsi
    1e81:	48 39 c5             	cmp    rbp,rax
    1e84:	0f 84 b3 00 00 00    	je     1f3d <do_ecall_add_thread+0x1bd>
    1e8a:	48 85 d2             	test   rdx,rdx
    1e8d:	74 76                	je     1f05 <do_ecall_add_thread+0x185>
    1e8f:	48 8b 02             	mov    rax,QWORD PTR [rdx]
    1e92:	48 31 f0             	xor    rax,rsi
    1e95:	48 39 c5             	cmp    rbp,rax
    1e98:	75 09                	jne    1ea3 <do_ecall_add_thread+0x123>
    1e9a:	e9 ac 00 00 00       	jmp    1f4b <do_ecall_add_thread+0x1cb>
    1e9f:	90                   	nop
    1ea0:	48 89 c2             	mov    rdx,rax
    1ea3:	48 8b 42 08          	mov    rax,QWORD PTR [rdx+0x8]
    1ea7:	48 85 c0             	test   rax,rax
    1eaa:	74 59                	je     1f05 <do_ecall_add_thread+0x185>
    1eac:	48 8b 08             	mov    rcx,QWORD PTR [rax]
    1eaf:	48 31 f1             	xor    rcx,rsi
    1eb2:	48 39 cd             	cmp    rbp,rcx
    1eb5:	75 e9                	jne    1ea0 <do_ecall_add_thread+0x120>
    1eb7:	48 8b 48 08          	mov    rcx,QWORD PTR [rax+0x8]
    1ebb:	48 89 c7             	mov    rdi,rax
    1ebe:	48 89 4a 08          	mov    QWORD PTR [rdx+0x8],rcx
    1ec2:	e8 c9 36 00 00       	call   5590 <dlfree>
    1ec7:	eb 3c                	jmp    1f05 <do_ecall_add_thread+0x185>
    1ec9:	48 c7 04 24 00 00 00 	mov    QWORD PTR [rsp],0x0
    1ed0:	00 
    1ed1:	48 89 e3             	mov    rbx,rsp
    1ed4:	eb 13                	jmp    1ee9 <do_ecall_add_thread+0x169>
    1ed6:	66 2e 0f 1f 84 00 00 	nop    WORD PTR cs:[rax+rax*1+0x0]
    1edd:	00 00 00 
    1ee0:	48 8b 04 24          	mov    rax,QWORD PTR [rsp]
    1ee4:	48 85 c0             	test   rax,rax
    1ee7:	75 35                	jne    1f1e <do_ecall_add_thread+0x19e>
    1ee9:	be 08 00 00 00       	mov    esi,0x8
    1eee:	48 89 df             	mov    rdi,rbx
    1ef1:	e8 da ed ff ff       	call   cd0 <sgx_read_rand>
    1ef6:	85 c0                	test   eax,eax
    1ef8:	74 e6                	je     1ee0 <do_ecall_add_thread+0x160>
    1efa:	66 0f 1f 44 00 00    	nop    WORD PTR [rax+rax*1+0x0]
    1f00:	bb 01 00 00 00       	mov    ebx,0x1
    1f05:	48 8b 4c 24 08       	mov    rcx,QWORD PTR [rsp+0x8]
    1f0a:	64 48 33 0c 25 28 00 	xor    rcx,QWORD PTR fs:0x28
    1f11:	00 00 
    1f13:	89 d8                	mov    eax,ebx
    1f15:	75 21                	jne    1f38 <do_ecall_add_thread+0x1b8>
    1f17:	48 83 c4 18          	add    rsp,0x18
    1f1b:	5b                   	pop    rbx
    1f1c:	5d                   	pop    rbp
    1f1d:	c3                   	ret    
    1f1e:	48 83 3d 22 6a 22 00 	cmp    QWORD PTR [rip+0x226a22],0x0        # 228948 <_ZL12g_tcs_cookie>
    1f25:	00 
    1f26:	0f 85 d8 fe ff ff    	jne    1e04 <do_ecall_add_thread+0x84>
    1f2c:	48 89 05 15 6a 22 00 	mov    QWORD PTR [rip+0x226a15],rax        # 228948 <_ZL12g_tcs_cookie>
    1f33:	e9 cc fe ff ff       	jmp    1e04 <do_ecall_add_thread+0x84>
    1f38:	e8 f3 13 00 00       	call   3330 <__stack_chk_fail>
    1f3d:	48 89 15 0c 6a 22 00 	mov    QWORD PTR [rip+0x226a0c],rdx        # 228950 <_ZL10g_tcs_node>
    1f44:	e8 47 36 00 00       	call   5590 <dlfree>
    1f49:	eb ba                	jmp    1f05 <do_ecall_add_thread+0x185>
    1f4b:	48 89 d0             	mov    rax,rdx
    1f4e:	48 89 fa             	mov    rdx,rdi
    1f51:	e9 61 ff ff ff       	jmp    1eb7 <do_ecall_add_thread+0x137>
    1f56:	66 2e 0f 1f 84 00 00 	nop    WORD PTR cs:[rax+rax*1+0x0]
    1f5d:	00 00 00 

0000000000001f60 <do_uninit_enclave>:
    1f60:	48 8d 05 3d 5e 22 00 	lea    rax,[rip+0x225e3d]        # 227da4 <EDMM_supported>
    1f67:	41 54                	push   r12
    1f69:	55                   	push   rbp
    1f6a:	53                   	push   rbx
    1f6b:	48 89 fd             	mov    rbp,rdi
    1f6e:	8b 00                	mov    eax,DWORD PTR [rax]
    1f70:	85 c0                	test   eax,eax
    1f72:	0f 85 88 00 00 00    	jne    2000 <do_uninit_enclave+0xa0>
    1f78:	48 8b 1d d1 69 22 00 	mov    rbx,QWORD PTR [rip+0x2269d1]        # 228950 <_ZL10g_tcs_node>
    1f7f:	48 c7 05 c6 69 22 00 	mov    QWORD PTR [rip+0x2269c6],0x0        # 228950 <_ZL10g_tcs_node>
    1f86:	00 00 00 00 
    1f8a:	48 85 db             	test   rbx,rbx
    1f8d:	74 39                	je     1fc8 <do_uninit_enclave+0x68>
    1f8f:	90                   	nop
    1f90:	48 8b 33             	mov    rsi,QWORD PTR [rbx]
    1f93:	48 33 35 ae 69 22 00 	xor    rsi,QWORD PTR [rip+0x2269ae]        # 228948 <_ZL12g_tcs_cookie>
    1f9a:	48 39 f5             	cmp    rbp,rsi
    1f9d:	74 15                	je     1fb4 <do_uninit_enclave+0x54>
    1f9f:	48 8d 96 00 10 00 00 	lea    rdx,[rsi+0x1000]
    1fa6:	bf 10 04 00 00       	mov    edi,0x410
    1fab:	e8 50 f3 ff ff       	call   1300 <sgx_accept_forward>
    1fb0:	85 c0                	test   eax,eax
    1fb2:	75 60                	jne    2014 <do_uninit_enclave+0xb4>
    1fb4:	4c 8b 63 08          	mov    r12,QWORD PTR [rbx+0x8]
    1fb8:	48 89 df             	mov    rdi,rbx
    1fbb:	e8 d0 35 00 00       	call   5590 <dlfree>
    1fc0:	4c 89 e3             	mov    rbx,r12
    1fc3:	48 85 db             	test   rbx,rbx
    1fc6:	75 c8                	jne    1f90 <do_uninit_enclave+0x30>
    1fc8:	48 8d 3d 71 69 22 00 	lea    rdi,[rip+0x226971]        # 228940 <_ZL10g_ife_lock>
    1fcf:	e8 bc 49 00 00       	call   6990 <sgx_spin_lock>
    1fd4:	0f b6 05 25 60 22 00 	movzx  eax,BYTE PTR [rip+0x226025]        # 228000 <_ZL16g_is_first_ecall>
    1fdb:	84 c0                	test   al,al
    1fdd:	74 41                	je     2020 <do_uninit_enclave+0xc0>
    1fdf:	48 8d 3d 5a 69 22 00 	lea    rdi,[rip+0x22695a]        # 228940 <_ZL10g_ife_lock>
    1fe6:	e8 05 4a 00 00       	call   69f0 <sgx_spin_unlock>
    1feb:	bf 03 00 00 00       	mov    edi,0x3
    1ff0:	e8 15 18 02 00       	call   2380a <set_enclave_state>
    1ff5:	5b                   	pop    rbx
    1ff6:	31 c0                	xor    eax,eax
    1ff8:	5d                   	pop    rbp
    1ff9:	41 5c                	pop    r12
    1ffb:	c3                   	ret    
    1ffc:	0f 1f 40 00          	nop    DWORD PTR [rax+0x0]
    2000:	e8 2b 18 02 00       	call   23830 <get_thread_data>
    2005:	48 85 c0             	test   rax,rax
    2008:	74 0a                	je     2014 <do_uninit_enclave+0xb4>
    200a:	f6 40 30 01          	test   BYTE PTR [rax+0x30],0x1
    200e:	0f 85 64 ff ff ff    	jne    1f78 <do_uninit_enclave+0x18>
    2014:	5b                   	pop    rbx
    2015:	b8 01 00 00 00       	mov    eax,0x1
    201a:	5d                   	pop    rbp
    201b:	41 5c                	pop    r12
    201d:	c3                   	ret    
    201e:	66 90                	xchg   ax,ax
    2020:	e8 2b 12 00 00       	call   3250 <uninit_global_object>
    2025:	eb b8                	jmp    1fdf <do_uninit_enclave+0x7f>
    2027:	66 0f 1f 84 00 00 00 	nop    WORD PTR [rax+rax*1+0x0]
    202e:	00 00 

0000000000002030 <trts_mprotect>:
    2030:	4c 8d 54 24 08       	lea    r10,[rsp+0x8]
    2035:	48 83 e4 c0          	and    rsp,0xffffffffffffffc0
    2039:	41 ff 72 f8          	push   QWORD PTR [r10-0x8]
    203d:	55                   	push   rbp
    203e:	48 89 e5             	mov    rbp,rsp
    2041:	41 56                	push   r14
    2043:	41 55                	push   r13
    2045:	41 54                	push   r12
    2047:	41 52                	push   r10
    2049:	53                   	push   rbx
    204a:	48 81 ec 88 00 00 00 	sub    rsp,0x88
    2051:	64 48 8b 04 25 28 00 	mov    rax,QWORD PTR fs:0x28
    2058:	00 00 
    205a:	48 89 45 c8          	mov    QWORD PTR [rbp-0x38],rax
    205e:	31 c0                	xor    eax,eax
    2060:	f7 c7 ff 0f 00 00    	test   edi,0xfff
    2066:	b8 02 00 00 00       	mov    eax,0x2
    206b:	0f 85 8f 00 00 00    	jne    2100 <trts_mprotect+0xd0>
    2071:	48 85 f6             	test   rsi,rsi
    2074:	49 89 f4             	mov    r12,rsi
    2077:	0f 84 83 00 00 00    	je     2100 <trts_mprotect+0xd0>
    207d:	f7 c6 ff 0f 00 00    	test   esi,0xfff
    2083:	75 7b                	jne    2100 <trts_mprotect+0xd0>
    2085:	48 8d 05 14 5d 22 00 	lea    rax,[rip+0x225d14]        # 227da0 <g_sdk_version>
    208c:	48 89 fb             	mov    rbx,rdi
    208f:	49 89 d5             	mov    r13,rdx
    2092:	83 38 01             	cmp    DWORD PTR [rax],0x1
    2095:	0f 84 8d 00 00 00    	je     2128 <trts_mprotect+0xf8>
    209b:	4c 8d b5 50 ff ff ff 	lea    r14,[rbp-0xb0]
    20a2:	4c 89 e8             	mov    rax,r13
    20a5:	31 f6                	xor    esi,esi
    20a7:	48 0d 20 02 00 00    	or     rax,0x220
    20ad:	ba 38 00 00 00       	mov    edx,0x38
    20b2:	49 01 dc             	add    r12,rbx
    20b5:	49 8d 7e 08          	lea    rdi,[r14+0x8]
    20b9:	48 89 85 50 ff ff ff 	mov    QWORD PTR [rbp-0xb0],rax
    20c0:	41 83 e5 06          	and    r13d,0x6
    20c4:	e8 57 45 00 00       	call   6620 <memset>
    20c9:	4c 39 e3             	cmp    rbx,r12
    20cc:	73 2e                	jae    20fc <trts_mprotect+0xcc>
    20ce:	66 90                	xchg   ax,ax
    20d0:	48 89 de             	mov    rsi,rbx
    20d3:	4c 89 f7             	mov    rdi,r14
    20d6:	e8 1d 1a 02 00       	call   23af8 <do_emodpe>
    20db:	49 83 fd 06          	cmp    r13,0x6
    20df:	74 0f                	je     20f0 <trts_mprotect+0xc0>
    20e1:	48 89 de             	mov    rsi,rbx
    20e4:	4c 89 f7             	mov    rdi,r14
    20e7:	e8 f2 19 02 00       	call   23ade <do_eaccept>
    20ec:	85 c0                	test   eax,eax
    20ee:	75 10                	jne    2100 <trts_mprotect+0xd0>
    20f0:	48 81 c3 00 10 00 00 	add    rbx,0x1000
    20f7:	4c 39 e3             	cmp    rbx,r12
    20fa:	72 d4                	jb     20d0 <trts_mprotect+0xa0>
    20fc:	31 c0                	xor    eax,eax
    20fe:	66 90                	xchg   ax,ax
    2100:	48 8b 4d c8          	mov    rcx,QWORD PTR [rbp-0x38]
    2104:	64 48 33 0c 25 28 00 	xor    rcx,QWORD PTR fs:0x28
    210b:	00 00 
    210d:	75 28                	jne    2137 <trts_mprotect+0x107>
    210f:	48 81 c4 88 00 00 00 	add    rsp,0x88
    2116:	5b                   	pop    rbx
    2117:	41 5a                	pop    r10
    2119:	41 5c                	pop    r12
    211b:	41 5d                	pop    r13
    211d:	41 5e                	pop    r14
    211f:	5d                   	pop    rbp
    2120:	49 8d 62 f8          	lea    rsp,[r10-0x8]
    2124:	c3                   	ret    
    2125:	0f 1f 00             	nop    DWORD PTR [rax]
    2128:	e8 13 00 00 00       	call   2140 <change_permissions_ocall>
    212d:	85 c0                	test   eax,eax
    212f:	0f 84 66 ff ff ff    	je     209b <trts_mprotect+0x6b>
    2135:	eb c9                	jmp    2100 <trts_mprotect+0xd0>
    2137:	e8 f4 11 00 00       	call   3330 <__stack_chk_fail>
    213c:	0f 1f 40 00          	nop    DWORD PTR [rax+0x0]

0000000000002140 <change_permissions_ocall>:
    2140:	41 54                	push   r12
    2142:	55                   	push   rbp
    2143:	49 89 fc             	mov    r12,rdi
    2146:	53                   	push   rbx
    2147:	bf 18 00 00 00       	mov    edi,0x18
    214c:	48 89 f5             	mov    rbp,rsi
    214f:	48 89 d3             	mov    rbx,rdx
    2152:	e8 39 ea ff ff       	call   b90 <sgx_ocalloc>
    2157:	48 85 c0             	test   rax,rax
    215a:	74 2c                	je     2188 <change_permissions_ocall+0x48>
    215c:	4c 89 20             	mov    QWORD PTR [rax],r12
    215f:	48 89 68 08          	mov    QWORD PTR [rax+0x8],rbp
    2163:	48 89 c6             	mov    rsi,rax
    2166:	48 89 58 10          	mov    QWORD PTR [rax+0x10],rbx
    216a:	bf fc ff ff ff       	mov    edi,0xfffffffc
    216f:	e8 2c 00 00 00       	call   21a0 <sgx_ocall>
    2174:	89 c3                	mov    ebx,eax
    2176:	e8 05 eb ff ff       	call   c80 <sgx_ocfree>
    217b:	89 d8                	mov    eax,ebx
    217d:	5b                   	pop    rbx
    217e:	5d                   	pop    rbp
    217f:	41 5c                	pop    r12
    2181:	c3                   	ret    
    2182:	66 0f 1f 44 00 00    	nop    WORD PTR [rax+rax*1+0x0]
    2188:	bb 01 00 00 00       	mov    ebx,0x1
    218d:	e8 ee ea ff ff       	call   c80 <sgx_ocfree>
    2192:	89 d8                	mov    eax,ebx
    2194:	5b                   	pop    rbx
    2195:	5d                   	pop    rbp
    2196:	41 5c                	pop    r12
    2198:	c3                   	ret    
    2199:	0f 1f 80 00 00 00 00 	nop    DWORD PTR [rax+0x0]

00000000000021a0 <sgx_ocall>:
    21a0:	8d 47 05             	lea    eax,[rdi+0x5]
    21a3:	83 f8 03             	cmp    eax,0x3
    21a6:	76 12                	jbe    21ba <sgx_ocall+0x1a>
    21a8:	85 ff                	test   edi,edi
    21aa:	74 0e                	je     21ba <sgx_ocall+0x1a>
    21ac:	48 8d 15 ed 19 02 00 	lea    rdx,[rip+0x219ed]        # 23ba0 <g_dyn_entry_table>
    21b3:	89 f8                	mov    eax,edi
    21b5:	48 3b 02             	cmp    rax,QWORD PTR [rdx]
    21b8:	73 06                	jae    21c0 <sgx_ocall+0x20>
    21ba:	e9 72 18 02 00       	jmp    23a31 <__morestack>
    21bf:	90                   	nop
    21c0:	b8 01 10 00 00       	mov    eax,0x1001
    21c5:	c3                   	ret    
    21c6:	66 2e 0f 1f 84 00 00 	nop    WORD PTR cs:[rax+rax*1+0x0]
    21cd:	00 00 00 

00000000000021d0 <update_ocall_lastsp>:
    21d0:	53                   	push   rbx
    21d1:	48 89 fb             	mov    rbx,rdi
    21d4:	e8 57 16 02 00       	call   23830 <get_thread_data>
    21d9:	48 8b 50 08          	mov    rdx,QWORD PTR [rax+0x8]
    21dd:	48 39 50 10          	cmp    QWORD PTR [rax+0x10],rdx
    21e1:	48 89 53 30          	mov    QWORD PTR [rbx+0x30],rdx
    21e5:	74 21                	je     2208 <update_ocall_lastsp+0x38>
    21e7:	48 8b b2 90 00 00 00 	mov    rsi,QWORD PTR [rdx+0x90]
    21ee:	48 8d 4e 01          	lea    rcx,[rsi+0x1]
    21f2:	48 89 8b 90 00 00 00 	mov    QWORD PTR [rbx+0x90],rcx
    21f9:	48 89 58 08          	mov    QWORD PTR [rax+0x8],rbx
    21fd:	48 89 d0             	mov    rax,rdx
    2200:	5b                   	pop    rbx
    2201:	c3                   	ret    
    2202:	66 0f 1f 44 00 00    	nop    WORD PTR [rax+rax*1+0x0]
    2208:	48 c7 83 90 00 00 00 	mov    QWORD PTR [rbx+0x90],0x1
    220f:	01 00 00 00 
    2213:	48 89 58 08          	mov    QWORD PTR [rax+0x8],rbx
    2217:	48 89 d0             	mov    rax,rdx
    221a:	5b                   	pop    rbx
    221b:	c3                   	ret    
    221c:	0f 1f 40 00          	nop    DWORD PTR [rax+0x0]

0000000000002220 <do_oret>:
    2220:	53                   	push   rbx
    2221:	48 89 fb             	mov    rbx,rdi
    2224:	48 83 ec 10          	sub    rsp,0x10
    2228:	64 48 8b 04 25 28 00 	mov    rax,QWORD PTR fs:0x28
    222f:	00 00 
    2231:	48 89 44 24 08       	mov    QWORD PTR [rsp+0x8],rax
    2236:	31 c0                	xor    eax,eax
    2238:	e8 f3 15 02 00       	call   23830 <get_thread_data>
    223d:	48 8b 78 08          	mov    rdi,QWORD PTR [rax+0x8]
    2241:	48 85 ff             	test   rdi,rdi
    2244:	48 89 3c 24          	mov    QWORD PTR [rsp],rdi
    2248:	74 46                	je     2290 <do_oret+0x70>
    224a:	48 89 e2             	mov    rdx,rsp
    224d:	48 39 fa             	cmp    rdx,rdi
    2250:	73 3e                	jae    2290 <do_oret+0x70>
    2252:	48 8b 50 10          	mov    rdx,QWORD PTR [rax+0x10]
    2256:	48 8d 8a 10 ff ff ff 	lea    rcx,[rdx-0xf0]
    225d:	48 39 f9             	cmp    rcx,rdi
    2260:	72 2e                	jb     2290 <do_oret+0x70>
    2262:	48 81 7f 20 44 49 43 	cmp    QWORD PTR [rdi+0x20],0x4f434944
    2269:	4f 
    226a:	75 24                	jne    2290 <do_oret+0x70>
    226c:	48 8b 4f 30          	mov    rcx,QWORD PTR [rdi+0x30]
    2270:	48 39 ca             	cmp    rdx,rcx
    2273:	72 1b                	jb     2290 <do_oret+0x70>
    2275:	48 39 f9             	cmp    rcx,rdi
    2278:	76 16                	jbe    2290 <do_oret+0x70>
    227a:	48 89 48 08          	mov    QWORD PTR [rax+0x8],rcx
    227e:	48 89 de             	mov    rsi,rbx
    2281:	e8 ba 17 02 00       	call   23a40 <asm_oret>
    2286:	66 2e 0f 1f 84 00 00 	nop    WORD PTR cs:[rax+rax*1+0x0]
    228d:	00 00 00 
    2290:	48 8b 74 24 08       	mov    rsi,QWORD PTR [rsp+0x8]
    2295:	64 48 33 34 25 28 00 	xor    rsi,QWORD PTR fs:0x28
    229c:	00 00 
    229e:	b8 01 00 00 00       	mov    eax,0x1
    22a3:	75 06                	jne    22ab <do_oret+0x8b>
    22a5:	48 83 c4 10          	add    rsp,0x10
    22a9:	5b                   	pop    rbx
    22aa:	c3                   	ret    
    22ab:	e8 80 10 00 00       	call   3330 <__stack_chk_fail>

00000000000022b0 <do_init_switchless>:
    22b0:	b8 01 00 00 00       	mov    eax,0x1
    22b5:	c3                   	ret    
    22b6:	66 2e 0f 1f 84 00 00 	nop    WORD PTR cs:[rax+rax*1+0x0]
    22bd:	00 00 00 

00000000000022c0 <do_run_switchless_tworker>:
    22c0:	b8 01 00 00 00       	mov    eax,0x1
    22c5:	c3                   	ret    
    22c6:	66 2e 0f 1f 84 00 00 	nop    WORD PTR cs:[rax+rax*1+0x0]
    22cd:	00 00 00 

00000000000022d0 <trim_range_ocall>:
    22d0:	55                   	push   rbp
    22d1:	53                   	push   rbx
    22d2:	48 89 fd             	mov    rbp,rdi
    22d5:	bf 10 00 00 00       	mov    edi,0x10
    22da:	48 89 f3             	mov    rbx,rsi
    22dd:	48 83 ec 08          	sub    rsp,0x8
    22e1:	e8 aa e8 ff ff       	call   b90 <sgx_ocalloc>
    22e6:	48 85 c0             	test   rax,rax
    22e9:	74 25                	je     2310 <trim_range_ocall+0x40>
    22eb:	48 89 28             	mov    QWORD PTR [rax],rbp
    22ee:	48 89 58 08          	mov    QWORD PTR [rax+0x8],rbx
    22f2:	48 89 c6             	mov    rsi,rax
    22f5:	bf fe ff ff ff       	mov    edi,0xfffffffe
    22fa:	e8 a1 fe ff ff       	call   21a0 <sgx_ocall>
    22ff:	89 c3                	mov    ebx,eax
    2301:	e8 7a e9 ff ff       	call   c80 <sgx_ocfree>
    2306:	48 83 c4 08          	add    rsp,0x8
    230a:	89 d8                	mov    eax,ebx
    230c:	5b                   	pop    rbx
    230d:	5d                   	pop    rbp
    230e:	c3                   	ret    
    230f:	90                   	nop
    2310:	e8 6b e9 ff ff       	call   c80 <sgx_ocfree>
    2315:	bb 01 00 00 00       	mov    ebx,0x1
    231a:	48 83 c4 08          	add    rsp,0x8
    231e:	89 d8                	mov    eax,ebx
    2320:	5b                   	pop    rbx
    2321:	5d                   	pop    rbp
    2322:	c3                   	ret    
    2323:	66 2e 0f 1f 84 00 00 	nop    WORD PTR cs:[rax+rax*1+0x0]
    232a:	00 00 00 
    232d:	0f 1f 00             	nop    DWORD PTR [rax]

0000000000002330 <trim_range_commit_ocall>:
    2330:	53                   	push   rbx
    2331:	48 89 fb             	mov    rbx,rdi
    2334:	bf 08 00 00 00       	mov    edi,0x8
    2339:	e8 52 e8 ff ff       	call   b90 <sgx_ocalloc>
    233e:	48 85 c0             	test   rax,rax
    2341:	74 1d                	je     2360 <trim_range_commit_ocall+0x30>
    2343:	48 89 18             	mov    QWORD PTR [rax],rbx
    2346:	48 89 c6             	mov    rsi,rax
    2349:	bf fd ff ff ff       	mov    edi,0xfffffffd
    234e:	e8 4d fe ff ff       	call   21a0 <sgx_ocall>
    2353:	89 c3                	mov    ebx,eax
    2355:	e8 26 e9 ff ff       	call   c80 <sgx_ocfree>
    235a:	89 d8                	mov    eax,ebx
    235c:	5b                   	pop    rbx
    235d:	c3                   	ret    
    235e:	66 90                	xchg   ax,ax
    2360:	bb 01 00 00 00       	mov    ebx,0x1
    2365:	e8 16 e9 ff ff       	call   c80 <sgx_ocfree>
    236a:	89 d8                	mov    eax,ebx
    236c:	5b                   	pop    rbx
    236d:	c3                   	ret    
    236e:	66 90                	xchg   ax,ax

0000000000002370 <get_heap_base>:
    2370:	48 8d 05 09 26 02 00 	lea    rax,[rip+0x22609]        # 24980 <g_global_data>
    2377:	48 8b 40 08          	mov    rax,QWORD PTR [rax+0x8]
    237b:	48 03 05 06 5c 22 00 	add    rax,QWORD PTR [rip+0x225c06]        # 227f88 <_GLOBAL_OFFSET_TABLE_+0x18>
    2382:	c3                   	ret    
    2383:	66 2e 0f 1f 84 00 00 	nop    WORD PTR cs:[rax+rax*1+0x0]
    238a:	00 00 00 
    238d:	0f 1f 00             	nop    DWORD PTR [rax]

0000000000002390 <get_heap_size>:
    2390:	48 8d 15 0d 5a 22 00 	lea    rdx,[rip+0x225a0d]        # 227da4 <EDMM_supported>
    2397:	48 8d 35 e2 25 02 00 	lea    rsi,[rip+0x225e2]        # 24980 <g_global_data>
    239e:	8b 12                	mov    edx,DWORD PTR [rdx]
    23a0:	48 8b 46 10          	mov    rax,QWORD PTR [rsi+0x10]
    23a4:	85 d2                	test   edx,edx
    23a6:	74 3d                	je     23e5 <get_heap_size+0x55>
    23a8:	8b 96 18 01 00 00    	mov    edx,DWORD PTR [rsi+0x118]
    23ae:	85 d2                	test   edx,edx
    23b0:	74 33                	je     23e5 <get_heap_size+0x55>
    23b2:	31 c9                	xor    ecx,ecx
    23b4:	0f 1f 40 00          	nop    DWORD PTR [rax+0x0]
    23b8:	89 ca                	mov    edx,ecx
    23ba:	48 83 c2 09          	add    rdx,0x9
    23be:	48 c1 e2 05          	shl    rdx,0x5
    23c2:	48 01 f2             	add    rdx,rsi
    23c5:	0f b7 3a             	movzx  edi,WORD PTR [rdx]
    23c8:	66 83 ff 03          	cmp    di,0x3
    23cc:	75 0a                	jne    23d8 <get_heap_size+0x48>
    23ce:	8b 52 04             	mov    edx,DWORD PTR [rdx+0x4]
    23d1:	48 c1 e2 0c          	shl    rdx,0xc
    23d5:	48 01 d0             	add    rax,rdx
    23d8:	8b 96 18 01 00 00    	mov    edx,DWORD PTR [rsi+0x118]
    23de:	83 c1 01             	add    ecx,0x1
    23e1:	39 ca                	cmp    edx,ecx
    23e3:	77 d3                	ja     23b8 <get_heap_size+0x28>
    23e5:	f3 c3                	repz ret 
    23e7:	66 0f 1f 84 00 00 00 	nop    WORD PTR [rax+rax*1+0x0]
    23ee:	00 00 

00000000000023f0 <get_heap_min_size>:
    23f0:	48 8d 0d 89 25 02 00 	lea    rcx,[rip+0x22589]        # 24980 <g_global_data>
    23f7:	8b 81 18 01 00 00    	mov    eax,DWORD PTR [rcx+0x118]
    23fd:	85 c0                	test   eax,eax
    23ff:	74 3a                	je     243b <get_heap_min_size+0x4b>
    2401:	0f b7 81 20 01 00 00 	movzx  eax,WORD PTR [rcx+0x120]
    2408:	66 83 f8 01          	cmp    ax,0x1
    240c:	74 32                	je     2440 <get_heap_min_size+0x50>
    240e:	31 d2                	xor    edx,edx
    2410:	eb 1c                	jmp    242e <get_heap_min_size+0x3e>
    2412:	66 0f 1f 44 00 00    	nop    WORD PTR [rax+rax*1+0x0]
    2418:	89 d6                	mov    esi,edx
    241a:	48 8d 46 09          	lea    rax,[rsi+0x9]
    241e:	48 c1 e0 05          	shl    rax,0x5
    2422:	48 01 c8             	add    rax,rcx
    2425:	0f b7 00             	movzx  eax,WORD PTR [rax]
    2428:	66 83 f8 01          	cmp    ax,0x1
    242c:	74 14                	je     2442 <get_heap_min_size+0x52>
    242e:	8b 81 18 01 00 00    	mov    eax,DWORD PTR [rcx+0x118]
    2434:	83 c2 01             	add    edx,0x1
    2437:	39 d0                	cmp    eax,edx
    2439:	77 dd                	ja     2418 <get_heap_min_size+0x28>
    243b:	31 c0                	xor    eax,eax
    243d:	c3                   	ret    
    243e:	66 90                	xchg   ax,ax
    2440:	31 f6                	xor    esi,esi
    2442:	48 83 c6 09          	add    rsi,0x9
    2446:	48 c1 e6 05          	shl    rsi,0x5
    244a:	48 01 f1             	add    rcx,rsi
    244d:	8b 41 04             	mov    eax,DWORD PTR [rcx+0x4]
    2450:	48 c1 e0 0c          	shl    rax,0xc
    2454:	c3                   	ret    
    2455:	66 2e 0f 1f 84 00 00 	nop    WORD PTR cs:[rax+rax*1+0x0]
    245c:	00 00 00 
    245f:	90                   	nop

0000000000002460 <get_errno_addr>:
    2460:	48 83 ec 08          	sub    rsp,0x8
    2464:	e8 c7 13 02 00       	call   23830 <get_thread_data>
    2469:	48 83 c4 08          	add    rsp,0x8
    246d:	48 83 c0 40          	add    rax,0x40
    2471:	c3                   	ret    
    2472:	66 2e 0f 1f 84 00 00 	nop    WORD PTR cs:[rax+rax*1+0x0]
    2479:	00 00 00 
    247c:	0f 1f 40 00          	nop    DWORD PTR [rax+0x0]

0000000000002480 <feature_supported>:
    2480:	31 c0                	xor    eax,eax
    2482:	48 85 ff             	test   rdi,rdi
    2485:	74 3b                	je     24c2 <feature_supported+0x42>
    2487:	31 d2                	xor    edx,edx
    2489:	eb 0d                	jmp    2498 <feature_supported+0x18>
    248b:	0f 1f 44 00 00       	nop    DWORD PTR [rax+rax*1+0x0]
    2490:	48 85 c0             	test   rax,rax
    2493:	44 89 c2             	mov    edx,r8d
    2496:	78 28                	js     24c0 <feature_supported+0x40>
    2498:	44 8d 42 01          	lea    r8d,[rdx+0x1]
    249c:	89 d0                	mov    eax,edx
    249e:	48 8b 04 c7          	mov    rax,QWORD PTR [rdi+rax*8]
    24a2:	45 89 c1             	mov    r9d,r8d
    24a5:	41 c1 e1 06          	shl    r9d,0x6
    24a9:	44 39 ce             	cmp    esi,r9d
    24ac:	73 e2                	jae    2490 <feature_supported+0x10>
    24ae:	c1 e2 06             	shl    edx,0x6
    24b1:	89 f1                	mov    ecx,esi
    24b3:	29 d1                	sub    ecx,edx
    24b5:	48 d3 e8             	shr    rax,cl
    24b8:	83 e0 01             	and    eax,0x1
    24bb:	c3                   	ret    
    24bc:	0f 1f 40 00          	nop    DWORD PTR [rax+0x0]
    24c0:	31 c0                	xor    eax,eax
    24c2:	f3 c3                	repz ret 
    24c4:	66 2e 0f 1f 84 00 00 	nop    WORD PTR cs:[rax+rax*1+0x0]
    24cb:	00 00 00 
    24ce:	66 90                	xchg   ax,ax

00000000000024d0 <is_stack_addr>:
    24d0:	55                   	push   rbp
    24d1:	53                   	push   rbx
    24d2:	48 89 f5             	mov    rbp,rsi
    24d5:	48 89 fb             	mov    rbx,rdi
    24d8:	48 83 ec 08          	sub    rsp,0x8
    24dc:	e8 4f 13 02 00       	call   23830 <get_thread_data>
    24e1:	31 c9                	xor    ecx,ecx
    24e3:	48 01 dd             	add    rbp,rbx
    24e6:	0f 92 c1             	setb   cl
    24e9:	48 3b 68 10          	cmp    rbp,QWORD PTR [rax+0x10]
    24ed:	0f 96 c2             	setbe  dl
    24f0:	48 39 58 18          	cmp    QWORD PTR [rax+0x18],rbx
    24f4:	0f 96 c0             	setbe  al
    24f7:	21 d0                	and    eax,edx
    24f9:	48 85 c9             	test   rcx,rcx
    24fc:	0f 94 c2             	sete   dl
    24ff:	48 83 c4 08          	add    rsp,0x8
    2503:	21 d0                	and    eax,edx
    2505:	5b                   	pop    rbx
    2506:	5d                   	pop    rbp
    2507:	c3                   	ret    
    2508:	0f 1f 84 00 00 00 00 	nop    DWORD PTR [rax+rax*1+0x0]
    250f:	00 

0000000000002510 <is_valid_sp>:
    2510:	40 f6 c7 07          	test   dil,0x7
    2514:	74 0a                	je     2520 <is_valid_sp+0x10>
    2516:	31 c0                	xor    eax,eax
    2518:	c3                   	ret    
    2519:	0f 1f 80 00 00 00 00 	nop    DWORD PTR [rax+0x0]
    2520:	53                   	push   rbx
    2521:	48 89 fb             	mov    rbx,rdi
    2524:	e8 07 13 02 00       	call   23830 <get_thread_data>
    2529:	48 3b 58 18          	cmp    rbx,QWORD PTR [rax+0x18]
    252d:	0f 93 c2             	setae  dl
    2530:	48 3b 58 10          	cmp    rbx,QWORD PTR [rax+0x10]
    2534:	5b                   	pop    rbx
    2535:	0f 96 c0             	setbe  al
    2538:	21 d0                	and    eax,edx
    253a:	c3                   	ret    
    253b:	0f 1f 44 00 00       	nop    DWORD PTR [rax+rax*1+0x0]

0000000000002540 <internal_handle_exception>:
    2540:	41 56                	push   r14
    2542:	41 55                	push   r13
    2544:	41 54                	push   r12
    2546:	55                   	push   rbp
    2547:	48 89 fd             	mov    rbp,rdi
    254a:	53                   	push   rbx
    254b:	e8 e0 12 02 00       	call   23830 <get_thread_data>
    2550:	49 89 c4             	mov    r12,rax
    2553:	48 8b 40 60          	mov    rax,QWORD PTR [rax+0x60]
    2557:	48 85 c0             	test   rax,rax
    255a:	79 0e                	jns    256a <internal_handle_exception+0x2a>
    255c:	49 c7 44 24 60 ff ff 	mov    QWORD PTR [r12+0x60],0xffffffffffffffff
    2563:	ff ff 
    2565:	e8 c2 15 02 00       	call   23b2c <abort>
    256a:	48 83 c0 01          	add    rax,0x1
    256e:	48 8d 3d eb 63 22 00 	lea    rdi,[rip+0x2263eb]        # 228960 <_ZL14g_handler_lock>
    2575:	49 89 44 24 60       	mov    QWORD PTR [r12+0x60],rax
    257a:	e8 11 44 00 00       	call   6990 <sgx_spin_lock>
    257f:	48 8b 05 e2 63 22 00 	mov    rax,QWORD PTR [rip+0x2263e2]        # 228968 <_ZL12g_first_node>
    2586:	48 85 c0             	test   rax,rax
    2589:	0f 84 e7 00 00 00    	je     2676 <internal_handle_exception+0x136>
    258f:	31 db                	xor    ebx,ebx
    2591:	0f 1f 80 00 00 00 00 	nop    DWORD PTR [rax+0x0]
    2598:	48 8b 40 08          	mov    rax,QWORD PTR [rax+0x8]
    259c:	48 83 c3 08          	add    rbx,0x8
    25a0:	48 85 c0             	test   rax,rax
    25a3:	75 f3                	jne    2598 <internal_handle_exception+0x58>
    25a5:	48 85 db             	test   rbx,rbx
    25a8:	0f 84 c8 00 00 00    	je     2676 <internal_handle_exception+0x136>
    25ae:	48 89 df             	mov    rdi,rbx
    25b1:	e8 da 15 00 00       	call   3b90 <dlmalloc>
    25b6:	48 85 c0             	test   rax,rax
    25b9:	49 89 c5             	mov    r13,rax
    25bc:	0f 84 d8 00 00 00    	je     269a <internal_handle_exception+0x15a>
    25c2:	48 8b 05 9f 63 22 00 	mov    rax,QWORD PTR [rip+0x22639f]        # 228968 <_ZL12g_first_node>
    25c9:	48 85 c0             	test   rax,rax
    25cc:	74 1e                	je     25ec <internal_handle_exception+0xac>
    25ce:	4c 89 ea             	mov    rdx,r13
    25d1:	0f 1f 80 00 00 00 00 	nop    DWORD PTR [rax+0x0]
    25d8:	48 8b 08             	mov    rcx,QWORD PTR [rax]
    25db:	48 8b 40 08          	mov    rax,QWORD PTR [rax+0x8]
    25df:	48 83 c2 08          	add    rdx,0x8
    25e3:	48 89 4a f8          	mov    QWORD PTR [rdx-0x8],rcx
    25e7:	48 85 c0             	test   rax,rax
    25ea:	75 ec                	jne    25d8 <internal_handle_exception+0x98>
    25ec:	48 8d 3d 6d 63 22 00 	lea    rdi,[rip+0x22636d]        # 228960 <_ZL14g_handler_lock>
    25f3:	e8 f8 43 00 00       	call   69f0 <sgx_spin_unlock>
    25f8:	48 85 db             	test   rbx,rbx
    25fb:	74 55                	je     2652 <internal_handle_exception+0x112>
    25fd:	4d 89 ee             	mov    r14,r13
    2600:	eb 10                	jmp    2612 <internal_handle_exception+0xd2>
    2602:	66 0f 1f 44 00 00    	nop    WORD PTR [rax+rax*1+0x0]
    2608:	49 83 c6 08          	add    r14,0x8
    260c:	48 83 eb 08          	sub    rbx,0x8
    2610:	74 40                	je     2652 <internal_handle_exception+0x112>
    2612:	49 8b 06             	mov    rax,QWORD PTR [r14]
    2615:	48 33 05 3c 63 22 00 	xor    rax,QWORD PTR [rip+0x22633c]        # 228958 <_ZL12g_veh_cookie>
    261c:	48 89 ef             	mov    rdi,rbp
    261f:	ff d0                	call   rax
    2621:	83 f8 ff             	cmp    eax,0xffffffff
    2624:	75 e2                	jne    2608 <internal_handle_exception+0xc8>
    2626:	4c 89 ef             	mov    rdi,r13
    2629:	e8 62 2f 00 00       	call   5590 <dlfree>
    262e:	48 8b 7d 20          	mov    rdi,QWORD PTR [rbp+0x20]
    2632:	e8 d9 fe ff ff       	call   2510 <is_valid_sp>
    2637:	84 c0                	test   al,al
    2639:	0f 84 1d ff ff ff    	je     255c <internal_handle_exception+0x1c>
    263f:	49 83 6c 24 60 01    	sub    QWORD PTR [r12+0x60],0x1
    2645:	48 89 ef             	mov    rdi,rbp
    2648:	e8 ee 14 02 00       	call   23b3b <continue_execution>
    264d:	e9 0a ff ff ff       	jmp    255c <internal_handle_exception+0x1c>
    2652:	4c 89 ef             	mov    rdi,r13
    2655:	e8 36 2f 00 00       	call   5590 <dlfree>
    265a:	48 8b 7d 20          	mov    rdi,QWORD PTR [rbp+0x20]
    265e:	e8 ad fe ff ff       	call   2510 <is_valid_sp>
    2663:	84 c0                	test   al,al
    2665:	0f 84 f1 fe ff ff    	je     255c <internal_handle_exception+0x1c>
    266b:	49 c7 44 24 60 ff ff 	mov    QWORD PTR [r12+0x60],0xffffffffffffffff
    2672:	ff ff 
    2674:	eb cf                	jmp    2645 <internal_handle_exception+0x105>
    2676:	48 8d 3d e3 62 22 00 	lea    rdi,[rip+0x2262e3]        # 228960 <_ZL14g_handler_lock>
    267d:	31 db                	xor    ebx,ebx
    267f:	e8 6c 43 00 00       	call   69f0 <sgx_spin_unlock>
    2684:	49 c7 44 24 60 ff ff 	mov    QWORD PTR [r12+0x60],0xffffffffffffffff
    268b:	ff ff 
    268d:	48 89 ef             	mov    rdi,rbp
    2690:	e8 a6 14 02 00       	call   23b3b <continue_execution>
    2695:	e9 14 ff ff ff       	jmp    25ae <internal_handle_exception+0x6e>
    269a:	48 8d 3d bf 62 22 00 	lea    rdi,[rip+0x2262bf]        # 228960 <_ZL14g_handler_lock>
    26a1:	e8 4a 43 00 00       	call   69f0 <sgx_spin_unlock>
    26a6:	e9 b1 fe ff ff       	jmp    255c <internal_handle_exception+0x1c>
    26ab:	0f 1f 44 00 00       	nop    DWORD PTR [rax+rax*1+0x0]

00000000000026b0 <trts_handle_exception>:
    26b0:	41 55                	push   r13
    26b2:	41 54                	push   r12
    26b4:	55                   	push   rbp
    26b5:	53                   	push   rbx
    26b6:	48 89 fb             	mov    rbx,rdi
    26b9:	48 83 ec 08          	sub    rsp,0x8
    26bd:	e8 6e 11 02 00       	call   23830 <get_thread_data>
    26c2:	48 85 c0             	test   rax,rax
    26c5:	74 51                	je     2718 <trts_handle_exception+0x68>
    26c7:	48 85 db             	test   rbx,rbx
    26ca:	74 4c                	je     2718 <trts_handle_exception+0x68>
    26cc:	48 89 df             	mov    rdi,rbx
    26cf:	48 89 c5             	mov    rbp,rax
    26d2:	e8 59 e7 ff ff       	call   e30 <check_static_stack_canary>
    26d7:	85 c0                	test   eax,eax
    26d9:	75 3d                	jne    2718 <trts_handle_exception+0x68>
    26db:	e8 1d 11 02 00       	call   237fd <get_enclave_state>
    26e0:	83 f8 02             	cmp    eax,0x2
    26e3:	75 33                	jne    2718 <trts_handle_exception+0x68>
    26e5:	48 83 7d 60 ff       	cmp    QWORD PTR [rbp+0x60],0xffffffffffffffff
    26ea:	74 2c                	je     2718 <trts_handle_exception+0x68>
    26ec:	48 8b 45 10          	mov    rax,QWORD PTR [rbp+0x10]
    26f0:	48 05 b0 02 01 00    	add    rax,0x102b0
    26f6:	48 39 c3             	cmp    rbx,rax
    26f9:	75 1d                	jne    2718 <trts_handle_exception+0x68>
    26fb:	4c 8b 65 20          	mov    r12,QWORD PTR [rbp+0x20]
    26ff:	4c 89 e0             	mov    rax,r12
    2702:	48 25 00 f0 ff ff    	and    rax,0xfffffffffffff000
    2708:	48 2d 00 10 00 00    	sub    rax,0x1000
    270e:	48 39 c3             	cmp    rbx,rax
    2711:	74 25                	je     2738 <trts_handle_exception+0x88>
    2713:	0f 1f 44 00 00       	nop    DWORD PTR [rax+rax*1+0x0]
    2718:	48 8d 05 05 62 22 00 	lea    rax,[rip+0x226205]        # 228924 <g_enclave_state>
    271f:	c7 00 03 00 00 00    	mov    DWORD PTR [rax],0x3
    2725:	b8 06 10 00 00       	mov    eax,0x1006
    272a:	48 83 c4 08          	add    rsp,0x8
    272e:	5b                   	pop    rbx
    272f:	5d                   	pop    rbp
    2730:	41 5c                	pop    r12
    2732:	41 5d                	pop    r13
    2734:	c3                   	ret    
    2735:	0f 1f 00             	nop    DWORD PTR [rax]
    2738:	49 8b 5c 24 20       	mov    rbx,QWORD PTR [r12+0x20]
    273d:	31 f6                	xor    esi,esi
    273f:	48 89 df             	mov    rdi,rbx
    2742:	e8 89 fd ff ff       	call   24d0 <is_stack_addr>
    2747:	84 c0                	test   al,al
    2749:	0f 84 81 00 00 00    	je     27d0 <trts_handle_exception+0x120>
    274f:	48 81 eb 18 01 00 00 	sub    rbx,0x118
    2756:	be 18 01 00 00       	mov    esi,0x118
    275b:	48 83 e3 f0          	and    rbx,0xfffffffffffffff0
    275f:	48 89 df             	mov    rdi,rbx
    2762:	e8 69 fd ff ff       	call   24d0 <is_stack_addr>
    2767:	84 c0                	test   al,al
    2769:	74 65                	je     27d0 <trts_handle_exception+0x120>
    276b:	4c 8d 6b f8          	lea    r13,[rbx-0x8]
    276f:	be 08 00 00 00       	mov    esi,0x8
    2774:	4c 89 ef             	mov    rdi,r13
    2777:	e8 54 fd ff ff       	call   24d0 <is_stack_addr>
    277c:	84 c0                	test   al,al
    277e:	74 50                	je     27d0 <trts_handle_exception+0x120>
    2780:	48 8b 85 98 00 00 00 	mov    rax,QWORD PTR [rbp+0x98]
    2787:	4c 39 e8             	cmp    rax,r13
    278a:	76 5b                	jbe    27e7 <trts_handle_exception+0x137>
    278c:	48 8d 98 ff 0f 00 00 	lea    rbx,[rax+0xfff]
    2793:	4c 29 eb             	sub    rbx,r13
    2796:	48 81 e3 00 f0 ff ff 	and    rbx,0xfffffffffffff000
    279d:	48 39 d8             	cmp    rax,rbx
    27a0:	76 2e                	jbe    27d0 <trts_handle_exception+0x120>
    27a2:	48 29 d8             	sub    rax,rbx
    27a5:	48 3b 45 18          	cmp    rax,QWORD PTR [rbp+0x18]
    27a9:	48 89 c7             	mov    rdi,rax
    27ac:	72 22                	jb     27d0 <trts_handle_exception+0x120>
    27ae:	48 89 de             	mov    rsi,rbx
    27b1:	48 c1 ee 0c          	shr    rsi,0xc
    27b5:	48 85 f6             	test   rsi,rsi
    27b8:	74 16                	je     27d0 <trts_handle_exception+0x120>
    27ba:	e8 11 ed ff ff       	call   14d0 <apply_pages_within_exception>
    27bf:	85 c0                	test   eax,eax
    27c1:	75 0d                	jne    27d0 <trts_handle_exception+0x120>
    27c3:	48 29 9d 98 00 00 00 	sub    QWORD PTR [rbp+0x98],rbx
    27ca:	e9 5b ff ff ff       	jmp    272a <trts_handle_exception+0x7a>
    27cf:	90                   	nop
    27d0:	48 8d 05 4d 61 22 00 	lea    rax,[rip+0x22614d]        # 228924 <g_enclave_state>
    27d7:	c7 00 03 00 00 00    	mov    DWORD PTR [rax],0x3
    27dd:	b8 09 10 00 00       	mov    eax,0x1009
    27e2:	e9 43 ff ff ff       	jmp    272a <trts_handle_exception+0x7a>
    27e7:	49 8b 84 24 88 00 00 	mov    rax,QWORD PTR [r12+0x88]
    27ee:	00 
    27ef:	48 3b 05 f2 57 22 00 	cmp    rax,QWORD PTR [rip+0x2257f2]        # 227fe8 <_GLOBAL_OFFSET_TABLE_+0x78>
    27f6:	0f 84 05 01 00 00    	je     2901 <trts_handle_exception+0x251>
    27fc:	41 80 bc 24 a3 00 00 	cmp    BYTE PTR [r12+0xa3],0x0
    2803:	00 00 
    2805:	0f 89 0d ff ff ff    	jns    2718 <trts_handle_exception+0x68>
    280b:	41 0f b6 94 24 a0 00 	movzx  edx,BYTE PTR [r12+0xa0]
    2812:	00 00 
    2814:	48 8d 0d 25 fd ff ff 	lea    rcx,[rip+0xfffffffffffffd25]        # 2540 <internal_handle_exception>
    281b:	89 93 90 00 00 00    	mov    DWORD PTR [rbx+0x90],edx
    2821:	41 0f b6 94 24 a1 00 	movzx  edx,BYTE PTR [r12+0xa1]
    2828:	00 00 
    282a:	83 e2 07             	and    edx,0x7
    282d:	89 93 94 00 00 00    	mov    DWORD PTR [rbx+0x94],edx
    2833:	49 8b 14 24          	mov    rdx,QWORD PTR [r12]
    2837:	48 89 13             	mov    QWORD PTR [rbx],rdx
    283a:	49 8b 54 24 08       	mov    rdx,QWORD PTR [r12+0x8]
    283f:	48 89 53 08          	mov    QWORD PTR [rbx+0x8],rdx
    2843:	49 8b 54 24 10       	mov    rdx,QWORD PTR [r12+0x10]
    2848:	48 89 53 10          	mov    QWORD PTR [rbx+0x10],rdx
    284c:	49 8b 54 24 18       	mov    rdx,QWORD PTR [r12+0x18]
    2851:	48 89 53 18          	mov    QWORD PTR [rbx+0x18],rdx
    2855:	49 8b 54 24 20       	mov    rdx,QWORD PTR [r12+0x20]
    285a:	48 89 53 20          	mov    QWORD PTR [rbx+0x20],rdx
    285e:	49 8b 54 24 28       	mov    rdx,QWORD PTR [r12+0x28]
    2863:	48 89 53 28          	mov    QWORD PTR [rbx+0x28],rdx
    2867:	49 8b 54 24 30       	mov    rdx,QWORD PTR [r12+0x30]
    286c:	48 89 53 30          	mov    QWORD PTR [rbx+0x30],rdx
    2870:	49 8b 54 24 38       	mov    rdx,QWORD PTR [r12+0x38]
    2875:	48 89 53 38          	mov    QWORD PTR [rbx+0x38],rdx
    2879:	49 8b 94 24 80 00 00 	mov    rdx,QWORD PTR [r12+0x80]
    2880:	00 
    2881:	48 89 83 88 00 00 00 	mov    QWORD PTR [rbx+0x88],rax
    2888:	48 89 93 80 00 00 00 	mov    QWORD PTR [rbx+0x80],rdx
    288f:	49 8b 54 24 40       	mov    rdx,QWORD PTR [r12+0x40]
    2894:	48 89 53 40          	mov    QWORD PTR [rbx+0x40],rdx
    2898:	49 8b 54 24 48       	mov    rdx,QWORD PTR [r12+0x48]
    289d:	48 89 53 48          	mov    QWORD PTR [rbx+0x48],rdx
    28a1:	49 8b 54 24 50       	mov    rdx,QWORD PTR [r12+0x50]
    28a6:	48 89 53 50          	mov    QWORD PTR [rbx+0x50],rdx
    28aa:	49 8b 54 24 58       	mov    rdx,QWORD PTR [r12+0x58]
    28af:	48 89 53 58          	mov    QWORD PTR [rbx+0x58],rdx
    28b3:	49 8b 54 24 60       	mov    rdx,QWORD PTR [r12+0x60]
    28b8:	48 89 53 60          	mov    QWORD PTR [rbx+0x60],rdx
    28bc:	49 8b 54 24 68       	mov    rdx,QWORD PTR [r12+0x68]
    28c1:	48 89 53 68          	mov    QWORD PTR [rbx+0x68],rdx
    28c5:	49 8b 54 24 70       	mov    rdx,QWORD PTR [r12+0x70]
    28ca:	48 89 53 70          	mov    QWORD PTR [rbx+0x70],rdx
    28ce:	49 8b 54 24 78       	mov    rdx,QWORD PTR [r12+0x78]
    28d3:	48 89 53 78          	mov    QWORD PTR [rbx+0x78],rdx
    28d7:	49 89 8c 24 88 00 00 	mov    QWORD PTR [r12+0x88],rcx
    28de:	00 
    28df:	4d 89 6c 24 20       	mov    QWORD PTR [r12+0x20],r13
    28e4:	49 89 1c 24          	mov    QWORD PTR [r12],rbx
    28e8:	49 89 5c 24 38       	mov    QWORD PTR [r12+0x38],rbx
    28ed:	48 89 43 f8          	mov    QWORD PTR [rbx-0x8],rax
    28f1:	31 c0                	xor    eax,eax
    28f3:	41 80 a4 24 a3 00 00 	and    BYTE PTR [r12+0xa3],0x7f
    28fa:	00 7f 
    28fc:	e9 29 fe ff ff       	jmp    272a <trts_handle_exception+0x7a>
    2901:	49 83 3c 24 00       	cmp    QWORD PTR [r12],0x0
    2906:	0f 85 f0 fe ff ff    	jne    27fc <trts_handle_exception+0x14c>
    290c:	48 83 c0 03          	add    rax,0x3
    2910:	49 83 8c 24 80 00 00 	or     QWORD PTR [r12+0x80],0x1
    2917:	00 01 
    2919:	49 89 84 24 88 00 00 	mov    QWORD PTR [r12+0x88],rax
    2920:	00 
    2921:	31 c0                	xor    eax,eax
    2923:	e9 02 fe ff ff       	jmp    272a <trts_handle_exception+0x7a>
    2928:	0f 1f 84 00 00 00 00 	nop    DWORD PTR [rax+rax*1+0x0]
    292f:	00 

0000000000002930 <get_xfeature_state>:
    2930:	48 83 ec 08          	sub    rsp,0x8
    2934:	e8 f7 08 02 00       	call   23230 <sgx_self_report>
    2939:	48 8b 40 38          	mov    rax,QWORD PTR [rax+0x38]
    293d:	31 d2                	xor    edx,edx
    293f:	48 83 f8 03          	cmp    rax,0x3
    2943:	0f 95 c2             	setne  dl
    2946:	89 15 dc 5f 22 00    	mov    DWORD PTR [rip+0x225fdc],edx        # 228928 <g_xsave_enabled>
    294c:	48 83 c4 08          	add    rsp,0x8
    2950:	c3                   	ret    
    2951:	66 2e 0f 1f 84 00 00 	nop    WORD PTR cs:[rax+rax*1+0x0]
    2958:	00 00 00 
    295b:	0f 1f 44 00 00       	nop    DWORD PTR [rax+rax*1+0x0]

0000000000002960 <do_relocs>:
    2960:	48 01 fe             	add    rsi,rdi
    2963:	48 01 fa             	add    rdx,rdi
    2966:	48 85 c9             	test   rcx,rcx
    2969:	0f 84 00 02 00 00    	je     2b6f <do_relocs+0x20f>
    296f:	55                   	push   rbp
    2970:	4c 8d 15 41 12 02 00 	lea    r10,[rip+0x21241]        # 23bb8 <g_dyn_entry_table+0x18>
    2977:	53                   	push   rbx
    2978:	45 31 c9             	xor    r9d,r9d
    297b:	0f 1f 44 00 00       	nop    DWORD PTR [rax+rax*1+0x0]
    2980:	4c 8b 46 08          	mov    r8,QWORD PTR [rsi+0x8]
    2984:	4c 8b 1e             	mov    r11,QWORD PTR [rsi]
    2987:	44 89 c0             	mov    eax,r8d
    298a:	49 01 fb             	add    r11,rdi
    298d:	48 83 f8 12          	cmp    rax,0x12
    2991:	0f 87 cb 00 00 00    	ja     2a62 <do_relocs+0x102>
    2997:	49 63 04 82          	movsxd rax,DWORD PTR [r10+rax*4]
    299b:	4c 01 d0             	add    rax,r10
    299e:	ff e0                	jmp    rax
    29a0:	4c 8b 40 28          	mov    r8,QWORD PTR [rax+0x28]
    29a4:	48 8b 40 30          	mov    rax,QWORD PTR [rax+0x30]
    29a8:	48 83 f8 01          	cmp    rax,0x1
    29ac:	76 0b                	jbe    29b9 <do_relocs+0x59>
    29ae:	4d 8d 44 00 ff       	lea    r8,[r8+rax*1-0x1]
    29b3:	48 f7 d8             	neg    rax
    29b6:	49 21 c0             	and    r8,rax
    29b9:	4d 85 c0             	test   r8,r8
    29bc:	0f 84 a0 00 00 00    	je     2a62 <do_relocs+0x102>
    29c2:	48 8b 46 10          	mov    rax,QWORD PTR [rsi+0x10]
    29c6:	48 03 43 08          	add    rax,QWORD PTR [rbx+0x8]
    29ca:	4c 29 c0             	sub    rax,r8
    29cd:	49 89 03             	mov    QWORD PTR [r11],rax
    29d0:	49 83 c1 01          	add    r9,0x1
    29d4:	48 83 c6 18          	add    rsi,0x18
    29d8:	4c 39 c9             	cmp    rcx,r9
    29db:	75 a3                	jne    2980 <do_relocs+0x20>
    29dd:	31 c0                	xor    eax,eax
    29df:	5b                   	pop    rbx
    29e0:	5d                   	pop    rbp
    29e1:	c3                   	ret    
    29e2:	66 0f 1f 44 00 00    	nop    WORD PTR [rax+rax*1+0x0]
    29e8:	49 c1 e8 20          	shr    r8,0x20
    29ec:	4b 8d 04 40          	lea    rax,[r8+r8*2]
    29f0:	48 8d 1c c2          	lea    rbx,[rdx+rax*8]
    29f4:	0f b6 43 04          	movzx  eax,BYTE PTR [rbx+0x4]
    29f8:	c0 e8 04             	shr    al,0x4
    29fb:	3c 02                	cmp    al,0x2
    29fd:	75 07                	jne    2a06 <do_relocs+0xa6>
    29ff:	48 83 7b 08 00       	cmp    QWORD PTR [rbx+0x8],0x0
    2a04:	74 ca                	je     29d0 <do_relocs+0x70>
    2a06:	81 3f 7f 45 4c 46    	cmp    DWORD PTR [rdi],0x464c457f
    2a0c:	75 54                	jne    2a62 <do_relocs+0x102>
    2a0e:	66 83 7f 10 03       	cmp    WORD PTR [rdi+0x10],0x3
    2a13:	75 4d                	jne    2a62 <do_relocs+0x102>
    2a15:	4c 8b 47 20          	mov    r8,QWORD PTR [rdi+0x20]
    2a19:	49 01 f8             	add    r8,rdi
    2a1c:	4d 85 c0             	test   r8,r8
    2a1f:	4c 89 c0             	mov    rax,r8
    2a22:	74 3e                	je     2a62 <do_relocs+0x102>
    2a24:	0f b7 6f 38          	movzx  ebp,WORD PTR [rdi+0x38]
    2a28:	85 ed                	test   ebp,ebp
    2a2a:	74 36                	je     2a62 <do_relocs+0x102>
    2a2c:	41 83 38 07          	cmp    DWORD PTR [r8],0x7
    2a30:	0f 84 6a ff ff ff    	je     29a0 <do_relocs+0x40>
    2a36:	83 ed 01             	sub    ebp,0x1
    2a39:	4c 8d 04 ed 00 00 00 	lea    r8,[rbp*8+0x0]
    2a40:	00 
    2a41:	49 29 e8             	sub    r8,rbp
    2a44:	4e 8d 44 c0 38       	lea    r8,[rax+r8*8+0x38]
    2a49:	eb 0e                	jmp    2a59 <do_relocs+0xf9>
    2a4b:	0f 1f 44 00 00       	nop    DWORD PTR [rax+rax*1+0x0]
    2a50:	83 38 07             	cmp    DWORD PTR [rax],0x7
    2a53:	0f 84 47 ff ff ff    	je     29a0 <do_relocs+0x40>
    2a59:	48 83 c0 38          	add    rax,0x38
    2a5d:	49 39 c0             	cmp    r8,rax
    2a60:	75 ee                	jne    2a50 <do_relocs+0xf0>
    2a62:	b8 ff ff ff ff       	mov    eax,0xffffffff
    2a67:	5b                   	pop    rbx
    2a68:	5d                   	pop    rbp
    2a69:	c3                   	ret    
    2a6a:	66 0f 1f 44 00 00    	nop    WORD PTR [rax+rax*1+0x0]
    2a70:	49 c1 e8 20          	shr    r8,0x20
    2a74:	4b 8d 04 40          	lea    rax,[r8+r8*2]
    2a78:	48 8d 04 c2          	lea    rax,[rdx+rax*8]
    2a7c:	4c 8b 40 08          	mov    r8,QWORD PTR [rax+0x8]
    2a80:	0f b6 40 04          	movzx  eax,BYTE PTR [rax+0x4]
    2a84:	c0 e8 04             	shr    al,0x4
    2a87:	3c 02                	cmp    al,0x2
    2a89:	0f 84 c1 00 00 00    	je     2b50 <do_relocs+0x1f0>
    2a8f:	4c 03 46 10          	add    r8,QWORD PTR [rsi+0x10]
    2a93:	49 83 c1 01          	add    r9,0x1
    2a97:	48 83 c6 18          	add    rsi,0x18
    2a9b:	4c 39 c9             	cmp    rcx,r9
    2a9e:	4d 89 03             	mov    QWORD PTR [r11],r8
    2aa1:	0f 85 d9 fe ff ff    	jne    2980 <do_relocs+0x20>
    2aa7:	e9 31 ff ff ff       	jmp    29dd <do_relocs+0x7d>
    2aac:	0f 1f 40 00          	nop    DWORD PTR [rax+0x0]
    2ab0:	48 8b 46 10          	mov    rax,QWORD PTR [rsi+0x10]
    2ab4:	49 83 c1 01          	add    r9,0x1
    2ab8:	48 83 c6 18          	add    rsi,0x18
    2abc:	48 01 f8             	add    rax,rdi
    2abf:	4c 39 c9             	cmp    rcx,r9
    2ac2:	49 89 03             	mov    QWORD PTR [r11],rax
    2ac5:	0f 85 b5 fe ff ff    	jne    2980 <do_relocs+0x20>
    2acb:	e9 0d ff ff ff       	jmp    29dd <do_relocs+0x7d>
    2ad0:	49 83 c1 01          	add    r9,0x1
    2ad4:	48 83 c6 18          	add    rsi,0x18
    2ad8:	49 c7 03 01 00 00 00 	mov    QWORD PTR [r11],0x1
    2adf:	4c 39 c9             	cmp    rcx,r9
    2ae2:	0f 85 98 fe ff ff    	jne    2980 <do_relocs+0x20>
    2ae8:	e9 f0 fe ff ff       	jmp    29dd <do_relocs+0x7d>
    2aed:	0f 1f 00             	nop    DWORD PTR [rax]
    2af0:	49 c1 e8 20          	shr    r8,0x20
    2af4:	4b 8d 04 40          	lea    rax,[r8+r8*2]
    2af8:	4c 8d 04 c2          	lea    r8,[rdx+rax*8]
    2afc:	41 0f b6 40 04       	movzx  eax,BYTE PTR [r8+0x4]
    2b01:	49 8b 58 08          	mov    rbx,QWORD PTR [r8+0x8]
    2b05:	c0 e8 04             	shr    al,0x4
    2b08:	3c 02                	cmp    al,0x2
    2b0a:	74 24                	je     2b30 <do_relocs+0x1d0>
    2b0c:	48 8b 46 10          	mov    rax,QWORD PTR [rsi+0x10]
    2b10:	49 83 c1 01          	add    r9,0x1
    2b14:	48 83 c6 18          	add    rsi,0x18
    2b18:	48 01 f8             	add    rax,rdi
    2b1b:	48 01 d8             	add    rax,rbx
    2b1e:	4c 39 c9             	cmp    rcx,r9
    2b21:	49 89 03             	mov    QWORD PTR [r11],rax
    2b24:	0f 85 56 fe ff ff    	jne    2980 <do_relocs+0x20>
    2b2a:	e9 ae fe ff ff       	jmp    29dd <do_relocs+0x7d>
    2b2f:	90                   	nop
    2b30:	48 85 db             	test   rbx,rbx
    2b33:	75 d7                	jne    2b0c <do_relocs+0x1ac>
    2b35:	49 83 c1 01          	add    r9,0x1
    2b39:	48 83 c6 18          	add    rsi,0x18
    2b3d:	4c 39 c9             	cmp    rcx,r9
    2b40:	0f 85 3a fe ff ff    	jne    2980 <do_relocs+0x20>
    2b46:	e9 92 fe ff ff       	jmp    29dd <do_relocs+0x7d>
    2b4b:	0f 1f 44 00 00       	nop    DWORD PTR [rax+rax*1+0x0]
    2b50:	4d 85 c0             	test   r8,r8
    2b53:	0f 85 36 ff ff ff    	jne    2a8f <do_relocs+0x12f>
    2b59:	49 83 c1 01          	add    r9,0x1
    2b5d:	48 83 c6 18          	add    rsi,0x18
    2b61:	4c 39 c9             	cmp    rcx,r9
    2b64:	0f 85 16 fe ff ff    	jne    2980 <do_relocs+0x20>
    2b6a:	e9 6e fe ff ff       	jmp    29dd <do_relocs+0x7d>
    2b6f:	31 c0                	xor    eax,eax
    2b71:	c3                   	ret    
    2b72:	66 2e 0f 1f 84 00 00 	nop    WORD PTR cs:[rax+rax*1+0x0]
    2b79:	00 00 00 
    2b7c:	0f 1f 40 00          	nop    DWORD PTR [rax+0x0]

0000000000002b80 <relocate_enclave>:
    2b80:	48 85 ff             	test   rdi,rdi
    2b83:	0f 84 c0 01 00 00    	je     2d49 <relocate_enclave+0x1c9>
    2b89:	81 3f 7f 45 4c 46    	cmp    DWORD PTR [rdi],0x464c457f
    2b8f:	0f 85 b4 01 00 00    	jne    2d49 <relocate_enclave+0x1c9>
    2b95:	66 83 7f 10 03       	cmp    WORD PTR [rdi+0x10],0x3
    2b9a:	0f 85 a9 01 00 00    	jne    2d49 <relocate_enclave+0x1c9>
    2ba0:	41 57                	push   r15
    2ba2:	41 56                	push   r14
    2ba4:	41 55                	push   r13
    2ba6:	41 54                	push   r12
    2ba8:	55                   	push   rbp
    2ba9:	53                   	push   rbx
    2baa:	48 89 fb             	mov    rbx,rdi
    2bad:	48 83 ec 10          	sub    rsp,0x10
    2bb1:	48 03 5f 20          	add    rbx,QWORD PTR [rdi+0x20]
    2bb5:	0f 84 ff 00 00 00    	je     2cba <relocate_enclave+0x13a>
    2bbb:	31 ed                	xor    ebp,ebp
    2bbd:	66 83 7f 38 00       	cmp    WORD PTR [rdi+0x38],0x0
    2bc2:	49 89 fd             	mov    r13,rdi
    2bc5:	4c 8d 25 38 10 02 00 	lea    r12,[rip+0x21038]        # 23c04 <g_dyn_entry_table+0x64>
    2bcc:	75 1e                	jne    2bec <relocate_enclave+0x6c>
    2bce:	e9 65 01 00 00       	jmp    2d38 <relocate_enclave+0x1b8>
    2bd3:	0f 1f 44 00 00       	nop    DWORD PTR [rax+rax*1+0x0]
    2bd8:	41 0f b7 45 38       	movzx  eax,WORD PTR [r13+0x38]
    2bdd:	83 c5 01             	add    ebp,0x1
    2be0:	48 83 c3 38          	add    rbx,0x38
    2be4:	39 e8                	cmp    eax,ebp
    2be6:	0f 86 4c 01 00 00    	jbe    2d38 <relocate_enclave+0x1b8>
    2bec:	83 3b 02             	cmp    DWORD PTR [rbx],0x2
    2bef:	75 e7                	jne    2bd8 <relocate_enclave+0x58>
    2bf1:	48 8b 53 20          	mov    rdx,QWORD PTR [rbx+0x20]
    2bf5:	48 8b 43 18          	mov    rax,QWORD PTR [rbx+0x18]
    2bf9:	48 c1 ea 04          	shr    rdx,0x4
    2bfd:	4c 01 e8             	add    rax,r13
    2c00:	48 85 d2             	test   rdx,rdx
    2c03:	49 89 c0             	mov    r8,rax
    2c06:	74 d0                	je     2bd8 <relocate_enclave+0x58>
    2c08:	4c 8b 08             	mov    r9,QWORD PTR [rax]
    2c0b:	4d 85 c9             	test   r9,r9
    2c0e:	74 c8                	je     2bd8 <relocate_enclave+0x58>
    2c10:	48 c1 e2 04          	shl    rdx,0x4
    2c14:	45 31 ff             	xor    r15d,r15d
    2c17:	45 31 f6             	xor    r14d,r14d
    2c1a:	48 01 c2             	add    rdx,rax
    2c1d:	45 31 d2             	xor    r10d,r10d
    2c20:	31 c0                	xor    eax,eax
    2c22:	31 f6                	xor    esi,esi
    2c24:	45 31 db             	xor    r11d,r11d
    2c27:	66 0f 1f 84 00 00 00 	nop    WORD PTR [rax+rax*1+0x0]
    2c2e:	00 00 
    2c30:	49 83 f9 17          	cmp    r9,0x17
    2c34:	77 12                	ja     2c48 <relocate_enclave+0xc8>
    2c36:	4b 63 3c 8c          	movsxd rdi,DWORD PTR [r12+r9*4]
    2c3a:	4c 01 e7             	add    rdi,r12
    2c3d:	ff e7                	jmp    rdi
    2c3f:	90                   	nop
    2c40:	4d 8b 50 08          	mov    r10,QWORD PTR [r8+0x8]
    2c44:	0f 1f 40 00          	nop    DWORD PTR [rax+0x0]
    2c48:	49 83 c0 10          	add    r8,0x10
    2c4c:	49 39 d0             	cmp    r8,rdx
    2c4f:	74 08                	je     2c59 <relocate_enclave+0xd9>
    2c51:	4d 8b 08             	mov    r9,QWORD PTR [r8]
    2c54:	4d 85 c9             	test   r9,r9
    2c57:	75 d7                	jne    2c30 <relocate_enclave+0xb0>
    2c59:	48 85 f6             	test   rsi,rsi
    2c5c:	0f 84 be 00 00 00    	je     2d20 <relocate_enclave+0x1a0>
    2c62:	4d 85 f6             	test   r14,r14
    2c65:	4c 89 14 24          	mov    QWORD PTR [rsp],r10
    2c69:	74 4f                	je     2cba <relocate_enclave+0x13a>
    2c6b:	31 d2                	xor    edx,edx
    2c6d:	4c 89 ef             	mov    rdi,r13
    2c70:	4c 89 5c 24 08       	mov    QWORD PTR [rsp+0x8],r11
    2c75:	49 f7 f6             	div    r14
    2c78:	4c 89 da             	mov    rdx,r11
    2c7b:	48 89 c1             	mov    rcx,rax
    2c7e:	e8 dd fc ff ff       	call   2960 <do_relocs>
    2c83:	85 c0                	test   eax,eax
    2c85:	4c 8b 5c 24 08       	mov    r11,QWORD PTR [rsp+0x8]
    2c8a:	4c 8b 14 24          	mov    r10,QWORD PTR [rsp]
    2c8e:	75 2a                	jne    2cba <relocate_enclave+0x13a>
    2c90:	4d 85 d2             	test   r10,r10
    2c93:	0f 84 3f ff ff ff    	je     2bd8 <relocate_enclave+0x58>
    2c99:	31 d2                	xor    edx,edx
    2c9b:	4c 89 f8             	mov    rax,r15
    2c9e:	4c 89 d6             	mov    rsi,r10
    2ca1:	49 f7 f6             	div    r14
    2ca4:	4c 89 ef             	mov    rdi,r13
    2ca7:	4c 89 da             	mov    rdx,r11
    2caa:	48 89 c1             	mov    rcx,rax
    2cad:	e8 ae fc ff ff       	call   2960 <do_relocs>
    2cb2:	85 c0                	test   eax,eax
    2cb4:	0f 84 1e ff ff ff    	je     2bd8 <relocate_enclave+0x58>
    2cba:	48 83 c4 10          	add    rsp,0x10
    2cbe:	b8 ff ff ff ff       	mov    eax,0xffffffff
    2cc3:	5b                   	pop    rbx
    2cc4:	5d                   	pop    rbp
    2cc5:	41 5c                	pop    r12
    2cc7:	41 5d                	pop    r13
    2cc9:	41 5e                	pop    r14
    2ccb:	41 5f                	pop    r15
    2ccd:	c3                   	ret    
    2cce:	66 90                	xchg   ax,ax
    2cd0:	4d 8b 58 08          	mov    r11,QWORD PTR [r8+0x8]
    2cd4:	e9 6f ff ff ff       	jmp    2c48 <relocate_enclave+0xc8>
    2cd9:	0f 1f 80 00 00 00 00 	nop    DWORD PTR [rax+0x0]
    2ce0:	4d 8b 78 08          	mov    r15,QWORD PTR [r8+0x8]
    2ce4:	e9 5f ff ff ff       	jmp    2c48 <relocate_enclave+0xc8>
    2ce9:	0f 1f 80 00 00 00 00 	nop    DWORD PTR [rax+0x0]
    2cf0:	49 8b 40 08          	mov    rax,QWORD PTR [r8+0x8]
    2cf4:	e9 4f ff ff ff       	jmp    2c48 <relocate_enclave+0xc8>
    2cf9:	0f 1f 80 00 00 00 00 	nop    DWORD PTR [rax+0x0]
    2d00:	49 8b 70 08          	mov    rsi,QWORD PTR [r8+0x8]
    2d04:	e9 3f ff ff ff       	jmp    2c48 <relocate_enclave+0xc8>
    2d09:	0f 1f 80 00 00 00 00 	nop    DWORD PTR [rax+0x0]
    2d10:	4d 8b 70 08          	mov    r14,QWORD PTR [r8+0x8]
    2d14:	e9 2f ff ff ff       	jmp    2c48 <relocate_enclave+0xc8>
    2d19:	0f 1f 80 00 00 00 00 	nop    DWORD PTR [rax+0x0]
    2d20:	4d 85 d2             	test   r10,r10
    2d23:	0f 84 af fe ff ff    	je     2bd8 <relocate_enclave+0x58>
    2d29:	4d 85 f6             	test   r14,r14
    2d2c:	0f 85 67 ff ff ff    	jne    2c99 <relocate_enclave+0x119>
    2d32:	eb 86                	jmp    2cba <relocate_enclave+0x13a>
    2d34:	0f 1f 40 00          	nop    DWORD PTR [rax+0x0]
    2d38:	48 83 c4 10          	add    rsp,0x10
    2d3c:	31 c0                	xor    eax,eax
    2d3e:	5b                   	pop    rbx
    2d3f:	5d                   	pop    rbp
    2d40:	41 5c                	pop    r12
    2d42:	41 5d                	pop    r13
    2d44:	41 5e                	pop    r14
    2d46:	41 5f                	pop    r15
    2d48:	c3                   	ret    
    2d49:	b8 ff ff ff ff       	mov    eax,0xffffffff
    2d4e:	c3                   	ret    
    2d4f:	90                   	nop

0000000000002d50 <elf_tls_info>:
    2d50:	48 85 ff             	test   rdi,rdi
    2d53:	b8 ff ff ff ff       	mov    eax,0xffffffff
    2d58:	74 08                	je     2d62 <elf_tls_info+0x12>
    2d5a:	81 3f 7f 45 4c 46    	cmp    DWORD PTR [rdi],0x464c457f
    2d60:	74 06                	je     2d68 <elf_tls_info+0x18>
    2d62:	f3 c3                	repz ret 
    2d64:	0f 1f 40 00          	nop    DWORD PTR [rax+0x0]
    2d68:	66 83 7f 10 03       	cmp    WORD PTR [rdi+0x10],0x3
    2d6d:	75 f3                	jne    2d62 <elf_tls_info+0x12>
    2d6f:	48 8b 47 20          	mov    rax,QWORD PTR [rdi+0x20]
    2d73:	48 01 f8             	add    rax,rdi
    2d76:	48 85 f6             	test   rsi,rsi
    2d79:	41 0f 94 c0          	sete   r8b
    2d7d:	48 85 d2             	test   rdx,rdx
    2d80:	0f 94 c1             	sete   cl
    2d83:	41 08 c8             	or     r8b,cl
    2d86:	75 61                	jne    2de9 <elf_tls_info+0x99>
    2d88:	48 85 c0             	test   rax,rax
    2d8b:	74 5c                	je     2de9 <elf_tls_info+0x99>
    2d8d:	0f b7 4f 38          	movzx  ecx,WORD PTR [rdi+0x38]
    2d91:	48 c7 06 00 00 00 00 	mov    QWORD PTR [rsi],0x0
    2d98:	48 c7 02 00 00 00 00 	mov    QWORD PTR [rdx],0x0
    2d9f:	85 c9                	test   ecx,ecx
    2da1:	74 2b                	je     2dce <elf_tls_info+0x7e>
    2da3:	83 38 07             	cmp    DWORD PTR [rax],0x7
    2da6:	74 30                	je     2dd8 <elf_tls_info+0x88>
    2da8:	44 8d 41 ff          	lea    r8d,[rcx-0x1]
    2dac:	4a 8d 0c c5 00 00 00 	lea    rcx,[r8*8+0x0]
    2db3:	00 
    2db4:	4c 29 c1             	sub    rcx,r8
    2db7:	48 8d 4c c8 38       	lea    rcx,[rax+rcx*8+0x38]
    2dbc:	eb 07                	jmp    2dc5 <elf_tls_info+0x75>
    2dbe:	66 90                	xchg   ax,ax
    2dc0:	83 38 07             	cmp    DWORD PTR [rax],0x7
    2dc3:	74 13                	je     2dd8 <elf_tls_info+0x88>
    2dc5:	48 83 c0 38          	add    rax,0x38
    2dc9:	48 39 c8             	cmp    rax,rcx
    2dcc:	75 f2                	jne    2dc0 <elf_tls_info+0x70>
    2dce:	31 c0                	xor    eax,eax
    2dd0:	c3                   	ret    
    2dd1:	0f 1f 80 00 00 00 00 	nop    DWORD PTR [rax+0x0]
    2dd8:	48 03 78 10          	add    rdi,QWORD PTR [rax+0x10]
    2ddc:	48 89 3e             	mov    QWORD PTR [rsi],rdi
    2ddf:	48 8b 40 20          	mov    rax,QWORD PTR [rax+0x20]
    2de3:	48 89 02             	mov    QWORD PTR [rdx],rax
    2de6:	31 c0                	xor    eax,eax
    2de8:	c3                   	ret    
    2de9:	b8 ff ff ff ff       	mov    eax,0xffffffff
    2dee:	c3                   	ret    
    2def:	90                   	nop

0000000000002df0 <elf_get_init_array>:
    2df0:	48 85 ff             	test   rdi,rdi
    2df3:	b8 ff ff ff ff       	mov    eax,0xffffffff
    2df8:	74 08                	je     2e02 <elf_get_init_array+0x12>
    2dfa:	81 3f 7f 45 4c 46    	cmp    DWORD PTR [rdi],0x464c457f
    2e00:	74 06                	je     2e08 <elf_get_init_array+0x18>
    2e02:	f3 c3                	repz ret 
    2e04:	0f 1f 40 00          	nop    DWORD PTR [rax+0x0]
    2e08:	66 83 7f 10 03       	cmp    WORD PTR [rdi+0x10],0x3
    2e0d:	75 f3                	jne    2e02 <elf_get_init_array+0x12>
    2e0f:	48 8b 4f 20          	mov    rcx,QWORD PTR [rdi+0x20]
    2e13:	48 01 f9             	add    rcx,rdi
    2e16:	48 85 f6             	test   rsi,rsi
    2e19:	41 0f 94 c0          	sete   r8b
    2e1d:	48 85 d2             	test   rdx,rdx
    2e20:	0f 94 c0             	sete   al
    2e23:	41 08 c0             	or     r8b,al
    2e26:	0f 85 97 00 00 00    	jne    2ec3 <elf_get_init_array+0xd3>
    2e2c:	48 85 c9             	test   rcx,rcx
    2e2f:	0f 84 8e 00 00 00    	je     2ec3 <elf_get_init_array+0xd3>
    2e35:	0f b7 47 38          	movzx  eax,WORD PTR [rdi+0x38]
    2e39:	48 c7 06 00 00 00 00 	mov    QWORD PTR [rsi],0x0
    2e40:	48 c7 02 00 00 00 00 	mov    QWORD PTR [rdx],0x0
    2e47:	85 c0                	test   eax,eax
    2e49:	74 75                	je     2ec0 <elf_get_init_array+0xd0>
    2e4b:	44 8d 40 ff          	lea    r8d,[rax-0x1]
    2e4f:	4a 8d 04 c5 00 00 00 	lea    rax,[r8*8+0x0]
    2e56:	00 
    2e57:	4c 29 c0             	sub    rax,r8
    2e5a:	4c 8d 54 c1 38       	lea    r10,[rcx+rax*8+0x38]
    2e5f:	eb 10                	jmp    2e71 <elf_get_init_array+0x81>
    2e61:	0f 1f 80 00 00 00 00 	nop    DWORD PTR [rax+0x0]
    2e68:	48 83 c1 38          	add    rcx,0x38
    2e6c:	4c 39 d1             	cmp    rcx,r10
    2e6f:	74 4f                	je     2ec0 <elf_get_init_array+0xd0>
    2e71:	83 39 02             	cmp    DWORD PTR [rcx],0x2
    2e74:	75 f2                	jne    2e68 <elf_get_init_array+0x78>
    2e76:	4c 8b 49 20          	mov    r9,QWORD PTR [rcx+0x20]
    2e7a:	48 8b 41 18          	mov    rax,QWORD PTR [rcx+0x18]
    2e7e:	49 c1 e9 04          	shr    r9,0x4
    2e82:	48 01 f8             	add    rax,rdi
    2e85:	4d 85 c9             	test   r9,r9
    2e88:	74 de                	je     2e68 <elf_get_init_array+0x78>
    2e8a:	49 c1 e1 04          	shl    r9,0x4
    2e8e:	49 01 c1             	add    r9,rax
    2e91:	eb 1b                	jmp    2eae <elf_get_init_array+0xbe>
    2e93:	0f 1f 44 00 00       	nop    DWORD PTR [rax+rax*1+0x0]
    2e98:	49 83 f8 1b          	cmp    r8,0x1b
    2e9c:	75 07                	jne    2ea5 <elf_get_init_array+0xb5>
    2e9e:	4c 8b 40 08          	mov    r8,QWORD PTR [rax+0x8]
    2ea2:	4c 89 02             	mov    QWORD PTR [rdx],r8
    2ea5:	48 83 c0 10          	add    rax,0x10
    2ea9:	49 39 c1             	cmp    r9,rax
    2eac:	74 ba                	je     2e68 <elf_get_init_array+0x78>
    2eae:	4c 8b 00             	mov    r8,QWORD PTR [rax]
    2eb1:	49 83 f8 19          	cmp    r8,0x19
    2eb5:	75 e1                	jne    2e98 <elf_get_init_array+0xa8>
    2eb7:	4c 8b 40 08          	mov    r8,QWORD PTR [rax+0x8]
    2ebb:	4c 89 06             	mov    QWORD PTR [rsi],r8
    2ebe:	eb e5                	jmp    2ea5 <elf_get_init_array+0xb5>
    2ec0:	31 c0                	xor    eax,eax
    2ec2:	c3                   	ret    
    2ec3:	b8 ff ff ff ff       	mov    eax,0xffffffff
    2ec8:	c3                   	ret    
    2ec9:	0f 1f 80 00 00 00 00 	nop    DWORD PTR [rax+0x0]

0000000000002ed0 <elf_get_uninit_array>:
    2ed0:	48 85 ff             	test   rdi,rdi
    2ed3:	b8 ff ff ff ff       	mov    eax,0xffffffff
    2ed8:	74 08                	je     2ee2 <elf_get_uninit_array+0x12>
    2eda:	81 3f 7f 45 4c 46    	cmp    DWORD PTR [rdi],0x464c457f
    2ee0:	74 06                	je     2ee8 <elf_get_uninit_array+0x18>
    2ee2:	f3 c3                	repz ret 
    2ee4:	0f 1f 40 00          	nop    DWORD PTR [rax+0x0]
    2ee8:	66 83 7f 10 03       	cmp    WORD PTR [rdi+0x10],0x3
    2eed:	75 f3                	jne    2ee2 <elf_get_uninit_array+0x12>
    2eef:	48 8b 4f 20          	mov    rcx,QWORD PTR [rdi+0x20]
    2ef3:	48 01 f9             	add    rcx,rdi
    2ef6:	48 85 f6             	test   rsi,rsi
    2ef9:	41 0f 94 c0          	sete   r8b
    2efd:	48 85 d2             	test   rdx,rdx
    2f00:	0f 94 c0             	sete   al
    2f03:	41 08 c0             	or     r8b,al
    2f06:	0f 85 97 00 00 00    	jne    2fa3 <elf_get_uninit_array+0xd3>
    2f0c:	48 85 c9             	test   rcx,rcx
    2f0f:	0f 84 8e 00 00 00    	je     2fa3 <elf_get_uninit_array+0xd3>
    2f15:	0f b7 47 38          	movzx  eax,WORD PTR [rdi+0x38]
    2f19:	48 c7 06 00 00 00 00 	mov    QWORD PTR [rsi],0x0
    2f20:	48 c7 02 00 00 00 00 	mov    QWORD PTR [rdx],0x0
    2f27:	85 c0                	test   eax,eax
    2f29:	74 75                	je     2fa0 <elf_get_uninit_array+0xd0>
    2f2b:	44 8d 40 ff          	lea    r8d,[rax-0x1]
    2f2f:	4a 8d 04 c5 00 00 00 	lea    rax,[r8*8+0x0]
    2f36:	00 
    2f37:	4c 29 c0             	sub    rax,r8
    2f3a:	4c 8d 54 c1 38       	lea    r10,[rcx+rax*8+0x38]
    2f3f:	eb 10                	jmp    2f51 <elf_get_uninit_array+0x81>
    2f41:	0f 1f 80 00 00 00 00 	nop    DWORD PTR [rax+0x0]
    2f48:	48 83 c1 38          	add    rcx,0x38
    2f4c:	4c 39 d1             	cmp    rcx,r10
    2f4f:	74 4f                	je     2fa0 <elf_get_uninit_array+0xd0>
    2f51:	83 39 02             	cmp    DWORD PTR [rcx],0x2
    2f54:	75 f2                	jne    2f48 <elf_get_uninit_array+0x78>
    2f56:	4c 8b 49 20          	mov    r9,QWORD PTR [rcx+0x20]
    2f5a:	48 8b 41 18          	mov    rax,QWORD PTR [rcx+0x18]
    2f5e:	49 c1 e9 04          	shr    r9,0x4
    2f62:	48 01 f8             	add    rax,rdi
    2f65:	4d 85 c9             	test   r9,r9
    2f68:	74 de                	je     2f48 <elf_get_uninit_array+0x78>
    2f6a:	49 c1 e1 04          	shl    r9,0x4
    2f6e:	49 01 c1             	add    r9,rax
    2f71:	eb 1b                	jmp    2f8e <elf_get_uninit_array+0xbe>
    2f73:	0f 1f 44 00 00       	nop    DWORD PTR [rax+rax*1+0x0]
    2f78:	49 83 f8 1c          	cmp    r8,0x1c
    2f7c:	75 07                	jne    2f85 <elf_get_uninit_array+0xb5>
    2f7e:	4c 8b 40 08          	mov    r8,QWORD PTR [rax+0x8]
    2f82:	4c 89 02             	mov    QWORD PTR [rdx],r8
    2f85:	48 83 c0 10          	add    rax,0x10
    2f89:	49 39 c1             	cmp    r9,rax
    2f8c:	74 ba                	je     2f48 <elf_get_uninit_array+0x78>
    2f8e:	4c 8b 00             	mov    r8,QWORD PTR [rax]
    2f91:	49 83 f8 1a          	cmp    r8,0x1a
    2f95:	75 e1                	jne    2f78 <elf_get_uninit_array+0xa8>
    2f97:	4c 8b 40 08          	mov    r8,QWORD PTR [rax+0x8]
    2f9b:	4c 89 06             	mov    QWORD PTR [rsi],r8
    2f9e:	eb e5                	jmp    2f85 <elf_get_uninit_array+0xb5>
    2fa0:	31 c0                	xor    eax,eax
    2fa2:	c3                   	ret    
    2fa3:	b8 ff ff ff ff       	mov    eax,0xffffffff
    2fa8:	c3                   	ret    
    2fa9:	0f 1f 80 00 00 00 00 	nop    DWORD PTR [rax+0x0]

0000000000002fb0 <change_protection>:
    2fb0:	48 85 ff             	test   rdi,rdi
    2fb3:	b8 01 00 00 00       	mov    eax,0x1
    2fb8:	74 08                	je     2fc2 <change_protection+0x12>
    2fba:	81 3f 7f 45 4c 46    	cmp    DWORD PTR [rdi],0x464c457f
    2fc0:	74 06                	je     2fc8 <change_protection+0x18>
    2fc2:	f3 c3                	repz ret 
    2fc4:	0f 1f 40 00          	nop    DWORD PTR [rax+0x0]
    2fc8:	66 83 7f 10 03       	cmp    WORD PTR [rdi+0x10],0x3
    2fcd:	75 f3                	jne    2fc2 <change_protection+0x12>
    2fcf:	41 56                	push   r14
    2fd1:	41 55                	push   r13
    2fd3:	41 54                	push   r12
    2fd5:	49 89 fc             	mov    r12,rdi
    2fd8:	55                   	push   rbp
    2fd9:	53                   	push   rbx
    2fda:	4c 03 67 20          	add    r12,QWORD PTR [rdi+0x20]
    2fde:	0f 84 ce 00 00 00    	je     30b2 <change_protection+0x102>
    2fe4:	0f b7 47 38          	movzx  eax,WORD PTR [rdi+0x38]
    2fe8:	85 c0                	test   eax,eax
    2fea:	0f 84 30 01 00 00    	je     3120 <change_protection+0x170>
    2ff0:	41 83 3c 24 02       	cmp    DWORD PTR [r12],0x2
    2ff5:	0f 84 29 01 00 00    	je     3124 <change_protection+0x174>
    2ffb:	8d 50 ff             	lea    edx,[rax-0x1]
    2ffe:	48 8d 04 d5 00 00 00 	lea    rax,[rdx*8+0x0]
    3005:	00 
    3006:	48 29 d0             	sub    rax,rdx
    3009:	49 8d 54 c4 38       	lea    rdx,[r12+rax*8+0x38]
    300e:	4c 89 e0             	mov    rax,r12
    3011:	eb 0e                	jmp    3021 <change_protection+0x71>
    3013:	0f 1f 44 00 00       	nop    DWORD PTR [rax+rax*1+0x0]
    3018:	83 38 02             	cmp    DWORD PTR [rax],0x2
    301b:	0f 84 0f 01 00 00    	je     3130 <change_protection+0x180>
    3021:	48 83 c0 38          	add    rax,0x38
    3025:	48 39 d0             	cmp    rax,rdx
    3028:	75 ee                	jne    3018 <change_protection+0x68>
    302a:	45 31 ed             	xor    r13d,r13d
    302d:	48 89 fd             	mov    rbp,rdi
    3030:	45 31 f6             	xor    r14d,r14d
    3033:	48 bb ff ff ff ff 02 	movabs rbx,0x2ffffffff
    303a:	00 00 00 
    303d:	eb 16                	jmp    3055 <change_protection+0xa5>
    303f:	90                   	nop
    3040:	0f b7 45 38          	movzx  eax,WORD PTR [rbp+0x38]
    3044:	41 83 c6 01          	add    r14d,0x1
    3048:	49 83 c4 38          	add    r12,0x38
    304c:	44 39 f0             	cmp    eax,r14d
    304f:	0f 86 cb 00 00 00    	jbe    3120 <change_protection+0x170>
    3055:	45 85 ed             	test   r13d,r13d
    3058:	74 0d                	je     3067 <change_protection+0xb7>
    305a:	49 8b 04 24          	mov    rax,QWORD PTR [r12]
    305e:	48 21 d8             	and    rax,rbx
    3061:	48 83 f8 01          	cmp    rax,0x1
    3065:	74 59                	je     30c0 <change_protection+0x110>
    3067:	41 81 3c 24 52 e5 74 	cmp    DWORD PTR [r12],0x6474e552
    306e:	64 
    306f:	75 cf                	jne    3040 <change_protection+0x90>
    3071:	49 8b 44 24 10       	mov    rax,QWORD PTR [r12+0x10]
    3076:	48 89 c7             	mov    rdi,rax
    3079:	49 03 44 24 28       	add    rax,QWORD PTR [r12+0x28]
    307e:	48 81 e7 00 f0 ff ff 	and    rdi,0xfffffffffffff000
    3085:	48 01 ef             	add    rdi,rbp
    3088:	48 89 c6             	mov    rsi,rax
    308b:	48 81 c6 ff 0f 00 00 	add    rsi,0xfff
    3092:	48 81 e6 00 f0 ff ff 	and    rsi,0xfffffffffffff000
    3099:	48 01 ee             	add    rsi,rbp
    309c:	48 39 f7             	cmp    rdi,rsi
    309f:	74 9f                	je     3040 <change_protection+0x90>
    30a1:	48 29 fe             	sub    rsi,rdi
    30a4:	ba 01 00 00 00       	mov    edx,0x1
    30a9:	e8 82 ef ff ff       	call   2030 <trts_mprotect>
    30ae:	85 c0                	test   eax,eax
    30b0:	74 8e                	je     3040 <change_protection+0x90>
    30b2:	5b                   	pop    rbx
    30b3:	5d                   	pop    rbp
    30b4:	41 5c                	pop    r12
    30b6:	41 5d                	pop    r13
    30b8:	41 5e                	pop    r14
    30ba:	c3                   	ret    
    30bb:	0f 1f 44 00 00       	nop    DWORD PTR [rax+rax*1+0x0]
    30c0:	49 8b 44 24 10       	mov    rax,QWORD PTR [r12+0x10]
    30c5:	41 8b 7c 24 04       	mov    edi,DWORD PTR [r12+0x4]
    30ca:	48 89 c1             	mov    rcx,rax
    30cd:	49 03 44 24 28       	add    rax,QWORD PTR [r12+0x28]
    30d2:	89 fa                	mov    edx,edi
    30d4:	c1 ea 02             	shr    edx,0x2
    30d7:	48 81 e1 00 f0 ff ff 	and    rcx,0xfffffffffffff000
    30de:	83 e2 01             	and    edx,0x1
    30e1:	48 89 c6             	mov    rsi,rax
    30e4:	48 89 d0             	mov    rax,rdx
    30e7:	48 81 c6 ff 0f 00 00 	add    rsi,0xfff
    30ee:	48 83 c8 04          	or     rax,0x4
    30f2:	48 81 e6 00 f0 ff ff 	and    rsi,0xfffffffffffff000
    30f9:	83 e7 01             	and    edi,0x1
    30fc:	48 8d 7c 0d 00       	lea    rdi,[rbp+rcx*1+0x0]
    3101:	48 0f 45 d0          	cmovne rdx,rax
    3105:	48 29 ce             	sub    rsi,rcx
    3108:	e8 23 ef ff ff       	call   2030 <trts_mprotect>
    310d:	85 c0                	test   eax,eax
    310f:	0f 84 52 ff ff ff    	je     3067 <change_protection+0xb7>
    3115:	eb 9b                	jmp    30b2 <change_protection+0x102>
    3117:	66 0f 1f 84 00 00 00 	nop    WORD PTR [rax+rax*1+0x0]
    311e:	00 00 
    3120:	31 c0                	xor    eax,eax
    3122:	eb 8e                	jmp    30b2 <change_protection+0x102>
    3124:	4c 89 e0             	mov    rax,r12
    3127:	66 0f 1f 84 00 00 00 	nop    WORD PTR [rax+rax*1+0x0]
    312e:	00 00 
    3130:	48 8b 48 20          	mov    rcx,QWORD PTR [rax+0x20]
    3134:	48 8b 58 18          	mov    rbx,QWORD PTR [rax+0x18]
    3138:	48 c1 e9 04          	shr    rcx,0x4
    313c:	48 01 fb             	add    rbx,rdi
    313f:	48 85 c9             	test   rcx,rcx
    3142:	48 89 d8             	mov    rax,rbx
    3145:	0f 84 df fe ff ff    	je     302a <change_protection+0x7a>
    314b:	48 8b 13             	mov    rdx,QWORD PTR [rbx]
    314e:	48 85 d2             	test   rdx,rdx
    3151:	0f 84 d3 fe ff ff    	je     302a <change_protection+0x7a>
    3157:	48 83 fa 16          	cmp    rdx,0x16
    315b:	74 33                	je     3190 <change_protection+0x1e0>
    315d:	48 c1 e1 04          	shl    rcx,0x4
    3161:	48 01 d9             	add    rcx,rbx
    3164:	eb 1c                	jmp    3182 <change_protection+0x1d2>
    3166:	66 2e 0f 1f 84 00 00 	nop    WORD PTR cs:[rax+rax*1+0x0]
    316d:	00 00 00 
    3170:	48 8b 10             	mov    rdx,QWORD PTR [rax]
    3173:	48 85 d2             	test   rdx,rdx
    3176:	0f 84 ae fe ff ff    	je     302a <change_protection+0x7a>
    317c:	48 83 fa 16          	cmp    rdx,0x16
    3180:	74 0e                	je     3190 <change_protection+0x1e0>
    3182:	48 83 c0 10          	add    rax,0x10
    3186:	48 39 c8             	cmp    rax,rcx
    3189:	75 e5                	jne    3170 <change_protection+0x1c0>
    318b:	e9 9a fe ff ff       	jmp    302a <change_protection+0x7a>
    3190:	41 bd 01 00 00 00    	mov    r13d,0x1
    3196:	e9 92 fe ff ff       	jmp    302d <change_protection+0x7d>
    319b:	0f 1f 44 00 00       	nop    DWORD PTR [rax+rax*1+0x0]

00000000000031a0 <init_global_object>:
    31a0:	55                   	push   rbp
    31a1:	53                   	push   rbx
    31a2:	48 8d 3d 57 ce ff ff 	lea    rdi,[rip+0xffffffffffffce57]        # 0 <enclave.so>
    31a9:	48 83 ec 28          	sub    rsp,0x28
    31ad:	48 8d 54 24 10       	lea    rdx,[rsp+0x10]
    31b2:	48 8d 74 24 08       	lea    rsi,[rsp+0x8]
    31b7:	48 c7 44 24 08 00 00 	mov    QWORD PTR [rsp+0x8],0x0
    31be:	00 00 
    31c0:	64 48 8b 04 25 28 00 	mov    rax,QWORD PTR fs:0x28
    31c7:	00 00 
    31c9:	48 89 44 24 18       	mov    QWORD PTR [rsp+0x18],rax
    31ce:	31 c0                	xor    eax,eax
    31d0:	48 c7 44 24 10 00 00 	mov    QWORD PTR [rsp+0x10],0x0
    31d7:	00 00 
    31d9:	e8 12 fc ff ff       	call   2df0 <elf_get_init_array>
    31de:	85 c0                	test   eax,eax
    31e0:	75 0a                	jne    31ec <init_global_object+0x4c>
    31e2:	48 8b 5c 24 08       	mov    rbx,QWORD PTR [rsp+0x8]
    31e7:	48 85 db             	test   rbx,rbx
    31ea:	75 1c                	jne    3208 <init_global_object+0x68>
    31ec:	48 8b 44 24 18       	mov    rax,QWORD PTR [rsp+0x18]
    31f1:	64 48 33 04 25 28 00 	xor    rax,QWORD PTR fs:0x28
    31f8:	00 00 
    31fa:	75 41                	jne    323d <init_global_object+0x9d>
    31fc:	48 83 c4 28          	add    rsp,0x28
    3200:	5b                   	pop    rbx
    3201:	5d                   	pop    rbp
    3202:	c3                   	ret    
    3203:	0f 1f 44 00 00       	nop    DWORD PTR [rax+rax*1+0x0]
    3208:	48 8b 6c 24 10       	mov    rbp,QWORD PTR [rsp+0x10]
    320d:	48 85 ed             	test   rbp,rbp
    3210:	74 da                	je     31ec <init_global_object+0x4c>
    3212:	48 8d 05 e7 cd ff ff 	lea    rax,[rip+0xffffffffffffcde7]        # 0 <enclave.so>
    3219:	48 83 e5 f8          	and    rbp,0xfffffffffffffff8
    321d:	48 01 c3             	add    rbx,rax
    3220:	48 01 dd             	add    rbp,rbx
    3223:	48 39 eb             	cmp    rbx,rbp
    3226:	73 c4                	jae    31ec <init_global_object+0x4c>
    3228:	0f 1f 84 00 00 00 00 	nop    DWORD PTR [rax+rax*1+0x0]
    322f:	00 
    3230:	ff 13                	call   QWORD PTR [rbx]
    3232:	48 83 c3 08          	add    rbx,0x8
    3236:	48 39 dd             	cmp    rbp,rbx
    3239:	77 f5                	ja     3230 <init_global_object+0x90>
    323b:	eb af                	jmp    31ec <init_global_object+0x4c>
    323d:	e8 ee 00 00 00       	call   3330 <__stack_chk_fail>
    3242:	66 2e 0f 1f 84 00 00 	nop    WORD PTR cs:[rax+rax*1+0x0]
    3249:	00 00 00 
    324c:	0f 1f 40 00          	nop    DWORD PTR [rax+0x0]

0000000000003250 <uninit_global_object>:
    3250:	55                   	push   rbp
    3251:	53                   	push   rbx
    3252:	48 83 ec 28          	sub    rsp,0x28
    3256:	48 8b 1d 1b 57 22 00 	mov    rbx,QWORD PTR [rip+0x22571b]        # 228978 <g_exit_function>
    325d:	48 c7 05 10 57 22 00 	mov    QWORD PTR [rip+0x225710],0x0        # 228978 <g_exit_function>
    3264:	00 00 00 00 
    3268:	64 48 8b 04 25 28 00 	mov    rax,QWORD PTR fs:0x28
    326f:	00 00 
    3271:	48 89 44 24 18       	mov    QWORD PTR [rsp+0x18],rax
    3276:	31 c0                	xor    eax,eax
    3278:	48 85 db             	test   rbx,rbx
    327b:	74 2a                	je     32a7 <uninit_global_object+0x57>
    327d:	0f 1f 00             	nop    DWORD PTR [rax]
    3280:	48 8b 05 e9 56 22 00 	mov    rax,QWORD PTR [rip+0x2256e9]        # 228970 <g_exit_function_cookie>
    3287:	48 8b 7b 08          	mov    rdi,QWORD PTR [rbx+0x8]
    328b:	48 31 c7             	xor    rdi,rax
    328e:	48 33 03             	xor    rax,QWORD PTR [rbx]
    3291:	ff d0                	call   rax
    3293:	48 8b 6b 18          	mov    rbp,QWORD PTR [rbx+0x18]
    3297:	48 89 df             	mov    rdi,rbx
    329a:	e8 f1 22 00 00       	call   5590 <dlfree>
    329f:	48 85 ed             	test   rbp,rbp
    32a2:	48 89 eb             	mov    rbx,rbp
    32a5:	75 d9                	jne    3280 <uninit_global_object+0x30>
    32a7:	48 8d 54 24 10       	lea    rdx,[rsp+0x10]
    32ac:	48 8d 74 24 08       	lea    rsi,[rsp+0x8]
    32b1:	48 8d 3d 48 cd ff ff 	lea    rdi,[rip+0xffffffffffffcd48]        # 0 <enclave.so>
    32b8:	e8 13 fc ff ff       	call   2ed0 <elf_get_uninit_array>
    32bd:	48 8b 44 24 08       	mov    rax,QWORD PTR [rsp+0x8]
    32c2:	48 85 c0             	test   rax,rax
    32c5:	74 47                	je     330e <uninit_global_object+0xbe>
    32c7:	48 8b 4c 24 10       	mov    rcx,QWORD PTR [rsp+0x10]
    32cc:	48 85 c9             	test   rcx,rcx
    32cf:	74 3d                	je     330e <uninit_global_object+0xbe>
    32d1:	48 8d 15 28 cd ff ff 	lea    rdx,[rip+0xffffffffffffcd28]        # 0 <enclave.so>
    32d8:	48 83 e1 f8          	and    rcx,0xfffffffffffffff8
    32dc:	48 01 c2             	add    rdx,rax
    32df:	48 8d 44 0a f8       	lea    rax,[rdx+rcx*1-0x8]
    32e4:	48 39 c2             	cmp    rdx,rax
    32e7:	77 25                	ja     330e <uninit_global_object+0xbe>
    32e9:	48 89 c5             	mov    rbp,rax
    32ec:	48 8d 58 f8          	lea    rbx,[rax-0x8]
    32f0:	48 29 d5             	sub    rbp,rdx
    32f3:	48 f7 d5             	not    rbp
    32f6:	48 83 e5 f8          	and    rbp,0xfffffffffffffff8
    32fa:	48 01 c5             	add    rbp,rax
    32fd:	eb 05                	jmp    3304 <uninit_global_object+0xb4>
    32ff:	90                   	nop
    3300:	48 83 eb 08          	sub    rbx,0x8
    3304:	ff 10                	call   QWORD PTR [rax]
    3306:	48 39 eb             	cmp    rbx,rbp
    3309:	48 89 d8             	mov    rax,rbx
    330c:	75 f2                	jne    3300 <uninit_global_object+0xb0>
    330e:	48 8b 44 24 18       	mov    rax,QWORD PTR [rsp+0x18]
    3313:	64 48 33 04 25 28 00 	xor    rax,QWORD PTR fs:0x28
    331a:	00 00 
    331c:	75 07                	jne    3325 <uninit_global_object+0xd5>
    331e:	48 83 c4 28          	add    rsp,0x28
    3322:	5b                   	pop    rbx
    3323:	5d                   	pop    rbp
    3324:	c3                   	ret    
    3325:	e8 06 00 00 00       	call   3330 <__stack_chk_fail>
    332a:	66 0f 1f 44 00 00    	nop    WORD PTR [rax+rax*1+0x0]

0000000000003330 <__stack_chk_fail>:
    3330:	48 83 ec 08          	sub    rsp,0x8
    3334:	e8 f3 07 02 00       	call   23b2c <abort>
    3339:	0f 1f 80 00 00 00 00 	nop    DWORD PTR [rax+0x0]

0000000000003340 <__intel_security_check_cookie>:
    3340:	48 39 3d 51 4a 22 00 	cmp    QWORD PTR [rip+0x224a51],rdi        # 227d98 <__intel_security_cookie>
    3347:	75 02                	jne    334b <__intel_security_check_cookie+0xb>
    3349:	f3 c3                	repz ret 
    334b:	48 83 ec 08          	sub    rsp,0x8
    334f:	e8 d8 07 02 00       	call   23b2c <abort>
    3354:	66 2e 0f 1f 84 00 00 	nop    WORD PTR cs:[rax+rax*1+0x0]
    335b:	00 00 00 
    335e:	66 90                	xchg   ax,ax

0000000000003360 <init_mparams>:
    3360:	48 83 ec 18          	sub    rsp,0x18
    3364:	64 48 8b 04 25 28 00 	mov    rax,QWORD PTR fs:0x28
    336b:	00 00 
    336d:	48 89 44 24 08       	mov    QWORD PTR [rsp+0x8],rax
    3372:	31 c0                	xor    eax,eax
    3374:	b8 01 00 00 00       	mov    eax,0x1
    3379:	87 05 f1 59 22 00    	xchg   DWORD PTR [rip+0x2259f1],eax        # 228d70 <malloc_global_mutex>
    337f:	85 c0                	test   eax,eax
    3381:	74 1f                	je     33a2 <init_mparams+0x42>
    3383:	48 8d 15 e6 59 22 00 	lea    rdx,[rip+0x2259e6]        # 228d70 <malloc_global_mutex>
    338a:	b9 01 00 00 00       	mov    ecx,0x1
    338f:	90                   	nop
    3390:	8b 02                	mov    eax,DWORD PTR [rdx]
    3392:	85 c0                	test   eax,eax
    3394:	75 fa                	jne    3390 <init_mparams+0x30>
    3396:	89 c8                	mov    eax,ecx
    3398:	87 05 d2 59 22 00    	xchg   DWORD PTR [rip+0x2259d2],eax        # 228d70 <malloc_global_mutex>
    339e:	85 c0                	test   eax,eax
    33a0:	75 ee                	jne    3390 <init_mparams+0x30>
    33a2:	48 83 3d 96 59 22 00 	cmp    QWORD PTR [rip+0x225996],0x0        # 228d40 <mparams>
    33a9:	00 
    33aa:	75 6b                	jne    3417 <init_mparams+0xb7>
    33ac:	48 89 e7             	mov    rdi,rsp
    33af:	be 08 00 00 00       	mov    esi,0x8
    33b4:	48 c7 05 91 59 22 00 	mov    QWORD PTR [rip+0x225991],0x1000        # 228d50 <mparams+0x10>
    33bb:	00 10 00 00 
    33bf:	48 c7 05 7e 59 22 00 	mov    QWORD PTR [rip+0x22597e],0x1000        # 228d48 <mparams+0x8>
    33c6:	00 10 00 00 
    33ca:	48 c7 05 83 59 22 00 	mov    QWORD PTR [rip+0x225983],0xffffffffffffffff        # 228d58 <mparams+0x18>
    33d1:	ff ff ff ff 
    33d5:	48 c7 05 80 59 22 00 	mov    QWORD PTR [rip+0x225980],0x200000        # 228d60 <mparams+0x20>
    33dc:	00 00 20 00 
    33e0:	c7 05 7e 59 22 00 02 	mov    DWORD PTR [rip+0x22597e],0x2        # 228d68 <mparams+0x28>
    33e7:	00 00 00 
    33ea:	48 c7 05 fb 58 22 00 	mov    QWORD PTR [rip+0x2258fb],0x2        # 228cf0 <_gm_+0x370>
    33f1:	02 00 00 00 
    33f5:	e8 d6 d8 ff ff       	call   cd0 <sgx_read_rand>
    33fa:	85 c0                	test   eax,eax
    33fc:	75 3d                	jne    343b <init_mparams+0xdb>
    33fe:	48 8b 04 24          	mov    rax,QWORD PTR [rsp]
    3402:	48 35 55 55 55 55    	xor    rax,0x55555555
    3408:	48 83 e0 f8          	and    rax,0xfffffffffffffff8
    340c:	48 83 c8 08          	or     rax,0x8
    3410:	48 89 05 29 59 22 00 	mov    QWORD PTR [rip+0x225929],rax        # 228d40 <mparams>
    3417:	c7 05 4f 59 22 00 00 	mov    DWORD PTR [rip+0x22594f],0x0        # 228d70 <malloc_global_mutex>
    341e:	00 00 00 
    3421:	b8 01 00 00 00       	mov    eax,0x1
    3426:	48 8b 74 24 08       	mov    rsi,QWORD PTR [rsp+0x8]
    342b:	64 48 33 34 25 28 00 	xor    rsi,QWORD PTR fs:0x28
    3432:	00 00 
    3434:	75 0a                	jne    3440 <init_mparams+0xe0>
    3436:	48 83 c4 18          	add    rsp,0x18
    343a:	c3                   	ret    
    343b:	e8 ec 06 02 00       	call   23b2c <abort>
    3440:	e8 eb fe ff ff       	call   3330 <__stack_chk_fail>
    3445:	66 2e 0f 1f 84 00 00 	nop    WORD PTR cs:[rax+rax*1+0x0]
    344c:	00 00 00 
    344f:	90                   	nop

0000000000003450 <dispose_chunk>:
    3450:	55                   	push   rbp
    3451:	53                   	push   rbx
    3452:	48 8d 04 16          	lea    rax,[rsi+rdx*1]
    3456:	48 83 ec 08          	sub    rsp,0x8
    345a:	48 8b 4e 08          	mov    rcx,QWORD PTR [rsi+0x8]
    345e:	f6 c1 01             	test   cl,0x1
    3461:	75 6d                	jne    34d0 <dispose_chunk+0x80>
    3463:	83 e1 03             	and    ecx,0x3
    3466:	0f 84 db 00 00 00    	je     3547 <dispose_chunk+0xf7>
    346c:	48 8b 0e             	mov    rcx,QWORD PTR [rsi]
    346f:	4c 8b 4f 18          	mov    r9,QWORD PTR [rdi+0x18]
    3473:	48 29 ce             	sub    rsi,rcx
    3476:	48 01 ca             	add    rdx,rcx
    3479:	49 39 f1             	cmp    r9,rsi
    347c:	0f 87 ee 02 00 00    	ja     3770 <dispose_chunk+0x320>
    3482:	48 39 77 20          	cmp    QWORD PTR [rdi+0x20],rsi
    3486:	0f 84 6c 02 00 00    	je     36f8 <dispose_chunk+0x2a8>
    348c:	48 c1 e9 03          	shr    rcx,0x3
    3490:	4c 8b 46 18          	mov    r8,QWORD PTR [rsi+0x18]
    3494:	48 83 f9 1f          	cmp    rcx,0x1f
    3498:	0f 87 b2 02 00 00    	ja     3750 <dispose_chunk+0x300>
    349e:	44 8d 1c 09          	lea    r11d,[rcx+rcx*1]
    34a2:	4c 8b 56 10          	mov    r10,QWORD PTR [rsi+0x10]
    34a6:	4e 8d 5c df 48       	lea    r11,[rdi+r11*8+0x48]
    34ab:	4d 39 d3             	cmp    r11,r10
    34ae:	0f 85 d1 05 00 00    	jne    3a85 <dispose_chunk+0x635>
    34b4:	4d 39 d0             	cmp    r8,r10
    34b7:	0f 84 2b 05 00 00    	je     39e8 <dispose_chunk+0x598>
    34bd:	4d 39 c3             	cmp    r11,r8
    34c0:	0f 85 26 06 00 00    	jne    3aec <dispose_chunk+0x69c>
    34c6:	4d 89 42 18          	mov    QWORD PTR [r10+0x18],r8
    34ca:	4d 89 50 10          	mov    QWORD PTR [r8+0x10],r10
    34ce:	eb 04                	jmp    34d4 <dispose_chunk+0x84>
    34d0:	4c 8b 4f 18          	mov    r9,QWORD PTR [rdi+0x18]
    34d4:	49 39 c1             	cmp    r9,rax
    34d7:	0f 87 93 02 00 00    	ja     3770 <dispose_chunk+0x320>
    34dd:	48 8b 48 08          	mov    rcx,QWORD PTR [rax+0x8]
    34e1:	f6 c1 02             	test   cl,0x2
    34e4:	74 6a                	je     3550 <dispose_chunk+0x100>
    34e6:	48 83 e1 fe          	and    rcx,0xfffffffffffffffe
    34ea:	48 89 48 08          	mov    QWORD PTR [rax+0x8],rcx
    34ee:	48 89 d0             	mov    rax,rdx
    34f1:	48 83 c8 01          	or     rax,0x1
    34f5:	48 89 46 08          	mov    QWORD PTR [rsi+0x8],rax
    34f9:	48 89 14 16          	mov    QWORD PTR [rsi+rdx*1],rdx
    34fd:	48 89 d1             	mov    rcx,rdx
    3500:	48 c1 e9 03          	shr    rcx,0x3
    3504:	48 83 f9 1f          	cmp    rcx,0x1f
    3508:	0f 87 c2 00 00 00    	ja     35d0 <dispose_chunk+0x180>
    350e:	8d 04 09             	lea    eax,[rcx+rcx*1]
    3511:	44 8b 07             	mov    r8d,DWORD PTR [rdi]
    3514:	48 8d 54 c7 48       	lea    rdx,[rdi+rax*8+0x48]
    3519:	b8 01 00 00 00       	mov    eax,0x1
    351e:	d3 e0                	shl    eax,cl
    3520:	41 85 c0             	test   r8d,eax
    3523:	0f 84 a7 01 00 00    	je     36d0 <dispose_chunk+0x280>
    3529:	48 8b 42 10          	mov    rax,QWORD PTR [rdx+0x10]
    352d:	48 3b 47 18          	cmp    rax,QWORD PTR [rdi+0x18]
    3531:	0f 82 39 02 00 00    	jb     3770 <dispose_chunk+0x320>
    3537:	48 89 72 10          	mov    QWORD PTR [rdx+0x10],rsi
    353b:	48 89 70 18          	mov    QWORD PTR [rax+0x18],rsi
    353f:	48 89 46 10          	mov    QWORD PTR [rsi+0x10],rax
    3543:	48 89 56 18          	mov    QWORD PTR [rsi+0x18],rdx
    3547:	48 83 c4 08          	add    rsp,0x8
    354b:	5b                   	pop    rbx
    354c:	5d                   	pop    rbp
    354d:	c3                   	ret    
    354e:	66 90                	xchg   ax,ax
    3550:	48 39 47 28          	cmp    QWORD PTR [rdi+0x28],rax
    3554:	4c 8b 5f 20          	mov    r11,QWORD PTR [rdi+0x20]
    3558:	0f 84 42 02 00 00    	je     37a0 <dispose_chunk+0x350>
    355e:	49 39 c3             	cmp    r11,rax
    3561:	0f 84 c9 01 00 00    	je     3730 <dispose_chunk+0x2e0>
    3567:	48 83 e1 f8          	and    rcx,0xfffffffffffffff8
    356b:	4c 8b 40 18          	mov    r8,QWORD PTR [rax+0x18]
    356f:	48 01 ca             	add    rdx,rcx
    3572:	48 c1 e9 03          	shr    rcx,0x3
    3576:	48 83 f9 1f          	cmp    rcx,0x1f
    357a:	0f 87 58 02 00 00    	ja     37d8 <dispose_chunk+0x388>
    3580:	8d 1c 09             	lea    ebx,[rcx+rcx*1]
    3583:	4c 8b 50 10          	mov    r10,QWORD PTR [rax+0x10]
    3587:	48 8d 5c df 48       	lea    rbx,[rdi+rbx*8+0x48]
    358c:	4c 39 d3             	cmp    rbx,r10
    358f:	0f 85 14 05 00 00    	jne    3aa9 <dispose_chunk+0x659>
    3595:	4d 39 d0             	cmp    r8,r10
    3598:	0f 84 b2 04 00 00    	je     3a50 <dispose_chunk+0x600>
    359e:	4c 39 c3             	cmp    rbx,r8
    35a1:	0f 85 d2 03 00 00    	jne    3979 <dispose_chunk+0x529>
    35a7:	4d 89 42 18          	mov    QWORD PTR [r10+0x18],r8
    35ab:	4d 89 50 10          	mov    QWORD PTR [r8+0x10],r10
    35af:	48 89 d0             	mov    rax,rdx
    35b2:	48 83 c8 01          	or     rax,0x1
    35b6:	4c 39 de             	cmp    rsi,r11
    35b9:	48 89 46 08          	mov    QWORD PTR [rsi+0x8],rax
    35bd:	48 89 14 16          	mov    QWORD PTR [rsi+rdx*1],rdx
    35c1:	0f 85 36 ff ff ff    	jne    34fd <dispose_chunk+0xad>
    35c7:	48 89 57 08          	mov    QWORD PTR [rdi+0x8],rdx
    35cb:	e9 77 ff ff ff       	jmp    3547 <dispose_chunk+0xf7>
    35d0:	48 89 d0             	mov    rax,rdx
    35d3:	48 c1 e8 08          	shr    rax,0x8
    35d7:	85 c0                	test   eax,eax
    35d9:	0f 84 01 01 00 00    	je     36e0 <dispose_chunk+0x290>
    35df:	3d ff ff 00 00       	cmp    eax,0xffff
    35e4:	0f 87 d6 02 00 00    	ja     38c0 <dispose_chunk+0x470>
    35ea:	0f bd c0             	bsr    eax,eax
    35ed:	b9 26 00 00 00       	mov    ecx,0x26
    35f2:	48 89 d3             	mov    rbx,rdx
    35f5:	83 f0 1f             	xor    eax,0x1f
    35f8:	41 b8 1f 00 00 00    	mov    r8d,0x1f
    35fe:	29 c1                	sub    ecx,eax
    3600:	41 29 c0             	sub    r8d,eax
    3603:	b8 01 00 00 00       	mov    eax,0x1
    3608:	48 d3 eb             	shr    rbx,cl
    360b:	48 89 d9             	mov    rcx,rbx
    360e:	83 e1 01             	and    ecx,0x1
    3611:	46 8d 1c 41          	lea    r11d,[rcx+r8*2]
    3615:	4c 89 d9             	mov    rcx,r11
    3618:	4e 8d 14 dd 58 02 00 	lea    r10,[r11*8+0x258]
    361f:	00 
    3620:	d3 e0                	shl    eax,cl
    3622:	44 8b 47 04          	mov    r8d,DWORD PTR [rdi+0x4]
    3626:	89 4e 38             	mov    DWORD PTR [rsi+0x38],ecx
    3629:	48 c7 46 28 00 00 00 	mov    QWORD PTR [rsi+0x28],0x0
    3630:	00 
    3631:	48 c7 46 20 00 00 00 	mov    QWORD PTR [rsi+0x20],0x0
    3638:	00 
    3639:	44 85 c0             	test   eax,r8d
    363c:	0f 84 36 01 00 00    	je     3778 <dispose_chunk+0x328>
    3642:	83 f9 1f             	cmp    ecx,0x1f
    3645:	4e 8b 84 df 58 02 00 	mov    r8,QWORD PTR [rdi+r11*8+0x258]
    364c:	00 
    364d:	49 89 d2             	mov    r10,rdx
    3650:	74 34                	je     3686 <dispose_chunk+0x236>
    3652:	d1 e9                	shr    ecx,1
    3654:	b8 39 00 00 00       	mov    eax,0x39
    3659:	29 c8                	sub    eax,ecx
    365b:	89 c1                	mov    ecx,eax
    365d:	49 d3 e2             	shl    r10,cl
    3660:	eb 24                	jmp    3686 <dispose_chunk+0x236>
    3662:	66 0f 1f 44 00 00    	nop    WORD PTR [rax+rax*1+0x0]
    3668:	4c 89 d0             	mov    rax,r10
    366b:	4d 01 d2             	add    r10,r10
    366e:	48 c1 e8 3f          	shr    rax,0x3f
    3672:	48 83 c0 04          	add    rax,0x4
    3676:	49 8b 0c c0          	mov    rcx,QWORD PTR [r8+rax*8]
    367a:	48 85 c9             	test   rcx,rcx
    367d:	0f 84 15 02 00 00    	je     3898 <dispose_chunk+0x448>
    3683:	49 89 c8             	mov    r8,rcx
    3686:	49 8b 40 08          	mov    rax,QWORD PTR [r8+0x8]
    368a:	48 83 e0 f8          	and    rax,0xfffffffffffffff8
    368e:	48 39 d0             	cmp    rax,rdx
    3691:	75 d5                	jne    3668 <dispose_chunk+0x218>
    3693:	4d 39 c1             	cmp    r9,r8
    3696:	49 8b 40 10          	mov    rax,QWORD PTR [r8+0x10]
    369a:	0f 87 d0 00 00 00    	ja     3770 <dispose_chunk+0x320>
    36a0:	49 39 c1             	cmp    r9,rax
    36a3:	0f 87 c7 00 00 00    	ja     3770 <dispose_chunk+0x320>
    36a9:	48 89 70 18          	mov    QWORD PTR [rax+0x18],rsi
    36ad:	49 89 70 10          	mov    QWORD PTR [r8+0x10],rsi
    36b1:	48 89 46 10          	mov    QWORD PTR [rsi+0x10],rax
    36b5:	4c 89 46 18          	mov    QWORD PTR [rsi+0x18],r8
    36b9:	48 c7 46 30 00 00 00 	mov    QWORD PTR [rsi+0x30],0x0
    36c0:	00 
    36c1:	e9 81 fe ff ff       	jmp    3547 <dispose_chunk+0xf7>
    36c6:	66 2e 0f 1f 84 00 00 	nop    WORD PTR cs:[rax+rax*1+0x0]
    36cd:	00 00 00 
    36d0:	44 09 c0             	or     eax,r8d
    36d3:	89 07                	mov    DWORD PTR [rdi],eax
    36d5:	48 89 d0             	mov    rax,rdx
    36d8:	e9 5a fe ff ff       	jmp    3537 <dispose_chunk+0xe7>
    36dd:	0f 1f 00             	nop    DWORD PTR [rax]
    36e0:	b8 01 00 00 00       	mov    eax,0x1
    36e5:	41 ba 58 02 00 00    	mov    r10d,0x258
    36eb:	31 c9                	xor    ecx,ecx
    36ed:	45 31 db             	xor    r11d,r11d
    36f0:	e9 2d ff ff ff       	jmp    3622 <dispose_chunk+0x1d2>
    36f5:	0f 1f 00             	nop    DWORD PTR [rax]
    36f8:	48 8b 48 08          	mov    rcx,QWORD PTR [rax+0x8]
    36fc:	49 89 c8             	mov    r8,rcx
    36ff:	41 83 e0 03          	and    r8d,0x3
    3703:	49 83 f8 03          	cmp    r8,0x3
    3707:	0f 85 c7 fd ff ff    	jne    34d4 <dispose_chunk+0x84>
    370d:	48 83 e1 fe          	and    rcx,0xfffffffffffffffe
    3711:	48 89 57 08          	mov    QWORD PTR [rdi+0x8],rdx
    3715:	48 89 48 08          	mov    QWORD PTR [rax+0x8],rcx
    3719:	48 89 d1             	mov    rcx,rdx
    371c:	48 83 c9 01          	or     rcx,0x1
    3720:	48 89 4e 08          	mov    QWORD PTR [rsi+0x8],rcx
    3724:	48 89 10             	mov    QWORD PTR [rax],rdx
    3727:	e9 1b fe ff ff       	jmp    3547 <dispose_chunk+0xf7>
    372c:	0f 1f 40 00          	nop    DWORD PTR [rax+0x0]
    3730:	48 03 57 08          	add    rdx,QWORD PTR [rdi+0x8]
    3734:	48 89 77 20          	mov    QWORD PTR [rdi+0x20],rsi
    3738:	48 89 d0             	mov    rax,rdx
    373b:	48 89 57 08          	mov    QWORD PTR [rdi+0x8],rdx
    373f:	48 83 c8 01          	or     rax,0x1
    3743:	48 89 46 08          	mov    QWORD PTR [rsi+0x8],rax
    3747:	48 89 14 16          	mov    QWORD PTR [rsi+rdx*1],rdx
    374b:	e9 f7 fd ff ff       	jmp    3547 <dispose_chunk+0xf7>
    3750:	49 39 f0             	cmp    r8,rsi
    3753:	48 8b 5e 30          	mov    rbx,QWORD PTR [rsi+0x30]
    3757:	0f 84 3b 02 00 00    	je     3998 <dispose_chunk+0x548>
    375d:	48 8b 4e 10          	mov    rcx,QWORD PTR [rsi+0x10]
    3761:	49 39 c9             	cmp    r9,rcx
    3764:	77 0a                	ja     3770 <dispose_chunk+0x320>
    3766:	48 39 71 18          	cmp    QWORD PTR [rcx+0x18],rsi
    376a:	0f 84 70 01 00 00    	je     38e0 <dispose_chunk+0x490>
    3770:	e8 b7 03 02 00       	call   23b2c <abort>
    3775:	0f 1f 00             	nop    DWORD PTR [rax]
    3778:	44 09 c0             	or     eax,r8d
    377b:	89 47 04             	mov    DWORD PTR [rdi+0x4],eax
    377e:	4a 89 b4 df 58 02 00 	mov    QWORD PTR [rdi+r11*8+0x258],rsi
    3785:	00 
    3786:	4c 01 d7             	add    rdi,r10
    3789:	48 89 7e 30          	mov    QWORD PTR [rsi+0x30],rdi
    378d:	48 89 76 18          	mov    QWORD PTR [rsi+0x18],rsi
    3791:	48 89 76 10          	mov    QWORD PTR [rsi+0x10],rsi
    3795:	e9 ad fd ff ff       	jmp    3547 <dispose_chunk+0xf7>
    379a:	66 0f 1f 44 00 00    	nop    WORD PTR [rax+rax*1+0x0]
    37a0:	48 03 57 10          	add    rdx,QWORD PTR [rdi+0x10]
    37a4:	48 89 77 28          	mov    QWORD PTR [rdi+0x28],rsi
    37a8:	48 89 57 10          	mov    QWORD PTR [rdi+0x10],rdx
    37ac:	48 83 ca 01          	or     rdx,0x1
    37b0:	4c 39 de             	cmp    rsi,r11
    37b3:	48 89 56 08          	mov    QWORD PTR [rsi+0x8],rdx
    37b7:	0f 85 8a fd ff ff    	jne    3547 <dispose_chunk+0xf7>
    37bd:	48 c7 47 20 00 00 00 	mov    QWORD PTR [rdi+0x20],0x0
    37c4:	00 
    37c5:	48 c7 47 08 00 00 00 	mov    QWORD PTR [rdi+0x8],0x0
    37cc:	00 
    37cd:	e9 75 fd ff ff       	jmp    3547 <dispose_chunk+0xf7>
    37d2:	66 0f 1f 44 00 00    	nop    WORD PTR [rax+rax*1+0x0]
    37d8:	49 39 c0             	cmp    r8,rax
    37db:	48 8b 68 30          	mov    rbp,QWORD PTR [rax+0x30]
    37df:	0f 84 1b 02 00 00    	je     3a00 <dispose_chunk+0x5b0>
    37e5:	48 8b 48 10          	mov    rcx,QWORD PTR [rax+0x10]
    37e9:	49 39 c9             	cmp    r9,rcx
    37ec:	77 82                	ja     3770 <dispose_chunk+0x320>
    37ee:	48 39 41 18          	cmp    QWORD PTR [rcx+0x18],rax
    37f2:	0f 85 78 ff ff ff    	jne    3770 <dispose_chunk+0x320>
    37f8:	49 39 40 10          	cmp    QWORD PTR [r8+0x10],rax
    37fc:	0f 85 6e ff ff ff    	jne    3770 <dispose_chunk+0x320>
    3802:	4c 89 41 18          	mov    QWORD PTR [rcx+0x18],r8
    3806:	49 89 48 10          	mov    QWORD PTR [r8+0x10],rcx
    380a:	48 85 ed             	test   rbp,rbp
    380d:	0f 84 9c fd ff ff    	je     35af <dispose_chunk+0x15f>
    3813:	8b 48 38             	mov    ecx,DWORD PTR [rax+0x38]
    3816:	48 8d 0c cf          	lea    rcx,[rdi+rcx*8]
    381a:	48 39 81 58 02 00 00 	cmp    QWORD PTR [rcx+0x258],rax
    3821:	0f 84 49 02 00 00    	je     3a70 <dispose_chunk+0x620>
    3827:	49 39 e9             	cmp    r9,rbp
    382a:	0f 87 40 ff ff ff    	ja     3770 <dispose_chunk+0x320>
    3830:	48 39 45 20          	cmp    QWORD PTR [rbp+0x20],rax
    3834:	0f 84 66 02 00 00    	je     3aa0 <dispose_chunk+0x650>
    383a:	4c 89 45 28          	mov    QWORD PTR [rbp+0x28],r8
    383e:	4d 85 c0             	test   r8,r8
    3841:	0f 84 68 fd ff ff    	je     35af <dispose_chunk+0x15f>
    3847:	4d 39 c8             	cmp    r8,r9
    384a:	0f 82 20 ff ff ff    	jb     3770 <dispose_chunk+0x320>
    3850:	48 8b 48 20          	mov    rcx,QWORD PTR [rax+0x20]
    3854:	49 89 68 30          	mov    QWORD PTR [r8+0x30],rbp
    3858:	48 85 c9             	test   rcx,rcx
    385b:	74 11                	je     386e <dispose_chunk+0x41e>
    385d:	49 39 c9             	cmp    r9,rcx
    3860:	0f 87 0a ff ff ff    	ja     3770 <dispose_chunk+0x320>
    3866:	49 89 48 20          	mov    QWORD PTR [r8+0x20],rcx
    386a:	4c 89 41 30          	mov    QWORD PTR [rcx+0x30],r8
    386e:	48 8b 40 28          	mov    rax,QWORD PTR [rax+0x28]
    3872:	48 85 c0             	test   rax,rax
    3875:	0f 84 34 fd ff ff    	je     35af <dispose_chunk+0x15f>
    387b:	49 39 c1             	cmp    r9,rax
    387e:	0f 87 ec fe ff ff    	ja     3770 <dispose_chunk+0x320>
    3884:	49 89 40 28          	mov    QWORD PTR [r8+0x28],rax
    3888:	4c 89 40 30          	mov    QWORD PTR [rax+0x30],r8
    388c:	e9 1e fd ff ff       	jmp    35af <dispose_chunk+0x15f>
    3891:	0f 1f 80 00 00 00 00 	nop    DWORD PTR [rax+0x0]
    3898:	49 8d 14 c0          	lea    rdx,[r8+rax*8]
    389c:	48 39 57 18          	cmp    QWORD PTR [rdi+0x18],rdx
    38a0:	0f 87 ca fe ff ff    	ja     3770 <dispose_chunk+0x320>
    38a6:	49 89 34 c0          	mov    QWORD PTR [r8+rax*8],rsi
    38aa:	4c 89 46 30          	mov    QWORD PTR [rsi+0x30],r8
    38ae:	48 89 76 18          	mov    QWORD PTR [rsi+0x18],rsi
    38b2:	48 89 76 10          	mov    QWORD PTR [rsi+0x10],rsi
    38b6:	e9 8c fc ff ff       	jmp    3547 <dispose_chunk+0xf7>
    38bb:	0f 1f 44 00 00       	nop    DWORD PTR [rax+rax*1+0x0]
    38c0:	b8 00 00 00 80       	mov    eax,0x80000000
    38c5:	41 ba 50 03 00 00    	mov    r10d,0x350
    38cb:	b9 1f 00 00 00       	mov    ecx,0x1f
    38d0:	41 bb 1f 00 00 00    	mov    r11d,0x1f
    38d6:	e9 47 fd ff ff       	jmp    3622 <dispose_chunk+0x1d2>
    38db:	0f 1f 44 00 00       	nop    DWORD PTR [rax+rax*1+0x0]
    38e0:	49 39 70 10          	cmp    QWORD PTR [r8+0x10],rsi
    38e4:	0f 85 86 fe ff ff    	jne    3770 <dispose_chunk+0x320>
    38ea:	4c 89 41 18          	mov    QWORD PTR [rcx+0x18],r8
    38ee:	49 89 48 10          	mov    QWORD PTR [r8+0x10],rcx
    38f2:	48 85 db             	test   rbx,rbx
    38f5:	0f 84 d9 fb ff ff    	je     34d4 <dispose_chunk+0x84>
    38fb:	8b 4e 38             	mov    ecx,DWORD PTR [rsi+0x38]
    38fe:	48 8d 0c cf          	lea    rcx,[rdi+rcx*8]
    3902:	48 39 b1 58 02 00 00 	cmp    QWORD PTR [rcx+0x258],rsi
    3909:	0f 84 51 01 00 00    	je     3a60 <dispose_chunk+0x610>
    390f:	49 39 d9             	cmp    r9,rbx
    3912:	0f 87 58 fe ff ff    	ja     3770 <dispose_chunk+0x320>
    3918:	48 39 73 20          	cmp    QWORD PTR [rbx+0x20],rsi
    391c:	0f 84 5a 01 00 00    	je     3a7c <dispose_chunk+0x62c>
    3922:	4c 89 43 28          	mov    QWORD PTR [rbx+0x28],r8
    3926:	4d 85 c0             	test   r8,r8
    3929:	0f 84 a5 fb ff ff    	je     34d4 <dispose_chunk+0x84>
    392f:	4d 39 c1             	cmp    r9,r8
    3932:	0f 87 38 fe ff ff    	ja     3770 <dispose_chunk+0x320>
    3938:	48 8b 4e 20          	mov    rcx,QWORD PTR [rsi+0x20]
    393c:	49 89 58 30          	mov    QWORD PTR [r8+0x30],rbx
    3940:	48 85 c9             	test   rcx,rcx
    3943:	74 11                	je     3956 <dispose_chunk+0x506>
    3945:	49 39 c9             	cmp    r9,rcx
    3948:	0f 87 22 fe ff ff    	ja     3770 <dispose_chunk+0x320>
    394e:	49 89 48 20          	mov    QWORD PTR [r8+0x20],rcx
    3952:	4c 89 41 30          	mov    QWORD PTR [rcx+0x30],r8
    3956:	48 8b 4e 28          	mov    rcx,QWORD PTR [rsi+0x28]
    395a:	48 85 c9             	test   rcx,rcx
    395d:	0f 84 71 fb ff ff    	je     34d4 <dispose_chunk+0x84>
    3963:	49 39 c9             	cmp    r9,rcx
    3966:	0f 87 04 fe ff ff    	ja     3770 <dispose_chunk+0x320>
    396c:	49 89 48 28          	mov    QWORD PTR [r8+0x28],rcx
    3970:	4c 89 41 30          	mov    QWORD PTR [rcx+0x30],r8
    3974:	e9 5b fb ff ff       	jmp    34d4 <dispose_chunk+0x84>
    3979:	4d 39 c1             	cmp    r9,r8
    397c:	0f 87 ee fd ff ff    	ja     3770 <dispose_chunk+0x320>
    3982:	49 39 40 10          	cmp    QWORD PTR [r8+0x10],rax
    3986:	0f 84 1b fc ff ff    	je     35a7 <dispose_chunk+0x157>
    398c:	e9 df fd ff ff       	jmp    3770 <dispose_chunk+0x320>
    3991:	0f 1f 80 00 00 00 00 	nop    DWORD PTR [rax+0x0]
    3998:	48 8b 4e 28          	mov    rcx,QWORD PTR [rsi+0x28]
    399c:	4c 8d 56 28          	lea    r10,[rsi+0x28]
    39a0:	48 85 c9             	test   rcx,rcx
    39a3:	0f 84 1f 01 00 00    	je     3ac8 <dispose_chunk+0x678>
    39a9:	0f 1f 80 00 00 00 00 	nop    DWORD PTR [rax+0x0]
    39b0:	49 89 c8             	mov    r8,rcx
    39b3:	48 8b 49 28          	mov    rcx,QWORD PTR [rcx+0x28]
    39b7:	4d 89 d3             	mov    r11,r10
    39ba:	4d 8d 50 28          	lea    r10,[r8+0x28]
    39be:	48 85 c9             	test   rcx,rcx
    39c1:	75 ed                	jne    39b0 <dispose_chunk+0x560>
    39c3:	49 8b 48 20          	mov    rcx,QWORD PTR [r8+0x20]
    39c7:	4d 8d 50 20          	lea    r10,[r8+0x20]
    39cb:	48 85 c9             	test   rcx,rcx
    39ce:	75 e0                	jne    39b0 <dispose_chunk+0x560>
    39d0:	4d 39 d9             	cmp    r9,r11
    39d3:	0f 87 97 fd ff ff    	ja     3770 <dispose_chunk+0x320>
    39d9:	49 c7 03 00 00 00 00 	mov    QWORD PTR [r11],0x0
    39e0:	e9 0d ff ff ff       	jmp    38f2 <dispose_chunk+0x4a2>
    39e5:	0f 1f 00             	nop    DWORD PTR [rax]
    39e8:	41 b8 fe ff ff ff    	mov    r8d,0xfffffffe
    39ee:	41 d3 c0             	rol    r8d,cl
    39f1:	44 21 07             	and    DWORD PTR [rdi],r8d
    39f4:	e9 db fa ff ff       	jmp    34d4 <dispose_chunk+0x84>
    39f9:	0f 1f 80 00 00 00 00 	nop    DWORD PTR [rax+0x0]
    3a00:	48 8b 48 28          	mov    rcx,QWORD PTR [rax+0x28]
    3a04:	4c 8d 50 28          	lea    r10,[rax+0x28]
    3a08:	48 85 c9             	test   rcx,rcx
    3a0b:	0f 84 c9 00 00 00    	je     3ada <dispose_chunk+0x68a>
    3a11:	0f 1f 80 00 00 00 00 	nop    DWORD PTR [rax+0x0]
    3a18:	49 89 c8             	mov    r8,rcx
    3a1b:	48 8b 49 28          	mov    rcx,QWORD PTR [rcx+0x28]
    3a1f:	4c 89 d3             	mov    rbx,r10
    3a22:	4d 8d 50 28          	lea    r10,[r8+0x28]
    3a26:	48 85 c9             	test   rcx,rcx
    3a29:	75 ed                	jne    3a18 <dispose_chunk+0x5c8>
    3a2b:	49 8b 48 20          	mov    rcx,QWORD PTR [r8+0x20]
    3a2f:	4d 8d 50 20          	lea    r10,[r8+0x20]
    3a33:	48 85 c9             	test   rcx,rcx
    3a36:	75 e0                	jne    3a18 <dispose_chunk+0x5c8>
    3a38:	49 39 d9             	cmp    r9,rbx
    3a3b:	0f 87 2f fd ff ff    	ja     3770 <dispose_chunk+0x320>
    3a41:	48 c7 03 00 00 00 00 	mov    QWORD PTR [rbx],0x0
    3a48:	e9 bd fd ff ff       	jmp    380a <dispose_chunk+0x3ba>
    3a4d:	0f 1f 00             	nop    DWORD PTR [rax]
    3a50:	b8 fe ff ff ff       	mov    eax,0xfffffffe
    3a55:	d3 c0                	rol    eax,cl
    3a57:	21 07                	and    DWORD PTR [rdi],eax
    3a59:	e9 51 fb ff ff       	jmp    35af <dispose_chunk+0x15f>
    3a5e:	66 90                	xchg   ax,ax
    3a60:	4c 89 81 58 02 00 00 	mov    QWORD PTR [rcx+0x258],r8
    3a67:	e9 c3 fe ff ff       	jmp    392f <dispose_chunk+0x4df>
    3a6c:	0f 1f 40 00          	nop    DWORD PTR [rax+0x0]
    3a70:	4c 89 81 58 02 00 00 	mov    QWORD PTR [rcx+0x258],r8
    3a77:	e9 cb fd ff ff       	jmp    3847 <dispose_chunk+0x3f7>
    3a7c:	4c 89 43 20          	mov    QWORD PTR [rbx+0x20],r8
    3a80:	e9 a1 fe ff ff       	jmp    3926 <dispose_chunk+0x4d6>
    3a85:	4d 39 d1             	cmp    r9,r10
    3a88:	0f 87 e2 fc ff ff    	ja     3770 <dispose_chunk+0x320>
    3a8e:	49 39 72 18          	cmp    QWORD PTR [r10+0x18],rsi
    3a92:	0f 84 1c fa ff ff    	je     34b4 <dispose_chunk+0x64>
    3a98:	e9 d3 fc ff ff       	jmp    3770 <dispose_chunk+0x320>
    3a9d:	0f 1f 00             	nop    DWORD PTR [rax]
    3aa0:	4c 89 45 20          	mov    QWORD PTR [rbp+0x20],r8
    3aa4:	e9 95 fd ff ff       	jmp    383e <dispose_chunk+0x3ee>
    3aa9:	4d 39 d1             	cmp    r9,r10
    3aac:	0f 87 be fc ff ff    	ja     3770 <dispose_chunk+0x320>
    3ab2:	49 39 42 18          	cmp    QWORD PTR [r10+0x18],rax
    3ab6:	0f 84 d9 fa ff ff    	je     3595 <dispose_chunk+0x145>
    3abc:	e9 af fc ff ff       	jmp    3770 <dispose_chunk+0x320>
    3ac1:	0f 1f 80 00 00 00 00 	nop    DWORD PTR [rax+0x0]
    3ac8:	48 8b 4e 20          	mov    rcx,QWORD PTR [rsi+0x20]
    3acc:	48 85 c9             	test   rcx,rcx
    3acf:	74 33                	je     3b04 <dispose_chunk+0x6b4>
    3ad1:	4c 8d 56 20          	lea    r10,[rsi+0x20]
    3ad5:	e9 d6 fe ff ff       	jmp    39b0 <dispose_chunk+0x560>
    3ada:	48 8b 48 20          	mov    rcx,QWORD PTR [rax+0x20]
    3ade:	48 85 c9             	test   rcx,rcx
    3ae1:	74 62                	je     3b45 <dispose_chunk+0x6f5>
    3ae3:	4c 8d 50 20          	lea    r10,[rax+0x20]
    3ae7:	e9 2c ff ff ff       	jmp    3a18 <dispose_chunk+0x5c8>
    3aec:	4d 39 c1             	cmp    r9,r8
    3aef:	0f 87 7b fc ff ff    	ja     3770 <dispose_chunk+0x320>
    3af5:	49 39 70 10          	cmp    QWORD PTR [r8+0x10],rsi
    3af9:	0f 84 c7 f9 ff ff    	je     34c6 <dispose_chunk+0x76>
    3aff:	e9 6c fc ff ff       	jmp    3770 <dispose_chunk+0x320>
    3b04:	48 85 db             	test   rbx,rbx
    3b07:	0f 84 c7 f9 ff ff    	je     34d4 <dispose_chunk+0x84>
    3b0d:	45 8b 40 38          	mov    r8d,DWORD PTR [r8+0x38]
    3b11:	4e 8d 14 c7          	lea    r10,[rdi+r8*8]
    3b15:	4c 89 c1             	mov    rcx,r8
    3b18:	45 31 c0             	xor    r8d,r8d
    3b1b:	49 39 b2 58 02 00 00 	cmp    QWORD PTR [r10+0x258],rsi
    3b22:	0f 85 e7 fd ff ff    	jne    390f <dispose_chunk+0x4bf>
    3b28:	41 b8 fe ff ff ff    	mov    r8d,0xfffffffe
    3b2e:	49 c7 82 58 02 00 00 	mov    QWORD PTR [r10+0x258],0x0
    3b35:	00 00 00 00 
    3b39:	41 d3 c0             	rol    r8d,cl
    3b3c:	44 21 47 04          	and    DWORD PTR [rdi+0x4],r8d
    3b40:	e9 8f f9 ff ff       	jmp    34d4 <dispose_chunk+0x84>
    3b45:	48 85 ed             	test   rbp,rbp
    3b48:	0f 84 61 fa ff ff    	je     35af <dispose_chunk+0x15f>
    3b4e:	44 8b 40 38          	mov    r8d,DWORD PTR [rax+0x38]
    3b52:	4e 8d 14 c7          	lea    r10,[rdi+r8*8]
    3b56:	4c 89 c1             	mov    rcx,r8
    3b59:	45 31 c0             	xor    r8d,r8d
    3b5c:	49 39 82 58 02 00 00 	cmp    QWORD PTR [r10+0x258],rax
    3b63:	0f 85 be fc ff ff    	jne    3827 <dispose_chunk+0x3d7>
    3b69:	b8 fe ff ff ff       	mov    eax,0xfffffffe
    3b6e:	49 c7 82 58 02 00 00 	mov    QWORD PTR [r10+0x258],0x0
    3b75:	00 00 00 00 
    3b79:	d3 c0                	rol    eax,cl
    3b7b:	21 47 04             	and    DWORD PTR [rdi+0x4],eax
    3b7e:	e9 2c fa ff ff       	jmp    35af <dispose_chunk+0x15f>
    3b83:	66 2e 0f 1f 84 00 00 	nop    WORD PTR cs:[rax+rax*1+0x0]
    3b8a:	00 00 00 
    3b8d:	0f 1f 00             	nop    DWORD PTR [rax]

0000000000003b90 <dlmalloc>:
    3b90:	41 57                	push   r15
    3b92:	41 56                	push   r14
    3b94:	41 55                	push   r13
    3b96:	41 54                	push   r12
    3b98:	49 89 fc             	mov    r12,rdi
    3b9b:	55                   	push   rbp
    3b9c:	53                   	push   rbx
    3b9d:	48 83 ec 18          	sub    rsp,0x18
    3ba1:	48 83 3d 97 51 22 00 	cmp    QWORD PTR [rip+0x225197],0x0        # 228d40 <mparams>
    3ba8:	00 
    3ba9:	0f 84 41 02 00 00    	je     3df0 <dlmalloc+0x260>
    3baf:	f6 05 3a 51 22 00 02 	test   BYTE PTR [rip+0x22513a],0x2        # 228cf0 <_gm_+0x370>
    3bb6:	0f 85 fc 01 00 00    	jne    3db8 <dlmalloc+0x228>
    3bbc:	49 81 fc e8 00 00 00 	cmp    r12,0xe8
    3bc3:	0f 87 f7 00 00 00    	ja     3cc0 <dlmalloc+0x130>
    3bc9:	49 83 fc 0e          	cmp    r12,0xe
    3bcd:	0f 87 cd 01 00 00    	ja     3da0 <dlmalloc+0x210>
    3bd3:	b9 04 00 00 00       	mov    ecx,0x4
    3bd8:	bd 20 00 00 00       	mov    ebp,0x20
    3bdd:	8b 15 9d 4d 22 00    	mov    edx,DWORD PTR [rip+0x224d9d]        # 228980 <_gm_>
    3be3:	4c 8d 2d 96 4d 22 00 	lea    r13,[rip+0x224d96]        # 228980 <_gm_>
    3bea:	89 d0                	mov    eax,edx
    3bec:	d3 e8                	shr    eax,cl
    3bee:	a8 03                	test   al,0x3
    3bf0:	0f 84 0a 02 00 00    	je     3e00 <dlmalloc+0x270>
    3bf6:	f7 d0                	not    eax
    3bf8:	83 e0 01             	and    eax,0x1
    3bfb:	01 c1                	add    ecx,eax
    3bfd:	8d 04 09             	lea    eax,[rcx+rcx*1]
    3c00:	49 8d 74 c5 48       	lea    rsi,[r13+rax*8+0x48]
    3c05:	48 8b 5e 10          	mov    rbx,QWORD PTR [rsi+0x10]
    3c09:	48 8b 43 10          	mov    rax,QWORD PTR [rbx+0x10]
    3c0d:	48 39 c6             	cmp    rsi,rax
    3c10:	0f 84 8a 06 00 00    	je     42a0 <dlmalloc+0x710>
    3c16:	48 39 05 7b 4d 22 00 	cmp    QWORD PTR [rip+0x224d7b],rax        # 228998 <_gm_+0x18>
    3c1d:	0f 87 ad 06 00 00    	ja     42d0 <dlmalloc+0x740>
    3c23:	48 39 58 18          	cmp    QWORD PTR [rax+0x18],rbx
    3c27:	0f 85 a3 06 00 00    	jne    42d0 <dlmalloc+0x740>
    3c2d:	48 89 70 18          	mov    QWORD PTR [rax+0x18],rsi
    3c31:	48 89 46 10          	mov    QWORD PTR [rsi+0x10],rax
    3c35:	c1 e1 03             	shl    ecx,0x3
    3c38:	4c 33 2d 01 51 22 00 	xor    r13,QWORD PTR [rip+0x225101]        # 228d40 <mparams>
    3c3f:	89 c8                	mov    eax,ecx
    3c41:	83 c8 03             	or     eax,0x3
    3c44:	48 89 43 08          	mov    QWORD PTR [rbx+0x8],rax
    3c48:	48 8d 04 0b          	lea    rax,[rbx+rcx*1]
    3c4c:	48 83 c3 10          	add    rbx,0x10
    3c50:	48 83 48 08 01       	or     QWORD PTR [rax+0x8],0x1
    3c55:	48 85 db             	test   rbx,rbx
    3c58:	4c 89 28             	mov    QWORD PTR [rax],r13
    3c5b:	0f 84 37 01 00 00    	je     3d98 <dlmalloc+0x208>
    3c61:	e8 0a e7 ff ff       	call   2370 <get_heap_base>
    3c66:	48 39 d8             	cmp    rax,rbx
    3c69:	0f 87 61 06 00 00    	ja     42d0 <dlmalloc+0x740>
    3c6f:	48 89 d8             	mov    rax,rbx
    3c72:	48 f7 d0             	not    rax
    3c75:	4c 39 e0             	cmp    rax,r12
    3c78:	0f 82 52 06 00 00    	jb     42d0 <dlmalloc+0x740>
    3c7e:	31 ff                	xor    edi,edi
    3c80:	49 01 dc             	add    r12,rbx
    3c83:	e8 58 2a 00 00       	call   66e0 <sbrk>
    3c88:	4c 39 e0             	cmp    rax,r12
    3c8b:	0f 82 3f 06 00 00    	jb     42d0 <dlmalloc+0x740>
    3c91:	f6 05 58 50 22 00 02 	test   BYTE PTR [rip+0x225058],0x2        # 228cf0 <_gm_+0x370>
    3c98:	74 0a                	je     3ca4 <dlmalloc+0x114>
    3c9a:	c7 05 50 50 22 00 00 	mov    DWORD PTR [rip+0x225050],0x0        # 228cf4 <_gm_+0x374>
    3ca1:	00 00 00 
    3ca4:	48 83 c4 18          	add    rsp,0x18
    3ca8:	48 89 d8             	mov    rax,rbx
    3cab:	5b                   	pop    rbx
    3cac:	5d                   	pop    rbp
    3cad:	41 5c                	pop    r12
    3caf:	41 5d                	pop    r13
    3cb1:	41 5e                	pop    r14
    3cb3:	41 5f                	pop    r15
    3cb5:	c3                   	ret    
    3cb6:	66 2e 0f 1f 84 00 00 	nop    WORD PTR cs:[rax+rax*1+0x0]
    3cbd:	00 00 00 
    3cc0:	48 8b 35 c1 4c 22 00 	mov    rsi,QWORD PTR [rip+0x224cc1]        # 228988 <_gm_+0x8>
    3cc7:	49 81 fc 7f ff ff ff 	cmp    r12,0xffffffffffffff7f
    3cce:	4c 8d 2d ab 4c 22 00 	lea    r13,[rip+0x224cab]        # 228980 <_gm_>
    3cd5:	48 89 f7             	mov    rdi,rsi
    3cd8:	76 46                	jbe    3d20 <dlmalloc+0x190>
    3cda:	48 83 fe ff          	cmp    rsi,0xffffffffffffffff
    3cde:	48 8b 05 5b 50 22 00 	mov    rax,QWORD PTR [rip+0x22505b]        # 228d40 <mparams>
    3ce5:	0f 85 35 02 00 00    	jne    3f20 <dlmalloc+0x390>
    3ceb:	48 8b 1d ae 4c 22 00 	mov    rbx,QWORD PTR [rip+0x224cae]        # 2289a0 <_gm_+0x20>
    3cf2:	48 8d 14 33          	lea    rdx,[rbx+rsi*1]
    3cf6:	49 31 c5             	xor    r13,rax
    3cf9:	48 c7 05 84 4c 22 00 	mov    QWORD PTR [rip+0x224c84],0x0        # 228988 <_gm_+0x8>
    3d00:	00 00 00 00 
    3d04:	48 c7 05 91 4c 22 00 	mov    QWORD PTR [rip+0x224c91],0x0        # 2289a0 <_gm_+0x20>
    3d0b:	00 00 00 00 
    3d0f:	48 89 73 08          	mov    QWORD PTR [rbx+0x8],rsi
    3d13:	4c 89 2a             	mov    QWORD PTR [rdx],r13
    3d16:	48 83 4a 08 01       	or     QWORD PTR [rdx+0x8],0x1
    3d1b:	eb 6e                	jmp    3d8b <dlmalloc+0x1fb>
    3d1d:	0f 1f 00             	nop    DWORD PTR [rax]
    3d20:	44 8b 05 5d 4c 22 00 	mov    r8d,DWORD PTR [rip+0x224c5d]        # 228984 <_gm_+0x4>
    3d27:	49 8d 6c 24 17       	lea    rbp,[r12+0x17]
    3d2c:	48 83 e5 f8          	and    rbp,0xfffffffffffffff8
    3d30:	45 85 c0             	test   r8d,r8d
    3d33:	0f 85 47 03 00 00    	jne    4080 <dlmalloc+0x4f0>
    3d39:	48 39 fd             	cmp    rbp,rdi
    3d3c:	0f 86 7e 01 00 00    	jbe    3ec0 <dlmalloc+0x330>
    3d42:	48 8b 05 47 4c 22 00 	mov    rax,QWORD PTR [rip+0x224c47]        # 228990 <_gm_+0x10>
    3d49:	48 8b 15 f0 4f 22 00 	mov    rdx,QWORD PTR [rip+0x224ff0]        # 228d40 <mparams>
    3d50:	48 39 e8             	cmp    rax,rbp
    3d53:	0f 86 06 18 00 00    	jbe    555f <dlmalloc+0x19cf>
    3d59:	48 8b 1d 48 4c 22 00 	mov    rbx,QWORD PTR [rip+0x224c48]        # 2289a8 <_gm_+0x28>
    3d60:	48 29 e8             	sub    rax,rbp
    3d63:	49 31 d5             	xor    r13,rdx
    3d66:	48 89 05 23 4c 22 00 	mov    QWORD PTR [rip+0x224c23],rax        # 228990 <_gm_+0x10>
    3d6d:	48 83 c8 01          	or     rax,0x1
    3d71:	48 8d 0c 2b          	lea    rcx,[rbx+rbp*1]
    3d75:	48 83 cd 03          	or     rbp,0x3
    3d79:	48 89 0d 28 4c 22 00 	mov    QWORD PTR [rip+0x224c28],rcx        # 2289a8 <_gm_+0x28>
    3d80:	48 89 41 08          	mov    QWORD PTR [rcx+0x8],rax
    3d84:	48 89 6b 08          	mov    QWORD PTR [rbx+0x8],rbp
    3d88:	4c 89 29             	mov    QWORD PTR [rcx],r13
    3d8b:	48 83 c3 10          	add    rbx,0x10
    3d8f:	48 85 db             	test   rbx,rbx
    3d92:	0f 85 c9 fe ff ff    	jne    3c61 <dlmalloc+0xd1>
    3d98:	31 db                	xor    ebx,ebx
    3d9a:	e9 f2 fe ff ff       	jmp    3c91 <dlmalloc+0x101>
    3d9f:	90                   	nop
    3da0:	49 8d 6c 24 17       	lea    rbp,[r12+0x17]
    3da5:	48 83 e5 f8          	and    rbp,0xfffffffffffffff8
    3da9:	48 89 e9             	mov    rcx,rbp
    3dac:	48 c1 e9 03          	shr    rcx,0x3
    3db0:	e9 28 fe ff ff       	jmp    3bdd <dlmalloc+0x4d>
    3db5:	0f 1f 00             	nop    DWORD PTR [rax]
    3db8:	b8 01 00 00 00       	mov    eax,0x1
    3dbd:	87 05 31 4f 22 00    	xchg   DWORD PTR [rip+0x224f31],eax        # 228cf4 <_gm_+0x374>
    3dc3:	85 c0                	test   eax,eax
    3dc5:	0f 84 f1 fd ff ff    	je     3bbc <dlmalloc+0x2c>
    3dcb:	ba 01 00 00 00       	mov    edx,0x1
    3dd0:	8b 05 1e 4f 22 00    	mov    eax,DWORD PTR [rip+0x224f1e]        # 228cf4 <_gm_+0x374>
    3dd6:	85 c0                	test   eax,eax
    3dd8:	75 f6                	jne    3dd0 <dlmalloc+0x240>
    3dda:	89 d0                	mov    eax,edx
    3ddc:	87 05 12 4f 22 00    	xchg   DWORD PTR [rip+0x224f12],eax        # 228cf4 <_gm_+0x374>
    3de2:	85 c0                	test   eax,eax
    3de4:	75 ea                	jne    3dd0 <dlmalloc+0x240>
    3de6:	e9 d1 fd ff ff       	jmp    3bbc <dlmalloc+0x2c>
    3deb:	0f 1f 44 00 00       	nop    DWORD PTR [rax+rax*1+0x0]
    3df0:	e8 6b f5 ff ff       	call   3360 <init_mparams>
    3df5:	e9 b5 fd ff ff       	jmp    3baf <dlmalloc+0x1f>
    3dfa:	66 0f 1f 44 00 00    	nop    WORD PTR [rax+rax*1+0x0]
    3e00:	48 8b 35 81 4b 22 00 	mov    rsi,QWORD PTR [rip+0x224b81]        # 228988 <_gm_+0x8>
    3e07:	48 39 ee             	cmp    rsi,rbp
    3e0a:	48 89 f7             	mov    rdi,rsi
    3e0d:	0f 83 ad 00 00 00    	jae    3ec0 <dlmalloc+0x330>
    3e13:	85 c0                	test   eax,eax
    3e15:	0f 84 ba 04 00 00    	je     42d5 <dlmalloc+0x745>
    3e1b:	bf 01 00 00 00       	mov    edi,0x1
    3e20:	d3 e0                	shl    eax,cl
    3e22:	41 89 f8             	mov    r8d,edi
    3e25:	41 d3 e0             	shl    r8d,cl
    3e28:	47 8d 0c 00          	lea    r9d,[r8+r8*1]
    3e2c:	45 89 c8             	mov    r8d,r9d
    3e2f:	41 f7 d8             	neg    r8d
    3e32:	45 09 c8             	or     r8d,r9d
    3e35:	44 21 c0             	and    eax,r8d
    3e38:	89 c1                	mov    ecx,eax
    3e3a:	f7 d9                	neg    ecx
    3e3c:	21 c8                	and    eax,ecx
    3e3e:	31 c9                	xor    ecx,ecx
    3e40:	f3 0f bc c8          	tzcnt  ecx,eax
    3e44:	8d 04 09             	lea    eax,[rcx+rcx*1]
    3e47:	4d 8d 44 c5 48       	lea    r8,[r13+rax*8+0x48]
    3e4c:	49 8b 58 10          	mov    rbx,QWORD PTR [r8+0x10]
    3e50:	48 8b 43 10          	mov    rax,QWORD PTR [rbx+0x10]
    3e54:	49 39 c0             	cmp    r8,rax
    3e57:	0f 84 6c 06 00 00    	je     44c9 <dlmalloc+0x939>
    3e5d:	48 39 05 34 4b 22 00 	cmp    QWORD PTR [rip+0x224b34],rax        # 228998 <_gm_+0x18>
    3e64:	0f 87 66 04 00 00    	ja     42d0 <dlmalloc+0x740>
    3e6a:	48 39 58 18          	cmp    QWORD PTR [rax+0x18],rbx
    3e6e:	0f 85 5c 04 00 00    	jne    42d0 <dlmalloc+0x740>
    3e74:	4c 89 40 18          	mov    QWORD PTR [rax+0x18],r8
    3e78:	49 89 40 10          	mov    QWORD PTR [r8+0x10],rax
    3e7c:	8d 04 cd 00 00 00 00 	lea    eax,[rcx*8+0x0]
    3e83:	48 8b 3d b6 4e 22 00 	mov    rdi,QWORD PTR [rip+0x224eb6]        # 228d40 <mparams>
    3e8a:	48 89 c2             	mov    rdx,rax
    3e8d:	48 89 c1             	mov    rcx,rax
    3e90:	48 01 d8             	add    rax,rbx
    3e93:	48 29 ea             	sub    rdx,rbp
    3e96:	4c 31 ef             	xor    rdi,r13
    3e99:	48 83 fa 1f          	cmp    rdx,0x1f
    3e9d:	0f 87 6b 0b 00 00    	ja     4a0e <dlmalloc+0xe7e>
    3ea3:	83 c9 03             	or     ecx,0x3
    3ea6:	89 ce                	mov    esi,ecx
    3ea8:	48 89 73 08          	mov    QWORD PTR [rbx+0x8],rsi
    3eac:	48 89 38             	mov    QWORD PTR [rax],rdi
    3eaf:	48 83 48 08 01       	or     QWORD PTR [rax+0x8],0x1
    3eb4:	e9 d2 fe ff ff       	jmp    3d8b <dlmalloc+0x1fb>
    3eb9:	0f 1f 80 00 00 00 00 	nop    DWORD PTR [rax+0x0]
    3ec0:	48 8b 05 79 4e 22 00 	mov    rax,QWORD PTR [rip+0x224e79]        # 228d40 <mparams>
    3ec7:	48 89 f9             	mov    rcx,rdi
    3eca:	48 8b 1d cf 4a 22 00 	mov    rbx,QWORD PTR [rip+0x224acf]        # 2289a0 <_gm_+0x20>
    3ed1:	48 29 e9             	sub    rcx,rbp
    3ed4:	4c 89 ee             	mov    rsi,r13
    3ed7:	48 31 c6             	xor    rsi,rax
    3eda:	48 83 f9 1f          	cmp    rcx,0x1f
    3ede:	48 8d 14 3b          	lea    rdx,[rbx+rdi*1]
    3ee2:	0f 86 b9 15 00 00    	jbe    54a1 <dlmalloc+0x1911>
    3ee8:	48 8d 04 2b          	lea    rax,[rbx+rbp*1]
    3eec:	48 89 cf             	mov    rdi,rcx
    3eef:	48 83 cd 03          	or     rbp,0x3
    3ef3:	48 83 cf 01          	or     rdi,0x1
    3ef7:	48 89 0d 8a 4a 22 00 	mov    QWORD PTR [rip+0x224a8a],rcx        # 228988 <_gm_+0x8>
    3efe:	48 89 05 9b 4a 22 00 	mov    QWORD PTR [rip+0x224a9b],rax        # 2289a0 <_gm_+0x20>
    3f05:	48 89 78 08          	mov    QWORD PTR [rax+0x8],rdi
    3f09:	48 89 0a             	mov    QWORD PTR [rdx],rcx
    3f0c:	48 89 6b 08          	mov    QWORD PTR [rbx+0x8],rbp
    3f10:	48 89 30             	mov    QWORD PTR [rax],rsi
    3f13:	e9 73 fe ff ff       	jmp    3d8b <dlmalloc+0x1fb>
    3f18:	0f 1f 84 00 00 00 00 	nop    DWORD PTR [rax+rax*1+0x0]
    3f1f:	00 
    3f20:	48 85 c0             	test   rax,rax
    3f23:	48 c7 c5 ff ff ff ff 	mov    rbp,0xffffffffffffffff
    3f2a:	0f 85 68 fe ff ff    	jne    3d98 <dlmalloc+0x208>
    3f30:	e8 2b f4 ff ff       	call   3360 <init_mparams>
    3f35:	48 8b 05 14 4e 22 00 	mov    rax,QWORD PTR [rip+0x224e14]        # 228d50 <mparams+0x10>
    3f3c:	48 8d 4c 05 57       	lea    rcx,[rbp+rax*1+0x57]
    3f41:	48 f7 d8             	neg    rax
    3f44:	48 21 c1             	and    rcx,rax
    3f47:	48 39 e9             	cmp    rcx,rbp
    3f4a:	0f 86 48 fe ff ff    	jbe    3d98 <dlmalloc+0x208>
    3f50:	48 8b 05 91 4d 22 00 	mov    rax,QWORD PTR [rip+0x224d91]        # 228ce8 <_gm_+0x368>
    3f57:	48 85 c0             	test   rax,rax
    3f5a:	74 1d                	je     3f79 <dlmalloc+0x3e9>
    3f5c:	48 8b 35 75 4d 22 00 	mov    rsi,QWORD PTR [rip+0x224d75]        # 228cd8 <_gm_+0x358>
    3f63:	48 8d 14 31          	lea    rdx,[rcx+rsi*1]
    3f67:	48 39 d0             	cmp    rax,rdx
    3f6a:	0f 82 28 fe ff ff    	jb     3d98 <dlmalloc+0x208>
    3f70:	48 39 d6             	cmp    rsi,rdx
    3f73:	0f 83 1f fe ff ff    	jae    3d98 <dlmalloc+0x208>
    3f79:	f6 05 70 4d 22 00 04 	test   BYTE PTR [rip+0x224d70],0x4        # 228cf0 <_gm_+0x370>
    3f80:	0f 85 cc 00 00 00    	jne    4052 <dlmalloc+0x4c2>
    3f86:	48 8b 15 1b 4a 22 00 	mov    rdx,QWORD PTR [rip+0x224a1b]        # 2289a8 <_gm_+0x28>
    3f8d:	48 85 d2             	test   rdx,rdx
    3f90:	74 2c                	je     3fbe <dlmalloc+0x42e>
    3f92:	4c 8d 35 5f 4d 22 00 	lea    r14,[rip+0x224d5f]        # 228cf8 <_gm_+0x378>
    3f99:	0f 1f 80 00 00 00 00 	nop    DWORD PTR [rax+0x0]
    3fa0:	49 8b 06             	mov    rax,QWORD PTR [r14]
    3fa3:	48 39 c2             	cmp    rdx,rax
    3fa6:	72 0d                	jb     3fb5 <dlmalloc+0x425>
    3fa8:	49 03 46 08          	add    rax,QWORD PTR [r14+0x8]
    3fac:	48 39 c2             	cmp    rdx,rax
    3faf:	0f 82 ef 0d 00 00    	jb     4da4 <dlmalloc+0x1214>
    3fb5:	4d 8b 76 10          	mov    r14,QWORD PTR [r14+0x10]
    3fb9:	4d 85 f6             	test   r14,r14
    3fbc:	75 e2                	jne    3fa0 <dlmalloc+0x410>
    3fbe:	b8 01 00 00 00       	mov    eax,0x1
    3fc3:	87 05 a7 4d 22 00    	xchg   DWORD PTR [rip+0x224da7],eax        # 228d70 <malloc_global_mutex>
    3fc9:	85 c0                	test   eax,eax
    3fcb:	0f 85 66 09 00 00    	jne    4937 <dlmalloc+0xda7>
    3fd1:	31 ff                	xor    edi,edi
    3fd3:	48 89 0c 24          	mov    QWORD PTR [rsp],rcx
    3fd7:	e8 04 27 00 00       	call   66e0 <sbrk>
    3fdc:	48 83 f8 ff          	cmp    rax,0xffffffffffffffff
    3fe0:	49 89 c6             	mov    r14,rax
    3fe3:	48 8b 0c 24          	mov    rcx,QWORD PTR [rsp]
    3fe7:	74 5f                	je     4048 <dlmalloc+0x4b8>
    3fe9:	48 8b 15 58 4d 22 00 	mov    rdx,QWORD PTR [rip+0x224d58]        # 228d48 <mparams+0x8>
    3ff0:	49 89 cf             	mov    r15,rcx
    3ff3:	48 8d 42 ff          	lea    rax,[rdx-0x1]
    3ff7:	49 85 c6             	test   r14,rax
    3ffa:	74 0f                	je     400b <dlmalloc+0x47b>
    3ffc:	4c 01 f0             	add    rax,r14
    3fff:	48 f7 da             	neg    rdx
    4002:	4d 29 f7             	sub    r15,r14
    4005:	48 21 d0             	and    rax,rdx
    4008:	49 01 c7             	add    r15,rax
    400b:	4c 39 fd             	cmp    rbp,r15
    400e:	73 38                	jae    4048 <dlmalloc+0x4b8>
    4010:	48 b8 fe ff ff ff ff 	movabs rax,0x7ffffffffffffffe
    4017:	ff ff 7f 
    401a:	49 39 c7             	cmp    r15,rax
    401d:	77 29                	ja     4048 <dlmalloc+0x4b8>
    401f:	48 8b 35 c2 4c 22 00 	mov    rsi,QWORD PTR [rip+0x224cc2]        # 228ce8 <_gm_+0x368>
    4026:	48 85 f6             	test   rsi,rsi
    4029:	0f 84 81 12 00 00    	je     52b0 <dlmalloc+0x1720>
    402f:	48 8b 15 a2 4c 22 00 	mov    rdx,QWORD PTR [rip+0x224ca2]        # 228cd8 <_gm_+0x358>
    4036:	49 8d 04 17          	lea    rax,[r15+rdx*1]
    403a:	48 39 c6             	cmp    rsi,rax
    403d:	72 09                	jb     4048 <dlmalloc+0x4b8>
    403f:	48 39 c2             	cmp    rdx,rax
    4042:	0f 82 68 12 00 00    	jb     52b0 <dlmalloc+0x1720>
    4048:	c7 05 1e 4d 22 00 00 	mov    DWORD PTR [rip+0x224d1e],0x0        # 228d70 <malloc_global_mutex>
    404f:	00 00 00 
    4052:	48 b8 fe ff ff ff ff 	movabs rax,0x7ffffffffffffffe
    4059:	ff ff 7f 
    405c:	48 39 c1             	cmp    rcx,rax
    405f:	0f 86 75 04 00 00    	jbe    44da <dlmalloc+0x94a>
    4065:	e8 96 2d 01 00       	call   16e00 <__errno>
    406a:	31 db                	xor    ebx,ebx
    406c:	c7 00 0c 00 00 00    	mov    DWORD PTR [rax],0xc
    4072:	e9 1a fc ff ff       	jmp    3c91 <dlmalloc+0x101>
    4077:	66 0f 1f 84 00 00 00 	nop    WORD PTR [rax+rax*1+0x0]
    407e:	00 00 
    4080:	48 89 e8             	mov    rax,rbp
    4083:	49 89 e9             	mov    r9,rbp
    4086:	48 c1 e8 08          	shr    rax,0x8
    408a:	49 f7 d9             	neg    r9
    408d:	85 c0                	test   eax,eax
    408f:	0f 85 0b 04 00 00    	jne    44a0 <dlmalloc+0x910>
    4095:	48 8b 05 3c 4b 22 00 	mov    rax,QWORD PTR [rip+0x224b3c]        # 228bd8 <_gm_+0x258>
    409c:	45 31 d2             	xor    r10d,r10d
    409f:	b9 39 00 00 00       	mov    ecx,0x39
    40a4:	48 85 c0             	test   rax,rax
    40a7:	0f 84 d3 0c 00 00    	je     4d80 <dlmalloc+0x11f0>
    40ad:	48 89 eb             	mov    rbx,rbp
    40b0:	48 d3 e3             	shl    rbx,cl
    40b3:	48 89 d9             	mov    rcx,rbx
    40b6:	45 31 db             	xor    r11d,r11d
    40b9:	31 db                	xor    ebx,ebx
    40bb:	eb 06                	jmp    40c3 <dlmalloc+0x533>
    40bd:	0f 1f 00             	nop    DWORD PTR [rax]
    40c0:	48 01 c9             	add    rcx,rcx
    40c3:	48 8b 50 08          	mov    rdx,QWORD PTR [rax+0x8]
    40c7:	48 83 e2 f8          	and    rdx,0xfffffffffffffff8
    40cb:	48 29 ea             	sub    rdx,rbp
    40ce:	4c 39 ca             	cmp    rdx,r9
    40d1:	73 0f                	jae    40e2 <dlmalloc+0x552>
    40d3:	48 85 d2             	test   rdx,rdx
    40d6:	0f 84 e3 0a 00 00    	je     4bbf <dlmalloc+0x102f>
    40dc:	49 89 d1             	mov    r9,rdx
    40df:	48 89 c3             	mov    rbx,rax
    40e2:	4c 8b 70 28          	mov    r14,QWORD PTR [rax+0x28]
    40e6:	48 89 ca             	mov    rdx,rcx
    40e9:	48 c1 ea 3f          	shr    rdx,0x3f
    40ed:	48 83 c2 04          	add    rdx,0x4
    40f1:	4d 85 f6             	test   r14,r14
    40f4:	48 8b 04 d0          	mov    rax,QWORD PTR [rax+rdx*8]
    40f8:	74 07                	je     4101 <dlmalloc+0x571>
    40fa:	49 39 c6             	cmp    r14,rax
    40fd:	4d 0f 45 de          	cmovne r11,r14
    4101:	48 85 c0             	test   rax,rax
    4104:	75 ba                	jne    40c0 <dlmalloc+0x530>
    4106:	4d 85 db             	test   r11,r11
    4109:	0f 85 4a 0a 00 00    	jne    4b59 <dlmalloc+0xfc9>
    410f:	48 85 db             	test   rbx,rbx
    4112:	0f 85 41 0a 00 00    	jne    4b59 <dlmalloc+0xfc9>
    4118:	b8 fe ff ff ff       	mov    eax,0xfffffffe
    411d:	44 89 d1             	mov    ecx,r10d
    4120:	4c 89 ca             	mov    rdx,r9
    4123:	d3 e0                	shl    eax,cl
    4125:	44 21 c0             	and    eax,r8d
    4128:	0f 84 0b fc ff ff    	je     3d39 <dlmalloc+0x1a9>
    412e:	89 c1                	mov    ecx,eax
    4130:	31 db                	xor    ebx,ebx
    4132:	f7 d9                	neg    ecx
    4134:	21 c8                	and    eax,ecx
    4136:	f3 0f bc c0          	tzcnt  eax,eax
    413a:	89 c0                	mov    eax,eax
    413c:	49 8b 84 c5 58 02 00 	mov    rax,QWORD PTR [r13+rax*8+0x258]
    4143:	00 
    4144:	48 85 c0             	test   rax,rax
    4147:	75 0a                	jne    4153 <dlmalloc+0x5c3>
    4149:	e9 eb fb ff ff       	jmp    3d39 <dlmalloc+0x1a9>
    414e:	66 90                	xchg   ax,ax
    4150:	48 89 c8             	mov    rax,rcx
    4153:	48 8b 48 08          	mov    rcx,QWORD PTR [rax+0x8]
    4157:	48 83 e1 f8          	and    rcx,0xfffffffffffffff8
    415b:	48 29 e9             	sub    rcx,rbp
    415e:	48 39 d1             	cmp    rcx,rdx
    4161:	73 06                	jae    4169 <dlmalloc+0x5d9>
    4163:	48 89 ca             	mov    rdx,rcx
    4166:	48 89 c3             	mov    rbx,rax
    4169:	48 8b 48 20          	mov    rcx,QWORD PTR [rax+0x20]
    416d:	48 85 c9             	test   rcx,rcx
    4170:	75 de                	jne    4150 <dlmalloc+0x5c0>
    4172:	48 8b 48 28          	mov    rcx,QWORD PTR [rax+0x28]
    4176:	48 85 c9             	test   rcx,rcx
    4179:	75 d5                	jne    4150 <dlmalloc+0x5c0>
    417b:	48 85 db             	test   rbx,rbx
    417e:	0f 84 b5 fb ff ff    	je     3d39 <dlmalloc+0x1a9>
    4184:	48 89 f0             	mov    rax,rsi
    4187:	48 29 e8             	sub    rax,rbp
    418a:	48 39 d0             	cmp    rax,rdx
    418d:	0f 86 a6 fb ff ff    	jbe    3d39 <dlmalloc+0x1a9>
    4193:	4c 8b 15 fe 47 22 00 	mov    r10,QWORD PTR [rip+0x2247fe]        # 228998 <_gm_+0x18>
    419a:	49 39 da             	cmp    r10,rbx
    419d:	0f 87 2d 01 00 00    	ja     42d0 <dlmalloc+0x740>
    41a3:	4c 8d 0c 2b          	lea    r9,[rbx+rbp*1]
    41a7:	49 39 d9             	cmp    r9,rbx
    41aa:	0f 86 20 01 00 00    	jbe    42d0 <dlmalloc+0x740>
    41b0:	48 8b 7b 18          	mov    rdi,QWORD PTR [rbx+0x18]
    41b4:	4c 8b 5b 30          	mov    r11,QWORD PTR [rbx+0x30]
    41b8:	48 39 df             	cmp    rdi,rbx
    41bb:	0f 84 7c 0a 00 00    	je     4c3d <dlmalloc+0x10ad>
    41c1:	48 8b 43 10          	mov    rax,QWORD PTR [rbx+0x10]
    41c5:	49 39 c2             	cmp    r10,rax
    41c8:	0f 87 02 01 00 00    	ja     42d0 <dlmalloc+0x740>
    41ce:	48 39 58 18          	cmp    QWORD PTR [rax+0x18],rbx
    41d2:	0f 85 f8 00 00 00    	jne    42d0 <dlmalloc+0x740>
    41d8:	48 39 5f 10          	cmp    QWORD PTR [rdi+0x10],rbx
    41dc:	0f 85 ee 00 00 00    	jne    42d0 <dlmalloc+0x740>
    41e2:	48 89 78 18          	mov    QWORD PTR [rax+0x18],rdi
    41e6:	48 89 47 10          	mov    QWORD PTR [rdi+0x10],rax
    41ea:	4d 85 db             	test   r11,r11
    41ed:	74 6b                	je     425a <dlmalloc+0x6ca>
    41ef:	8b 43 38             	mov    eax,DWORD PTR [rbx+0x38]
    41f2:	48 83 c0 4a          	add    rax,0x4a
    41f6:	49 39 5c c5 08       	cmp    QWORD PTR [r13+rax*8+0x8],rbx
    41fb:	0f 84 bb 0b 00 00    	je     4dbc <dlmalloc+0x122c>
    4201:	4d 39 da             	cmp    r10,r11
    4204:	0f 87 c6 00 00 00    	ja     42d0 <dlmalloc+0x740>
    420a:	49 39 5b 20          	cmp    QWORD PTR [r11+0x20],rbx
    420e:	0f 84 b6 0c 00 00    	je     4eca <dlmalloc+0x133a>
    4214:	49 89 7b 28          	mov    QWORD PTR [r11+0x28],rdi
    4218:	48 85 ff             	test   rdi,rdi
    421b:	74 3d                	je     425a <dlmalloc+0x6ca>
    421d:	49 39 fa             	cmp    r10,rdi
    4220:	0f 87 aa 00 00 00    	ja     42d0 <dlmalloc+0x740>
    4226:	48 8b 43 20          	mov    rax,QWORD PTR [rbx+0x20]
    422a:	4c 89 5f 30          	mov    QWORD PTR [rdi+0x30],r11
    422e:	48 85 c0             	test   rax,rax
    4231:	74 11                	je     4244 <dlmalloc+0x6b4>
    4233:	49 39 c2             	cmp    r10,rax
    4236:	0f 87 94 00 00 00    	ja     42d0 <dlmalloc+0x740>
    423c:	48 89 47 20          	mov    QWORD PTR [rdi+0x20],rax
    4240:	48 89 78 30          	mov    QWORD PTR [rax+0x30],rdi
    4244:	48 8b 43 28          	mov    rax,QWORD PTR [rbx+0x28]
    4248:	48 85 c0             	test   rax,rax
    424b:	74 0d                	je     425a <dlmalloc+0x6ca>
    424d:	49 39 c2             	cmp    r10,rax
    4250:	77 7e                	ja     42d0 <dlmalloc+0x740>
    4252:	48 89 47 28          	mov    QWORD PTR [rdi+0x28],rax
    4256:	48 89 78 30          	mov    QWORD PTR [rax+0x30],rdi
    425a:	48 8b 0d df 4a 22 00 	mov    rcx,QWORD PTR [rip+0x224adf]        # 228d40 <mparams>
    4261:	4c 31 e9             	xor    rcx,r13
    4264:	48 83 fa 1f          	cmp    rdx,0x1f
    4268:	0f 87 64 09 00 00    	ja     4bd2 <dlmalloc+0x1042>
    426e:	48 8d 44 15 00       	lea    rax,[rbp+rdx*1+0x0]
    4273:	48 89 c2             	mov    rdx,rax
    4276:	48 01 d8             	add    rax,rbx
    4279:	48 83 ca 03          	or     rdx,0x3
    427d:	48 89 53 08          	mov    QWORD PTR [rbx+0x8],rdx
    4281:	48 83 48 08 01       	or     QWORD PTR [rax+0x8],0x1
    4286:	48 89 08             	mov    QWORD PTR [rax],rcx
    4289:	48 83 c3 10          	add    rbx,0x10
    428d:	48 89 f7             	mov    rdi,rsi
    4290:	0f 85 cb f9 ff ff    	jne    3c61 <dlmalloc+0xd1>
    4296:	e9 9e fa ff ff       	jmp    3d39 <dlmalloc+0x1a9>
    429b:	0f 1f 44 00 00       	nop    DWORD PTR [rax+rax*1+0x0]
    42a0:	b8 fe ff ff ff       	mov    eax,0xfffffffe
    42a5:	d3 c0                	rol    eax,cl
    42a7:	21 c2                	and    edx,eax
    42a9:	89 15 d1 46 22 00    	mov    DWORD PTR [rip+0x2246d1],edx        # 228980 <_gm_>
    42af:	e9 81 f9 ff ff       	jmp    3c35 <dlmalloc+0xa5>
    42b4:	4c 3b 0d dd 46 22 00 	cmp    r9,QWORD PTR [rip+0x2246dd]        # 228998 <_gm_+0x18>
    42bb:	72 13                	jb     42d0 <dlmalloc+0x740>
    42bd:	49 39 51 18          	cmp    QWORD PTR [r9+0x18],rdx
    42c1:	0f 84 24 0f 00 00    	je     51eb <dlmalloc+0x165b>
    42c7:	66 0f 1f 84 00 00 00 	nop    WORD PTR [rax+rax*1+0x0]
    42ce:	00 00 
    42d0:	e8 57 f8 01 00       	call   23b2c <abort>
    42d5:	44 8b 05 a8 46 22 00 	mov    r8d,DWORD PTR [rip+0x2246a8]        # 228984 <_gm_+0x4>
    42dc:	45 85 c0             	test   r8d,r8d
    42df:	0f 84 5d fa ff ff    	je     3d42 <dlmalloc+0x1b2>
    42e5:	44 89 c0             	mov    eax,r8d
    42e8:	f7 d8                	neg    eax
    42ea:	44 21 c0             	and    eax,r8d
    42ed:	f3 0f bc c0          	tzcnt  eax,eax
    42f1:	89 c0                	mov    eax,eax
    42f3:	49 8b 84 c5 58 02 00 	mov    rax,QWORD PTR [r13+rax*8+0x258]
    42fa:	00 
    42fb:	48 8b 78 08          	mov    rdi,QWORD PTR [rax+0x8]
    42ff:	48 89 c3             	mov    rbx,rax
    4302:	48 83 e7 f8          	and    rdi,0xfffffffffffffff8
    4306:	48 29 ef             	sub    rdi,rbp
    4309:	eb 1e                	jmp    4329 <dlmalloc+0x799>
    430b:	0f 1f 44 00 00       	nop    DWORD PTR [rax+rax*1+0x0]
    4310:	48 8b 41 08          	mov    rax,QWORD PTR [rcx+0x8]
    4314:	48 83 e0 f8          	and    rax,0xfffffffffffffff8
    4318:	48 29 e8             	sub    rax,rbp
    431b:	48 39 f8             	cmp    rax,rdi
    431e:	73 06                	jae    4326 <dlmalloc+0x796>
    4320:	48 89 c7             	mov    rdi,rax
    4323:	48 89 cb             	mov    rbx,rcx
    4326:	48 89 c8             	mov    rax,rcx
    4329:	48 8b 48 20          	mov    rcx,QWORD PTR [rax+0x20]
    432d:	48 85 c9             	test   rcx,rcx
    4330:	75 de                	jne    4310 <dlmalloc+0x780>
    4332:	48 8b 48 28          	mov    rcx,QWORD PTR [rax+0x28]
    4336:	48 85 c9             	test   rcx,rcx
    4339:	75 d5                	jne    4310 <dlmalloc+0x780>
    433b:	4c 8b 1d 56 46 22 00 	mov    r11,QWORD PTR [rip+0x224656]        # 228998 <_gm_+0x18>
    4342:	49 39 db             	cmp    r11,rbx
    4345:	77 89                	ja     42d0 <dlmalloc+0x740>
    4347:	4c 8d 14 2b          	lea    r10,[rbx+rbp*1]
    434b:	49 39 da             	cmp    r10,rbx
    434e:	76 80                	jbe    42d0 <dlmalloc+0x740>
    4350:	48 8b 43 18          	mov    rax,QWORD PTR [rbx+0x18]
    4354:	4c 8b 73 30          	mov    r14,QWORD PTR [rbx+0x30]
    4358:	48 39 d8             	cmp    rax,rbx
    435b:	0f 84 84 0b 00 00    	je     4ee5 <dlmalloc+0x1355>
    4361:	48 8b 4b 10          	mov    rcx,QWORD PTR [rbx+0x10]
    4365:	49 39 cb             	cmp    r11,rcx
    4368:	0f 87 62 ff ff ff    	ja     42d0 <dlmalloc+0x740>
    436e:	48 39 59 18          	cmp    QWORD PTR [rcx+0x18],rbx
    4372:	0f 85 58 ff ff ff    	jne    42d0 <dlmalloc+0x740>
    4378:	48 39 58 10          	cmp    QWORD PTR [rax+0x10],rbx
    437c:	0f 85 4e ff ff ff    	jne    42d0 <dlmalloc+0x740>
    4382:	48 89 41 18          	mov    QWORD PTR [rcx+0x18],rax
    4386:	48 89 48 10          	mov    QWORD PTR [rax+0x10],rcx
    438a:	4d 85 f6             	test   r14,r14
    438d:	74 6f                	je     43fe <dlmalloc+0x86e>
    438f:	8b 4b 38             	mov    ecx,DWORD PTR [rbx+0x38]
    4392:	48 83 c1 4a          	add    rcx,0x4a
    4396:	49 39 5c cd 08       	cmp    QWORD PTR [r13+rcx*8+0x8],rbx
    439b:	0f 84 e8 0d 00 00    	je     5189 <dlmalloc+0x15f9>
    43a1:	4d 39 f3             	cmp    r11,r14
    43a4:	0f 87 26 ff ff ff    	ja     42d0 <dlmalloc+0x740>
    43aa:	49 39 5e 20          	cmp    QWORD PTR [r14+0x20],rbx
    43ae:	0f 84 c1 0e 00 00    	je     5275 <dlmalloc+0x16e5>
    43b4:	49 89 46 28          	mov    QWORD PTR [r14+0x28],rax
    43b8:	48 85 c0             	test   rax,rax
    43bb:	74 41                	je     43fe <dlmalloc+0x86e>
    43bd:	49 39 c3             	cmp    r11,rax
    43c0:	0f 87 0a ff ff ff    	ja     42d0 <dlmalloc+0x740>
    43c6:	48 8b 4b 20          	mov    rcx,QWORD PTR [rbx+0x20]
    43ca:	4c 89 70 30          	mov    QWORD PTR [rax+0x30],r14
    43ce:	48 85 c9             	test   rcx,rcx
    43d1:	74 11                	je     43e4 <dlmalloc+0x854>
    43d3:	49 39 cb             	cmp    r11,rcx
    43d6:	0f 87 f4 fe ff ff    	ja     42d0 <dlmalloc+0x740>
    43dc:	48 89 48 20          	mov    QWORD PTR [rax+0x20],rcx
    43e0:	48 89 41 30          	mov    QWORD PTR [rcx+0x30],rax
    43e4:	48 8b 4b 28          	mov    rcx,QWORD PTR [rbx+0x28]
    43e8:	48 85 c9             	test   rcx,rcx
    43eb:	74 11                	je     43fe <dlmalloc+0x86e>
    43ed:	49 39 cb             	cmp    r11,rcx
    43f0:	0f 87 da fe ff ff    	ja     42d0 <dlmalloc+0x740>
    43f6:	48 89 48 28          	mov    QWORD PTR [rax+0x28],rcx
    43fa:	48 89 41 30          	mov    QWORD PTR [rcx+0x30],rax
    43fe:	48 8b 0d 3b 49 22 00 	mov    rcx,QWORD PTR [rip+0x22493b]        # 228d40 <mparams>
    4405:	4c 31 e9             	xor    rcx,r13
    4408:	48 83 ff 1f          	cmp    rdi,0x1f
    440c:	0f 86 23 0b 00 00    	jbe    4f35 <dlmalloc+0x13a5>
    4412:	48 89 e8             	mov    rax,rbp
    4415:	48 83 c8 03          	or     rax,0x3
    4419:	48 89 43 08          	mov    QWORD PTR [rbx+0x8],rax
    441d:	48 89 f8             	mov    rax,rdi
    4420:	49 89 0a             	mov    QWORD PTR [r10],rcx
    4423:	48 83 c8 01          	or     rax,0x1
    4427:	48 85 f6             	test   rsi,rsi
    442a:	49 89 42 08          	mov    QWORD PTR [r10+0x8],rax
    442e:	49 89 3c 3a          	mov    QWORD PTR [r10+rdi*1],rdi
    4432:	74 45                	je     4479 <dlmalloc+0x8e9>
    4434:	48 c1 ee 03          	shr    rsi,0x3
    4438:	41 b9 01 00 00 00    	mov    r9d,0x1
    443e:	48 8b 05 5b 45 22 00 	mov    rax,QWORD PTR [rip+0x22455b]        # 2289a0 <_gm_+0x20>
    4445:	48 89 f1             	mov    rcx,rsi
    4448:	44 8d 04 36          	lea    r8d,[rsi+rsi*1]
    444c:	41 d3 e1             	shl    r9d,cl
    444f:	44 85 ca             	test   edx,r9d
    4452:	4f 8d 44 c5 48       	lea    r8,[r13+r8*8+0x48]
    4457:	0f 85 3a 0e 00 00    	jne    5297 <dlmalloc+0x1707>
    445d:	44 09 ca             	or     edx,r9d
    4460:	89 15 1a 45 22 00    	mov    DWORD PTR [rip+0x22451a],edx        # 228980 <_gm_>
    4466:	4c 89 c2             	mov    rdx,r8
    4469:	49 89 40 10          	mov    QWORD PTR [r8+0x10],rax
    446d:	48 89 42 18          	mov    QWORD PTR [rdx+0x18],rax
    4471:	48 89 50 10          	mov    QWORD PTR [rax+0x10],rdx
    4475:	4c 89 40 18          	mov    QWORD PTR [rax+0x18],r8
    4479:	48 89 3d 08 45 22 00 	mov    QWORD PTR [rip+0x224508],rdi        # 228988 <_gm_+0x8>
    4480:	4c 89 15 19 45 22 00 	mov    QWORD PTR [rip+0x224519],r10        # 2289a0 <_gm_+0x20>
    4487:	48 83 c3 10          	add    rbx,0x10
    448b:	0f 85 d0 f7 ff ff    	jne    3c61 <dlmalloc+0xd1>
    4491:	48 8b 3d f0 44 22 00 	mov    rdi,QWORD PTR [rip+0x2244f0]        # 228988 <_gm_+0x8>
    4498:	e9 9c f8 ff ff       	jmp    3d39 <dlmalloc+0x1a9>
    449d:	0f 1f 00             	nop    DWORD PTR [rax]
    44a0:	3d ff ff 00 00       	cmp    eax,0xffff
    44a5:	0f 86 c2 06 00 00    	jbe    4b6d <dlmalloc+0xfdd>
    44ab:	48 8b 05 1e 48 22 00 	mov    rax,QWORD PTR [rip+0x22481e]        # 228cd0 <_gm_+0x350>
    44b2:	48 89 e9             	mov    rcx,rbp
    44b5:	41 ba 1f 00 00 00    	mov    r10d,0x1f
    44bb:	48 85 c0             	test   rax,rax
    44be:	0f 85 f2 fb ff ff    	jne    40b6 <dlmalloc+0x526>
    44c4:	e9 70 f8 ff ff       	jmp    3d39 <dlmalloc+0x1a9>
    44c9:	d3 e7                	shl    edi,cl
    44cb:	f7 d7                	not    edi
    44cd:	21 fa                	and    edx,edi
    44cf:	89 15 ab 44 22 00    	mov    DWORD PTR [rip+0x2244ab],edx        # 228980 <_gm_>
    44d5:	e9 a2 f9 ff ff       	jmp    3e7c <dlmalloc+0x2ec>
    44da:	b8 01 00 00 00       	mov    eax,0x1
    44df:	87 05 8b 48 22 00    	xchg   DWORD PTR [rip+0x22488b],eax        # 228d70 <malloc_global_mutex>
    44e5:	48 8d 15 84 48 22 00 	lea    rdx,[rip+0x224884]        # 228d70 <malloc_global_mutex>
    44ec:	be 01 00 00 00       	mov    esi,0x1
    44f1:	85 c0                	test   eax,eax
    44f3:	0f 85 37 01 00 00    	jne    4630 <dlmalloc+0xaa0>
    44f9:	48 89 cf             	mov    rdi,rcx
    44fc:	e8 df 21 00 00       	call   66e0 <sbrk>
    4501:	31 ff                	xor    edi,edi
    4503:	48 89 c3             	mov    rbx,rax
    4506:	e8 d5 21 00 00       	call   66e0 <sbrk>
    450b:	48 83 fb ff          	cmp    rbx,0xffffffffffffffff
    450f:	0f 95 c1             	setne  cl
    4512:	48 83 f8 ff          	cmp    rax,0xffffffffffffffff
    4516:	0f 95 c2             	setne  dl
    4519:	84 d1                	test   cl,dl
    451b:	c7 05 4b 48 22 00 00 	mov    DWORD PTR [rip+0x22484b],0x0        # 228d70 <malloc_global_mutex>
    4522:	00 00 00 
    4525:	0f 84 3a fb ff ff    	je     4065 <dlmalloc+0x4d5>
    452b:	48 39 c3             	cmp    rbx,rax
    452e:	0f 83 31 fb ff ff    	jae    4065 <dlmalloc+0x4d5>
    4534:	48 29 d8             	sub    rax,rbx
    4537:	49 89 c7             	mov    r15,rax
    453a:	48 8d 45 50          	lea    rax,[rbp+0x50]
    453e:	49 39 c7             	cmp    r15,rax
    4541:	0f 86 1e fb ff ff    	jbe    4065 <dlmalloc+0x4d5>
    4547:	48 83 fb ff          	cmp    rbx,0xffffffffffffffff
    454b:	0f 84 14 fb ff ff    	je     4065 <dlmalloc+0x4d5>
    4551:	48 8b 05 80 47 22 00 	mov    rax,QWORD PTR [rip+0x224780]        # 228cd8 <_gm_+0x358>
    4558:	4c 01 f8             	add    rax,r15
    455b:	48 3b 05 7e 47 22 00 	cmp    rax,QWORD PTR [rip+0x22477e]        # 228ce0 <_gm_+0x360>
    4562:	48 89 05 6f 47 22 00 	mov    QWORD PTR [rip+0x22476f],rax        # 228cd8 <_gm_+0x358>
    4569:	76 07                	jbe    4572 <dlmalloc+0x9e2>
    456b:	48 89 05 6e 47 22 00 	mov    QWORD PTR [rip+0x22476e],rax        # 228ce0 <_gm_+0x360>
    4572:	48 8b 35 2f 44 22 00 	mov    rsi,QWORD PTR [rip+0x22442f]        # 2289a8 <_gm_+0x28>
    4579:	48 8d 05 78 47 22 00 	lea    rax,[rip+0x224778]        # 228cf8 <_gm_+0x378>
    4580:	48 85 f6             	test   rsi,rsi
    4583:	0f 84 09 05 00 00    	je     4a92 <dlmalloc+0xf02>
    4589:	0f 1f 80 00 00 00 00 	nop    DWORD PTR [rax+0x0]
    4590:	48 8b 08             	mov    rcx,QWORD PTR [rax]
    4593:	48 8b 50 08          	mov    rdx,QWORD PTR [rax+0x8]
    4597:	48 8d 3c 11          	lea    rdi,[rcx+rdx*1]
    459b:	48 39 df             	cmp    rdi,rbx
    459e:	0f 84 7c 01 00 00    	je     4720 <dlmalloc+0xb90>
    45a4:	48 8b 40 10          	mov    rax,QWORD PTR [rax+0x10]
    45a8:	48 85 c0             	test   rax,rax
    45ab:	75 e3                	jne    4590 <dlmalloc+0xa00>
    45ad:	48 39 1d e4 43 22 00 	cmp    QWORD PTR [rip+0x2243e4],rbx        # 228998 <_gm_+0x18>
    45b4:	76 07                	jbe    45bd <dlmalloc+0xa2d>
    45b6:	48 89 1d db 43 22 00 	mov    QWORD PTR [rip+0x2243db],rbx        # 228998 <_gm_+0x18>
    45bd:	4a 8d 0c 3b          	lea    rcx,[rbx+r15*1]
    45c1:	48 8d 05 30 47 22 00 	lea    rax,[rip+0x224730]        # 228cf8 <_gm_+0x378>
    45c8:	0f 1f 84 00 00 00 00 	nop    DWORD PTR [rax+rax*1+0x0]
    45cf:	00 
    45d0:	48 8b 10             	mov    rdx,QWORD PTR [rax]
    45d3:	48 39 ca             	cmp    rdx,rcx
    45d6:	74 66                	je     463e <dlmalloc+0xaae>
    45d8:	48 8b 40 10          	mov    rax,QWORD PTR [rax+0x10]
    45dc:	48 85 c0             	test   rax,rax
    45df:	75 ef                	jne    45d0 <dlmalloc+0xa40>
    45e1:	48 8d 05 10 47 22 00 	lea    rax,[rip+0x224710]        # 228cf8 <_gm_+0x378>
    45e8:	0f 1f 84 00 00 00 00 	nop    DWORD PTR [rax+rax*1+0x0]
    45ef:	00 
    45f0:	48 8b 10             	mov    rdx,QWORD PTR [rax]
    45f3:	48 39 d6             	cmp    rsi,rdx
    45f6:	72 0d                	jb     4605 <dlmalloc+0xa75>
    45f8:	48 03 50 08          	add    rdx,QWORD PTR [rax+0x8]
    45fc:	48 39 d6             	cmp    rsi,rdx
    45ff:	0f 82 d8 01 00 00    	jb     47dd <dlmalloc+0xc4d>
    4605:	48 8b 40 10          	mov    rax,QWORD PTR [rax+0x10]
    4609:	48 85 c0             	test   rax,rax
    460c:	75 e2                	jne    45f0 <dlmalloc+0xa60>
    460e:	48 8b 04 25 00 00 00 	mov    rax,QWORD PTR ds:0x0
    4615:	00 
    4616:	0f 0b                	ud2    
    4618:	89 f0                	mov    eax,esi
    461a:	87 05 50 47 22 00    	xchg   DWORD PTR [rip+0x224750],eax        # 228d70 <malloc_global_mutex>
    4620:	85 c0                	test   eax,eax
    4622:	0f 84 d1 fe ff ff    	je     44f9 <dlmalloc+0x969>
    4628:	0f 1f 84 00 00 00 00 	nop    DWORD PTR [rax+rax*1+0x0]
    462f:	00 
    4630:	8b 02                	mov    eax,DWORD PTR [rdx]
    4632:	85 c0                	test   eax,eax
    4634:	74 e2                	je     4618 <dlmalloc+0xa88>
    4636:	8b 02                	mov    eax,DWORD PTR [rdx]
    4638:	85 c0                	test   eax,eax
    463a:	75 f4                	jne    4630 <dlmalloc+0xaa0>
    463c:	eb da                	jmp    4618 <dlmalloc+0xa88>
    463e:	f6 40 18 08          	test   BYTE PTR [rax+0x18],0x8
    4642:	75 9d                	jne    45e1 <dlmalloc+0xa51>
    4644:	4c 01 78 08          	add    QWORD PTR [rax+0x8],r15
    4648:	48 89 18             	mov    QWORD PTR [rax],rbx
    464b:	48 8d 43 10          	lea    rax,[rbx+0x10]
    464f:	a8 07                	test   al,0x7
    4651:	74 09                	je     465c <dlmalloc+0xacc>
    4653:	48 f7 d8             	neg    rax
    4656:	83 e0 07             	and    eax,0x7
    4659:	48 01 c3             	add    rbx,rax
    465c:	48 8d 42 10          	lea    rax,[rdx+0x10]
    4660:	a8 07                	test   al,0x7
    4662:	74 09                	je     466d <dlmalloc+0xadd>
    4664:	48 f7 d8             	neg    rax
    4667:	83 e0 07             	and    eax,0x7
    466a:	48 01 c2             	add    rdx,rax
    466d:	48 8b 0d cc 46 22 00 	mov    rcx,QWORD PTR [rip+0x2246cc]        # 228d40 <mparams>
    4674:	48 89 d7             	mov    rdi,rdx
    4677:	48 8d 04 2b          	lea    rax,[rbx+rbp*1]
    467b:	48 29 df             	sub    rdi,rbx
    467e:	48 29 ef             	sub    rdi,rbp
    4681:	48 83 cd 03          	or     rbp,0x3
    4685:	4c 31 e9             	xor    rcx,r13
    4688:	48 39 d6             	cmp    rsi,rdx
    468b:	48 89 6b 08          	mov    QWORD PTR [rbx+0x8],rbp
    468f:	48 89 08             	mov    QWORD PTR [rax],rcx
    4692:	0f 84 6a 09 00 00    	je     5002 <dlmalloc+0x1472>
    4698:	48 39 15 01 43 22 00 	cmp    QWORD PTR [rip+0x224301],rdx        # 2289a0 <_gm_+0x20>
    469f:	0f 84 ee 0a 00 00    	je     5193 <dlmalloc+0x1603>
    46a5:	48 8b 4a 08          	mov    rcx,QWORD PTR [rdx+0x8]
    46a9:	48 89 ce             	mov    rsi,rcx
    46ac:	83 e6 03             	and    esi,0x3
    46af:	48 83 fe 01          	cmp    rsi,0x1
    46b3:	0f 84 03 0b 00 00    	je     51bc <dlmalloc+0x162c>
    46b9:	48 83 e1 fe          	and    rcx,0xfffffffffffffffe
    46bd:	48 89 4a 08          	mov    QWORD PTR [rdx+0x8],rcx
    46c1:	48 89 f9             	mov    rcx,rdi
    46c4:	48 89 fa             	mov    rdx,rdi
    46c7:	48 c1 e9 03          	shr    rcx,0x3
    46cb:	48 83 ca 01          	or     rdx,0x1
    46cf:	48 83 f9 1f          	cmp    rcx,0x1f
    46d3:	48 89 50 08          	mov    QWORD PTR [rax+0x8],rdx
    46d7:	48 89 3c 38          	mov    QWORD PTR [rax+rdi*1],rdi
    46db:	0f 87 af 09 00 00    	ja     5090 <dlmalloc+0x1500>
    46e1:	8b 35 99 42 22 00    	mov    esi,DWORD PTR [rip+0x224299]        # 228980 <_gm_>
    46e7:	bf 01 00 00 00       	mov    edi,0x1
    46ec:	8d 14 09             	lea    edx,[rcx+rcx*1]
    46ef:	d3 e7                	shl    edi,cl
    46f1:	49 8d 54 d5 48       	lea    rdx,[r13+rdx*8+0x48]
    46f6:	85 fe                	test   esi,edi
    46f8:	0f 85 d6 0b 00 00    	jne    52d4 <dlmalloc+0x1744>
    46fe:	09 fe                	or     esi,edi
    4700:	48 89 d1             	mov    rcx,rdx
    4703:	89 35 77 42 22 00    	mov    DWORD PTR [rip+0x224277],esi        # 228980 <_gm_>
    4709:	48 89 42 10          	mov    QWORD PTR [rdx+0x10],rax
    470d:	48 89 41 18          	mov    QWORD PTR [rcx+0x18],rax
    4711:	48 89 48 10          	mov    QWORD PTR [rax+0x10],rcx
    4715:	48 89 50 18          	mov    QWORD PTR [rax+0x18],rdx
    4719:	e9 6d f6 ff ff       	jmp    3d8b <dlmalloc+0x1fb>
    471e:	66 90                	xchg   ax,ax
    4720:	f6 40 18 08          	test   BYTE PTR [rax+0x18],0x8
    4724:	0f 85 83 fe ff ff    	jne    45ad <dlmalloc+0xa1d>
    472a:	48 39 ce             	cmp    rsi,rcx
    472d:	0f 82 7a fe ff ff    	jb     45ad <dlmalloc+0xa1d>
    4733:	48 39 de             	cmp    rsi,rbx
    4736:	0f 83 71 fe ff ff    	jae    45ad <dlmalloc+0xa1d>
    473c:	4c 01 fa             	add    rdx,r15
    473f:	4c 03 3d 4a 42 22 00 	add    r15,QWORD PTR [rip+0x22424a]        # 228990 <_gm_+0x10>
    4746:	48 89 50 08          	mov    QWORD PTR [rax+0x8],rdx
    474a:	48 8d 46 10          	lea    rax,[rsi+0x10]
    474e:	a8 07                	test   al,0x7
    4750:	0f 84 15 09 00 00    	je     506b <dlmalloc+0x14db>
    4756:	48 f7 d8             	neg    rax
    4759:	4c 89 ff             	mov    rdi,r15
    475c:	83 e0 07             	and    eax,0x7
    475f:	48 29 c7             	sub    rdi,rax
    4762:	48 8d 14 06          	lea    rdx,[rsi+rax*1]
    4766:	48 89 f8             	mov    rax,rdi
    4769:	48 89 c1             	mov    rcx,rax
