
../../contact_enclave.signed.so:     file format elf64-x86-64


Disassembly of section .plt:

0000000000000c30 <.plt>:
 c30:	ff 35 d2 63 23 00    	push   QWORD PTR [rip+0x2363d2]        # 237008 <_GLOBAL_OFFSET_TABLE_+0x8>
 c36:	ff 25 d4 63 23 00    	jmp    QWORD PTR [rip+0x2363d4]        # 237010 <_GLOBAL_OFFSET_TABLE_+0x10>
 c3c:	0f 1f 40 00          	nop    DWORD PTR [rax+0x0]

Disassembly of section .plt.got:

0000000000000c40 <_Z9pcl_entryPvS_@plt>:
 c40:	ff 25 72 63 23 00    	jmp    QWORD PTR [rip+0x236372]        # 236fb8 <_Z9pcl_entryPvS_>
 c46:	66 90                	xchg   ax,ax

Disassembly of section .text:

0000000000000c80 <trts_access_version_dummy1>:
     c80:	48 8d 05 a9 63 23 00 	lea    rax,[rip+0x2363a9]        # 237030 <sgx_trts_version>
     c87:	c6 00 73             	mov    BYTE PTR [rax],0x73
     c8a:	c3                   	ret    
     c8b:	0f 1f 44 00 00       	nop    DWORD PTR [rax+rax*1+0x0]

0000000000000c90 <tstdc_access_version_dummy1>:
     c90:	c6 05 c9 63 23 00 73 	mov    BYTE PTR [rip+0x2363c9],0x73        # 237060 <sgx_tstdc_version>
     c97:	48 8d 05 c2 63 23 00 	lea    rax,[rip+0x2363c2]        # 237060 <sgx_tstdc_version>
     c9e:	c3                   	ret    
     c9f:	90                   	nop

0000000000000ca0 <tcrypto_access_version_dummy1>:
     ca0:	c6 05 f9 6b 23 00 73 	mov    BYTE PTR [rip+0x236bf9],0x73        # 2378a0 <sgx_tcrypto_version>
     ca7:	48 8d 05 f2 6b 23 00 	lea    rax,[rip+0x236bf2]        # 2378a0 <sgx_tcrypto_version>
     cae:	c3                   	ret    
     caf:	90                   	nop

0000000000000cb0 <tservice_access_version_dummy1>:
     cb0:	c6 05 69 6f 23 00 73 	mov    BYTE PTR [rip+0x236f69],0x73        # 237c20 <sgx_tservice_version>
     cb7:	48 8d 05 62 6f 23 00 	lea    rax,[rip+0x236f62]        # 237c20 <sgx_tservice_version>
     cbe:	c3                   	ret    
     cbf:	90                   	nop

0000000000000cc0 <sgx_sgxsd_enclave_node_init>:
     cc0:	55                   	push   rbp
     cc1:	41 57                	push   r15
     cc3:	41 56                	push   r14
     cc5:	53                   	push   rbx
     cc6:	50                   	push   rax
     cc7:	bd 02 00 00 00       	mov    ebp,0x2
     ccc:	48 85 ff             	test   rdi,rdi
     ccf:	0f 84 63 01 00 00    	je     e38 <sgx_sgxsd_enclave_node_init+0x178>
     cd5:	48 89 fb             	mov    rbx,rdi
     cd8:	bf 01 00 00 00       	mov    edi,0x1
     cdd:	e8 3e e5 00 00       	call   f220 <_Z7tracebrPv>
     ce2:	48 8d 3d b7 e7 00 00 	lea    rdi,[rip+0xe7b7]        # f4a0 <sgx_is_outside_enclave>
     ce9:	e8 c2 e1 00 00       	call   eeb0 <_Z10traceedgecPv>
     cee:	be 10 00 00 00       	mov    esi,0x10
     cf3:	48 89 df             	mov    rdi,rbx
     cf6:	e8 a5 e7 00 00       	call   f4a0 <sgx_is_outside_enclave>
     cfb:	85 c0                	test   eax,eax
     cfd:	0f 84 35 01 00 00    	je     e38 <sgx_sgxsd_enclave_node_init+0x178>
     d03:	bf 01 00 00 00       	mov    edi,0x1
     d08:	e8 13 e5 00 00       	call   f220 <_Z7tracebrPv>
     d0d:	0f ae e8             	lfence 
     d10:	4c 8b 7b 08          	mov    r15,QWORD PTR [rbx+0x8]
     d14:	4d 85 ff             	test   r15,r15
     d17:	0f 84 ab 00 00 00    	je     dc8 <sgx_sgxsd_enclave_node_init+0x108>
     d1d:	bf 01 00 00 00       	mov    edi,0x1
     d22:	e8 f9 e4 00 00       	call   f220 <_Z7tracebrPv>
     d27:	48 8d 3d 72 e7 00 00 	lea    rdi,[rip+0xe772]        # f4a0 <sgx_is_outside_enclave>
     d2e:	e8 7d e1 00 00       	call   eeb0 <_Z10traceedgecPv>
     d33:	be 01 00 00 00       	mov    esi,0x1
     d38:	4c 89 ff             	mov    rdi,r15
     d3b:	e8 60 e7 00 00       	call   f4a0 <sgx_is_outside_enclave>
     d40:	89 c5                	mov    ebp,eax
     d42:	31 ff                	xor    edi,edi
     d44:	e8 d7 e4 00 00       	call   f220 <_Z7tracebrPv>
     d49:	85 ed                	test   ebp,ebp
     d4b:	0f 84 86 00 00 00    	je     dd7 <sgx_sgxsd_enclave_node_init+0x117>
     d51:	0f ae e8             	lfence 
     d54:	bf 01 00 00 00       	mov    edi,0x1
     d59:	e8 c2 e4 00 00       	call   f220 <_Z7tracebrPv>
     d5e:	bf 01 00 00 00       	mov    edi,0x1
     d63:	e8 b8 e4 00 00       	call   f220 <_Z7tracebrPv>
     d68:	48 8d 3d c1 19 01 00 	lea    rdi,[rip+0x119c1]        # 12730 <dlmalloc>
     d6f:	e8 3c e1 00 00       	call   eeb0 <_Z10traceedgecPv>
     d74:	bf 01 00 00 00       	mov    edi,0x1
     d79:	e8 b2 19 01 00       	call   12730 <dlmalloc>
     d7e:	48 85 c0             	test   rax,rax
     d81:	74 5b                	je     dde <sgx_sgxsd_enclave_node_init+0x11e>
     d83:	49 89 c6             	mov    r14,rax
     d86:	31 ff                	xor    edi,edi
     d88:	e8 93 e4 00 00       	call   f220 <_Z7tracebrPv>
     d8d:	48 8d 3d bc 46 01 00 	lea    rdi,[rip+0x146bc]        # 15450 <memcpy_s>
     d94:	e8 17 e1 00 00       	call   eeb0 <_Z10traceedgecPv>
     d99:	be 01 00 00 00       	mov    esi,0x1
     d9e:	b9 01 00 00 00       	mov    ecx,0x1
     da3:	4c 89 f7             	mov    rdi,r14
     da6:	4c 89 fa             	mov    rdx,r15
     da9:	e8 a2 46 01 00       	call   15450 <memcpy_s>
     dae:	85 c0                	test   eax,eax
     db0:	74 3d                	je     def <sgx_sgxsd_enclave_node_init+0x12f>
     db2:	bd 01 00 00 00       	mov    ebp,0x1
     db7:	bf 01 00 00 00       	mov    edi,0x1
     dbc:	e8 5f e4 00 00       	call   f220 <_Z7tracebrPv>
     dc1:	4d 85 f6             	test   r14,r14
     dc4:	75 54                	jne    e1a <sgx_sgxsd_enclave_node_init+0x15a>
     dc6:	eb 70                	jmp    e38 <sgx_sgxsd_enclave_node_init+0x178>
     dc8:	45 31 f6             	xor    r14d,r14d
     dcb:	31 ff                	xor    edi,edi
     dcd:	e8 4e e4 00 00       	call   f220 <_Z7tracebrPv>
     dd2:	0f ae e8             	lfence 
     dd5:	eb 1f                	jmp    df6 <sgx_sgxsd_enclave_node_init+0x136>
     dd7:	bd 02 00 00 00       	mov    ebp,0x2
     ddc:	eb 61                	jmp    e3f <sgx_sgxsd_enclave_node_init+0x17f>
     dde:	bf 01 00 00 00       	mov    edi,0x1
     de3:	e8 38 e4 00 00       	call   f220 <_Z7tracebrPv>
     de8:	bd 03 00 00 00       	mov    ebp,0x3
     ded:	eb 49                	jmp    e38 <sgx_sgxsd_enclave_node_init+0x178>
     def:	31 ff                	xor    edi,edi
     df1:	e8 2a e4 00 00       	call   f220 <_Z7tracebrPv>
     df6:	31 ed                	xor    ebp,ebp
     df8:	31 ff                	xor    edi,edi
     dfa:	e8 21 e4 00 00       	call   f220 <_Z7tracebrPv>
     dff:	48 8d 3d 4a 12 00 00 	lea    rdi,[rip+0x124a]        # 2050 <sgxsd_enclave_node_init>
     e06:	e8 a5 e0 00 00       	call   eeb0 <_Z10traceedgecPv>
     e0b:	4c 89 f7             	mov    rdi,r14
     e0e:	e8 3d 12 00 00       	call   2050 <sgxsd_enclave_node_init>
     e13:	89 03                	mov    DWORD PTR [rbx],eax
     e15:	4d 85 f6             	test   r14,r14
     e18:	74 1e                	je     e38 <sgx_sgxsd_enclave_node_init+0x178>
     e1a:	bf 01 00 00 00       	mov    edi,0x1
     e1f:	e8 fc e3 00 00       	call   f220 <_Z7tracebrPv>
     e24:	48 8d 3d 05 33 01 00 	lea    rdi,[rip+0x13305]        # 14130 <dlfree>
     e2b:	e8 80 e0 00 00       	call   eeb0 <_Z10traceedgecPv>
     e30:	4c 89 f7             	mov    rdi,r14
     e33:	e8 f8 32 01 00       	call   14130 <dlfree>
     e38:	31 ff                	xor    edi,edi
     e3a:	e8 e1 e3 00 00       	call   f220 <_Z7tracebrPv>
     e3f:	48 8b 7c 24 28       	mov    rdi,QWORD PTR [rsp+0x28]
     e44:	e8 67 e0 00 00       	call   eeb0 <_Z10traceedgecPv>
     e49:	89 e8                	mov    eax,ebp
     e4b:	48 83 c4 08          	add    rsp,0x8
     e4f:	5b                   	pop    rbx
     e50:	41 5e                	pop    r14
     e52:	41 5f                	pop    r15
     e54:	5d                   	pop    rbp
     e55:	c3                   	ret    
     e56:	66 2e 0f 1f 84 00 00 	nop    WORD PTR cs:[rax+rax*1+0x0]
     e5d:	00 00 00 

0000000000000e60 <sgx_sgxsd_enclave_get_next_report>:
     e60:	55                   	push   rbp
     e61:	41 57                	push   r15
     e63:	41 56                	push   r14
     e65:	41 54                	push   r12
     e67:	53                   	push   rbx
     e68:	48 81 ec 00 02 00 00 	sub    rsp,0x200
     e6f:	41 bf 02 00 00 00    	mov    r15d,0x2
     e75:	48 85 ff             	test   rdi,rdi
     e78:	0f 84 fa 01 00 00    	je     1078 <sgx_sgxsd_enclave_get_next_report+0x218>
     e7e:	48 89 fb             	mov    rbx,rdi
     e81:	bf 01 00 00 00       	mov    edi,0x1
     e86:	e8 95 e3 00 00       	call   f220 <_Z7tracebrPv>
     e8b:	48 8d 3d 0e e6 00 00 	lea    rdi,[rip+0xe60e]        # f4a0 <sgx_is_outside_enclave>
     e92:	e8 19 e0 00 00       	call   eeb0 <_Z10traceedgecPv>
     e97:	be 10 02 00 00       	mov    esi,0x210
     e9c:	48 89 df             	mov    rdi,rbx
     e9f:	e8 fc e5 00 00       	call   f4a0 <sgx_is_outside_enclave>
     ea4:	85 c0                	test   eax,eax
     ea6:	0f 84 cc 01 00 00    	je     1078 <sgx_sgxsd_enclave_get_next_report+0x218>
     eac:	bf 01 00 00 00       	mov    edi,0x1
     eb1:	e8 6a e3 00 00       	call   f220 <_Z7tracebrPv>
     eb6:	0f ae e8             	lfence 
     eb9:	4c 8b b3 08 02 00 00 	mov    r14,QWORD PTR [rbx+0x208]
     ec0:	4d 85 f6             	test   r14,r14
     ec3:	0f 84 de 00 00 00    	je     fa7 <sgx_sgxsd_enclave_get_next_report+0x147>
     ec9:	bf 01 00 00 00       	mov    edi,0x1
     ece:	e8 4d e3 00 00       	call   f220 <_Z7tracebrPv>
     ed3:	48 8d 3d c6 e5 00 00 	lea    rdi,[rip+0xe5c6]        # f4a0 <sgx_is_outside_enclave>
     eda:	e8 d1 df 00 00       	call   eeb0 <_Z10traceedgecPv>
     edf:	be b0 01 00 00       	mov    esi,0x1b0
     ee4:	4c 89 f7             	mov    rdi,r14
     ee7:	e8 b4 e5 00 00       	call   f4a0 <sgx_is_outside_enclave>
     eec:	89 c5                	mov    ebp,eax
     eee:	31 ff                	xor    edi,edi
     ef0:	e8 2b e3 00 00       	call   f220 <_Z7tracebrPv>
     ef5:	85 ed                	test   ebp,ebp
     ef7:	0f 84 5a 01 00 00    	je     1057 <sgx_sgxsd_enclave_get_next_report+0x1f7>
     efd:	0f ae e8             	lfence 
     f00:	bf 01 00 00 00       	mov    edi,0x1
     f05:	e8 16 e3 00 00       	call   f220 <_Z7tracebrPv>
     f0a:	bf 01 00 00 00       	mov    edi,0x1
     f0f:	e8 0c e3 00 00       	call   f220 <_Z7tracebrPv>
     f14:	48 8d 3d 15 18 01 00 	lea    rdi,[rip+0x11815]        # 12730 <dlmalloc>
     f1b:	e8 90 df 00 00       	call   eeb0 <_Z10traceedgecPv>
     f20:	bf b0 01 00 00       	mov    edi,0x1b0
     f25:	e8 06 18 01 00       	call   12730 <dlmalloc>
     f2a:	48 85 c0             	test   rax,rax
     f2d:	0f 84 35 01 00 00    	je     1068 <sgx_sgxsd_enclave_get_next_report+0x208>
     f33:	48 89 c5             	mov    rbp,rax
     f36:	31 ff                	xor    edi,edi
     f38:	e8 e3 e2 00 00       	call   f220 <_Z7tracebrPv>
     f3d:	c5 f8 57 c0          	vxorps xmm0,xmm0,xmm0
     f41:	c5 fc 11 85 90 01 00 	vmovups YMMWORD PTR [rbp+0x190],ymm0
     f48:	00 
     f49:	c5 fc 11 85 80 01 00 	vmovups YMMWORD PTR [rbp+0x180],ymm0
     f50:	00 
     f51:	c5 fc 11 85 60 01 00 	vmovups YMMWORD PTR [rbp+0x160],ymm0
     f58:	00 
     f59:	c5 fc 11 85 40 01 00 	vmovups YMMWORD PTR [rbp+0x140],ymm0
     f60:	00 
     f61:	c5 fc 11 85 20 01 00 	vmovups YMMWORD PTR [rbp+0x120],ymm0
     f68:	00 
     f69:	c5 fc 11 85 00 01 00 	vmovups YMMWORD PTR [rbp+0x100],ymm0
     f70:	00 
     f71:	c5 fc 11 85 e0 00 00 	vmovups YMMWORD PTR [rbp+0xe0],ymm0
     f78:	00 
     f79:	c5 fc 11 85 c0 00 00 	vmovups YMMWORD PTR [rbp+0xc0],ymm0
     f80:	00 
     f81:	c5 fc 11 85 a0 00 00 	vmovups YMMWORD PTR [rbp+0xa0],ymm0
     f88:	00 
     f89:	c5 fc 11 85 80 00 00 	vmovups YMMWORD PTR [rbp+0x80],ymm0
     f90:	00 
     f91:	c5 fc 11 45 60       	vmovups YMMWORD PTR [rbp+0x60],ymm0
     f96:	c5 fc 11 45 40       	vmovups YMMWORD PTR [rbp+0x40],ymm0
     f9b:	c5 fc 11 45 20       	vmovups YMMWORD PTR [rbp+0x20],ymm0
     fa0:	c5 fc 11 45 00       	vmovups YMMWORD PTR [rbp+0x0],ymm0
     fa5:	eb 0c                	jmp    fb3 <sgx_sgxsd_enclave_get_next_report+0x153>
     fa7:	31 ed                	xor    ebp,ebp
     fa9:	31 ff                	xor    edi,edi
     fab:	e8 70 e2 00 00       	call   f220 <_Z7tracebrPv>
     fb0:	0f ae e8             	lfence 
     fb3:	45 31 ff             	xor    r15d,r15d
     fb6:	31 ff                	xor    edi,edi
     fb8:	c5 f8 77             	vzeroupper 
     fbb:	e8 60 e2 00 00       	call   f220 <_Z7tracebrPv>
     fc0:	4c 8d 63 08          	lea    r12,[rbx+0x8]
     fc4:	48 8d 3d b5 1b 00 00 	lea    rdi,[rip+0x1bb5]        # 2b80 <sgxsd_enclave_get_next_report>
     fcb:	e8 e0 de 00 00       	call   eeb0 <_Z10traceedgecPv>
     fd0:	b9 00 02 00 00       	mov    ecx,0x200
     fd5:	48 89 e7             	mov    rdi,rsp
     fd8:	4c 89 e6             	mov    rsi,r12
     fdb:	f3 a4                	rep movs BYTE PTR es:[rdi],BYTE PTR ds:[rsi]
     fdd:	48 89 ef             	mov    rdi,rbp
     fe0:	e8 9b 1b 00 00       	call   2b80 <sgxsd_enclave_get_next_report>
     fe5:	89 03                	mov    DWORD PTR [rbx],eax
     fe7:	48 85 ed             	test   rbp,rbp
     fea:	74 73                	je     105f <sgx_sgxsd_enclave_get_next_report+0x1ff>
     fec:	41 bf 01 00 00 00    	mov    r15d,0x1
     ff2:	bf 01 00 00 00       	mov    edi,0x1
     ff7:	e8 24 e2 00 00       	call   f220 <_Z7tracebrPv>
     ffc:	48 8d 3d 4d 44 01 00 	lea    rdi,[rip+0x1444d]        # 15450 <memcpy_s>
    1003:	e8 a8 de 00 00       	call   eeb0 <_Z10traceedgecPv>
    1008:	be b0 01 00 00       	mov    esi,0x1b0
    100d:	b9 b0 01 00 00       	mov    ecx,0x1b0
    1012:	4c 89 f7             	mov    rdi,r14
    1015:	48 89 ea             	mov    rdx,rbp
    1018:	e8 33 44 01 00       	call   15450 <memcpy_s>
    101d:	b3 01                	mov    bl,0x1
    101f:	85 c0                	test   eax,eax
    1021:	75 0c                	jne    102f <sgx_sgxsd_enclave_get_next_report+0x1cf>
    1023:	31 db                	xor    ebx,ebx
    1025:	31 ff                	xor    edi,edi
    1027:	e8 f4 e1 00 00       	call   f220 <_Z7tracebrPv>
    102c:	45 31 ff             	xor    r15d,r15d
    102f:	0f b6 fb             	movzx  edi,bl
    1032:	e8 e9 e1 00 00       	call   f220 <_Z7tracebrPv>
    1037:	bf 01 00 00 00       	mov    edi,0x1
    103c:	e8 df e1 00 00       	call   f220 <_Z7tracebrPv>
    1041:	48 8d 3d e8 30 01 00 	lea    rdi,[rip+0x130e8]        # 14130 <dlfree>
    1048:	e8 63 de 00 00       	call   eeb0 <_Z10traceedgecPv>
    104d:	48 89 ef             	mov    rdi,rbp
    1050:	e8 db 30 01 00       	call   14130 <dlfree>
    1055:	eb 21                	jmp    1078 <sgx_sgxsd_enclave_get_next_report+0x218>
    1057:	41 bf 02 00 00 00    	mov    r15d,0x2
    105d:	eb 20                	jmp    107f <sgx_sgxsd_enclave_get_next_report+0x21f>
    105f:	31 ff                	xor    edi,edi
    1061:	e8 ba e1 00 00       	call   f220 <_Z7tracebrPv>
    1066:	eb 10                	jmp    1078 <sgx_sgxsd_enclave_get_next_report+0x218>
    1068:	bf 01 00 00 00       	mov    edi,0x1
    106d:	e8 ae e1 00 00       	call   f220 <_Z7tracebrPv>
    1072:	41 bf 03 00 00 00    	mov    r15d,0x3
    1078:	31 ff                	xor    edi,edi
    107a:	e8 a1 e1 00 00       	call   f220 <_Z7tracebrPv>
    107f:	48 8b bc 24 28 02 00 	mov    rdi,QWORD PTR [rsp+0x228]
    1086:	00 
    1087:	e8 24 de 00 00       	call   eeb0 <_Z10traceedgecPv>
    108c:	44 89 f8             	mov    eax,r15d
    108f:	48 81 c4 00 02 00 00 	add    rsp,0x200
    1096:	5b                   	pop    rbx
    1097:	41 5c                	pop    r12
    1099:	41 5e                	pop    r14
    109b:	41 5f                	pop    r15
    109d:	5d                   	pop    rbp
    109e:	c3                   	ret    
    109f:	90                   	nop

00000000000010a0 <sgx_sgxsd_enclave_set_current_quote>:
    10a0:	53                   	push   rbx
    10a1:	48 85 ff             	test   rdi,rdi
    10a4:	74 4e                	je     10f4 <sgx_sgxsd_enclave_set_current_quote+0x54>
    10a6:	48 89 fb             	mov    rbx,rdi
    10a9:	bf 01 00 00 00       	mov    edi,0x1
    10ae:	e8 6d e1 00 00       	call   f220 <_Z7tracebrPv>
    10b3:	48 8d 3d e6 e3 00 00 	lea    rdi,[rip+0xe3e6]        # f4a0 <sgx_is_outside_enclave>
    10ba:	e8 f1 dd 00 00       	call   eeb0 <_Z10traceedgecPv>
    10bf:	be 04 00 00 00       	mov    esi,0x4
    10c4:	48 89 df             	mov    rdi,rbx
    10c7:	e8 d4 e3 00 00       	call   f4a0 <sgx_is_outside_enclave>
    10cc:	85 c0                	test   eax,eax
    10ce:	74 24                	je     10f4 <sgx_sgxsd_enclave_set_current_quote+0x54>
    10d0:	bf 01 00 00 00       	mov    edi,0x1
    10d5:	e8 46 e1 00 00       	call   f220 <_Z7tracebrPv>
    10da:	0f ae e8             	lfence 
    10dd:	48 8d 3d 1c 1c 00 00 	lea    rdi,[rip+0x1c1c]        # 2d00 <sgxsd_enclave_set_current_quote>
    10e4:	e8 c7 dd 00 00       	call   eeb0 <_Z10traceedgecPv>
    10e9:	e8 12 1c 00 00       	call   2d00 <sgxsd_enclave_set_current_quote>
    10ee:	89 03                	mov    DWORD PTR [rbx],eax
    10f0:	31 db                	xor    ebx,ebx
    10f2:	eb 0c                	jmp    1100 <sgx_sgxsd_enclave_set_current_quote+0x60>
    10f4:	31 ff                	xor    edi,edi
    10f6:	e8 25 e1 00 00       	call   f220 <_Z7tracebrPv>
    10fb:	bb 02 00 00 00       	mov    ebx,0x2
    1100:	48 8b 7c 24 08       	mov    rdi,QWORD PTR [rsp+0x8]
    1105:	e8 a6 dd 00 00       	call   eeb0 <_Z10traceedgecPv>
    110a:	89 d8                	mov    eax,ebx
    110c:	5b                   	pop    rbx
    110d:	c3                   	ret    
    110e:	66 90                	xchg   ax,ax

0000000000001110 <sgx_sgxsd_enclave_negotiate_request>:
    1110:	55                   	push   rbp
    1111:	41 57                	push   r15
    1113:	41 56                	push   r14
    1115:	41 55                	push   r13
    1117:	41 54                	push   r12
    1119:	53                   	push   rbx
    111a:	50                   	push   rax
    111b:	41 be 02 00 00 00    	mov    r14d,0x2
    1121:	48 85 ff             	test   rdi,rdi
    1124:	0f 84 8f 02 00 00    	je     13b9 <sgx_sgxsd_enclave_negotiate_request+0x2a9>
    112a:	48 89 fb             	mov    rbx,rdi
    112d:	bf 01 00 00 00       	mov    edi,0x1
    1132:	e8 e9 e0 00 00       	call   f220 <_Z7tracebrPv>
    1137:	48 8d 3d 62 e3 00 00 	lea    rdi,[rip+0xe362]        # f4a0 <sgx_is_outside_enclave>
    113e:	e8 6d dd 00 00       	call   eeb0 <_Z10traceedgecPv>
    1143:	be 18 00 00 00       	mov    esi,0x18
    1148:	48 89 df             	mov    rdi,rbx
    114b:	e8 50 e3 00 00       	call   f4a0 <sgx_is_outside_enclave>
    1150:	85 c0                	test   eax,eax
    1152:	0f 84 61 02 00 00    	je     13b9 <sgx_sgxsd_enclave_negotiate_request+0x2a9>
    1158:	bf 01 00 00 00       	mov    edi,0x1
    115d:	e8 be e0 00 00       	call   f220 <_Z7tracebrPv>
    1162:	0f ae e8             	lfence 
    1165:	48 8b 6b 08          	mov    rbp,QWORD PTR [rbx+0x8]
    1169:	4c 8b 7b 10          	mov    r15,QWORD PTR [rbx+0x10]
    116d:	48 85 ed             	test   rbp,rbp
    1170:	74 2b                	je     119d <sgx_sgxsd_enclave_negotiate_request+0x8d>
    1172:	bf 01 00 00 00       	mov    edi,0x1
    1177:	e8 a4 e0 00 00       	call   f220 <_Z7tracebrPv>
    117c:	48 8d 3d 1d e3 00 00 	lea    rdi,[rip+0xe31d]        # f4a0 <sgx_is_outside_enclave>
    1183:	e8 28 dd 00 00       	call   eeb0 <_Z10traceedgecPv>
    1188:	be 20 00 00 00       	mov    esi,0x20
    118d:	48 89 ef             	mov    rdi,rbp
    1190:	e8 0b e3 00 00       	call   f4a0 <sgx_is_outside_enclave>
    1195:	85 c0                	test   eax,eax
    1197:	0f 84 1c 02 00 00    	je     13b9 <sgx_sgxsd_enclave_negotiate_request+0x2a9>
    119d:	31 ff                	xor    edi,edi
    119f:	e8 7c e0 00 00       	call   f220 <_Z7tracebrPv>
    11a4:	4d 85 ff             	test   r15,r15
    11a7:	74 2b                	je     11d4 <sgx_sgxsd_enclave_negotiate_request+0xc4>
    11a9:	bf 01 00 00 00       	mov    edi,0x1
    11ae:	e8 6d e0 00 00       	call   f220 <_Z7tracebrPv>
    11b3:	48 8d 3d e6 e2 00 00 	lea    rdi,[rip+0xe2e6]        # f4a0 <sgx_is_outside_enclave>
    11ba:	e8 f1 dc 00 00       	call   eeb0 <_Z10traceedgecPv>
    11bf:	be 80 00 00 00       	mov    esi,0x80
    11c4:	4c 89 ff             	mov    rdi,r15
    11c7:	e8 d4 e2 00 00       	call   f4a0 <sgx_is_outside_enclave>
    11cc:	85 c0                	test   eax,eax
    11ce:	0f 84 e5 01 00 00    	je     13b9 <sgx_sgxsd_enclave_negotiate_request+0x2a9>
    11d4:	45 31 e4             	xor    r12d,r12d
    11d7:	31 ff                	xor    edi,edi
    11d9:	e8 42 e0 00 00       	call   f220 <_Z7tracebrPv>
    11de:	0f ae e8             	lfence 
    11e1:	48 85 ed             	test   rbp,rbp
    11e4:	0f 84 91 00 00 00    	je     127b <sgx_sgxsd_enclave_negotiate_request+0x16b>
    11ea:	41 be 01 00 00 00    	mov    r14d,0x1
    11f0:	bf 01 00 00 00       	mov    edi,0x1
    11f5:	e8 26 e0 00 00       	call   f220 <_Z7tracebrPv>
    11fa:	bf 01 00 00 00       	mov    edi,0x1
    11ff:	e8 1c e0 00 00       	call   f220 <_Z7tracebrPv>
    1204:	48 8d 3d 25 15 01 00 	lea    rdi,[rip+0x11525]        # 12730 <dlmalloc>
    120b:	e8 a0 dc 00 00       	call   eeb0 <_Z10traceedgecPv>
    1210:	bf 20 00 00 00       	mov    edi,0x20
    1215:	e8 16 15 01 00       	call   12730 <dlmalloc>
    121a:	48 85 c0             	test   rax,rax
    121d:	74 39                	je     1258 <sgx_sgxsd_enclave_negotiate_request+0x148>
    121f:	49 89 c4             	mov    r12,rax
    1222:	45 31 ed             	xor    r13d,r13d
    1225:	31 ff                	xor    edi,edi
    1227:	e8 f4 df 00 00       	call   f220 <_Z7tracebrPv>
    122c:	48 8d 3d 1d 42 01 00 	lea    rdi,[rip+0x1421d]        # 15450 <memcpy_s>
    1233:	e8 78 dc 00 00       	call   eeb0 <_Z10traceedgecPv>
    1238:	be 20 00 00 00       	mov    esi,0x20
    123d:	b9 20 00 00 00       	mov    ecx,0x20
    1242:	4c 89 e7             	mov    rdi,r12
    1245:	48 89 ea             	mov    rdx,rbp
    1248:	e8 03 42 01 00       	call   15450 <memcpy_s>
    124d:	85 c0                	test   eax,eax
    124f:	74 23                	je     1274 <sgx_sgxsd_enclave_negotiate_request+0x164>
    1251:	b3 01                	mov    bl,0x1
    1253:	e9 0c 01 00 00       	jmp    1364 <sgx_sgxsd_enclave_negotiate_request+0x254>
    1258:	bf 01 00 00 00       	mov    edi,0x1
    125d:	e8 be df 00 00       	call   f220 <_Z7tracebrPv>
    1262:	31 ff                	xor    edi,edi
    1264:	e8 b7 df 00 00       	call   f220 <_Z7tracebrPv>
    1269:	41 be 03 00 00 00    	mov    r14d,0x3
    126f:	e9 45 01 00 00       	jmp    13b9 <sgx_sgxsd_enclave_negotiate_request+0x2a9>
    1274:	31 ff                	xor    edi,edi
    1276:	e8 a5 df 00 00       	call   f220 <_Z7tracebrPv>
    127b:	45 31 f6             	xor    r14d,r14d
    127e:	31 ff                	xor    edi,edi
    1280:	e8 9b df 00 00       	call   f220 <_Z7tracebrPv>
    1285:	4d 85 ff             	test   r15,r15
    1288:	74 5b                	je     12e5 <sgx_sgxsd_enclave_negotiate_request+0x1d5>
    128a:	bf 01 00 00 00       	mov    edi,0x1
    128f:	e8 8c df 00 00       	call   f220 <_Z7tracebrPv>
    1294:	bf 01 00 00 00       	mov    edi,0x1
    1299:	e8 82 df 00 00       	call   f220 <_Z7tracebrPv>
    129e:	48 8d 3d 8b 14 01 00 	lea    rdi,[rip+0x1148b]        # 12730 <dlmalloc>
    12a5:	e8 06 dc 00 00       	call   eeb0 <_Z10traceedgecPv>
    12aa:	bf 80 00 00 00       	mov    edi,0x80
    12af:	e8 7c 14 01 00       	call   12730 <dlmalloc>
    12b4:	48 85 c0             	test   rax,rax
    12b7:	0f 84 9c 00 00 00    	je     1359 <sgx_sgxsd_enclave_negotiate_request+0x249>
    12bd:	49 89 c5             	mov    r13,rax
    12c0:	31 ff                	xor    edi,edi
    12c2:	e8 59 df 00 00       	call   f220 <_Z7tracebrPv>
    12c7:	c5 f8 57 c0          	vxorps xmm0,xmm0,xmm0
    12cb:	c4 c1 7c 11 45 60    	vmovups YMMWORD PTR [r13+0x60],ymm0
    12d1:	c4 c1 7c 11 45 40    	vmovups YMMWORD PTR [r13+0x40],ymm0
    12d7:	c4 c1 7c 11 45 20    	vmovups YMMWORD PTR [r13+0x20],ymm0
    12dd:	c4 c1 7c 11 45 00    	vmovups YMMWORD PTR [r13+0x0],ymm0
    12e3:	eb 03                	jmp    12e8 <sgx_sgxsd_enclave_negotiate_request+0x1d8>
    12e5:	45 31 ed             	xor    r13d,r13d
    12e8:	31 ff                	xor    edi,edi
    12ea:	c5 f8 77             	vzeroupper 
    12ed:	e8 2e df 00 00       	call   f220 <_Z7tracebrPv>
    12f2:	48 8d 3d a7 1e 00 00 	lea    rdi,[rip+0x1ea7]        # 31a0 <sgxsd_enclave_negotiate_request>
    12f9:	e8 b2 db 00 00       	call   eeb0 <_Z10traceedgecPv>
    12fe:	4c 89 e7             	mov    rdi,r12
    1301:	4c 89 ee             	mov    rsi,r13
    1304:	e8 97 1e 00 00       	call   31a0 <sgxsd_enclave_negotiate_request>
    1309:	89 03                	mov    DWORD PTR [rbx],eax
    130b:	4d 85 ed             	test   r13,r13
    130e:	74 45                	je     1355 <sgx_sgxsd_enclave_negotiate_request+0x245>
    1310:	41 be 01 00 00 00    	mov    r14d,0x1
    1316:	bf 01 00 00 00       	mov    edi,0x1
    131b:	e8 00 df 00 00       	call   f220 <_Z7tracebrPv>
    1320:	48 8d 3d 29 41 01 00 	lea    rdi,[rip+0x14129]        # 15450 <memcpy_s>
    1327:	e8 84 db 00 00       	call   eeb0 <_Z10traceedgecPv>
    132c:	be 80 00 00 00       	mov    esi,0x80
    1331:	b9 80 00 00 00       	mov    ecx,0x80
    1336:	4c 89 ff             	mov    rdi,r15
    1339:	4c 89 ea             	mov    rdx,r13
    133c:	e8 0f 41 01 00       	call   15450 <memcpy_s>
    1341:	b3 01                	mov    bl,0x1
    1343:	85 c0                	test   eax,eax
    1345:	75 1d                	jne    1364 <sgx_sgxsd_enclave_negotiate_request+0x254>
    1347:	31 db                	xor    ebx,ebx
    1349:	31 ff                	xor    edi,edi
    134b:	e8 d0 de 00 00       	call   f220 <_Z7tracebrPv>
    1350:	45 31 f6             	xor    r14d,r14d
    1353:	eb 0f                	jmp    1364 <sgx_sgxsd_enclave_negotiate_request+0x254>
    1355:	31 db                	xor    ebx,ebx
    1357:	eb 0b                	jmp    1364 <sgx_sgxsd_enclave_negotiate_request+0x254>
    1359:	41 be 03 00 00 00    	mov    r14d,0x3
    135f:	b3 01                	mov    bl,0x1
    1361:	45 31 ed             	xor    r13d,r13d
    1364:	0f b6 fb             	movzx  edi,bl
    1367:	e8 b4 de 00 00       	call   f220 <_Z7tracebrPv>
    136c:	4d 85 e4             	test   r12,r12
    136f:	74 1e                	je     138f <sgx_sgxsd_enclave_negotiate_request+0x27f>
    1371:	bf 01 00 00 00       	mov    edi,0x1
    1376:	e8 a5 de 00 00       	call   f220 <_Z7tracebrPv>
    137b:	48 8d 3d ae 2d 01 00 	lea    rdi,[rip+0x12dae]        # 14130 <dlfree>
    1382:	e8 29 db 00 00       	call   eeb0 <_Z10traceedgecPv>
    1387:	4c 89 e7             	mov    rdi,r12
    138a:	e8 a1 2d 01 00       	call   14130 <dlfree>
    138f:	31 ff                	xor    edi,edi
    1391:	e8 8a de 00 00       	call   f220 <_Z7tracebrPv>
    1396:	4d 85 ed             	test   r13,r13
    1399:	74 1e                	je     13b9 <sgx_sgxsd_enclave_negotiate_request+0x2a9>
    139b:	bf 01 00 00 00       	mov    edi,0x1
    13a0:	e8 7b de 00 00       	call   f220 <_Z7tracebrPv>
    13a5:	48 8d 3d 84 2d 01 00 	lea    rdi,[rip+0x12d84]        # 14130 <dlfree>
    13ac:	e8 ff da 00 00       	call   eeb0 <_Z10traceedgecPv>
    13b1:	4c 89 ef             	mov    rdi,r13
    13b4:	e8 77 2d 01 00       	call   14130 <dlfree>
    13b9:	31 ff                	xor    edi,edi
    13bb:	e8 60 de 00 00       	call   f220 <_Z7tracebrPv>
    13c0:	48 8b 7c 24 38       	mov    rdi,QWORD PTR [rsp+0x38]
    13c5:	e8 e6 da 00 00       	call   eeb0 <_Z10traceedgecPv>
    13ca:	44 89 f0             	mov    eax,r14d
    13cd:	48 83 c4 08          	add    rsp,0x8
    13d1:	5b                   	pop    rbx
    13d2:	41 5c                	pop    r12
    13d4:	41 5d                	pop    r13
    13d6:	41 5e                	pop    r14
    13d8:	41 5f                	pop    r15
    13da:	5d                   	pop    rbp
    13db:	c3                   	ret    
    13dc:	0f 1f 40 00          	nop    DWORD PTR [rax+0x0]

00000000000013e0 <sgx_sgxsd_enclave_server_start>:
    13e0:	55                   	push   rbp
    13e1:	41 57                	push   r15
    13e3:	41 56                	push   r14
    13e5:	53                   	push   rbx
    13e6:	50                   	push   rax
    13e7:	bd 02 00 00 00       	mov    ebp,0x2
    13ec:	48 85 ff             	test   rdi,rdi
    13ef:	0f 84 6a 01 00 00    	je     155f <sgx_sgxsd_enclave_server_start+0x17f>
    13f5:	48 89 fb             	mov    rbx,rdi
    13f8:	bf 01 00 00 00       	mov    edi,0x1
    13fd:	e8 1e de 00 00       	call   f220 <_Z7tracebrPv>
    1402:	48 8d 3d 97 e0 00 00 	lea    rdi,[rip+0xe097]        # f4a0 <sgx_is_outside_enclave>
    1409:	e8 a2 da 00 00       	call   eeb0 <_Z10traceedgecPv>
    140e:	be 18 00 00 00       	mov    esi,0x18
    1413:	48 89 df             	mov    rdi,rbx
    1416:	e8 85 e0 00 00       	call   f4a0 <sgx_is_outside_enclave>
    141b:	85 c0                	test   eax,eax
    141d:	0f 84 3c 01 00 00    	je     155f <sgx_sgxsd_enclave_server_start+0x17f>
    1423:	bf 01 00 00 00       	mov    edi,0x1
    1428:	e8 f3 dd 00 00       	call   f220 <_Z7tracebrPv>
    142d:	0f ae e8             	lfence 
    1430:	4c 8b 7b 08          	mov    r15,QWORD PTR [rbx+0x8]
    1434:	4d 85 ff             	test   r15,r15
    1437:	0f 84 ab 00 00 00    	je     14e8 <sgx_sgxsd_enclave_server_start+0x108>
    143d:	bf 01 00 00 00       	mov    edi,0x1
    1442:	e8 d9 dd 00 00       	call   f220 <_Z7tracebrPv>
    1447:	48 8d 3d 52 e0 00 00 	lea    rdi,[rip+0xe052]        # f4a0 <sgx_is_outside_enclave>
    144e:	e8 5d da 00 00       	call   eeb0 <_Z10traceedgecPv>
    1453:	be 04 00 00 00       	mov    esi,0x4
    1458:	4c 89 ff             	mov    rdi,r15
    145b:	e8 40 e0 00 00       	call   f4a0 <sgx_is_outside_enclave>
    1460:	89 c5                	mov    ebp,eax
    1462:	31 ff                	xor    edi,edi
    1464:	e8 b7 dd 00 00       	call   f220 <_Z7tracebrPv>
    1469:	85 ed                	test   ebp,ebp
    146b:	0f 84 86 00 00 00    	je     14f7 <sgx_sgxsd_enclave_server_start+0x117>
    1471:	0f ae e8             	lfence 
    1474:	bf 01 00 00 00       	mov    edi,0x1
    1479:	e8 a2 dd 00 00       	call   f220 <_Z7tracebrPv>
    147e:	bf 01 00 00 00       	mov    edi,0x1
    1483:	e8 98 dd 00 00       	call   f220 <_Z7tracebrPv>
    1488:	48 8d 3d a1 12 01 00 	lea    rdi,[rip+0x112a1]        # 12730 <dlmalloc>
    148f:	e8 1c da 00 00       	call   eeb0 <_Z10traceedgecPv>
    1494:	bf 04 00 00 00       	mov    edi,0x4
    1499:	e8 92 12 01 00       	call   12730 <dlmalloc>
    149e:	48 85 c0             	test   rax,rax
    14a1:	74 5b                	je     14fe <sgx_sgxsd_enclave_server_start+0x11e>
    14a3:	49 89 c6             	mov    r14,rax
    14a6:	31 ff                	xor    edi,edi
    14a8:	e8 73 dd 00 00       	call   f220 <_Z7tracebrPv>
    14ad:	48 8d 3d 9c 3f 01 00 	lea    rdi,[rip+0x13f9c]        # 15450 <memcpy_s>
    14b4:	e8 f7 d9 00 00       	call   eeb0 <_Z10traceedgecPv>
    14b9:	be 04 00 00 00       	mov    esi,0x4
    14be:	b9 04 00 00 00       	mov    ecx,0x4
    14c3:	4c 89 f7             	mov    rdi,r14
    14c6:	4c 89 fa             	mov    rdx,r15
    14c9:	e8 82 3f 01 00       	call   15450 <memcpy_s>
    14ce:	85 c0                	test   eax,eax
    14d0:	74 3d                	je     150f <sgx_sgxsd_enclave_server_start+0x12f>
    14d2:	bd 01 00 00 00       	mov    ebp,0x1
    14d7:	bf 01 00 00 00       	mov    edi,0x1
    14dc:	e8 3f dd 00 00       	call   f220 <_Z7tracebrPv>
    14e1:	4d 85 f6             	test   r14,r14
    14e4:	75 5b                	jne    1541 <sgx_sgxsd_enclave_server_start+0x161>
    14e6:	eb 77                	jmp    155f <sgx_sgxsd_enclave_server_start+0x17f>
    14e8:	45 31 f6             	xor    r14d,r14d
    14eb:	31 ff                	xor    edi,edi
    14ed:	e8 2e dd 00 00       	call   f220 <_Z7tracebrPv>
    14f2:	0f ae e8             	lfence 
    14f5:	eb 1f                	jmp    1516 <sgx_sgxsd_enclave_server_start+0x136>
    14f7:	bd 02 00 00 00       	mov    ebp,0x2
    14fc:	eb 68                	jmp    1566 <sgx_sgxsd_enclave_server_start+0x186>
    14fe:	bf 01 00 00 00       	mov    edi,0x1
    1503:	e8 18 dd 00 00       	call   f220 <_Z7tracebrPv>
    1508:	bd 03 00 00 00       	mov    ebp,0x3
    150d:	eb 50                	jmp    155f <sgx_sgxsd_enclave_server_start+0x17f>
    150f:	31 ff                	xor    edi,edi
    1511:	e8 0a dd 00 00       	call   f220 <_Z7tracebrPv>
    1516:	31 ed                	xor    ebp,ebp
    1518:	31 ff                	xor    edi,edi
    151a:	e8 01 dd 00 00       	call   f220 <_Z7tracebrPv>
    151f:	4c 8b 7b 10          	mov    r15,QWORD PTR [rbx+0x10]
    1523:	48 8d 3d 86 22 00 00 	lea    rdi,[rip+0x2286]        # 37b0 <sgxsd_enclave_server_start>
    152a:	e8 81 d9 00 00       	call   eeb0 <_Z10traceedgecPv>
    152f:	4c 89 f7             	mov    rdi,r14
    1532:	4c 89 fe             	mov    rsi,r15
    1535:	e8 76 22 00 00       	call   37b0 <sgxsd_enclave_server_start>
    153a:	89 03                	mov    DWORD PTR [rbx],eax
    153c:	4d 85 f6             	test   r14,r14
    153f:	74 1e                	je     155f <sgx_sgxsd_enclave_server_start+0x17f>
    1541:	bf 01 00 00 00       	mov    edi,0x1
    1546:	e8 d5 dc 00 00       	call   f220 <_Z7tracebrPv>
    154b:	48 8d 3d de 2b 01 00 	lea    rdi,[rip+0x12bde]        # 14130 <dlfree>
    1552:	e8 59 d9 00 00       	call   eeb0 <_Z10traceedgecPv>
    1557:	4c 89 f7             	mov    rdi,r14
    155a:	e8 d1 2b 01 00       	call   14130 <dlfree>
    155f:	31 ff                	xor    edi,edi
    1561:	e8 ba dc 00 00       	call   f220 <_Z7tracebrPv>
    1566:	48 8b 7c 24 28       	mov    rdi,QWORD PTR [rsp+0x28]
    156b:	e8 40 d9 00 00       	call   eeb0 <_Z10traceedgecPv>
    1570:	89 e8                	mov    eax,ebp
    1572:	48 83 c4 08          	add    rsp,0x8
    1576:	5b                   	pop    rbx
    1577:	41 5e                	pop    r14
    1579:	41 5f                	pop    r15
    157b:	5d                   	pop    rbp
    157c:	c3                   	ret    
    157d:	0f 1f 00             	nop    DWORD PTR [rax]

0000000000001580 <sgx_sgxsd_enclave_server_call>:
    1580:	55                   	push   rbp
    1581:	41 57                	push   r15
    1583:	41 56                	push   r14
    1585:	41 55                	push   r13
    1587:	41 54                	push   r12
    1589:	53                   	push   rbx
    158a:	48 83 ec 18          	sub    rsp,0x18
    158e:	41 be 02 00 00 00    	mov    r14d,0x2
    1594:	48 85 ff             	test   rdi,rdi
    1597:	0f 84 bd 02 00 00    	je     185a <sgx_sgxsd_enclave_server_call+0x2da>
    159d:	48 89 fb             	mov    rbx,rdi
    15a0:	bf 01 00 00 00       	mov    edi,0x1
    15a5:	e8 76 dc 00 00       	call   f220 <_Z7tracebrPv>
    15aa:	48 8d 3d ef de 00 00 	lea    rdi,[rip+0xdeef]        # f4a0 <sgx_is_outside_enclave>
    15b1:	e8 fa d8 00 00       	call   eeb0 <_Z10traceedgecPv>
    15b6:	be 38 00 00 00       	mov    esi,0x38
    15bb:	48 89 df             	mov    rdi,rbx
    15be:	e8 dd de 00 00       	call   f4a0 <sgx_is_outside_enclave>
    15c3:	85 c0                	test   eax,eax
    15c5:	0f 84 8f 02 00 00    	je     185a <sgx_sgxsd_enclave_server_call+0x2da>
    15cb:	bf 01 00 00 00       	mov    edi,0x1
    15d0:	e8 4b dc 00 00       	call   f220 <_Z7tracebrPv>
    15d5:	0f ae e8             	lfence 
    15d8:	48 8b 6b 08          	mov    rbp,QWORD PTR [rbx+0x8]
    15dc:	4c 8b 63 10          	mov    r12,QWORD PTR [rbx+0x10]
    15e0:	4c 8b 6b 18          	mov    r13,QWORD PTR [rbx+0x18]
    15e4:	4c 8b 7b 20          	mov    r15,QWORD PTR [rbx+0x20]
    15e8:	48 85 ed             	test   rbp,rbp
    15eb:	74 2b                	je     1618 <sgx_sgxsd_enclave_server_call+0x98>
    15ed:	bf 01 00 00 00       	mov    edi,0x1
    15f2:	e8 29 dc 00 00       	call   f220 <_Z7tracebrPv>
    15f7:	48 8d 3d a2 de 00 00 	lea    rdi,[rip+0xdea2]        # f4a0 <sgx_is_outside_enclave>
    15fe:	e8 ad d8 00 00       	call   eeb0 <_Z10traceedgecPv>
    1603:	be 04 00 00 00       	mov    esi,0x4
    1608:	48 89 ef             	mov    rdi,rbp
    160b:	e8 90 de 00 00       	call   f4a0 <sgx_is_outside_enclave>
    1610:	85 c0                	test   eax,eax
    1612:	0f 84 42 02 00 00    	je     185a <sgx_sgxsd_enclave_server_call+0x2da>
    1618:	31 ff                	xor    edi,edi
    161a:	e8 01 dc 00 00       	call   f220 <_Z7tracebrPv>
    161f:	4d 85 e4             	test   r12,r12
    1622:	74 2b                	je     164f <sgx_sgxsd_enclave_server_call+0xcf>
    1624:	bf 01 00 00 00       	mov    edi,0x1
    1629:	e8 f2 db 00 00       	call   f220 <_Z7tracebrPv>
    162e:	48 8d 3d 6b de 00 00 	lea    rdi,[rip+0xde6b]        # f4a0 <sgx_is_outside_enclave>
    1635:	e8 76 d8 00 00       	call   eeb0 <_Z10traceedgecPv>
    163a:	be 40 00 00 00       	mov    esi,0x40
    163f:	4c 89 e7             	mov    rdi,r12
    1642:	e8 59 de 00 00       	call   f4a0 <sgx_is_outside_enclave>
    1647:	85 c0                	test   eax,eax
    1649:	0f 84 0b 02 00 00    	je     185a <sgx_sgxsd_enclave_server_call+0x2da>
    164f:	31 ff                	xor    edi,edi
    1651:	e8 ca db 00 00       	call   f220 <_Z7tracebrPv>
    1656:	4d 85 ed             	test   r13,r13
    1659:	74 29                	je     1684 <sgx_sgxsd_enclave_server_call+0x104>
    165b:	bf 01 00 00 00       	mov    edi,0x1
    1660:	e8 bb db 00 00       	call   f220 <_Z7tracebrPv>
    1665:	48 8d 3d 34 de 00 00 	lea    rdi,[rip+0xde34]        # f4a0 <sgx_is_outside_enclave>
    166c:	e8 3f d8 00 00       	call   eeb0 <_Z10traceedgecPv>
    1671:	4c 89 ef             	mov    rdi,r13
    1674:	4c 89 fe             	mov    rsi,r15
    1677:	e8 24 de 00 00       	call   f4a0 <sgx_is_outside_enclave>
    167c:	85 c0                	test   eax,eax
    167e:	0f 84 d6 01 00 00    	je     185a <sgx_sgxsd_enclave_server_call+0x2da>
    1684:	4c 89 7c 24 08       	mov    QWORD PTR [rsp+0x8],r15
    1689:	45 31 ff             	xor    r15d,r15d
    168c:	31 ff                	xor    edi,edi
    168e:	e8 8d db 00 00       	call   f220 <_Z7tracebrPv>
    1693:	0f ae e8             	lfence 
    1696:	48 85 ed             	test   rbp,rbp
    1699:	0f 84 9d 00 00 00    	je     173c <sgx_sgxsd_enclave_server_call+0x1bc>
    169f:	bf 01 00 00 00       	mov    edi,0x1
    16a4:	e8 77 db 00 00       	call   f220 <_Z7tracebrPv>
    16a9:	bf 01 00 00 00       	mov    edi,0x1
    16ae:	e8 6d db 00 00       	call   f220 <_Z7tracebrPv>
    16b3:	48 8d 3d 76 10 01 00 	lea    rdi,[rip+0x11076]        # 12730 <dlmalloc>
    16ba:	e8 f1 d7 00 00       	call   eeb0 <_Z10traceedgecPv>
    16bf:	bf 04 00 00 00       	mov    edi,0x4
    16c4:	e8 67 10 01 00       	call   12730 <dlmalloc>
    16c9:	48 85 c0             	test   rax,rax
    16cc:	74 44                	je     1712 <sgx_sgxsd_enclave_server_call+0x192>
    16ce:	49 89 c7             	mov    r15,rax
    16d1:	31 ff                	xor    edi,edi
    16d3:	e8 48 db 00 00       	call   f220 <_Z7tracebrPv>
    16d8:	48 8d 3d 71 3d 01 00 	lea    rdi,[rip+0x13d71]        # 15450 <memcpy_s>
    16df:	e8 cc d7 00 00       	call   eeb0 <_Z10traceedgecPv>
    16e4:	be 04 00 00 00       	mov    esi,0x4
    16e9:	b9 04 00 00 00       	mov    ecx,0x4
    16ee:	4c 89 ff             	mov    rdi,r15
    16f1:	48 89 ea             	mov    rdx,rbp
    16f4:	e8 57 3d 01 00       	call   15450 <memcpy_s>
    16f9:	85 c0                	test   eax,eax
    16fb:	74 38                	je     1735 <sgx_sgxsd_enclave_server_call+0x1b5>
    16fd:	41 be 01 00 00 00    	mov    r14d,0x1
    1703:	bf 01 00 00 00       	mov    edi,0x1
    1708:	e8 13 db 00 00       	call   f220 <_Z7tracebrPv>
    170d:	e9 cc 00 00 00       	jmp    17de <sgx_sgxsd_enclave_server_call+0x25e>
    1712:	bf 01 00 00 00       	mov    edi,0x1
    1717:	e8 04 db 00 00       	call   f220 <_Z7tracebrPv>
    171c:	31 ff                	xor    edi,edi
    171e:	e8 fd da 00 00       	call   f220 <_Z7tracebrPv>
    1723:	31 ff                	xor    edi,edi
    1725:	e8 f6 da 00 00       	call   f220 <_Z7tracebrPv>
    172a:	41 be 03 00 00 00    	mov    r14d,0x3
    1730:	e9 25 01 00 00       	jmp    185a <sgx_sgxsd_enclave_server_call+0x2da>
    1735:	31 ff                	xor    edi,edi
    1737:	e8 e4 da 00 00       	call   f220 <_Z7tracebrPv>
    173c:	31 ff                	xor    edi,edi
    173e:	e8 dd da 00 00       	call   f220 <_Z7tracebrPv>
    1743:	4d 85 e4             	test   r12,r12
    1746:	74 7b                	je     17c3 <sgx_sgxsd_enclave_server_call+0x243>
    1748:	bf 01 00 00 00       	mov    edi,0x1
    174d:	e8 ce da 00 00       	call   f220 <_Z7tracebrPv>
    1752:	bf 01 00 00 00       	mov    edi,0x1
    1757:	e8 c4 da 00 00       	call   f220 <_Z7tracebrPv>
    175c:	48 8d 3d cd 0f 01 00 	lea    rdi,[rip+0x10fcd]        # 12730 <dlmalloc>
    1763:	e8 48 d7 00 00       	call   eeb0 <_Z10traceedgecPv>
    1768:	bf 40 00 00 00       	mov    edi,0x40
    176d:	e8 be 0f 01 00       	call   12730 <dlmalloc>
    1772:	48 85 c0             	test   rax,rax
    1775:	74 57                	je     17ce <sgx_sgxsd_enclave_server_call+0x24e>
    1777:	48 89 c5             	mov    rbp,rax
    177a:	31 ff                	xor    edi,edi
    177c:	e8 9f da 00 00       	call   f220 <_Z7tracebrPv>
    1781:	48 8d 3d c8 3c 01 00 	lea    rdi,[rip+0x13cc8]        # 15450 <memcpy_s>
    1788:	e8 23 d7 00 00       	call   eeb0 <_Z10traceedgecPv>
    178d:	be 40 00 00 00       	mov    esi,0x40
    1792:	b9 40 00 00 00       	mov    ecx,0x40
    1797:	48 89 2c 24          	mov    QWORD PTR [rsp],rbp
    179b:	48 89 ef             	mov    rdi,rbp
    179e:	4c 89 e2             	mov    rdx,r12
    17a1:	e8 aa 3c 01 00       	call   15450 <memcpy_s>
    17a6:	85 c0                	test   eax,eax
    17a8:	0f 84 cf 00 00 00    	je     187d <sgx_sgxsd_enclave_server_call+0x2fd>
    17ae:	41 be 01 00 00 00    	mov    r14d,0x1
    17b4:	bf 01 00 00 00       	mov    edi,0x1
    17b9:	e8 62 da 00 00       	call   f220 <_Z7tracebrPv>
    17be:	e9 b8 01 00 00       	jmp    197b <sgx_sgxsd_enclave_server_call+0x3fb>
    17c3:	31 c0                	xor    eax,eax
    17c5:	48 89 04 24          	mov    QWORD PTR [rsp],rax
    17c9:	e9 b6 00 00 00       	jmp    1884 <sgx_sgxsd_enclave_server_call+0x304>
    17ce:	bf 01 00 00 00       	mov    edi,0x1
    17d3:	e8 48 da 00 00       	call   f220 <_Z7tracebrPv>
    17d8:	41 be 03 00 00 00    	mov    r14d,0x3
    17de:	45 31 e4             	xor    r12d,r12d
    17e1:	31 ed                	xor    ebp,ebp
    17e3:	4d 85 ff             	test   r15,r15
    17e6:	74 1e                	je     1806 <sgx_sgxsd_enclave_server_call+0x286>
    17e8:	bf 01 00 00 00       	mov    edi,0x1
    17ed:	e8 2e da 00 00       	call   f220 <_Z7tracebrPv>
    17f2:	48 8d 3d 37 29 01 00 	lea    rdi,[rip+0x12937]        # 14130 <dlfree>
    17f9:	e8 b2 d6 00 00       	call   eeb0 <_Z10traceedgecPv>
    17fe:	4c 89 ff             	mov    rdi,r15
    1801:	e8 2a 29 01 00       	call   14130 <dlfree>
    1806:	31 ff                	xor    edi,edi
    1808:	e8 13 da 00 00       	call   f220 <_Z7tracebrPv>
    180d:	4d 85 e4             	test   r12,r12
    1810:	74 1e                	je     1830 <sgx_sgxsd_enclave_server_call+0x2b0>
    1812:	bf 01 00 00 00       	mov    edi,0x1
    1817:	e8 04 da 00 00       	call   f220 <_Z7tracebrPv>
    181c:	48 8d 3d 0d 29 01 00 	lea    rdi,[rip+0x1290d]        # 14130 <dlfree>
    1823:	e8 88 d6 00 00       	call   eeb0 <_Z10traceedgecPv>
    1828:	4c 89 e7             	mov    rdi,r12
    182b:	e8 00 29 01 00       	call   14130 <dlfree>
    1830:	31 ff                	xor    edi,edi
    1832:	e8 e9 d9 00 00       	call   f220 <_Z7tracebrPv>
    1837:	48 85 ed             	test   rbp,rbp
    183a:	74 1e                	je     185a <sgx_sgxsd_enclave_server_call+0x2da>
    183c:	bf 01 00 00 00       	mov    edi,0x1
    1841:	e8 da d9 00 00       	call   f220 <_Z7tracebrPv>
    1846:	48 8d 3d e3 28 01 00 	lea    rdi,[rip+0x128e3]        # 14130 <dlfree>
    184d:	e8 5e d6 00 00       	call   eeb0 <_Z10traceedgecPv>
    1852:	48 89 ef             	mov    rdi,rbp
    1855:	e8 d6 28 01 00       	call   14130 <dlfree>
    185a:	31 ff                	xor    edi,edi
    185c:	e8 bf d9 00 00       	call   f220 <_Z7tracebrPv>
    1861:	48 8b 7c 24 48       	mov    rdi,QWORD PTR [rsp+0x48]
    1866:	e8 45 d6 00 00       	call   eeb0 <_Z10traceedgecPv>
    186b:	44 89 f0             	mov    eax,r14d
    186e:	48 83 c4 18          	add    rsp,0x18
    1872:	5b                   	pop    rbx
    1873:	41 5c                	pop    r12
    1875:	41 5d                	pop    r13
    1877:	41 5e                	pop    r14
    1879:	41 5f                	pop    r15
    187b:	5d                   	pop    rbp
    187c:	c3                   	ret    
    187d:	31 ff                	xor    edi,edi
    187f:	e8 9c d9 00 00       	call   f220 <_Z7tracebrPv>
    1884:	45 31 f6             	xor    r14d,r14d
    1887:	31 ff                	xor    edi,edi
    1889:	e8 92 d9 00 00       	call   f220 <_Z7tracebrPv>
    188e:	4d 85 ed             	test   r13,r13
    1891:	0f 84 83 00 00 00    	je     191a <sgx_sgxsd_enclave_server_call+0x39a>
    1897:	bf 01 00 00 00       	mov    edi,0x1
    189c:	e8 7f d9 00 00       	call   f220 <_Z7tracebrPv>
    18a1:	4c 8b 64 24 08       	mov    r12,QWORD PTR [rsp+0x8]
    18a6:	4d 85 e4             	test   r12,r12
    18a9:	74 6f                	je     191a <sgx_sgxsd_enclave_server_call+0x39a>
    18ab:	bf 01 00 00 00       	mov    edi,0x1
    18b0:	e8 6b d9 00 00       	call   f220 <_Z7tracebrPv>
    18b5:	31 ff                	xor    edi,edi
    18b7:	e8 64 d9 00 00       	call   f220 <_Z7tracebrPv>
    18bc:	48 8d 3d 6d 0e 01 00 	lea    rdi,[rip+0x10e6d]        # 12730 <dlmalloc>
    18c3:	e8 e8 d5 00 00       	call   eeb0 <_Z10traceedgecPv>
    18c8:	4c 89 e7             	mov    rdi,r12
    18cb:	e8 60 0e 01 00       	call   12730 <dlmalloc>
    18d0:	48 85 c0             	test   rax,rax
    18d3:	0f 84 92 00 00 00    	je     196b <sgx_sgxsd_enclave_server_call+0x3eb>
    18d9:	48 89 c5             	mov    rbp,rax
    18dc:	31 ff                	xor    edi,edi
    18de:	e8 3d d9 00 00       	call   f220 <_Z7tracebrPv>
    18e3:	48 8d 3d 66 3b 01 00 	lea    rdi,[rip+0x13b66]        # 15450 <memcpy_s>
    18ea:	e8 c1 d5 00 00       	call   eeb0 <_Z10traceedgecPv>
    18ef:	48 89 ef             	mov    rdi,rbp
    18f2:	4c 89 e6             	mov    rsi,r12
    18f5:	4c 89 ea             	mov    rdx,r13
    18f8:	4c 89 e1             	mov    rcx,r12
    18fb:	e8 50 3b 01 00       	call   15450 <memcpy_s>
    1900:	85 c0                	test   eax,eax
    1902:	0f 84 87 00 00 00    	je     198f <sgx_sgxsd_enclave_server_call+0x40f>
    1908:	41 be 01 00 00 00    	mov    r14d,0x1
    190e:	bf 01 00 00 00       	mov    edi,0x1
    1913:	e8 08 d9 00 00       	call   f220 <_Z7tracebrPv>
    1918:	eb 63                	jmp    197d <sgx_sgxsd_enclave_server_call+0x3fd>
    191a:	31 ed                	xor    ebp,ebp
    191c:	31 ff                	xor    edi,edi
    191e:	e8 fd d8 00 00       	call   f220 <_Z7tracebrPv>
    1923:	48 8b 43 28          	mov    rax,QWORD PTR [rbx+0x28]
    1927:	48 89 44 24 10       	mov    QWORD PTR [rsp+0x10],rax
    192c:	4c 8b 6b 30          	mov    r13,QWORD PTR [rbx+0x30]
    1930:	48 8d 3d c9 1f 00 00 	lea    rdi,[rip+0x1fc9]        # 3900 <sgxsd_enclave_server_call>
    1937:	e8 74 d5 00 00       	call   eeb0 <_Z10traceedgecPv>
    193c:	4c 89 ff             	mov    rdi,r15
    193f:	4c 8b 24 24          	mov    r12,QWORD PTR [rsp]
    1943:	4c 89 e6             	mov    rsi,r12
    1946:	48 89 ea             	mov    rdx,rbp
    1949:	48 8b 4c 24 08       	mov    rcx,QWORD PTR [rsp+0x8]
    194e:	4c 8b 44 24 10       	mov    r8,QWORD PTR [rsp+0x10]
    1953:	4d 89 e9             	mov    r9,r13
    1956:	e8 a5 1f 00 00       	call   3900 <sgxsd_enclave_server_call>
    195b:	89 03                	mov    DWORD PTR [rbx],eax
    195d:	4d 85 ff             	test   r15,r15
    1960:	0f 85 82 fe ff ff    	jne    17e8 <sgx_sgxsd_enclave_server_call+0x268>
    1966:	e9 9b fe ff ff       	jmp    1806 <sgx_sgxsd_enclave_server_call+0x286>
    196b:	bf 01 00 00 00       	mov    edi,0x1
    1970:	e8 ab d8 00 00       	call   f220 <_Z7tracebrPv>
    1975:	41 be 03 00 00 00    	mov    r14d,0x3
    197b:	31 ed                	xor    ebp,ebp
    197d:	4c 8b 24 24          	mov    r12,QWORD PTR [rsp]
    1981:	4d 85 ff             	test   r15,r15
    1984:	0f 85 5e fe ff ff    	jne    17e8 <sgx_sgxsd_enclave_server_call+0x268>
    198a:	e9 77 fe ff ff       	jmp    1806 <sgx_sgxsd_enclave_server_call+0x286>
    198f:	31 ff                	xor    edi,edi
    1991:	e8 8a d8 00 00       	call   f220 <_Z7tracebrPv>
    1996:	eb 84                	jmp    191c <sgx_sgxsd_enclave_server_call+0x39c>
    1998:	0f 1f 84 00 00 00 00 	nop    DWORD PTR [rax+rax*1+0x0]
    199f:	00 

00000000000019a0 <sgx_sgxsd_enclave_server_stop>:
    19a0:	55                   	push   rbp
    19a1:	41 57                	push   r15
    19a3:	41 56                	push   r14
    19a5:	53                   	push   rbx
    19a6:	50                   	push   rax
    19a7:	bd 02 00 00 00       	mov    ebp,0x2
    19ac:	48 85 ff             	test   rdi,rdi
    19af:	0f 84 6a 01 00 00    	je     1b1f <sgx_sgxsd_enclave_server_stop+0x17f>
    19b5:	48 89 fb             	mov    rbx,rdi
    19b8:	bf 01 00 00 00       	mov    edi,0x1
    19bd:	e8 5e d8 00 00       	call   f220 <_Z7tracebrPv>
    19c2:	48 8d 3d d7 da 00 00 	lea    rdi,[rip+0xdad7]        # f4a0 <sgx_is_outside_enclave>
    19c9:	e8 e2 d4 00 00       	call   eeb0 <_Z10traceedgecPv>
    19ce:	be 18 00 00 00       	mov    esi,0x18
    19d3:	48 89 df             	mov    rdi,rbx
    19d6:	e8 c5 da 00 00       	call   f4a0 <sgx_is_outside_enclave>
    19db:	85 c0                	test   eax,eax
    19dd:	0f 84 3c 01 00 00    	je     1b1f <sgx_sgxsd_enclave_server_stop+0x17f>
    19e3:	bf 01 00 00 00       	mov    edi,0x1
    19e8:	e8 33 d8 00 00       	call   f220 <_Z7tracebrPv>
    19ed:	0f ae e8             	lfence 
    19f0:	4c 8b 7b 08          	mov    r15,QWORD PTR [rbx+0x8]
    19f4:	4d 85 ff             	test   r15,r15
    19f7:	0f 84 ab 00 00 00    	je     1aa8 <sgx_sgxsd_enclave_server_stop+0x108>
    19fd:	bf 01 00 00 00       	mov    edi,0x1
    1a02:	e8 19 d8 00 00       	call   f220 <_Z7tracebrPv>
    1a07:	48 8d 3d 92 da 00 00 	lea    rdi,[rip+0xda92]        # f4a0 <sgx_is_outside_enclave>
    1a0e:	e8 9d d4 00 00       	call   eeb0 <_Z10traceedgecPv>
    1a13:	be 10 00 00 00       	mov    esi,0x10
    1a18:	4c 89 ff             	mov    rdi,r15
    1a1b:	e8 80 da 00 00       	call   f4a0 <sgx_is_outside_enclave>
    1a20:	89 c5                	mov    ebp,eax
    1a22:	31 ff                	xor    edi,edi
    1a24:	e8 f7 d7 00 00       	call   f220 <_Z7tracebrPv>
    1a29:	85 ed                	test   ebp,ebp
    1a2b:	0f 84 86 00 00 00    	je     1ab7 <sgx_sgxsd_enclave_server_stop+0x117>
    1a31:	0f ae e8             	lfence 
    1a34:	bf 01 00 00 00       	mov    edi,0x1
    1a39:	e8 e2 d7 00 00       	call   f220 <_Z7tracebrPv>
    1a3e:	bf 01 00 00 00       	mov    edi,0x1
    1a43:	e8 d8 d7 00 00       	call   f220 <_Z7tracebrPv>
    1a48:	48 8d 3d e1 0c 01 00 	lea    rdi,[rip+0x10ce1]        # 12730 <dlmalloc>
    1a4f:	e8 5c d4 00 00       	call   eeb0 <_Z10traceedgecPv>
    1a54:	bf 10 00 00 00       	mov    edi,0x10
    1a59:	e8 d2 0c 01 00       	call   12730 <dlmalloc>
    1a5e:	48 85 c0             	test   rax,rax
    1a61:	74 5b                	je     1abe <sgx_sgxsd_enclave_server_stop+0x11e>
    1a63:	49 89 c6             	mov    r14,rax
    1a66:	31 ff                	xor    edi,edi
    1a68:	e8 b3 d7 00 00       	call   f220 <_Z7tracebrPv>
    1a6d:	48 8d 3d dc 39 01 00 	lea    rdi,[rip+0x139dc]        # 15450 <memcpy_s>
    1a74:	e8 37 d4 00 00       	call   eeb0 <_Z10traceedgecPv>
    1a79:	be 10 00 00 00       	mov    esi,0x10
    1a7e:	b9 10 00 00 00       	mov    ecx,0x10
    1a83:	4c 89 f7             	mov    rdi,r14
    1a86:	4c 89 fa             	mov    rdx,r15
    1a89:	e8 c2 39 01 00       	call   15450 <memcpy_s>
    1a8e:	85 c0                	test   eax,eax
    1a90:	74 3d                	je     1acf <sgx_sgxsd_enclave_server_stop+0x12f>
    1a92:	bd 01 00 00 00       	mov    ebp,0x1
    1a97:	bf 01 00 00 00       	mov    edi,0x1
    1a9c:	e8 7f d7 00 00       	call   f220 <_Z7tracebrPv>
    1aa1:	4d 85 f6             	test   r14,r14
    1aa4:	75 5b                	jne    1b01 <sgx_sgxsd_enclave_server_stop+0x161>
    1aa6:	eb 77                	jmp    1b1f <sgx_sgxsd_enclave_server_stop+0x17f>
    1aa8:	45 31 f6             	xor    r14d,r14d
    1aab:	31 ff                	xor    edi,edi
    1aad:	e8 6e d7 00 00       	call   f220 <_Z7tracebrPv>
    1ab2:	0f ae e8             	lfence 
    1ab5:	eb 1f                	jmp    1ad6 <sgx_sgxsd_enclave_server_stop+0x136>
    1ab7:	bd 02 00 00 00       	mov    ebp,0x2
    1abc:	eb 68                	jmp    1b26 <sgx_sgxsd_enclave_server_stop+0x186>
    1abe:	bf 01 00 00 00       	mov    edi,0x1
    1ac3:	e8 58 d7 00 00       	call   f220 <_Z7tracebrPv>
    1ac8:	bd 03 00 00 00       	mov    ebp,0x3
    1acd:	eb 50                	jmp    1b1f <sgx_sgxsd_enclave_server_stop+0x17f>
    1acf:	31 ff                	xor    edi,edi
    1ad1:	e8 4a d7 00 00       	call   f220 <_Z7tracebrPv>
    1ad6:	31 ed                	xor    ebp,ebp
    1ad8:	31 ff                	xor    edi,edi
    1ada:	e8 41 d7 00 00       	call   f220 <_Z7tracebrPv>
    1adf:	4c 8b 7b 10          	mov    r15,QWORD PTR [rbx+0x10]
    1ae3:	48 8d 3d 86 21 00 00 	lea    rdi,[rip+0x2186]        # 3c70 <sgxsd_enclave_server_stop>
    1aea:	e8 c1 d3 00 00       	call   eeb0 <_Z10traceedgecPv>
    1aef:	4c 89 f7             	mov    rdi,r14
    1af2:	4c 89 fe             	mov    rsi,r15
    1af5:	e8 76 21 00 00       	call   3c70 <sgxsd_enclave_server_stop>
    1afa:	89 03                	mov    DWORD PTR [rbx],eax
    1afc:	4d 85 f6             	test   r14,r14
    1aff:	74 1e                	je     1b1f <sgx_sgxsd_enclave_server_stop+0x17f>
    1b01:	bf 01 00 00 00       	mov    edi,0x1
    1b06:	e8 15 d7 00 00       	call   f220 <_Z7tracebrPv>
    1b0b:	48 8d 3d 1e 26 01 00 	lea    rdi,[rip+0x1261e]        # 14130 <dlfree>
    1b12:	e8 99 d3 00 00       	call   eeb0 <_Z10traceedgecPv>
    1b17:	4c 89 f7             	mov    rdi,r14
    1b1a:	e8 11 26 01 00       	call   14130 <dlfree>
    1b1f:	31 ff                	xor    edi,edi
    1b21:	e8 fa d6 00 00       	call   f220 <_Z7tracebrPv>
    1b26:	48 8b 7c 24 28       	mov    rdi,QWORD PTR [rsp+0x28]
    1b2b:	e8 80 d3 00 00       	call   eeb0 <_Z10traceedgecPv>
    1b30:	89 e8                	mov    eax,ebp
    1b32:	48 83 c4 08          	add    rsp,0x8
    1b36:	5b                   	pop    rbx
    1b37:	41 5e                	pop    r14
    1b39:	41 5f                	pop    r15
    1b3b:	5d                   	pop    rbp
    1b3c:	c3                   	ret    
    1b3d:	0f 1f 00             	nop    DWORD PTR [rax]

0000000000001b40 <sgx_setBucket>:
    1b40:	55                   	push   rbp
    1b41:	53                   	push   rbx
    1b42:	50                   	push   rax
    1b43:	bd 02 00 00 00       	mov    ebp,0x2
    1b48:	48 85 ff             	test   rdi,rdi
    1b4b:	74 1e                	je     1b6b <sgx_setBucket+0x2b>
    1b4d:	48 89 fb             	mov    rbx,rdi
    1b50:	be 08 00 00 00       	mov    esi,0x8
    1b55:	e8 46 d9 00 00       	call   f4a0 <sgx_is_outside_enclave>
    1b5a:	85 c0                	test   eax,eax
    1b5c:	74 0d                	je     1b6b <sgx_setBucket+0x2b>
    1b5e:	0f ae e8             	lfence 
    1b61:	48 8b 3b             	mov    rdi,QWORD PTR [rbx]
    1b64:	e8 c7 d1 00 00       	call   ed30 <setBucket>
    1b69:	31 ed                	xor    ebp,ebp
    1b6b:	89 e8                	mov    eax,ebp
    1b6d:	48 83 c4 08          	add    rsp,0x8
    1b71:	5b                   	pop    rbx
    1b72:	5d                   	pop    rbp
    1b73:	c3                   	ret    
    1b74:	66 2e 0f 1f 84 00 00 	nop    WORD PTR cs:[rax+rax*1+0x0]
    1b7b:	00 00 00 
    1b7e:	66 90                	xchg   ax,ax

0000000000001b80 <sgx_setActionCounter>:
    1b80:	53                   	push   rbx
    1b81:	48 85 ff             	test   rdi,rdi
    1b84:	74 52                	je     1bd8 <sgx_setActionCounter+0x58>
    1b86:	48 89 fb             	mov    rbx,rdi
    1b89:	bf 01 00 00 00       	mov    edi,0x1
    1b8e:	e8 8d d6 00 00       	call   f220 <_Z7tracebrPv>
    1b93:	48 8d 3d 06 d9 00 00 	lea    rdi,[rip+0xd906]        # f4a0 <sgx_is_outside_enclave>
    1b9a:	e8 11 d3 00 00       	call   eeb0 <_Z10traceedgecPv>
    1b9f:	be 08 00 00 00       	mov    esi,0x8
    1ba4:	48 89 df             	mov    rdi,rbx
    1ba7:	e8 f4 d8 00 00       	call   f4a0 <sgx_is_outside_enclave>
    1bac:	85 c0                	test   eax,eax
    1bae:	74 28                	je     1bd8 <sgx_setActionCounter+0x58>
    1bb0:	bf 01 00 00 00       	mov    edi,0x1
    1bb5:	e8 66 d6 00 00       	call   f220 <_Z7tracebrPv>
    1bba:	0f ae e8             	lfence 
    1bbd:	48 8b 1b             	mov    rbx,QWORD PTR [rbx]
    1bc0:	48 8d 3d 89 d1 00 00 	lea    rdi,[rip+0xd189]        # ed50 <setActionCounter>
    1bc7:	e8 e4 d2 00 00       	call   eeb0 <_Z10traceedgecPv>
    1bcc:	48 89 df             	mov    rdi,rbx
    1bcf:	e8 7c d1 00 00       	call   ed50 <setActionCounter>
    1bd4:	31 db                	xor    ebx,ebx
    1bd6:	eb 0c                	jmp    1be4 <sgx_setActionCounter+0x64>
    1bd8:	31 ff                	xor    edi,edi
    1bda:	e8 41 d6 00 00       	call   f220 <_Z7tracebrPv>
    1bdf:	bb 02 00 00 00       	mov    ebx,0x2
    1be4:	48 8b 7c 24 08       	mov    rdi,QWORD PTR [rsp+0x8]
    1be9:	e8 c2 d2 00 00       	call   eeb0 <_Z10traceedgecPv>
    1bee:	89 d8                	mov    eax,ebx
    1bf0:	5b                   	pop    rbx
    1bf1:	c3                   	ret    
    1bf2:	66 2e 0f 1f 84 00 00 	nop    WORD PTR cs:[rax+rax*1+0x0]
    1bf9:	00 00 00 
    1bfc:	0f 1f 40 00          	nop    DWORD PTR [rax+0x0]

0000000000001c00 <sgx_bootSecureCommunication>:
    1c00:	b8 02 00 00 00       	mov    eax,0x2
    1c05:	48 85 ff             	test   rdi,rdi
    1c08:	74 01                	je     1c0b <sgx_bootSecureCommunication+0xb>
    1c0a:	c3                   	ret    
    1c0b:	50                   	push   rax
    1c0c:	e8 5f d1 00 00       	call   ed70 <bootSecureCommunication>
    1c11:	31 c0                	xor    eax,eax
    1c13:	48 83 c4 08          	add    rsp,0x8
    1c17:	c3                   	ret    
    1c18:	0f 1f 84 00 00 00 00 	nop    DWORD PTR [rax+rax*1+0x0]
    1c1f:	00 

0000000000001c20 <sgx_makeEndMsg>:
    1c20:	b8 02 00 00 00       	mov    eax,0x2
    1c25:	48 85 ff             	test   rdi,rdi
    1c28:	74 01                	je     1c2b <sgx_makeEndMsg+0xb>
    1c2a:	c3                   	ret    
    1c2b:	50                   	push   rax
    1c2c:	e8 3f cd 00 00       	call   e970 <makeEndMsg>
    1c31:	31 c0                	xor    eax,eax
    1c33:	48 83 c4 08          	add    rsp,0x8
    1c37:	c3                   	ret    
    1c38:	0f 1f 84 00 00 00 00 	nop    DWORD PTR [rax+rax*1+0x0]
    1c3f:	00 

0000000000001c40 <sgxsd_ocall_reply>:
    1c40:	55                   	push   rbp
    1c41:	41 57                	push   r15
    1c43:	41 56                	push   r14
    1c45:	41 55                	push   r13
    1c47:	41 54                	push   r12
    1c49:	53                   	push   rbx
    1c4a:	48 83 ec 28          	sub    rsp,0x28
    1c4e:	4d 89 c6             	mov    r14,r8
    1c51:	48 89 cd             	mov    rbp,rcx
    1c54:	49 89 d5             	mov    r13,rdx
    1c57:	48 89 f3             	mov    rbx,rsi
    1c5a:	49 89 fc             	mov    r12,rdi
    1c5d:	48 85 f6             	test   rsi,rsi
    1c60:	74 2b                	je     1c8d <sgxsd_ocall_reply+0x4d>
    1c62:	bf 01 00 00 00       	mov    edi,0x1
    1c67:	e8 b4 d5 00 00       	call   f220 <_Z7tracebrPv>
    1c6c:	48 8d 3d dd d7 00 00 	lea    rdi,[rip+0xd7dd]        # f450 <sgx_is_within_enclave>
    1c73:	e8 38 d2 00 00       	call   eeb0 <_Z10traceedgecPv>
    1c78:	be 40 00 00 00       	mov    esi,0x40
    1c7d:	48 89 df             	mov    rdi,rbx
    1c80:	e8 cb d7 00 00       	call   f450 <sgx_is_within_enclave>
    1c85:	85 c0                	test   eax,eax
    1c87:	0f 84 8d 00 00 00    	je     1d1a <sgxsd_ocall_reply+0xda>
    1c8d:	31 ff                	xor    edi,edi
    1c8f:	e8 8c d5 00 00       	call   f220 <_Z7tracebrPv>
    1c94:	4d 85 ed             	test   r13,r13
    1c97:	74 25                	je     1cbe <sgxsd_ocall_reply+0x7e>
    1c99:	bf 01 00 00 00       	mov    edi,0x1
    1c9e:	e8 7d d5 00 00       	call   f220 <_Z7tracebrPv>
    1ca3:	48 8d 3d a6 d7 00 00 	lea    rdi,[rip+0xd7a6]        # f450 <sgx_is_within_enclave>
    1caa:	e8 01 d2 00 00       	call   eeb0 <_Z10traceedgecPv>
    1caf:	4c 89 ef             	mov    rdi,r13
    1cb2:	48 89 ee             	mov    rsi,rbp
    1cb5:	e8 96 d7 00 00       	call   f450 <sgx_is_within_enclave>
    1cba:	85 c0                	test   eax,eax
    1cbc:	74 5c                	je     1d1a <sgxsd_ocall_reply+0xda>
    1cbe:	48 89 6c 24 08       	mov    QWORD PTR [rsp+0x8],rbp
    1cc3:	31 ed                	xor    ebp,ebp
    1cc5:	48 85 db             	test   rbx,rbx
    1cc8:	40 0f 95 c5          	setne  bpl
    1ccc:	31 ff                	xor    edi,edi
    1cce:	e8 4d d5 00 00       	call   f220 <_Z7tracebrPv>
    1cd3:	49 89 ef             	mov    r15,rbp
    1cd6:	49 c1 e7 06          	shl    r15,0x6
    1cda:	49 83 cf 28          	or     r15,0x28
    1cde:	89 ef                	mov    edi,ebp
    1ce0:	e8 3b d5 00 00       	call   f220 <_Z7tracebrPv>
    1ce5:	89 ef                	mov    edi,ebp
    1ce7:	e8 34 d5 00 00       	call   f220 <_Z7tracebrPv>
    1cec:	31 ff                	xor    edi,edi
    1cee:	e8 2d d5 00 00       	call   f220 <_Z7tracebrPv>
    1cf3:	4d 85 ed             	test   r13,r13
    1cf6:	74 33                	je     1d2b <sgxsd_ocall_reply+0xeb>
    1cf8:	bf 01 00 00 00       	mov    edi,0x1
    1cfd:	e8 1e d5 00 00       	call   f220 <_Z7tracebrPv>
    1d02:	bf 01 00 00 00       	mov    edi,0x1
    1d07:	e8 14 d5 00 00       	call   f220 <_Z7tracebrPv>
    1d0c:	4c 03 7c 24 08       	add    r15,QWORD PTR [rsp+0x8]
    1d11:	73 26                	jae    1d39 <sgxsd_ocall_reply+0xf9>
    1d13:	bf 01 00 00 00       	mov    edi,0x1
    1d18:	eb 02                	jmp    1d1c <sgxsd_ocall_reply+0xdc>
    1d1a:	31 ff                	xor    edi,edi
    1d1c:	e8 ff d4 00 00       	call   f220 <_Z7tracebrPv>
    1d21:	bd 02 00 00 00       	mov    ebp,0x2
    1d26:	e9 a0 01 00 00       	jmp    1ecb <sgxsd_ocall_reply+0x28b>
    1d2b:	31 ff                	xor    edi,edi
    1d2d:	e8 ee d4 00 00       	call   f220 <_Z7tracebrPv>
    1d32:	31 ff                	xor    edi,edi
    1d34:	e8 e7 d4 00 00       	call   f220 <_Z7tracebrPv>
    1d39:	4c 89 74 24 20       	mov    QWORD PTR [rsp+0x20],r14
    1d3e:	31 ff                	xor    edi,edi
    1d40:	e8 db d4 00 00       	call   f220 <_Z7tracebrPv>
    1d45:	48 8d 3d a4 d7 00 00 	lea    rdi,[rip+0xd7a4]        # f4f0 <sgx_ocalloc>
    1d4c:	e8 5f d1 00 00       	call   eeb0 <_Z10traceedgecPv>
    1d51:	4c 89 ff             	mov    rdi,r15
    1d54:	e8 97 d7 00 00       	call   f4f0 <sgx_ocalloc>
    1d59:	48 85 c0             	test   rax,rax
    1d5c:	0f 84 8a 00 00 00    	je     1dec <sgxsd_ocall_reply+0x1ac>
    1d62:	49 89 c6             	mov    r14,rax
    1d65:	4c 89 64 24 18       	mov    QWORD PTR [rsp+0x18],r12
    1d6a:	31 ff                	xor    edi,edi
    1d6c:	e8 af d4 00 00       	call   f220 <_Z7tracebrPv>
    1d71:	4d 8d 66 28          	lea    r12,[r14+0x28]
    1d75:	49 8d 6f d8          	lea    rbp,[r15-0x28]
    1d79:	48 85 db             	test   rbx,rbx
    1d7c:	74 7d                	je     1dfb <sgxsd_ocall_reply+0x1bb>
    1d7e:	48 89 6c 24 10       	mov    QWORD PTR [rsp+0x10],rbp
    1d83:	bd 01 00 00 00       	mov    ebp,0x1
    1d88:	bf 01 00 00 00       	mov    edi,0x1
    1d8d:	e8 8e d4 00 00       	call   f220 <_Z7tracebrPv>
    1d92:	4d 89 66 08          	mov    QWORD PTR [r14+0x8],r12
    1d96:	48 8d 3d b3 36 01 00 	lea    rdi,[rip+0x136b3]        # 15450 <memcpy_s>
    1d9d:	e8 0e d1 00 00       	call   eeb0 <_Z10traceedgecPv>
    1da2:	b9 40 00 00 00       	mov    ecx,0x40
    1da7:	4c 89 e7             	mov    rdi,r12
    1daa:	48 8b 74 24 10       	mov    rsi,QWORD PTR [rsp+0x10]
    1daf:	48 89 da             	mov    rdx,rbx
    1db2:	e8 99 36 01 00       	call   15450 <memcpy_s>
    1db7:	85 c0                	test   eax,eax
    1db9:	0f 85 93 00 00 00    	jne    1e52 <sgxsd_ocall_reply+0x212>
    1dbf:	31 ff                	xor    edi,edi
    1dc1:	e8 5a d4 00 00       	call   f220 <_Z7tracebrPv>
    1dc6:	4d 89 f4             	mov    r12,r14
    1dc9:	49 83 c4 68          	add    r12,0x68
    1dcd:	49 83 c7 98          	add    r15,0xffffffffffffff98
    1dd1:	48 8b 5c 24 08       	mov    rbx,QWORD PTR [rsp+0x8]
    1dd6:	4d 85 ed             	test   r13,r13
    1dd9:	75 3c                	jne    1e17 <sgxsd_ocall_reply+0x1d7>
    1ddb:	31 ff                	xor    edi,edi
    1ddd:	e8 3e d4 00 00       	call   f220 <_Z7tracebrPv>
    1de2:	49 c7 46 10 00 00 00 	mov    QWORD PTR [r14+0x10],0x0
    1de9:	00 
    1dea:	eb 74                	jmp    1e60 <sgxsd_ocall_reply+0x220>
    1dec:	bd 01 00 00 00       	mov    ebp,0x1
    1df1:	bf 01 00 00 00       	mov    edi,0x1
    1df6:	e9 ba 00 00 00       	jmp    1eb5 <sgxsd_ocall_reply+0x275>
    1dfb:	31 ff                	xor    edi,edi
    1dfd:	e8 1e d4 00 00       	call   f220 <_Z7tracebrPv>
    1e02:	49 c7 46 08 00 00 00 	mov    QWORD PTR [r14+0x8],0x0
    1e09:	00 
    1e0a:	48 8b 5c 24 08       	mov    rbx,QWORD PTR [rsp+0x8]
    1e0f:	49 89 ef             	mov    r15,rbp
    1e12:	4d 85 ed             	test   r13,r13
    1e15:	74 c4                	je     1ddb <sgxsd_ocall_reply+0x19b>
    1e17:	bd 01 00 00 00       	mov    ebp,0x1
    1e1c:	bf 01 00 00 00       	mov    edi,0x1
    1e21:	e8 fa d3 00 00       	call   f220 <_Z7tracebrPv>
    1e26:	4d 89 66 10          	mov    QWORD PTR [r14+0x10],r12
    1e2a:	31 ff                	xor    edi,edi
    1e2c:	e8 ef d3 00 00       	call   f220 <_Z7tracebrPv>
    1e31:	48 8d 3d 18 36 01 00 	lea    rdi,[rip+0x13618]        # 15450 <memcpy_s>
    1e38:	e8 73 d0 00 00       	call   eeb0 <_Z10traceedgecPv>
    1e3d:	4c 89 e7             	mov    rdi,r12
    1e40:	4c 89 fe             	mov    rsi,r15
    1e43:	4c 89 ea             	mov    rdx,r13
    1e46:	48 89 d9             	mov    rcx,rbx
    1e49:	e8 02 36 01 00       	call   15450 <memcpy_s>
    1e4e:	85 c0                	test   eax,eax
    1e50:	74 07                	je     1e59 <sgxsd_ocall_reply+0x219>
    1e52:	bf 01 00 00 00       	mov    edi,0x1
    1e57:	eb 5c                	jmp    1eb5 <sgxsd_ocall_reply+0x275>
    1e59:	31 ff                	xor    edi,edi
    1e5b:	e8 c0 d3 00 00       	call   f220 <_Z7tracebrPv>
    1e60:	49 89 5e 18          	mov    QWORD PTR [r14+0x18],rbx
    1e64:	48 8b 44 24 20       	mov    rax,QWORD PTR [rsp+0x20]
    1e69:	49 89 46 20          	mov    QWORD PTR [r14+0x20],rax
    1e6d:	48 8d 3d bc ec 00 00 	lea    rdi,[rip+0xecbc]        # 10b30 <sgx_ocall>
    1e74:	e8 37 d0 00 00       	call   eeb0 <_Z10traceedgecPv>
    1e79:	31 ff                	xor    edi,edi
    1e7b:	4c 89 f6             	mov    rsi,r14
    1e7e:	e8 ad ec 00 00       	call   10b30 <sgx_ocall>
    1e83:	89 c5                	mov    ebp,eax
    1e85:	85 c0                	test   eax,eax
    1e87:	48 8b 5c 24 18       	mov    rbx,QWORD PTR [rsp+0x18]
    1e8c:	75 25                	jne    1eb3 <sgxsd_ocall_reply+0x273>
    1e8e:	bf 01 00 00 00       	mov    edi,0x1
    1e93:	e8 88 d3 00 00       	call   f220 <_Z7tracebrPv>
    1e98:	48 85 db             	test   rbx,rbx
    1e9b:	74 0f                	je     1eac <sgxsd_ocall_reply+0x26c>
    1e9d:	bf 01 00 00 00       	mov    edi,0x1
    1ea2:	e8 79 d3 00 00       	call   f220 <_Z7tracebrPv>
    1ea7:	41 8b 06             	mov    eax,DWORD PTR [r14]
    1eaa:	89 03                	mov    DWORD PTR [rbx],eax
    1eac:	31 ff                	xor    edi,edi
    1eae:	e8 6d d3 00 00       	call   f220 <_Z7tracebrPv>
    1eb3:	31 ff                	xor    edi,edi
    1eb5:	e8 66 d3 00 00       	call   f220 <_Z7tracebrPv>
    1eba:	48 8d 3d 1f d7 00 00 	lea    rdi,[rip+0xd71f]        # f5e0 <sgx_ocfree>
    1ec1:	e8 ea cf 00 00       	call   eeb0 <_Z10traceedgecPv>
    1ec6:	e8 15 d7 00 00       	call   f5e0 <sgx_ocfree>
    1ecb:	48 8b 7c 24 58       	mov    rdi,QWORD PTR [rsp+0x58]
    1ed0:	e8 db cf 00 00       	call   eeb0 <_Z10traceedgecPv>
    1ed5:	89 e8                	mov    eax,ebp
    1ed7:	48 83 c4 28          	add    rsp,0x28
    1edb:	5b                   	pop    rbx
    1edc:	41 5c                	pop    r12
    1ede:	41 5d                	pop    r13
    1ee0:	41 5e                	pop    r14
    1ee2:	41 5f                	pop    r15
    1ee4:	5d                   	pop    rbp
    1ee5:	c3                   	ret    
    1ee6:	66 2e 0f 1f 84 00 00 	nop    WORD PTR cs:[rax+rax*1+0x0]
    1eed:	00 00 00 

0000000000001ef0 <ocall_monitorgatewayu>:
    1ef0:	55                   	push   rbp
    1ef1:	41 57                	push   r15
    1ef3:	41 56                	push   r14
    1ef5:	41 55                	push   r13
    1ef7:	41 54                	push   r12
    1ef9:	53                   	push   rbx
    1efa:	48 83 ec 18          	sub    rsp,0x18
    1efe:	49 89 ce             	mov    r14,rcx
    1f01:	48 89 d5             	mov    rbp,rdx
    1f04:	49 89 f4             	mov    r12,rsi
    1f07:	48 89 fb             	mov    rbx,rdi
    1f0a:	48 85 ff             	test   rdi,rdi
    1f0d:	74 13                	je     1f22 <ocall_monitorgatewayu+0x32>
    1f0f:	48 89 df             	mov    rdi,rbx
    1f12:	4c 89 e6             	mov    rsi,r12
    1f15:	e8 36 d5 00 00       	call   f450 <sgx_is_within_enclave>
    1f1a:	85 c0                	test   eax,eax
    1f1c:	0f 84 8d 00 00 00    	je     1faf <ocall_monitorgatewayu+0xbf>
    1f22:	48 85 ed             	test   rbp,rbp
    1f25:	74 0f                	je     1f36 <ocall_monitorgatewayu+0x46>
    1f27:	48 89 ef             	mov    rdi,rbp
    1f2a:	4c 89 f6             	mov    rsi,r14
    1f2d:	e8 1e d5 00 00       	call   f450 <sgx_is_within_enclave>
    1f32:	85 c0                	test   eax,eax
    1f34:	74 79                	je     1faf <ocall_monitorgatewayu+0xbf>
    1f36:	48 85 db             	test   rbx,rbx
    1f39:	4d 89 e5             	mov    r13,r12
    1f3c:	4c 0f 44 eb          	cmove  r13,rbx
    1f40:	41 bf 02 00 00 00    	mov    r15d,0x2
    1f46:	49 83 fd df          	cmp    r13,0xffffffffffffffdf
    1f4a:	0f 87 ea 00 00 00    	ja     203a <ocall_monitorgatewayu+0x14a>
    1f50:	48 85 ed             	test   rbp,rbp
    1f53:	4c 89 74 24 10       	mov    QWORD PTR [rsp+0x10],r14
    1f58:	48 89 6c 24 08       	mov    QWORD PTR [rsp+0x8],rbp
    1f5d:	4c 0f 44 f5          	cmove  r14,rbp
    1f61:	4b 8d 3c 2e          	lea    rdi,[r14+r13*1]
    1f65:	48 83 c7 20          	add    rdi,0x20
    1f69:	4c 39 f7             	cmp    rdi,r14
    1f6c:	0f 82 c8 00 00 00    	jb     203a <ocall_monitorgatewayu+0x14a>
    1f72:	e8 79 d5 00 00       	call   f4f0 <sgx_ocalloc>
    1f77:	48 85 c0             	test   rax,rax
    1f7a:	0f 84 a8 00 00 00    	je     2028 <ocall_monitorgatewayu+0x138>
    1f80:	49 89 c7             	mov    r15,rax
    1f83:	48 89 c5             	mov    rbp,rax
    1f86:	48 83 c5 20          	add    rbp,0x20
    1f8a:	48 85 db             	test   rbx,rbx
    1f8d:	74 2b                	je     1fba <ocall_monitorgatewayu+0xca>
    1f8f:	4d 01 ee             	add    r14,r13
    1f92:	49 89 2f             	mov    QWORD PTR [r15],rbp
    1f95:	48 89 ef             	mov    rdi,rbp
    1f98:	4c 89 f6             	mov    rsi,r14
    1f9b:	48 89 da             	mov    rdx,rbx
    1f9e:	4c 89 e1             	mov    rcx,r12
    1fa1:	e8 aa 34 01 00       	call   15450 <memcpy_s>
    1fa6:	85 c0                	test   eax,eax
    1fa8:	75 7e                	jne    2028 <ocall_monitorgatewayu+0x138>
    1faa:	4c 01 e5             	add    rbp,r12
    1fad:	eb 12                	jmp    1fc1 <ocall_monitorgatewayu+0xd1>
    1faf:	41 bf 02 00 00 00    	mov    r15d,0x2
    1fb5:	e9 80 00 00 00       	jmp    203a <ocall_monitorgatewayu+0x14a>
    1fba:	49 c7 07 00 00 00 00 	mov    QWORD PTR [r15],0x0
    1fc1:	4c 8b 74 24 10       	mov    r14,QWORD PTR [rsp+0x10]
    1fc6:	48 8b 5c 24 08       	mov    rbx,QWORD PTR [rsp+0x8]
    1fcb:	4d 89 67 08          	mov    QWORD PTR [r15+0x8],r12
    1fcf:	48 85 db             	test   rbx,rbx
    1fd2:	74 16                	je     1fea <ocall_monitorgatewayu+0xfa>
    1fd4:	49 89 6f 10          	mov    QWORD PTR [r15+0x10],rbp
    1fd8:	49 89 ec             	mov    r12,rbp
    1fdb:	48 89 ef             	mov    rdi,rbp
    1fde:	31 f6                	xor    esi,esi
    1fe0:	4c 89 f2             	mov    rdx,r14
    1fe3:	e8 78 30 01 00       	call   15060 <memset>
    1fe8:	eb 0b                	jmp    1ff5 <ocall_monitorgatewayu+0x105>
    1fea:	49 c7 47 10 00 00 00 	mov    QWORD PTR [r15+0x10],0x0
    1ff1:	00 
    1ff2:	45 31 e4             	xor    r12d,r12d
    1ff5:	4d 89 77 18          	mov    QWORD PTR [r15+0x18],r14
    1ff9:	bf 02 00 00 00       	mov    edi,0x2
    1ffe:	4c 89 fe             	mov    rsi,r15
    2001:	e8 2a eb 00 00       	call   10b30 <sgx_ocall>
    2006:	41 89 c7             	mov    r15d,eax
    2009:	48 85 db             	test   rbx,rbx
    200c:	74 27                	je     2035 <ocall_monitorgatewayu+0x145>
    200e:	45 85 ff             	test   r15d,r15d
    2011:	75 22                	jne    2035 <ocall_monitorgatewayu+0x145>
    2013:	48 89 df             	mov    rdi,rbx
    2016:	4c 89 f6             	mov    rsi,r14
    2019:	4c 89 e2             	mov    rdx,r12
    201c:	4c 89 f1             	mov    rcx,r14
    201f:	e8 2c 34 01 00       	call   15450 <memcpy_s>
    2024:	85 c0                	test   eax,eax
    2026:	74 0d                	je     2035 <ocall_monitorgatewayu+0x145>
    2028:	e8 b3 d5 00 00       	call   f5e0 <sgx_ocfree>
    202d:	41 bf 01 00 00 00    	mov    r15d,0x1
    2033:	eb 05                	jmp    203a <ocall_monitorgatewayu+0x14a>
    2035:	e8 a6 d5 00 00       	call   f5e0 <sgx_ocfree>
    203a:	44 89 f8             	mov    eax,r15d
    203d:	48 83 c4 18          	add    rsp,0x18
    2041:	5b                   	pop    rbx
    2042:	41 5c                	pop    r12
    2044:	41 5d                	pop    r13
    2046:	41 5e                	pop    r14
    2048:	41 5f                	pop    r15
    204a:	5d                   	pop    rbp
    204b:	c3                   	ret    
    204c:	0f 1f 40 00          	nop    DWORD PTR [rax+0x0]

0000000000002050 <sgxsd_enclave_node_init>:
    2050:	41 56                	push   r14
    2052:	53                   	push   rbx
    2053:	50                   	push   rax
    2054:	48 89 fb             	mov    rbx,rdi
    2057:	48 8d 3d 72 33 01 00 	lea    rdi,[rip+0x13372]        # 153d0 <sgx_spin_lock>
    205e:	e8 4d ce 00 00       	call   eeb0 <_Z10traceedgecPv>
    2063:	4c 8d 35 ca 73 23 00 	lea    r14,[rip+0x2373ca]        # 239434 <g_sgxsd_enclave_node_init_lock>
    206a:	4c 89 f7             	mov    rdi,r14
    206d:	e8 5e 33 01 00       	call   153d0 <sgx_spin_lock>
    2072:	0f ae e8             	lfence 
    2075:	48 8d 3d 44 00 00 00 	lea    rdi,[rip+0x44]        # 20c0 <sgxsd_enclave_node_init_locked>
    207c:	e8 2f ce 00 00       	call   eeb0 <_Z10traceedgecPv>
    2081:	48 89 df             	mov    rdi,rbx
    2084:	e8 37 00 00 00       	call   20c0 <sgxsd_enclave_node_init_locked>
    2089:	89 c3                	mov    ebx,eax
    208b:	48 8d 3d 9e 33 01 00 	lea    rdi,[rip+0x1339e]        # 15430 <sgx_spin_unlock>
    2092:	e8 19 ce 00 00       	call   eeb0 <_Z10traceedgecPv>
    2097:	4c 89 f7             	mov    rdi,r14
    209a:	e8 91 33 01 00       	call   15430 <sgx_spin_unlock>
    209f:	48 8b 7c 24 18       	mov    rdi,QWORD PTR [rsp+0x18]
    20a4:	e8 07 ce 00 00       	call   eeb0 <_Z10traceedgecPv>
    20a9:	89 d8                	mov    eax,ebx
    20ab:	48 83 c4 08          	add    rsp,0x8
    20af:	5b                   	pop    rbx
    20b0:	41 5e                	pop    r14
    20b2:	c3                   	ret    
    20b3:	66 2e 0f 1f 84 00 00 	nop    WORD PTR cs:[rax+rax*1+0x0]
    20ba:	00 00 00 
    20bd:	0f 1f 00             	nop    DWORD PTR [rax]

00000000000020c0 <sgxsd_enclave_node_init_locked>:
    20c0:	55                   	push   rbp
    20c1:	53                   	push   rbx
    20c2:	50                   	push   rax
    20c3:	80 3d 96 5b 23 00 00 	cmp    BYTE PTR [rip+0x235b96],0x0        # 237c60 <g_sgxsd_enclave_node_initialized>
    20ca:	74 14                	je     20e0 <sgxsd_enclave_node_init_locked+0x20>
    20cc:	bf 01 00 00 00       	mov    edi,0x1
    20d1:	e8 4a d1 00 00       	call   f220 <_Z7tracebrPv>
    20d6:	bd 05 00 00 00       	mov    ebp,0x5
    20db:	e9 82 00 00 00       	jmp    2162 <sgxsd_enclave_node_init_locked+0xa2>
    20e0:	48 89 fb             	mov    rbx,rdi
    20e3:	31 ff                	xor    edi,edi
    20e5:	e8 36 d1 00 00       	call   f220 <_Z7tracebrPv>
    20ea:	48 8d 3d af d3 00 00 	lea    rdi,[rip+0xd3af]        # f4a0 <sgx_is_outside_enclave>
    20f1:	e8 ba cd 00 00       	call   eeb0 <_Z10traceedgecPv>
    20f6:	31 ff                	xor    edi,edi
    20f8:	31 f6                	xor    esi,esi
    20fa:	e8 a1 d3 00 00       	call   f4a0 <sgx_is_outside_enclave>
    20ff:	83 f8 01             	cmp    eax,0x1
    2102:	75 4f                	jne    2153 <sgxsd_enclave_node_init_locked+0x93>
    2104:	31 ff                	xor    edi,edi
    2106:	e8 15 d1 00 00       	call   f220 <_Z7tracebrPv>
    210b:	48 8d 3d 8e d3 00 00 	lea    rdi,[rip+0xd38e]        # f4a0 <sgx_is_outside_enclave>
    2112:	e8 99 cd 00 00       	call   eeb0 <_Z10traceedgecPv>
    2117:	48 c7 c7 ff ff ff ff 	mov    rdi,0xffffffffffffffff
    211e:	31 f6                	xor    esi,esi
    2120:	e8 7b d3 00 00       	call   f4a0 <sgx_is_outside_enclave>
    2125:	83 f8 01             	cmp    eax,0x1
    2128:	75 29                	jne    2153 <sgxsd_enclave_node_init_locked+0x93>
    212a:	31 ff                	xor    edi,edi
    212c:	e8 ef d0 00 00       	call   f220 <_Z7tracebrPv>
    2131:	48 85 db             	test   rbx,rbx
    2134:	74 0c                	je     2142 <sgxsd_enclave_node_init_locked+0x82>
    2136:	31 ff                	xor    edi,edi
    2138:	e8 e3 d0 00 00       	call   f220 <_Z7tracebrPv>
    213d:	80 3b 40             	cmp    BYTE PTR [rbx],0x40
    2140:	72 33                	jb     2175 <sgxsd_enclave_node_init_locked+0xb5>
    2142:	bf 01 00 00 00       	mov    edi,0x1
    2147:	e8 d4 d0 00 00       	call   f220 <_Z7tracebrPv>
    214c:	bd 02 00 00 00       	mov    ebp,0x2
    2151:	eb 0f                	jmp    2162 <sgxsd_enclave_node_init_locked+0xa2>
    2153:	bd 01 00 00 00       	mov    ebp,0x1
    2158:	bf 01 00 00 00       	mov    edi,0x1
    215d:	e8 be d0 00 00       	call   f220 <_Z7tracebrPv>
    2162:	48 8b 7c 24 18       	mov    rdi,QWORD PTR [rsp+0x18]
    2167:	e8 44 cd 00 00       	call   eeb0 <_Z10traceedgecPv>
    216c:	89 e8                	mov    eax,ebp
    216e:	48 83 c4 08          	add    rsp,0x8
    2172:	5b                   	pop    rbx
    2173:	5d                   	pop    rbp
    2174:	c3                   	ret    
    2175:	31 ff                	xor    edi,edi
    2177:	e8 a4 d0 00 00       	call   f220 <_Z7tracebrPv>
    217c:	48 8d 3d dd 00 00 00 	lea    rdi,[rip+0xdd]        # 2260 <sgxsd_enclave_generate_curve25519_keypair>
    2183:	e8 28 cd 00 00       	call   eeb0 <_Z10traceedgecPv>
    2188:	48 8d 3d c1 61 23 00 	lea    rdi,[rip+0x2361c1]        # 238350 <g_sgxsd_enclave_dh_keypair>
    218f:	e8 cc 00 00 00       	call   2260 <sgxsd_enclave_generate_curve25519_keypair>
    2194:	85 c0                	test   eax,eax
    2196:	75 4b                	jne    21e3 <sgxsd_enclave_node_init_locked+0x123>
    2198:	31 ff                	xor    edi,edi
    219a:	e8 81 d0 00 00       	call   f220 <_Z7tracebrPv>
    219f:	48 8d 3d ba 00 00 00 	lea    rdi,[rip+0xba]        # 2260 <sgxsd_enclave_generate_curve25519_keypair>
    21a6:	e8 05 cd 00 00       	call   eeb0 <_Z10traceedgecPv>
    21ab:	48 8d 3d 06 62 23 00 	lea    rdi,[rip+0x236206]        # 2383b8 <g_sgxsd_enclave_new_dh_keypair>
    21b2:	e8 a9 00 00 00       	call   2260 <sgxsd_enclave_generate_curve25519_keypair>
    21b7:	85 c0                	test   eax,eax
    21b9:	75 28                	jne    21e3 <sgxsd_enclave_node_init_locked+0x123>
    21bb:	31 ff                	xor    edi,edi
    21bd:	e8 5e d0 00 00       	call   f220 <_Z7tracebrPv>
    21c2:	48 8d 3d 67 d4 00 00 	lea    rdi,[rip+0xd467]        # f630 <sgx_read_rand>
    21c9:	e8 e2 cc 00 00       	call   eeb0 <_Z10traceedgecPv>
    21ce:	48 8d 3d c3 61 23 00 	lea    rdi,[rip+0x2361c3]        # 238398 <g_sgxsd_enclave_pending_request_id_key>
    21d5:	be 20 00 00 00       	mov    esi,0x20
    21da:	e8 51 d4 00 00       	call   f630 <sgx_read_rand>
    21df:	85 c0                	test   eax,eax
    21e1:	74 07                	je     21ea <sgxsd_enclave_node_init_locked+0x12a>
    21e3:	89 c5                	mov    ebp,eax
    21e5:	e9 6e ff ff ff       	jmp    2158 <sgxsd_enclave_node_init_locked+0x98>
    21ea:	31 ed                	xor    ebp,ebp
    21ec:	31 ff                	xor    edi,edi
    21ee:	e8 2d d0 00 00       	call   f220 <_Z7tracebrPv>
    21f3:	8a 03                	mov    al,BYTE PTR [rbx]
    21f5:	88 05 29 62 23 00    	mov    BYTE PTR [rip+0x236229],al        # 238424 <g_sgxsd_enclave_pending_requests_table_order>
    21fb:	b9 01 00 00 00       	mov    ecx,0x1
    2200:	c4 e2 f9 f7 d9       	shlx   rbx,rcx,rax
    2205:	48 8d 3d 84 28 01 00 	lea    rdi,[rip+0x12884]        # 14a90 <calloc>
    220c:	e8 9f cc 00 00       	call   eeb0 <_Z10traceedgecPv>
    2211:	be 28 00 00 00       	mov    esi,0x28
    2216:	48 89 df             	mov    rdi,rbx
    2219:	e8 72 28 01 00       	call   14a90 <calloc>
    221e:	48 89 05 6b 61 23 00 	mov    QWORD PTR [rip+0x23616b],rax        # 238390 <g_sgxsd_enclave_pending_requests>
    2225:	48 85 c0             	test   rax,rax
    2228:	74 13                	je     223d <sgxsd_enclave_node_init_locked+0x17d>
    222a:	31 ff                	xor    edi,edi
    222c:	e8 ef cf 00 00       	call   f220 <_Z7tracebrPv>
    2231:	c6 05 28 5a 23 00 01 	mov    BYTE PTR [rip+0x235a28],0x1        # 237c60 <g_sgxsd_enclave_node_initialized>
    2238:	e9 25 ff ff ff       	jmp    2162 <sgxsd_enclave_node_init_locked+0xa2>
    223d:	bf 01 00 00 00       	mov    edi,0x1
    2242:	e8 d9 cf 00 00       	call   f220 <_Z7tracebrPv>
    2247:	bd 03 00 00 00       	mov    ebp,0x3
    224c:	e9 11 ff ff ff       	jmp    2162 <sgxsd_enclave_node_init_locked+0xa2>
    2251:	66 2e 0f 1f 84 00 00 	nop    WORD PTR cs:[rax+rax*1+0x0]
    2258:	00 00 00 
    225b:	0f 1f 44 00 00       	nop    DWORD PTR [rax+rax*1+0x0]

0000000000002260 <sgxsd_enclave_generate_curve25519_keypair>:
    2260:	55                   	push   rbp
    2261:	41 56                	push   r14
    2263:	53                   	push   rbx
    2264:	48 89 fb             	mov    rbx,rdi
    2267:	48 8d 3d e2 06 00 00 	lea    rdi,[rip+0x6e2]        # 2950 <sgxsd_enclave_generate_curve25519_privkey>
    226e:	e8 3d cc 00 00       	call   eeb0 <_Z10traceedgecPv>
    2273:	48 89 df             	mov    rdi,rbx
    2276:	e8 d5 06 00 00       	call   2950 <sgxsd_enclave_generate_curve25519_privkey>
    227b:	89 c5                	mov    ebp,eax
    227d:	85 c0                	test   eax,eax
    227f:	74 0c                	je     228d <sgxsd_enclave_generate_curve25519_keypair+0x2d>
    2281:	bf 01 00 00 00       	mov    edi,0x1
    2286:	e8 95 cf 00 00       	call   f220 <_Z7tracebrPv>
    228b:	eb 36                	jmp    22c3 <sgxsd_enclave_generate_curve25519_keypair+0x63>
    228d:	31 ff                	xor    edi,edi
    228f:	e8 8c cf 00 00       	call   f220 <_Z7tracebrPv>
    2294:	80 23 f8             	and    BYTE PTR [rbx],0xf8
    2297:	8a 43 1f             	mov    al,BYTE PTR [rbx+0x1f]
    229a:	24 3f                	and    al,0x3f
    229c:	0c 40                	or     al,0x40
    229e:	88 43 1f             	mov    BYTE PTR [rbx+0x1f],al
    22a1:	4c 8d 73 20          	lea    r14,[rbx+0x20]
    22a5:	48 8d 3d c4 42 00 00 	lea    rdi,[rip+0x42c4]        # 6570 <curve25519_donna>
    22ac:	e8 ff cb 00 00       	call   eeb0 <_Z10traceedgecPv>
    22b1:	48 8d 15 20 ec 02 00 	lea    rdx,[rip+0x2ec20]        # 30ed8 <sgxsd_enclave_generate_curve25519_keypair.BASEPOINT>
    22b8:	4c 89 f7             	mov    rdi,r14
    22bb:	48 89 de             	mov    rsi,rbx
    22be:	e8 ad 42 00 00       	call   6570 <curve25519_donna>
    22c3:	48 8b 7c 24 18       	mov    rdi,QWORD PTR [rsp+0x18]
    22c8:	e8 e3 cb 00 00       	call   eeb0 <_Z10traceedgecPv>
    22cd:	89 e8                	mov    eax,ebp
    22cf:	5b                   	pop    rbx
    22d0:	41 5e                	pop    r14
    22d2:	5d                   	pop    rbp
    22d3:	c3                   	ret    
    22d4:	66 2e 0f 1f 84 00 00 	nop    WORD PTR cs:[rax+rax*1+0x0]
    22db:	00 00 00 
    22de:	66 90                	xchg   ax,ax

00000000000022e0 <sgxsd_aes_gcm_run>:
    22e0:	55                   	push   rbp
    22e1:	41 57                	push   r15
    22e3:	41 56                	push   r14
    22e5:	41 55                	push   r13
    22e7:	41 54                	push   r12
    22e9:	53                   	push   rbx
    22ea:	48 81 ec 78 01 00 00 	sub    rsp,0x178
    22f1:	64 48 8b 04 25 28 00 	mov    rax,QWORD PTR fs:0x28
    22f8:	00 00 
    22fa:	48 89 84 24 70 01 00 	mov    QWORD PTR [rsp+0x170],rax
    2301:	00 
    2302:	48 85 f6             	test   rsi,rsi
    2305:	0f 84 0c 02 00 00    	je     2517 <sgxsd_aes_gcm_run+0x237>
    230b:	4c 89 cd             	mov    rbp,r9
    230e:	4d 89 c6             	mov    r14,r8
    2311:	41 89 cd             	mov    r13d,ecx
    2314:	48 89 d3             	mov    rbx,rdx
    2317:	49 89 f4             	mov    r12,rsi
    231a:	41 89 ff             	mov    r15d,edi
    231d:	31 ff                	xor    edi,edi
    231f:	e8 fc ce 00 00       	call   f220 <_Z7tracebrPv>
    2324:	48 85 db             	test   rbx,rbx
    2327:	74 0c                	je     2335 <sgxsd_aes_gcm_run+0x55>
    2329:	31 ff                	xor    edi,edi
    232b:	e8 f0 ce 00 00       	call   f220 <_Z7tracebrPv>
    2330:	4d 85 f6             	test   r14,r14
    2333:	75 13                	jne    2348 <sgxsd_aes_gcm_run+0x68>
    2335:	bf 01 00 00 00       	mov    edi,0x1
    233a:	e8 e1 ce 00 00       	call   f220 <_Z7tracebrPv>
    233f:	45 85 ed             	test   r13d,r13d
    2342:	0f 85 cf 01 00 00    	jne    2517 <sgxsd_aes_gcm_run+0x237>
    2348:	31 ff                	xor    edi,edi
    234a:	e8 d1 ce 00 00       	call   f220 <_Z7tracebrPv>
    234f:	48 85 ed             	test   rbp,rbp
    2352:	0f 84 bf 01 00 00    	je     2517 <sgxsd_aes_gcm_run+0x237>
    2358:	31 ff                	xor    edi,edi
    235a:	e8 c1 ce 00 00       	call   f220 <_Z7tracebrPv>
    235f:	48 83 bc 24 b0 01 00 	cmp    QWORD PTR [rsp+0x1b0],0x0
    2366:	00 00 
    2368:	0f 84 91 01 00 00    	je     24ff <sgxsd_aes_gcm_run+0x21f>
    236e:	31 ff                	xor    edi,edi
    2370:	e8 ab ce 00 00       	call   f220 <_Z7tracebrPv>
    2375:	48 83 bc 24 c0 01 00 	cmp    QWORD PTR [rsp+0x1c0],0x0
    237c:	00 00 
    237e:	0f 84 93 01 00 00    	je     2517 <sgxsd_aes_gcm_run+0x237>
    2384:	31 ff                	xor    edi,edi
    2386:	e8 95 ce 00 00       	call   f220 <_Z7tracebrPv>
    238b:	48 8d 3d 4e 29 00 00 	lea    rdi,[rip+0x294e]        # 4ce0 <br_aes_x86ni_ctr_init>
    2392:	e8 19 cb 00 00       	call   eeb0 <_Z10traceedgecPv>
    2397:	48 8d 7c 24 70       	lea    rdi,[rsp+0x70]
    239c:	ba 20 00 00 00       	mov    edx,0x20
    23a1:	4c 89 e6             	mov    rsi,r12
    23a4:	e8 37 29 00 00       	call   4ce0 <br_aes_x86ni_ctr_init>
    23a9:	48 8d 3d 40 37 00 00 	lea    rdi,[rip+0x3740]        # 5af0 <br_gcm_init>
    23b0:	e8 fb ca 00 00       	call   eeb0 <_Z10traceedgecPv>
    23b5:	48 8d 15 c4 1a 00 00 	lea    rdx,[rip+0x1ac4]        # 3e80 <br_ghash_pclmul>
    23bc:	49 89 e4             	mov    r12,rsp
    23bf:	4c 89 e7             	mov    rdi,r12
    23c2:	48 8d 74 24 70       	lea    rsi,[rsp+0x70]
    23c7:	e8 24 37 00 00       	call   5af0 <br_gcm_init>
    23cc:	48 8d 3d ad 37 00 00 	lea    rdi,[rip+0x37ad]        # 5b80 <br_gcm_reset>
    23d3:	e8 d8 ca 00 00       	call   eeb0 <_Z10traceedgecPv>
    23d8:	ba 0c 00 00 00       	mov    edx,0xc
    23dd:	4c 89 e7             	mov    rdi,r12
    23e0:	48 89 ee             	mov    rsi,rbp
    23e3:	e8 98 37 00 00       	call   5b80 <br_gcm_reset>
    23e8:	8b ac 24 b8 01 00 00 	mov    ebp,DWORD PTR [rsp+0x1b8]
    23ef:	85 ed                	test   ebp,ebp
    23f1:	74 2b                	je     241e <sgxsd_aes_gcm_run+0x13e>
    23f3:	bf 01 00 00 00       	mov    edi,0x1
    23f8:	e8 23 ce 00 00       	call   f220 <_Z7tracebrPv>
    23fd:	89 ed                	mov    ebp,ebp
    23ff:	48 8d 3d da 38 00 00 	lea    rdi,[rip+0x38da]        # 5ce0 <br_gcm_aad_inject>
    2406:	e8 a5 ca 00 00       	call   eeb0 <_Z10traceedgecPv>
    240b:	48 89 e7             	mov    rdi,rsp
    240e:	48 8b b4 24 b0 01 00 	mov    rsi,QWORD PTR [rsp+0x1b0]
    2415:	00 
    2416:	48 89 ea             	mov    rdx,rbp
    2419:	e8 c2 38 00 00       	call   5ce0 <br_gcm_aad_inject>
    241e:	31 ff                	xor    edi,edi
    2420:	e8 fb cd 00 00       	call   f220 <_Z7tracebrPv>
    2425:	48 8d 3d e4 39 00 00 	lea    rdi,[rip+0x39e4]        # 5e10 <br_gcm_flip>
    242c:	e8 7f ca 00 00       	call   eeb0 <_Z10traceedgecPv>
    2431:	48 89 e7             	mov    rdi,rsp
    2434:	e8 d7 39 00 00       	call   5e10 <br_gcm_flip>
    2439:	45 85 ed             	test   r13d,r13d
    243c:	74 3b                	je     2479 <sgxsd_aes_gcm_run+0x199>
    243e:	bf 01 00 00 00       	mov    edi,0x1
    2443:	e8 d8 cd 00 00       	call   f220 <_Z7tracebrPv>
    2448:	44 89 ed             	mov    ebp,r13d
    244b:	4c 89 f7             	mov    rdi,r14
    244e:	48 89 de             	mov    rsi,rbx
    2451:	48 89 ea             	mov    rdx,rbp
    2454:	e8 07 2a 01 00       	call   14e60 <memmove>
    2459:	41 0f b6 df          	movzx  ebx,r15b
    245d:	48 8d 3d 1c 3a 00 00 	lea    rdi,[rip+0x3a1c]        # 5e80 <br_gcm_run>
    2464:	e8 47 ca 00 00       	call   eeb0 <_Z10traceedgecPv>
    2469:	48 89 e7             	mov    rdi,rsp
    246c:	89 de                	mov    esi,ebx
    246e:	4c 89 f2             	mov    rdx,r14
    2471:	48 89 e9             	mov    rcx,rbp
    2474:	e8 07 3a 00 00       	call   5e80 <br_gcm_run>
    2479:	31 db                	xor    ebx,ebx
    247b:	31 ff                	xor    edi,edi
    247d:	e8 9e cd 00 00       	call   f220 <_Z7tracebrPv>
    2482:	45 84 ff             	test   r15b,r15b
    2485:	0f 84 d3 00 00 00    	je     255e <sgxsd_aes_gcm_run+0x27e>
    248b:	bf 01 00 00 00       	mov    edi,0x1
    2490:	e8 8b cd 00 00       	call   f220 <_Z7tracebrPv>
    2495:	48 8d 3d 24 3d 00 00 	lea    rdi,[rip+0x3d24]        # 61c0 <br_gcm_get_tag>
    249c:	e8 0f ca 00 00       	call   eeb0 <_Z10traceedgecPv>
    24a1:	49 89 e6             	mov    r14,rsp
    24a4:	4c 89 f7             	mov    rdi,r14
    24a7:	48 8b b4 24 c0 01 00 	mov    rsi,QWORD PTR [rsp+0x1c0]
    24ae:	00 
    24af:	e8 0c 3d 00 00       	call   61c0 <br_gcm_get_tag>
    24b4:	48 8d 2d b5 2b 01 00 	lea    rbp,[rip+0x12bb5]        # 15070 <memset_s>
    24bb:	48 89 ef             	mov    rdi,rbp
    24be:	e8 ed c9 00 00       	call   eeb0 <_Z10traceedgecPv>
    24c3:	48 8d 7c 24 70       	lea    rdi,[rsp+0x70]
    24c8:	31 db                	xor    ebx,ebx
    24ca:	be 00 01 00 00       	mov    esi,0x100
    24cf:	b9 00 01 00 00       	mov    ecx,0x100
    24d4:	31 d2                	xor    edx,edx
    24d6:	e8 95 2b 01 00       	call   15070 <memset_s>
    24db:	48 89 ef             	mov    rdi,rbp
    24de:	e8 cd c9 00 00       	call   eeb0 <_Z10traceedgecPv>
    24e3:	be 70 00 00 00       	mov    esi,0x70
    24e8:	b9 70 00 00 00       	mov    ecx,0x70
    24ed:	4c 89 f7             	mov    rdi,r14
    24f0:	31 d2                	xor    edx,edx
    24f2:	e8 79 2b 01 00       	call   15070 <memset_s>
    24f7:	40 b5 01             	mov    bpl,0x1
    24fa:	e9 0f 01 00 00       	jmp    260e <sgxsd_aes_gcm_run+0x32e>
    24ff:	bf 01 00 00 00       	mov    edi,0x1
    2504:	e8 17 cd 00 00       	call   f220 <_Z7tracebrPv>
    2509:	83 bc 24 b8 01 00 00 	cmp    DWORD PTR [rsp+0x1b8],0x0
    2510:	00 
    2511:	0f 84 57 fe ff ff    	je     236e <sgxsd_aes_gcm_run+0x8e>
    2517:	bf 01 00 00 00       	mov    edi,0x1
    251c:	e8 ff cc 00 00       	call   f220 <_Z7tracebrPv>
    2521:	bb 02 00 00 00       	mov    ebx,0x2
    2526:	48 8b bc 24 a8 01 00 	mov    rdi,QWORD PTR [rsp+0x1a8]
    252d:	00 
    252e:	e8 7d c9 00 00       	call   eeb0 <_Z10traceedgecPv>
    2533:	64 48 8b 04 25 28 00 	mov    rax,QWORD PTR fs:0x28
    253a:	00 00 
    253c:	48 3b 84 24 70 01 00 	cmp    rax,QWORD PTR [rsp+0x170]
    2543:	00 
    2544:	0f 85 d2 00 00 00    	jne    261c <sgxsd_aes_gcm_run+0x33c>
    254a:	89 d8                	mov    eax,ebx
    254c:	48 81 c4 78 01 00 00 	add    rsp,0x178
    2553:	5b                   	pop    rbx
    2554:	41 5c                	pop    r12
    2556:	41 5d                	pop    r13
    2558:	41 5e                	pop    r14
    255a:	41 5f                	pop    r15
    255c:	5d                   	pop    rbp
    255d:	c3                   	ret    
    255e:	31 ff                	xor    edi,edi
    2560:	e8 bb cc 00 00       	call   f220 <_Z7tracebrPv>
    2565:	48 8d 3d 04 3e 00 00 	lea    rdi,[rip+0x3e04]        # 6370 <br_gcm_check_tag>
    256c:	e8 3f c9 00 00       	call   eeb0 <_Z10traceedgecPv>
    2571:	49 89 e7             	mov    r15,rsp
    2574:	4c 89 ff             	mov    rdi,r15
    2577:	48 8b b4 24 c0 01 00 	mov    rsi,QWORD PTR [rsp+0x1c0]
    257e:	00 
    257f:	e8 ec 3d 00 00       	call   6370 <br_gcm_check_tag>
    2584:	41 89 c4             	mov    r12d,eax
    2587:	48 8d 2d e2 2a 01 00 	lea    rbp,[rip+0x12ae2]        # 15070 <memset_s>
    258e:	48 89 ef             	mov    rdi,rbp
    2591:	e8 1a c9 00 00       	call   eeb0 <_Z10traceedgecPv>
    2596:	48 8d 7c 24 70       	lea    rdi,[rsp+0x70]
    259b:	be 00 01 00 00       	mov    esi,0x100
    25a0:	b9 00 01 00 00       	mov    ecx,0x100
    25a5:	31 d2                	xor    edx,edx
    25a7:	e8 c4 2a 01 00       	call   15070 <memset_s>
    25ac:	48 89 ef             	mov    rdi,rbp
    25af:	e8 fc c8 00 00       	call   eeb0 <_Z10traceedgecPv>
    25b4:	be 70 00 00 00       	mov    esi,0x70
    25b9:	b9 70 00 00 00       	mov    ecx,0x70
    25be:	4c 89 ff             	mov    rdi,r15
    25c1:	31 d2                	xor    edx,edx
    25c3:	e8 a8 2a 01 00       	call   15070 <memset_s>
    25c8:	40 b5 01             	mov    bpl,0x1
    25cb:	45 85 e4             	test   r12d,r12d
    25ce:	75 3e                	jne    260e <sgxsd_aes_gcm_run+0x32e>
    25d0:	31 ed                	xor    ebp,ebp
    25d2:	31 ff                	xor    edi,edi
    25d4:	e8 47 cc 00 00       	call   f220 <_Z7tracebrPv>
    25d9:	bb 01 30 00 00       	mov    ebx,0x3001
    25de:	4d 85 f6             	test   r14,r14
    25e1:	74 2b                	je     260e <sgxsd_aes_gcm_run+0x32e>
    25e3:	bf 01 00 00 00       	mov    edi,0x1
    25e8:	e8 33 cc 00 00       	call   f220 <_Z7tracebrPv>
    25ed:	45 89 ef             	mov    r15d,r13d
    25f0:	48 8d 3d 79 2a 01 00 	lea    rdi,[rip+0x12a79]        # 15070 <memset_s>
    25f7:	e8 b4 c8 00 00       	call   eeb0 <_Z10traceedgecPv>
    25fc:	31 ed                	xor    ebp,ebp
    25fe:	4c 89 f7             	mov    rdi,r14
    2601:	4c 89 fe             	mov    rsi,r15
    2604:	31 d2                	xor    edx,edx
    2606:	4c 89 f9             	mov    rcx,r15
    2609:	e8 62 2a 01 00       	call   15070 <memset_s>
    260e:	40 0f b6 fd          	movzx  edi,bpl
    2612:	e8 09 cc 00 00       	call   f220 <_Z7tracebrPv>
    2617:	e9 0a ff ff ff       	jmp    2526 <sgxsd_aes_gcm_run+0x246>
    261c:	e8 af f8 00 00       	call   11ed0 <__stack_chk_fail>
    2621:	66 2e 0f 1f 84 00 00 	nop    WORD PTR cs:[rax+rax*1+0x0]
    2628:	00 00 00 
    262b:	0f 1f 44 00 00       	nop    DWORD PTR [rax+rax*1+0x0]

0000000000002630 <sgxsd_enclave_sha256>:
    2630:	55                   	push   rbp
    2631:	41 57                	push   r15
    2633:	41 56                	push   r14
    2635:	41 55                	push   r13
    2637:	41 54                	push   r12
    2639:	53                   	push   rbx
    263a:	48 81 ec 88 00 00 00 	sub    rsp,0x88
    2641:	49 89 d5             	mov    r13,rdx
    2644:	89 f5                	mov    ebp,esi
    2646:	48 89 7c 24 08       	mov    QWORD PTR [rsp+0x8],rdi
    264b:	64 48 8b 04 25 28 00 	mov    rax,QWORD PTR fs:0x28
    2652:	00 00 
    2654:	48 89 84 24 80 00 00 	mov    QWORD PTR [rsp+0x80],rax
    265b:	00 
    265c:	48 8d 3d 1d 34 00 00 	lea    rdi,[rip+0x341d]        # 5a80 <br_sha256_init>
    2663:	e8 48 c8 00 00       	call   eeb0 <_Z10traceedgecPv>
    2668:	48 8d 7c 24 10       	lea    rdi,[rsp+0x10]
    266d:	e8 0e 34 00 00       	call   5a80 <br_sha256_init>
    2672:	85 ed                	test   ebp,ebp
    2674:	74 51                	je     26c7 <sgxsd_enclave_sha256+0x97>
    2676:	41 89 ee             	mov    r14d,ebp
    2679:	49 c1 e6 04          	shl    r14,0x4
    267d:	45 31 ff             	xor    r15d,r15d
    2680:	4c 8d 64 24 10       	lea    r12,[rsp+0x10]
    2685:	66 2e 0f 1f 84 00 00 	nop    WORD PTR cs:[rax+rax*1+0x0]
    268c:	00 00 00 
    268f:	90                   	nop
    2690:	bf 01 00 00 00       	mov    edi,0x1
    2695:	e8 86 cb 00 00       	call   f220 <_Z7tracebrPv>
    269a:	4b 8b 6c 3d 00       	mov    rbp,QWORD PTR [r13+r15*1+0x0]
    269f:	43 8b 5c 3d 08       	mov    ebx,DWORD PTR [r13+r15*1+0x8]
    26a4:	48 8d 3d 65 30 00 00 	lea    rdi,[rip+0x3065]        # 5710 <br_sha224_update>
    26ab:	e8 00 c8 00 00       	call   eeb0 <_Z10traceedgecPv>
    26b0:	4c 89 e7             	mov    rdi,r12
    26b3:	48 89 ee             	mov    rsi,rbp
    26b6:	48 89 da             	mov    rdx,rbx
    26b9:	e8 52 30 00 00       	call   5710 <br_sha224_update>
    26be:	49 83 c7 10          	add    r15,0x10
    26c2:	4d 39 fe             	cmp    r14,r15
    26c5:	75 c9                	jne    2690 <sgxsd_enclave_sha256+0x60>
    26c7:	31 ff                	xor    edi,edi
    26c9:	e8 52 cb 00 00       	call   f220 <_Z7tracebrPv>
    26ce:	48 8d 3d db 33 00 00 	lea    rdi,[rip+0x33db]        # 5ab0 <br_sha256_out>
    26d5:	e8 d6 c7 00 00       	call   eeb0 <_Z10traceedgecPv>
    26da:	48 8d 5c 24 10       	lea    rbx,[rsp+0x10]
    26df:	48 89 df             	mov    rdi,rbx
    26e2:	48 8b 74 24 08       	mov    rsi,QWORD PTR [rsp+0x8]
    26e7:	e8 c4 33 00 00       	call   5ab0 <br_sha256_out>
    26ec:	48 8d 3d 7d 29 01 00 	lea    rdi,[rip+0x1297d]        # 15070 <memset_s>
    26f3:	e8 b8 c7 00 00       	call   eeb0 <_Z10traceedgecPv>
    26f8:	be 70 00 00 00       	mov    esi,0x70
    26fd:	b9 70 00 00 00       	mov    ecx,0x70
    2702:	48 89 df             	mov    rdi,rbx
    2705:	31 d2                	xor    edx,edx
    2707:	e8 64 29 01 00       	call   15070 <memset_s>
    270c:	48 8b bc 24 b8 00 00 	mov    rdi,QWORD PTR [rsp+0xb8]
    2713:	00 
    2714:	e8 97 c7 00 00       	call   eeb0 <_Z10traceedgecPv>
    2719:	64 48 8b 04 25 28 00 	mov    rax,QWORD PTR fs:0x28
    2720:	00 00 
    2722:	48 3b 84 24 80 00 00 	cmp    rax,QWORD PTR [rsp+0x80]
    2729:	00 
    272a:	75 12                	jne    273e <sgxsd_enclave_sha256+0x10e>
    272c:	48 81 c4 88 00 00 00 	add    rsp,0x88
    2733:	5b                   	pop    rbx
    2734:	41 5c                	pop    r12
    2736:	41 5d                	pop    r13
    2738:	41 5e                	pop    r14
    273a:	41 5f                	pop    r15
    273c:	5d                   	pop    rbp
    273d:	c3                   	ret    
    273e:	e8 8d f7 00 00       	call   11ed0 <__stack_chk_fail>
    2743:	66 2e 0f 1f 84 00 00 	nop    WORD PTR cs:[rax+rax*1+0x0]
    274a:	00 00 00 
    274d:	0f 1f 00             	nop    DWORD PTR [rax]

0000000000002750 <sgxsd_enclave_hmac_sha256>:
    2750:	55                   	push   rbp
    2751:	41 57                	push   r15
    2753:	41 56                	push   r14
    2755:	41 55                	push   r13
    2757:	41 54                	push   r12
    2759:	53                   	push   rbx
    275a:	48 81 ec c8 00 00 00 	sub    rsp,0xc8
    2761:	48 89 d3             	mov    rbx,rdx
    2764:	41 89 f5             	mov    r13d,esi
    2767:	49 89 fc             	mov    r12,rdi
    276a:	64 48 8b 04 25 28 00 	mov    rax,QWORD PTR fs:0x28
    2771:	00 00 
    2773:	48 89 84 24 c0 00 00 	mov    QWORD PTR [rsp+0xc0],rax
    277a:	00 
    277b:	48 8d 2d ee 28 01 00 	lea    rbp,[rip+0x128ee]        # 15070 <memset_s>
    2782:	48 89 ef             	mov    rdi,rbp
    2785:	e8 26 c7 00 00       	call   eeb0 <_Z10traceedgecPv>
    278a:	4c 8d bc 24 80 00 00 	lea    r15,[rsp+0x80]
    2791:	00 
    2792:	be 40 00 00 00       	mov    esi,0x40
    2797:	b9 40 00 00 00       	mov    ecx,0x40
    279c:	4c 89 ff             	mov    rdi,r15
    279f:	ba 36 00 00 00       	mov    edx,0x36
    27a4:	e8 c7 28 01 00       	call   15070 <memset_s>
    27a9:	48 89 ef             	mov    rdi,rbp
    27ac:	e8 ff c6 00 00       	call   eeb0 <_Z10traceedgecPv>
    27b1:	48 8d 7c 24 40       	lea    rdi,[rsp+0x40]
    27b6:	be 40 00 00 00       	mov    esi,0x40
    27bb:	b9 40 00 00 00       	mov    ecx,0x40
    27c0:	ba 5c 00 00 00       	mov    edx,0x5c
    27c5:	e8 a6 28 01 00       	call   15070 <memset_s>
    27ca:	83 7b 08 41          	cmp    DWORD PTR [rbx+0x8],0x41
    27ce:	72 35                	jb     2805 <sgxsd_enclave_hmac_sha256+0xb5>
    27d0:	bf 01 00 00 00       	mov    edi,0x1
    27d5:	e8 46 ca 00 00       	call   f220 <_Z7tracebrPv>
    27da:	48 8d 3d 4f fe ff ff 	lea    rdi,[rip+0xfffffffffffffe4f]        # 2630 <sgxsd_enclave_sha256>
    27e1:	e8 ca c6 00 00       	call   eeb0 <_Z10traceedgecPv>
    27e6:	48 8d 6c 24 20       	lea    rbp,[rsp+0x20]
    27eb:	48 89 ef             	mov    rdi,rbp
    27ee:	be 01 00 00 00       	mov    esi,0x1
    27f3:	48 89 da             	mov    rdx,rbx
    27f6:	e8 35 fe ff ff       	call   2630 <sgxsd_enclave_sha256>
    27fb:	48 89 2b             	mov    QWORD PTR [rbx],rbp
    27fe:	c7 43 08 20 00 00 00 	mov    DWORD PTR [rbx+0x8],0x20
    2805:	31 ff                	xor    edi,edi
    2807:	e8 14 ca 00 00       	call   f220 <_Z7tracebrPv>
    280c:	83 7b 08 00          	cmp    DWORD PTR [rbx+0x8],0x0
    2810:	74 39                	je     284b <sgxsd_enclave_hmac_sha256+0xfb>
    2812:	31 ed                	xor    ebp,ebp
    2814:	66 2e 0f 1f 84 00 00 	nop    WORD PTR cs:[rax+rax*1+0x0]
    281b:	00 00 00 
    281e:	66 90                	xchg   ax,ax
    2820:	bf 01 00 00 00       	mov    edi,0x1
    2825:	e8 f6 c9 00 00       	call   f220 <_Z7tracebrPv>
    282a:	48 8b 03             	mov    rax,QWORD PTR [rbx]
    282d:	0f b6 0c 28          	movzx  ecx,BYTE PTR [rax+rbp*1]
    2831:	30 8c 2c 80 00 00 00 	xor    BYTE PTR [rsp+rbp*1+0x80],cl
    2838:	0f b6 04 28          	movzx  eax,BYTE PTR [rax+rbp*1]
    283c:	30 44 2c 40          	xor    BYTE PTR [rsp+rbp*1+0x40],al
    2840:	48 ff c5             	inc    rbp
    2843:	8b 43 08             	mov    eax,DWORD PTR [rbx+0x8]
    2846:	48 39 c5             	cmp    rbp,rax
    2849:	72 d5                	jb     2820 <sgxsd_enclave_hmac_sha256+0xd0>
    284b:	31 ff                	xor    edi,edi
    284d:	e8 ce c9 00 00       	call   f220 <_Z7tracebrPv>
    2852:	48 8d 2d 17 28 01 00 	lea    rbp,[rip+0x12817]        # 15070 <memset_s>
    2859:	48 89 ef             	mov    rdi,rbp
    285c:	e8 4f c6 00 00       	call   eeb0 <_Z10traceedgecPv>
    2861:	48 8d 7c 24 20       	lea    rdi,[rsp+0x20]
    2866:	be 20 00 00 00       	mov    esi,0x20
    286b:	b9 20 00 00 00       	mov    ecx,0x20
    2870:	31 d2                	xor    edx,edx
    2872:	e8 f9 27 01 00       	call   15070 <memset_s>
    2877:	4c 89 3b             	mov    QWORD PTR [rbx],r15
    287a:	c7 43 08 40 00 00 00 	mov    DWORD PTR [rbx+0x8],0x40
    2881:	4c 8d 35 a8 fd ff ff 	lea    r14,[rip+0xfffffffffffffda8]        # 2630 <sgxsd_enclave_sha256>
    2888:	4c 89 f7             	mov    rdi,r14
    288b:	e8 20 c6 00 00       	call   eeb0 <_Z10traceedgecPv>
    2890:	4c 89 e7             	mov    rdi,r12
    2893:	44 89 ee             	mov    esi,r13d
    2896:	48 89 da             	mov    rdx,rbx
    2899:	e8 92 fd ff ff       	call   2630 <sgxsd_enclave_sha256>
    289e:	48 8d 5c 24 40       	lea    rbx,[rsp+0x40]
    28a3:	48 89 1c 24          	mov    QWORD PTR [rsp],rbx
    28a7:	c7 44 24 08 40 00 00 	mov    DWORD PTR [rsp+0x8],0x40
    28ae:	00 
    28af:	4c 89 64 24 10       	mov    QWORD PTR [rsp+0x10],r12
    28b4:	c7 44 24 18 20 00 00 	mov    DWORD PTR [rsp+0x18],0x20
    28bb:	00 
    28bc:	4c 89 f7             	mov    rdi,r14
    28bf:	e8 ec c5 00 00       	call   eeb0 <_Z10traceedgecPv>
    28c4:	48 89 e2             	mov    rdx,rsp
    28c7:	4c 89 e7             	mov    rdi,r12
    28ca:	be 02 00 00 00       	mov    esi,0x2
    28cf:	e8 5c fd ff ff       	call   2630 <sgxsd_enclave_sha256>
    28d4:	48 89 ef             	mov    rdi,rbp
    28d7:	e8 d4 c5 00 00       	call   eeb0 <_Z10traceedgecPv>
    28dc:	be 40 00 00 00       	mov    esi,0x40
    28e1:	b9 40 00 00 00       	mov    ecx,0x40
    28e6:	4c 89 ff             	mov    rdi,r15
    28e9:	31 d2                	xor    edx,edx
    28eb:	e8 80 27 01 00       	call   15070 <memset_s>
    28f0:	48 89 ef             	mov    rdi,rbp
    28f3:	e8 b8 c5 00 00       	call   eeb0 <_Z10traceedgecPv>
    28f8:	be 40 00 00 00       	mov    esi,0x40
    28fd:	b9 40 00 00 00       	mov    ecx,0x40
    2902:	48 89 df             	mov    rdi,rbx
    2905:	31 d2                	xor    edx,edx
    2907:	e8 64 27 01 00       	call   15070 <memset_s>
    290c:	48 8b bc 24 f8 00 00 	mov    rdi,QWORD PTR [rsp+0xf8]
    2913:	00 
    2914:	e8 97 c5 00 00       	call   eeb0 <_Z10traceedgecPv>
    2919:	64 48 8b 04 25 28 00 	mov    rax,QWORD PTR fs:0x28
    2920:	00 00 
    2922:	48 3b 84 24 c0 00 00 	cmp    rax,QWORD PTR [rsp+0xc0]
    2929:	00 
    292a:	75 12                	jne    293e <sgxsd_enclave_hmac_sha256+0x1ee>
    292c:	48 81 c4 c8 00 00 00 	add    rsp,0xc8
    2933:	5b                   	pop    rbx
    2934:	41 5c                	pop    r12
    2936:	41 5d                	pop    r13
    2938:	41 5e                	pop    r14
    293a:	41 5f                	pop    r15
    293c:	5d                   	pop    rbp
    293d:	c3                   	ret    
    293e:	e8 8d f5 00 00       	call   11ed0 <__stack_chk_fail>
    2943:	66 2e 0f 1f 84 00 00 	nop    WORD PTR cs:[rax+rax*1+0x0]
    294a:	00 00 00 
    294d:	0f 1f 00             	nop    DWORD PTR [rax]

0000000000002950 <sgxsd_enclave_generate_curve25519_privkey>:
    2950:	55                   	push   rbp
    2951:	48 89 e5             	mov    rbp,rsp
    2954:	41 57                	push   r15
    2956:	41 56                	push   r14
    2958:	41 55                	push   r13
    295a:	41 54                	push   r12
    295c:	53                   	push   rbx
    295d:	48 83 e4 e0          	and    rsp,0xffffffffffffffe0
    2961:	48 81 ec c0 00 00 00 	sub    rsp,0xc0
    2968:	48 89 fb             	mov    rbx,rdi
    296b:	64 48 8b 04 25 28 00 	mov    rax,QWORD PTR fs:0x28
    2972:	00 00 
    2974:	48 89 84 24 a0 00 00 	mov    QWORD PTR [rsp+0xa0],rax
    297b:	00 
    297c:	48 8d 3d ad cc 00 00 	lea    rdi,[rip+0xccad]        # f630 <sgx_read_rand>
    2983:	e8 28 c5 00 00       	call   eeb0 <_Z10traceedgecPv>
    2988:	be 20 00 00 00       	mov    esi,0x20
    298d:	48 89 df             	mov    rdi,rbx
    2990:	e8 9b cc 00 00       	call   f630 <sgx_read_rand>
    2995:	41 89 c6             	mov    r14d,eax
    2998:	85 c0                	test   eax,eax
    299a:	74 0f                	je     29ab <sgxsd_enclave_generate_curve25519_privkey+0x5b>
    299c:	bf 01 00 00 00       	mov    edi,0x1
    29a1:	e8 7a c8 00 00       	call   f220 <_Z7tracebrPv>
    29a6:	e9 a2 01 00 00       	jmp    2b4d <sgxsd_enclave_generate_curve25519_privkey+0x1fd>
    29ab:	31 ff                	xor    edi,edi
    29ad:	e8 6e c8 00 00       	call   f220 <_Z7tracebrPv>
    29b2:	48 8d 3d 17 2a 01 00 	lea    rdi,[rip+0x12a17]        # 153d0 <sgx_spin_lock>
    29b9:	e8 f2 c4 00 00       	call   eeb0 <_Z10traceedgecPv>
    29be:	48 8d 3d 3b 5a 23 00 	lea    rdi,[rip+0x235a3b]        # 238400 <g_sgxsd_enclave_read_rand_lock>
    29c5:	e8 06 2a 01 00       	call   153d0 <sgx_spin_lock>
    29ca:	0f ae e8             	lfence 
    29cd:	48 8d 05 30 5a 23 00 	lea    rax,[rip+0x235a30]        # 238404 <g_sgxsd_enclave_read_rand_state>
    29d4:	48 89 44 24 20       	mov    QWORD PTR [rsp+0x20],rax
    29d9:	c7 44 24 28 20 00 00 	mov    DWORD PTR [rsp+0x28],0x20
    29e0:	00 
    29e1:	48 89 5c 24 30       	mov    QWORD PTR [rsp+0x30],rbx
    29e6:	c7 44 24 38 20 00 00 	mov    DWORD PTR [rsp+0x38],0x20
    29ed:	00 
    29ee:	4c 8d 25 5b fd ff ff 	lea    r12,[rip+0xfffffffffffffd5b]        # 2750 <sgxsd_enclave_hmac_sha256>
    29f5:	4c 89 e7             	mov    rdi,r12
    29f8:	e8 b3 c4 00 00       	call   eeb0 <_Z10traceedgecPv>
    29fd:	48 8d bc 24 80 00 00 	lea    rdi,[rsp+0x80]
    2a04:	00 
    2a05:	48 8d 54 24 20       	lea    rdx,[rsp+0x20]
    2a0a:	49 89 ff             	mov    r15,rdi
    2a0d:	be 02 00 00 00       	mov    esi,0x2
    2a12:	e8 39 fd ff ff       	call   2750 <sgxsd_enclave_hmac_sha256>
    2a17:	c5 f8 57 c0          	vxorps xmm0,xmm0,xmm0
    2a1b:	c5 fc 29 44 24 40    	vmovaps YMMWORD PTR [rsp+0x40],ymm0
    2a21:	4c 8d 6c 24 60       	lea    r13,[rsp+0x60]
    2a26:	c6 44 24 60 01       	mov    BYTE PTR [rsp+0x60],0x1
    2a2b:	bf 01 00 00 00       	mov    edi,0x1
    2a30:	c5 f8 77             	vzeroupper 
    2a33:	e8 e8 c7 00 00       	call   f220 <_Z7tracebrPv>
    2a38:	4c 89 3c 24          	mov    QWORD PTR [rsp],r15
    2a3c:	c7 44 24 08 20 00 00 	mov    DWORD PTR [rsp+0x8],0x20
    2a43:	00 
    2a44:	4c 89 6c 24 10       	mov    QWORD PTR [rsp+0x10],r13
    2a49:	c7 44 24 18 01 00 00 	mov    DWORD PTR [rsp+0x18],0x1
    2a50:	00 
    2a51:	4c 89 e7             	mov    rdi,r12
    2a54:	e8 57 c4 00 00       	call   eeb0 <_Z10traceedgecPv>
    2a59:	4c 8d 64 24 40       	lea    r12,[rsp+0x40]
    2a5e:	48 89 e2             	mov    rdx,rsp
    2a61:	4c 89 e7             	mov    rdi,r12
    2a64:	be 02 00 00 00       	mov    esi,0x2
    2a69:	e8 e2 fc ff ff       	call   2750 <sgxsd_enclave_hmac_sha256>
    2a6e:	c5 fc 28 44 24 40    	vmovaps ymm0,YMMWORD PTR [rsp+0x40]
    2a74:	c5 fc 11 05 88 59 23 	vmovups YMMWORD PTR [rip+0x235988],ymm0        # 238404 <g_sgxsd_enclave_read_rand_state>
    2a7b:	00 
    2a7c:	8a 44 24 60          	mov    al,BYTE PTR [rsp+0x60]
    2a80:	8d 48 01             	lea    ecx,[rax+0x1]
    2a83:	88 4c 24 60          	mov    BYTE PTR [rsp+0x60],cl
    2a87:	31 ff                	xor    edi,edi
    2a89:	45 31 ff             	xor    r15d,r15d
    2a8c:	84 c0                	test   al,al
    2a8e:	40 0f 94 c7          	sete   dil
    2a92:	41 0f 95 c7          	setne  r15b
    2a96:	4d 0f 45 ec          	cmovne r13,r12
    2a9a:	41 c1 e7 05          	shl    r15d,0x5
    2a9e:	41 83 cf 01          	or     r15d,0x1
    2aa2:	c5 f8 77             	vzeroupper 
    2aa5:	e8 76 c7 00 00       	call   f220 <_Z7tracebrPv>
    2aaa:	48 8d 84 24 80 00 00 	lea    rax,[rsp+0x80]
    2ab1:	00 
    2ab2:	48 89 04 24          	mov    QWORD PTR [rsp],rax
    2ab6:	c7 44 24 08 20 00 00 	mov    DWORD PTR [rsp+0x8],0x20
    2abd:	00 
    2abe:	4c 89 6c 24 10       	mov    QWORD PTR [rsp+0x10],r13
    2ac3:	44 89 7c 24 18       	mov    DWORD PTR [rsp+0x18],r15d
    2ac8:	48 8d 3d 81 fc ff ff 	lea    rdi,[rip+0xfffffffffffffc81]        # 2750 <sgxsd_enclave_hmac_sha256>
    2acf:	e8 dc c3 00 00       	call   eeb0 <_Z10traceedgecPv>
    2ad4:	4c 89 e7             	mov    rdi,r12
    2ad7:	be 02 00 00 00       	mov    esi,0x2
    2adc:	48 89 e2             	mov    rdx,rsp
    2adf:	e8 6c fc ff ff       	call   2750 <sgxsd_enclave_hmac_sha256>
    2ae4:	c5 fc 28 44 24 40    	vmovaps ymm0,YMMWORD PTR [rsp+0x40]
    2aea:	c5 fc 11 03          	vmovups YMMWORD PTR [rbx],ymm0
    2aee:	48 8d 3d 3b 29 01 00 	lea    rdi,[rip+0x1293b]        # 15430 <sgx_spin_unlock>
    2af5:	c5 f8 77             	vzeroupper 
    2af8:	e8 b3 c3 00 00       	call   eeb0 <_Z10traceedgecPv>
    2afd:	48 8d 3d fc 58 23 00 	lea    rdi,[rip+0x2358fc]        # 238400 <g_sgxsd_enclave_read_rand_lock>
    2b04:	e8 27 29 01 00       	call   15430 <sgx_spin_unlock>
    2b09:	48 8d 1d 60 25 01 00 	lea    rbx,[rip+0x12560]        # 15070 <memset_s>
    2b10:	48 89 df             	mov    rdi,rbx
    2b13:	e8 98 c3 00 00       	call   eeb0 <_Z10traceedgecPv>
    2b18:	be 21 00 00 00       	mov    esi,0x21
    2b1d:	b9 21 00 00 00       	mov    ecx,0x21
    2b22:	4c 89 e7             	mov    rdi,r12
    2b25:	31 d2                	xor    edx,edx
    2b27:	e8 44 25 01 00       	call   15070 <memset_s>
    2b2c:	48 89 df             	mov    rdi,rbx
    2b2f:	e8 7c c3 00 00       	call   eeb0 <_Z10traceedgecPv>
    2b34:	be 20 00 00 00       	mov    esi,0x20
    2b39:	b9 20 00 00 00       	mov    ecx,0x20
    2b3e:	48 8d bc 24 80 00 00 	lea    rdi,[rsp+0x80]
    2b45:	00 
    2b46:	31 d2                	xor    edx,edx
    2b48:	e8 23 25 01 00       	call   15070 <memset_s>
    2b4d:	48 8b 7d 08          	mov    rdi,QWORD PTR [rbp+0x8]
    2b51:	e8 5a c3 00 00       	call   eeb0 <_Z10traceedgecPv>
    2b56:	64 48 8b 04 25 28 00 	mov    rax,QWORD PTR fs:0x28
    2b5d:	00 00 
    2b5f:	48 3b 84 24 a0 00 00 	cmp    rax,QWORD PTR [rsp+0xa0]
    2b66:	00 
    2b67:	75 12                	jne    2b7b <sgxsd_enclave_generate_curve25519_privkey+0x22b>
    2b69:	44 89 f0             	mov    eax,r14d
    2b6c:	48 8d 65 d8          	lea    rsp,[rbp-0x28]
    2b70:	5b                   	pop    rbx
    2b71:	41 5c                	pop    r12
    2b73:	41 5d                	pop    r13
    2b75:	41 5e                	pop    r14
    2b77:	41 5f                	pop    r15
    2b79:	5d                   	pop    rbp
    2b7a:	c3                   	ret    
    2b7b:	e8 50 f3 00 00       	call   11ed0 <__stack_chk_fail>

0000000000002b80 <sgxsd_enclave_get_next_report>:
    2b80:	41 56                	push   r14
    2b82:	53                   	push   rbx
    2b83:	48 81 ec 88 00 00 00 	sub    rsp,0x88
    2b8a:	64 48 8b 04 25 28 00 	mov    rax,QWORD PTR fs:0x28
    2b91:	00 00 
    2b93:	48 89 84 24 80 00 00 	mov    QWORD PTR [rsp+0x80],rax
    2b9a:	00 
    2b9b:	80 3d be 50 23 00 00 	cmp    BYTE PTR [rip+0x2350be],0x0        # 237c60 <g_sgxsd_enclave_node_initialized>
    2ba2:	74 37                	je     2bdb <sgxsd_enclave_get_next_report+0x5b>
    2ba4:	49 89 fe             	mov    r14,rdi
    2ba7:	bf 01 00 00 00       	mov    edi,0x1
    2bac:	e8 6f c6 00 00       	call   f220 <_Z7tracebrPv>
    2bb1:	4d 85 f6             	test   r14,r14
    2bb4:	74 33                	je     2be9 <sgxsd_enclave_get_next_report+0x69>
    2bb6:	31 ff                	xor    edi,edi
    2bb8:	e8 63 c6 00 00       	call   f220 <_Z7tracebrPv>
    2bbd:	48 8d 3d 9c f6 ff ff 	lea    rdi,[rip+0xfffffffffffff69c]        # 2260 <sgxsd_enclave_generate_curve25519_keypair>
    2bc4:	e8 e7 c2 00 00       	call   eeb0 <_Z10traceedgecPv>
    2bc9:	48 8d 7c 24 40       	lea    rdi,[rsp+0x40]
    2bce:	e8 8d f6 ff ff       	call   2260 <sgxsd_enclave_generate_curve25519_keypair>
    2bd3:	85 c0                	test   eax,eax
    2bd5:	74 23                	je     2bfa <sgxsd_enclave_get_next_report+0x7a>
    2bd7:	89 c3                	mov    ebx,eax
    2bd9:	eb 66                	jmp    2c41 <sgxsd_enclave_get_next_report+0xc1>
    2bdb:	31 ff                	xor    edi,edi
    2bdd:	e8 3e c6 00 00       	call   f220 <_Z7tracebrPv>
    2be2:	bb 05 00 00 00       	mov    ebx,0x5
    2be7:	eb 62                	jmp    2c4b <sgxsd_enclave_get_next_report+0xcb>
    2be9:	bf 01 00 00 00       	mov    edi,0x1
    2bee:	e8 2d c6 00 00       	call   f220 <_Z7tracebrPv>
    2bf3:	bb 02 00 00 00       	mov    ebx,0x2
    2bf8:	eb 51                	jmp    2c4b <sgxsd_enclave_get_next_report+0xcb>
    2bfa:	48 8d 9c 24 a0 00 00 	lea    rbx,[rsp+0xa0]
    2c01:	00 
    2c02:	31 ff                	xor    edi,edi
    2c04:	e8 17 c6 00 00       	call   f220 <_Z7tracebrPv>
    2c09:	c5 f8 57 c0          	vxorps xmm0,xmm0,xmm0
    2c0d:	c5 fc 11 44 24 20    	vmovups YMMWORD PTR [rsp+0x20],ymm0
    2c13:	c5 fc 10 44 24 60    	vmovups ymm0,YMMWORD PTR [rsp+0x60]
    2c19:	c5 fc 11 04 24       	vmovups YMMWORD PTR [rsp],ymm0
    2c1e:	48 8d 3d bb d6 02 00 	lea    rdi,[rip+0x2d6bb]        # 302e0 <sgx_create_report>
    2c25:	c5 f8 77             	vzeroupper 
    2c28:	e8 83 c2 00 00       	call   eeb0 <_Z10traceedgecPv>
    2c2d:	48 89 e6             	mov    rsi,rsp
    2c30:	48 89 df             	mov    rdi,rbx
    2c33:	4c 89 f2             	mov    rdx,r14
    2c36:	e8 a5 d6 02 00       	call   302e0 <sgx_create_report>
    2c3b:	89 c3                	mov    ebx,eax
    2c3d:	85 c0                	test   eax,eax
    2c3f:	74 3b                	je     2c7c <sgxsd_enclave_get_next_report+0xfc>
    2c41:	bf 01 00 00 00       	mov    edi,0x1
    2c46:	e8 d5 c5 00 00       	call   f220 <_Z7tracebrPv>
    2c4b:	48 8b bc 24 98 00 00 	mov    rdi,QWORD PTR [rsp+0x98]
    2c52:	00 
    2c53:	e8 58 c2 00 00       	call   eeb0 <_Z10traceedgecPv>
    2c58:	64 48 8b 04 25 28 00 	mov    rax,QWORD PTR fs:0x28
    2c5f:	00 00 
    2c61:	48 3b 84 24 80 00 00 	cmp    rax,QWORD PTR [rsp+0x80]
    2c68:	00 
    2c69:	0f 85 8c 00 00 00    	jne    2cfb <sgxsd_enclave_get_next_report+0x17b>
    2c6f:	89 d8                	mov    eax,ebx
    2c71:	48 81 c4 88 00 00 00 	add    rsp,0x88
    2c78:	5b                   	pop    rbx
    2c79:	41 5e                	pop    r14
    2c7b:	c3                   	ret    
    2c7c:	31 ff                	xor    edi,edi
    2c7e:	e8 9d c5 00 00       	call   f220 <_Z7tracebrPv>
    2c83:	48 8d 3d 46 27 01 00 	lea    rdi,[rip+0x12746]        # 153d0 <sgx_spin_lock>
    2c8a:	e8 21 c2 00 00       	call   eeb0 <_Z10traceedgecPv>
    2c8f:	4c 8d 35 a2 67 23 00 	lea    r14,[rip+0x2367a2]        # 239438 <g_sgxsd_enclave_dh_keypair_lock>
    2c96:	4c 89 f7             	mov    rdi,r14
    2c99:	e8 32 27 01 00       	call   153d0 <sgx_spin_lock>
    2c9e:	0f ae e8             	lfence 
    2ca1:	c5 fc 10 44 24 40    	vmovups ymm0,YMMWORD PTR [rsp+0x40]
    2ca7:	c5 fc 10 4c 24 60    	vmovups ymm1,YMMWORD PTR [rsp+0x60]
    2cad:	c5 fc 11 0d 23 57 23 	vmovups YMMWORD PTR [rip+0x235723],ymm1        # 2383d8 <g_sgxsd_enclave_new_dh_keypair+0x20>
    2cb4:	00 
    2cb5:	c5 fc 11 05 fb 56 23 	vmovups YMMWORD PTR [rip+0x2356fb],ymm0        # 2383b8 <g_sgxsd_enclave_new_dh_keypair>
    2cbc:	00 
    2cbd:	48 8d 3d 6c 27 01 00 	lea    rdi,[rip+0x1276c]        # 15430 <sgx_spin_unlock>
    2cc4:	c5 f8 77             	vzeroupper 
    2cc7:	e8 e4 c1 00 00       	call   eeb0 <_Z10traceedgecPv>
    2ccc:	4c 89 f7             	mov    rdi,r14
    2ccf:	e8 5c 27 01 00       	call   15430 <sgx_spin_unlock>
    2cd4:	48 8d 3d 95 23 01 00 	lea    rdi,[rip+0x12395]        # 15070 <memset_s>
    2cdb:	e8 d0 c1 00 00       	call   eeb0 <_Z10traceedgecPv>
    2ce0:	48 8d 7c 24 40       	lea    rdi,[rsp+0x40]
    2ce5:	be 40 00 00 00       	mov    esi,0x40
    2cea:	b9 40 00 00 00       	mov    ecx,0x40
    2cef:	31 d2                	xor    edx,edx
    2cf1:	e8 7a 23 01 00       	call   15070 <memset_s>
    2cf6:	e9 50 ff ff ff       	jmp    2c4b <sgxsd_enclave_get_next_report+0xcb>
    2cfb:	e8 d0 f1 00 00       	call   11ed0 <__stack_chk_fail>

0000000000002d00 <sgxsd_enclave_set_current_quote>:
    2d00:	53                   	push   rbx
    2d01:	80 3d 58 4f 23 00 00 	cmp    BYTE PTR [rip+0x234f58],0x0        # 237c60 <g_sgxsd_enclave_node_initialized>
    2d08:	74 63                	je     2d6d <sgxsd_enclave_set_current_quote+0x6d>
    2d0a:	bf 01 00 00 00       	mov    edi,0x1
    2d0f:	e8 0c c5 00 00       	call   f220 <_Z7tracebrPv>
    2d14:	48 8d 3d b5 26 01 00 	lea    rdi,[rip+0x126b5]        # 153d0 <sgx_spin_lock>
    2d1b:	e8 90 c1 00 00       	call   eeb0 <_Z10traceedgecPv>
    2d20:	48 8d 1d 11 67 23 00 	lea    rbx,[rip+0x236711]        # 239438 <g_sgxsd_enclave_dh_keypair_lock>
    2d27:	48 89 df             	mov    rdi,rbx
    2d2a:	e8 a1 26 01 00       	call   153d0 <sgx_spin_lock>
    2d2f:	0f ae e8             	lfence 
    2d32:	c5 fc 10 05 9e 56 23 	vmovups ymm0,YMMWORD PTR [rip+0x23569e]        # 2383d8 <g_sgxsd_enclave_new_dh_keypair+0x20>
    2d39:	00 
    2d3a:	c5 fc 11 05 2e 56 23 	vmovups YMMWORD PTR [rip+0x23562e],ymm0        # 238370 <g_sgxsd_enclave_dh_keypair+0x20>
    2d41:	00 
    2d42:	c5 fc 10 05 6e 56 23 	vmovups ymm0,YMMWORD PTR [rip+0x23566e]        # 2383b8 <g_sgxsd_enclave_new_dh_keypair>
    2d49:	00 
    2d4a:	c5 fc 11 05 fe 55 23 	vmovups YMMWORD PTR [rip+0x2355fe],ymm0        # 238350 <g_sgxsd_enclave_dh_keypair>
    2d51:	00 
    2d52:	48 8d 3d d7 26 01 00 	lea    rdi,[rip+0x126d7]        # 15430 <sgx_spin_unlock>
    2d59:	c5 f8 77             	vzeroupper 
    2d5c:	e8 4f c1 00 00       	call   eeb0 <_Z10traceedgecPv>
    2d61:	48 89 df             	mov    rdi,rbx
    2d64:	e8 c7 26 01 00       	call   15430 <sgx_spin_unlock>
    2d69:	31 db                	xor    ebx,ebx
    2d6b:	eb 0c                	jmp    2d79 <sgxsd_enclave_set_current_quote+0x79>
    2d6d:	31 ff                	xor    edi,edi
    2d6f:	e8 ac c4 00 00       	call   f220 <_Z7tracebrPv>
    2d74:	bb 05 00 00 00       	mov    ebx,0x5
    2d79:	48 8b 7c 24 08       	mov    rdi,QWORD PTR [rsp+0x8]
    2d7e:	e8 2d c1 00 00       	call   eeb0 <_Z10traceedgecPv>
    2d83:	89 d8                	mov    eax,ebx
    2d85:	5b                   	pop    rbx
    2d86:	c3                   	ret    
    2d87:	66 0f 1f 84 00 00 00 	nop    WORD PTR [rax+rax*1+0x0]
    2d8e:	00 00 

0000000000002d90 <sgxsd_enclave_add_pending_request>:
    2d90:	55                   	push   rbp
    2d91:	41 57                	push   r15
    2d93:	41 56                	push   r14
    2d95:	53                   	push   rbx
    2d96:	48 83 ec 38          	sub    rsp,0x38
    2d9a:	48 89 f3             	mov    rbx,rsi
    2d9d:	49 89 fe             	mov    r14,rdi
    2da0:	64 48 8b 04 25 28 00 	mov    rax,QWORD PTR fs:0x28
    2da7:	00 00 
    2da9:	48 89 44 24 30       	mov    QWORD PTR [rsp+0x30],rax
    2dae:	40 8a 2d 6f 56 23 00 	mov    bpl,BYTE PTR [rip+0x23566f]        # 238424 <g_sgxsd_enclave_pending_requests_table_order>
    2db5:	48 8d 3d 14 26 01 00 	lea    rdi,[rip+0x12614]        # 153d0 <sgx_spin_lock>
    2dbc:	e8 ef c0 00 00       	call   eeb0 <_Z10traceedgecPv>
    2dc1:	4c 8d 3d 68 66 23 00 	lea    r15,[rip+0x236668]        # 239430 <g_sgxsd_enclave_pending_requests_lock>
    2dc8:	4c 89 ff             	mov    rdi,r15
    2dcb:	e8 00 26 01 00       	call   153d0 <sgx_spin_lock>
    2dd0:	0f ae e8             	lfence 
    2dd3:	48 8b 05 1e 56 23 00 	mov    rax,QWORD PTR [rip+0x23561e]        # 2383f8 <g_sgxsd_enclave_last_pending_request_id_val>
    2dda:	48 ff c0             	inc    rax
    2ddd:	48 89 05 14 56 23 00 	mov    QWORD PTR [rip+0x235614],rax        # 2383f8 <g_sgxsd_enclave_last_pending_request_id_val>
    2de4:	48 89 44 24 08       	mov    QWORD PTR [rsp+0x8],rax
    2de9:	48 8b 0d a0 55 23 00 	mov    rcx,QWORD PTR [rip+0x2355a0]        # 238390 <g_sgxsd_enclave_pending_requests>
    2df0:	c5 fc 10 43 08       	vmovups ymm0,YMMWORD PTR [rbx+0x8]
    2df5:	c5 fc 11 44 24 10    	vmovups YMMWORD PTR [rsp+0x10],ymm0
    2dfb:	c4 e2 d0 f5 d0       	bzhi   rdx,rax,rbp
    2e00:	48 8d 14 92          	lea    rdx,[rdx+rdx*4]
    2e04:	48 89 04 d1          	mov    QWORD PTR [rcx+rdx*8],rax
    2e08:	c5 fc 10 44 24 10    	vmovups ymm0,YMMWORD PTR [rsp+0x10]
    2e0e:	c5 fc 11 44 d1 08    	vmovups YMMWORD PTR [rcx+rdx*8+0x8],ymm0
    2e14:	48 8d 3d 15 26 01 00 	lea    rdi,[rip+0x12615]        # 15430 <sgx_spin_unlock>
    2e1b:	c5 f8 77             	vzeroupper 
    2e1e:	e8 8d c0 00 00       	call   eeb0 <_Z10traceedgecPv>
    2e23:	4c 89 ff             	mov    rdi,r15
    2e26:	e8 05 26 01 00       	call   15430 <sgx_spin_unlock>
    2e2b:	49 8d 5e 08          	lea    rbx,[r14+0x8]
    2e2f:	48 8d 3d fa c7 00 00 	lea    rdi,[rip+0xc7fa]        # f630 <sgx_read_rand>
    2e36:	e8 75 c0 00 00       	call   eeb0 <_Z10traceedgecPv>
    2e3b:	be 0c 00 00 00       	mov    esi,0xc
    2e40:	48 89 df             	mov    rdi,rbx
    2e43:	e8 e8 c7 00 00       	call   f630 <sgx_read_rand>
    2e48:	85 c0                	test   eax,eax
    2e4a:	74 04                	je     2e50 <sgxsd_enclave_add_pending_request+0xc0>
    2e4c:	89 c5                	mov    ebp,eax
    2e4e:	eb 4e                	jmp    2e9e <sgxsd_enclave_add_pending_request+0x10e>
    2e50:	31 ff                	xor    edi,edi
    2e52:	e8 c9 c3 00 00       	call   f220 <_Z7tracebrPv>
    2e57:	48 8d 3d 82 f4 ff ff 	lea    rdi,[rip+0xfffffffffffff482]        # 22e0 <sgxsd_aes_gcm_run>
    2e5e:	e8 4d c0 00 00       	call   eeb0 <_Z10traceedgecPv>
    2e63:	48 83 ec 08          	sub    rsp,0x8
    2e67:	48 8d 35 2a 55 23 00 	lea    rsi,[rip+0x23552a]        # 238398 <g_sgxsd_enclave_pending_request_id_key>
    2e6e:	bd 01 00 00 00       	mov    ebp,0x1
    2e73:	48 8d 54 24 10       	lea    rdx,[rsp+0x10]
    2e78:	49 8d 46 14          	lea    rax,[r14+0x14]
    2e7c:	bf 01 00 00 00       	mov    edi,0x1
    2e81:	4d 89 f0             	mov    r8,r14
    2e84:	b9 08 00 00 00       	mov    ecx,0x8
    2e89:	49 89 d9             	mov    r9,rbx
    2e8c:	50                   	push   rax
    2e8d:	6a 00                	push   0x0
    2e8f:	6a 00                	push   0x0
    2e91:	e8 4a f4 ff ff       	call   22e0 <sgxsd_aes_gcm_run>
    2e96:	48 83 c4 20          	add    rsp,0x20
    2e9a:	85 c0                	test   eax,eax
    2e9c:	74 31                	je     2ecf <sgxsd_enclave_add_pending_request+0x13f>
    2e9e:	bf 01 00 00 00       	mov    edi,0x1
    2ea3:	e8 78 c3 00 00       	call   f220 <_Z7tracebrPv>
    2ea8:	48 8b 7c 24 58       	mov    rdi,QWORD PTR [rsp+0x58]
    2ead:	e8 fe bf 00 00       	call   eeb0 <_Z10traceedgecPv>
    2eb2:	64 48 8b 04 25 28 00 	mov    rax,QWORD PTR fs:0x28
    2eb9:	00 00 
    2ebb:	48 3b 44 24 30       	cmp    rax,QWORD PTR [rsp+0x30]
    2ec0:	75 18                	jne    2eda <sgxsd_enclave_add_pending_request+0x14a>
    2ec2:	89 e8                	mov    eax,ebp
    2ec4:	48 83 c4 38          	add    rsp,0x38
    2ec8:	5b                   	pop    rbx
    2ec9:	41 5e                	pop    r14
    2ecb:	41 5f                	pop    r15
    2ecd:	5d                   	pop    rbp
    2ece:	c3                   	ret    
    2ecf:	31 ff                	xor    edi,edi
    2ed1:	e8 4a c3 00 00       	call   f220 <_Z7tracebrPv>
    2ed6:	31 ed                	xor    ebp,ebp
    2ed8:	eb ce                	jmp    2ea8 <sgxsd_enclave_add_pending_request+0x118>
    2eda:	e8 f1 ef 00 00       	call   11ed0 <__stack_chk_fail>
    2edf:	90                   	nop

0000000000002ee0 <sgxsd_enclave_remove_pending_request>:
    2ee0:	41 57                	push   r15
    2ee2:	41 56                	push   r14
    2ee4:	41 54                	push   r12
    2ee6:	53                   	push   rbx
    2ee7:	50                   	push   rax
    2ee8:	49 89 f6             	mov    r14,rsi
    2eeb:	48 89 fb             	mov    rbx,rdi
    2eee:	48 c7 04 24 00 00 00 	mov    QWORD PTR [rsp],0x0
    2ef5:	00 
    2ef6:	48 8d 3d e3 f3 ff ff 	lea    rdi,[rip+0xfffffffffffff3e3]        # 22e0 <sgxsd_aes_gcm_run>
    2efd:	e8 ae bf 00 00       	call   eeb0 <_Z10traceedgecPv>
    2f02:	48 83 ec 08          	sub    rsp,0x8
    2f06:	48 8d 35 8b 54 23 00 	lea    rsi,[rip+0x23548b]        # 238398 <g_sgxsd_enclave_pending_request_id_key>
    2f0d:	4c 8d 44 24 08       	lea    r8,[rsp+0x8]
    2f12:	4c 8d 4b 08          	lea    r9,[rbx+0x8]
    2f16:	48 8d 43 14          	lea    rax,[rbx+0x14]
    2f1a:	31 ff                	xor    edi,edi
    2f1c:	48 89 da             	mov    rdx,rbx
    2f1f:	b9 08 00 00 00       	mov    ecx,0x8
    2f24:	50                   	push   rax
    2f25:	6a 00                	push   0x0
    2f27:	6a 00                	push   0x0
    2f29:	e8 b2 f3 ff ff       	call   22e0 <sgxsd_aes_gcm_run>
    2f2e:	48 83 c4 20          	add    rsp,0x20
    2f32:	85 c0                	test   eax,eax
    2f34:	74 11                	je     2f47 <sgxsd_enclave_remove_pending_request+0x67>
    2f36:	89 c3                	mov    ebx,eax
    2f38:	bf 01 00 00 00       	mov    edi,0x1
    2f3d:	e8 de c2 00 00       	call   f220 <_Z7tracebrPv>
    2f42:	e9 ae 00 00 00       	jmp    2ff5 <sgxsd_enclave_remove_pending_request+0x115>
    2f47:	31 db                	xor    ebx,ebx
    2f49:	31 ff                	xor    edi,edi
    2f4b:	e8 d0 c2 00 00       	call   f220 <_Z7tracebrPv>
    2f50:	8a 05 ce 54 23 00    	mov    al,BYTE PTR [rip+0x2354ce]        # 238424 <g_sgxsd_enclave_pending_requests_table_order>
    2f56:	4c 8b 3d 33 54 23 00 	mov    r15,QWORD PTR [rip+0x235433]        # 238390 <g_sgxsd_enclave_pending_requests>
    2f5d:	c4 e2 f8 f5 04 24    	bzhi   rax,QWORD PTR [rsp],rax
    2f63:	4c 8d 24 80          	lea    r12,[rax+rax*4]
    2f67:	48 8d 3d 62 24 01 00 	lea    rdi,[rip+0x12462]        # 153d0 <sgx_spin_lock>
    2f6e:	e8 3d bf 00 00       	call   eeb0 <_Z10traceedgecPv>
    2f73:	48 8d 3d b6 64 23 00 	lea    rdi,[rip+0x2364b6]        # 239430 <g_sgxsd_enclave_pending_requests_lock>
    2f7a:	e8 51 24 01 00       	call   153d0 <sgx_spin_lock>
    2f7f:	0f ae e8             	lfence 
    2f82:	4b 8b 04 e7          	mov    rax,QWORD PTR [r15+r12*8]
    2f86:	48 3b 04 24          	cmp    rax,QWORD PTR [rsp]
    2f8a:	75 45                	jne    2fd1 <sgxsd_enclave_remove_pending_request+0xf1>
    2f8c:	4f 8d 3c e7          	lea    r15,[r15+r12*8]
    2f90:	bf 01 00 00 00       	mov    edi,0x1
    2f95:	e8 86 c2 00 00       	call   f220 <_Z7tracebrPv>
    2f9a:	49 8b 47 20          	mov    rax,QWORD PTR [r15+0x20]
    2f9e:	49 89 46 20          	mov    QWORD PTR [r14+0x20],rax
    2fa2:	c4 c1 7c 10 07       	vmovups ymm0,YMMWORD PTR [r15]
    2fa7:	c4 c1 7c 11 06       	vmovups YMMWORD PTR [r14],ymm0
    2fac:	48 8d 3d bd 20 01 00 	lea    rdi,[rip+0x120bd]        # 15070 <memset_s>
    2fb3:	c5 f8 77             	vzeroupper 
    2fb6:	e8 f5 be 00 00       	call   eeb0 <_Z10traceedgecPv>
    2fbb:	be 28 00 00 00       	mov    esi,0x28
    2fc0:	b9 28 00 00 00       	mov    ecx,0x28
    2fc5:	4c 89 ff             	mov    rdi,r15
    2fc8:	31 d2                	xor    edx,edx
    2fca:	e8 a1 20 01 00       	call   15070 <memset_s>
    2fcf:	eb 0c                	jmp    2fdd <sgxsd_enclave_remove_pending_request+0xfd>
    2fd1:	31 ff                	xor    edi,edi
    2fd3:	e8 48 c2 00 00       	call   f220 <_Z7tracebrPv>
    2fd8:	bb 01 00 01 00       	mov    ebx,0x10001
    2fdd:	48 8d 3d 4c 24 01 00 	lea    rdi,[rip+0x1244c]        # 15430 <sgx_spin_unlock>
    2fe4:	e8 c7 be 00 00       	call   eeb0 <_Z10traceedgecPv>
    2fe9:	48 8d 3d 40 64 23 00 	lea    rdi,[rip+0x236440]        # 239430 <g_sgxsd_enclave_pending_requests_lock>
    2ff0:	e8 3b 24 01 00       	call   15430 <sgx_spin_unlock>
    2ff5:	48 8b 7c 24 28       	mov    rdi,QWORD PTR [rsp+0x28]
    2ffa:	e8 b1 be 00 00       	call   eeb0 <_Z10traceedgecPv>
    2fff:	89 d8                	mov    eax,ebx
    3001:	48 83 c4 08          	add    rsp,0x8
    3005:	5b                   	pop    rbx
    3006:	41 5c                	pop    r12
    3008:	41 5e                	pop    r14
    300a:	41 5f                	pop    r15
    300c:	c3                   	ret    
    300d:	0f 1f 00             	nop    DWORD PTR [rax]

0000000000003010 <sgxsd_enclave_derive_request_keys>:
    3010:	55                   	push   rbp
    3011:	48 89 e5             	mov    rbp,rsp
    3014:	41 57                	push   r15
    3016:	41 56                	push   r14
    3018:	41 55                	push   r13
    301a:	41 54                	push   r12
    301c:	53                   	push   rbx
    301d:	48 83 e4 e0          	and    rsp,0xffffffffffffffe0
    3021:	48 81 ec a0 00 00 00 	sub    rsp,0xa0
    3028:	48 89 54 24 38       	mov    QWORD PTR [rsp+0x38],rdx
    302d:	49 89 f4             	mov    r12,rsi
    3030:	49 89 fd             	mov    r13,rdi
    3033:	64 48 8b 04 25 28 00 	mov    rax,QWORD PTR fs:0x28
    303a:	00 00 
    303c:	48 89 84 24 80 00 00 	mov    QWORD PTR [rsp+0x80],rax
    3043:	00 
    3044:	c5 f8 57 c0          	vxorps xmm0,xmm0,xmm0
    3048:	c5 fc 29 44 24 40    	vmovaps YMMWORD PTR [rsp+0x40],ymm0
    304e:	4c 8d 74 24 60       	lea    r14,[rsp+0x60]
    3053:	c6 44 24 60 01       	mov    BYTE PTR [rsp+0x60],0x1
    3058:	bf 01 00 00 00       	mov    edi,0x1
    305d:	c5 f8 77             	vzeroupper 
    3060:	e8 bb c1 00 00       	call   f220 <_Z7tracebrPv>
    3065:	49 83 c5 08          	add    r13,0x8
    3069:	4c 89 6c 24 18       	mov    QWORD PTR [rsp+0x18],r13
    306e:	c7 44 24 20 20 00 00 	mov    DWORD PTR [rsp+0x20],0x20
    3075:	00 
    3076:	4c 89 74 24 28       	mov    QWORD PTR [rsp+0x28],r14
    307b:	c7 44 24 30 01 00 00 	mov    DWORD PTR [rsp+0x30],0x1
    3082:	00 
    3083:	48 8d 3d c6 f6 ff ff 	lea    rdi,[rip+0xfffffffffffff6c6]        # 2750 <sgxsd_enclave_hmac_sha256>
    308a:	e8 21 be 00 00       	call   eeb0 <_Z10traceedgecPv>
    308f:	4c 8d 7c 24 40       	lea    r15,[rsp+0x40]
    3094:	48 8d 54 24 18       	lea    rdx,[rsp+0x18]
    3099:	4c 89 ff             	mov    rdi,r15
    309c:	be 02 00 00 00       	mov    esi,0x2
    30a1:	e8 aa f6 ff ff       	call   2750 <sgxsd_enclave_hmac_sha256>
    30a6:	4d 85 e4             	test   r12,r12
    30a9:	74 16                	je     30c1 <sgxsd_enclave_derive_request_keys+0xb1>
    30ab:	bf 01 00 00 00       	mov    edi,0x1
    30b0:	e8 6b c1 00 00       	call   f220 <_Z7tracebrPv>
    30b5:	c5 fc 28 44 24 40    	vmovaps ymm0,YMMWORD PTR [rsp+0x40]
    30bb:	c4 c1 7c 11 04 24    	vmovups YMMWORD PTR [r12],ymm0
    30c1:	31 ff                	xor    edi,edi
    30c3:	c5 f8 77             	vzeroupper 
    30c6:	e8 55 c1 00 00       	call   f220 <_Z7tracebrPv>
    30cb:	8a 44 24 60          	mov    al,BYTE PTR [rsp+0x60]
    30cf:	8d 48 01             	lea    ecx,[rax+0x1]
    30d2:	88 4c 24 60          	mov    BYTE PTR [rsp+0x60],cl
    30d6:	31 ff                	xor    edi,edi
    30d8:	31 db                	xor    ebx,ebx
    30da:	84 c0                	test   al,al
    30dc:	40 0f 94 c7          	sete   dil
    30e0:	0f 95 c3             	setne  bl
    30e3:	4d 0f 45 f7          	cmovne r14,r15
    30e7:	c1 e3 05             	shl    ebx,0x5
    30ea:	83 cb 01             	or     ebx,0x1
    30ed:	e8 2e c1 00 00       	call   f220 <_Z7tracebrPv>
    30f2:	4c 89 6c 24 18       	mov    QWORD PTR [rsp+0x18],r13
    30f7:	c7 44 24 20 20 00 00 	mov    DWORD PTR [rsp+0x20],0x20
    30fe:	00 
    30ff:	4c 89 74 24 28       	mov    QWORD PTR [rsp+0x28],r14
    3104:	89 5c 24 30          	mov    DWORD PTR [rsp+0x30],ebx
    3108:	48 8d 3d 41 f6 ff ff 	lea    rdi,[rip+0xfffffffffffff641]        # 2750 <sgxsd_enclave_hmac_sha256>
    310f:	e8 9c bd 00 00       	call   eeb0 <_Z10traceedgecPv>
    3114:	48 8d 54 24 18       	lea    rdx,[rsp+0x18]
    3119:	4c 89 ff             	mov    rdi,r15
    311c:	be 02 00 00 00       	mov    esi,0x2
    3121:	e8 2a f6 ff ff       	call   2750 <sgxsd_enclave_hmac_sha256>
    3126:	48 8b 5c 24 38       	mov    rbx,QWORD PTR [rsp+0x38]
    312b:	48 85 db             	test   rbx,rbx
    312e:	74 14                	je     3144 <sgxsd_enclave_derive_request_keys+0x134>
    3130:	bf 01 00 00 00       	mov    edi,0x1
    3135:	e8 e6 c0 00 00       	call   f220 <_Z7tracebrPv>
    313a:	c5 fc 28 44 24 40    	vmovaps ymm0,YMMWORD PTR [rsp+0x40]
    3140:	c5 fc 11 03          	vmovups YMMWORD PTR [rbx],ymm0
    3144:	31 ff                	xor    edi,edi
    3146:	c5 f8 77             	vzeroupper 
    3149:	e8 d2 c0 00 00       	call   f220 <_Z7tracebrPv>
    314e:	48 8d 3d 1b 1f 01 00 	lea    rdi,[rip+0x11f1b]        # 15070 <memset_s>
    3155:	e8 56 bd 00 00       	call   eeb0 <_Z10traceedgecPv>
    315a:	48 8d 7c 24 40       	lea    rdi,[rsp+0x40]
    315f:	be 21 00 00 00       	mov    esi,0x21
    3164:	b9 21 00 00 00       	mov    ecx,0x21
    3169:	31 d2                	xor    edx,edx
    316b:	e8 00 1f 01 00       	call   15070 <memset_s>
    3170:	48 8b 7d 08          	mov    rdi,QWORD PTR [rbp+0x8]
    3174:	e8 37 bd 00 00       	call   eeb0 <_Z10traceedgecPv>
    3179:	64 48 8b 04 25 28 00 	mov    rax,QWORD PTR fs:0x28
    3180:	00 00 
    3182:	48 3b 84 24 80 00 00 	cmp    rax,QWORD PTR [rsp+0x80]
    3189:	00 
    318a:	75 0f                	jne    319b <sgxsd_enclave_derive_request_keys+0x18b>
    318c:	48 8d 65 d8          	lea    rsp,[rbp-0x28]
    3190:	5b                   	pop    rbx
    3191:	41 5c                	pop    r12
    3193:	41 5d                	pop    r13
    3195:	41 5e                	pop    r14
    3197:	41 5f                	pop    r15
    3199:	5d                   	pop    rbp
    319a:	c3                   	ret    
    319b:	e8 30 ed 00 00       	call   11ed0 <__stack_chk_fail>

00000000000031a0 <sgxsd_enclave_negotiate_request>:
    31a0:	55                   	push   rbp
    31a1:	41 57                	push   r15
    31a3:	41 56                	push   r14
    31a5:	41 55                	push   r13
    31a7:	41 54                	push   r12
    31a9:	53                   	push   rbx
    31aa:	48 81 ec b8 01 00 00 	sub    rsp,0x1b8
    31b1:	64 48 8b 04 25 28 00 	mov    rax,QWORD PTR fs:0x28
    31b8:	00 00 
    31ba:	48 89 84 24 b0 01 00 	mov    QWORD PTR [rsp+0x1b0],rax
    31c1:	00 
    31c2:	80 3d 97 4a 23 00 00 	cmp    BYTE PTR [rip+0x234a97],0x0        # 237c60 <g_sgxsd_enclave_node_initialized>
    31c9:	0f 84 be 02 00 00    	je     348d <sgxsd_enclave_negotiate_request+0x2ed>
    31cf:	49 89 f6             	mov    r14,rsi
    31d2:	48 89 fb             	mov    rbx,rdi
    31d5:	bf 01 00 00 00       	mov    edi,0x1
    31da:	e8 41 c0 00 00       	call   f220 <_Z7tracebrPv>
    31df:	48 85 db             	test   rbx,rbx
    31e2:	0f 84 94 02 00 00    	je     347c <sgxsd_enclave_negotiate_request+0x2dc>
    31e8:	31 ff                	xor    edi,edi
    31ea:	e8 31 c0 00 00       	call   f220 <_Z7tracebrPv>
    31ef:	4d 85 f6             	test   r14,r14
    31f2:	0f 84 84 02 00 00    	je     347c <sgxsd_enclave_negotiate_request+0x2dc>
    31f8:	31 ff                	xor    edi,edi
    31fa:	e8 21 c0 00 00       	call   f220 <_Z7tracebrPv>
    31ff:	48 8d 3d 5a f0 ff ff 	lea    rdi,[rip+0xfffffffffffff05a]        # 2260 <sgxsd_enclave_generate_curve25519_keypair>
    3206:	e8 a5 bc 00 00       	call   eeb0 <_Z10traceedgecPv>
    320b:	48 8d bc 24 70 01 00 	lea    rdi,[rsp+0x170]
    3212:	00 
    3213:	e8 48 f0 ff ff       	call   2260 <sgxsd_enclave_generate_curve25519_keypair>
    3218:	85 c0                	test   eax,eax
    321a:	0f 85 4e 02 00 00    	jne    346e <sgxsd_enclave_negotiate_request+0x2ce>
    3220:	31 ff                	xor    edi,edi
    3222:	e8 f9 bf 00 00       	call   f220 <_Z7tracebrPv>
    3227:	48 8d 3d a2 21 01 00 	lea    rdi,[rip+0x121a2]        # 153d0 <sgx_spin_lock>
    322e:	e8 7d bc 00 00       	call   eeb0 <_Z10traceedgecPv>
    3233:	48 8d 2d fe 61 23 00 	lea    rbp,[rip+0x2361fe]        # 239438 <g_sgxsd_enclave_dh_keypair_lock>
    323a:	48 89 ef             	mov    rdi,rbp
    323d:	e8 8e 21 01 00       	call   153d0 <sgx_spin_lock>
    3242:	0f ae e8             	lfence 
    3245:	c5 fc 10 05 23 51 23 	vmovups ymm0,YMMWORD PTR [rip+0x235123]        # 238370 <g_sgxsd_enclave_dh_keypair+0x20>
    324c:	00 
    324d:	c5 fc 11 84 24 50 01 	vmovups YMMWORD PTR [rsp+0x150],ymm0
    3254:	00 00 
    3256:	c5 fc 10 05 f2 50 23 	vmovups ymm0,YMMWORD PTR [rip+0x2350f2]        # 238350 <g_sgxsd_enclave_dh_keypair>
    325d:	00 
    325e:	c5 fc 11 84 24 30 01 	vmovups YMMWORD PTR [rsp+0x130],ymm0
    3265:	00 00 
    3267:	48 8d 3d c2 21 01 00 	lea    rdi,[rip+0x121c2]        # 15430 <sgx_spin_unlock>
    326e:	c5 f8 77             	vzeroupper 
    3271:	e8 3a bc 00 00       	call   eeb0 <_Z10traceedgecPv>
    3276:	48 89 ef             	mov    rdi,rbp
    3279:	e8 b2 21 01 00       	call   15430 <sgx_spin_unlock>
    327e:	4c 8d 25 eb 32 00 00 	lea    r12,[rip+0x32eb]        # 6570 <curve25519_donna>
    3285:	4c 89 e7             	mov    rdi,r12
    3288:	e8 23 bc 00 00       	call   eeb0 <_Z10traceedgecPv>
    328d:	4c 8d ac 24 10 01 00 	lea    r13,[rsp+0x110]
    3294:	00 
    3295:	48 8d ac 24 70 01 00 	lea    rbp,[rsp+0x170]
    329c:	00 
    329d:	4c 89 ef             	mov    rdi,r13
    32a0:	48 89 ee             	mov    rsi,rbp
    32a3:	48 89 da             	mov    rdx,rbx
    32a6:	e8 c5 32 00 00       	call   6570 <curve25519_donna>
    32ab:	4c 8d 3d be 1d 01 00 	lea    r15,[rip+0x11dbe]        # 15070 <memset_s>
    32b2:	4c 89 ff             	mov    rdi,r15
    32b5:	e8 f6 bb 00 00       	call   eeb0 <_Z10traceedgecPv>
    32ba:	be 20 00 00 00       	mov    esi,0x20
    32bf:	b9 20 00 00 00       	mov    ecx,0x20
    32c4:	48 89 ef             	mov    rdi,rbp
    32c7:	31 d2                	xor    edx,edx
    32c9:	e8 a2 1d 01 00       	call   15070 <memset_s>
    32ce:	4c 89 e7             	mov    rdi,r12
    32d1:	e8 da bb 00 00       	call   eeb0 <_Z10traceedgecPv>
    32d6:	4c 8d a4 24 f0 00 00 	lea    r12,[rsp+0xf0]
    32dd:	00 
    32de:	48 8d ac 24 30 01 00 	lea    rbp,[rsp+0x130]
    32e5:	00 
    32e6:	4c 89 e7             	mov    rdi,r12
    32e9:	48 89 ee             	mov    rsi,rbp
    32ec:	48 89 da             	mov    rdx,rbx
    32ef:	e8 7c 32 00 00       	call   6570 <curve25519_donna>
    32f4:	4c 89 ff             	mov    rdi,r15
    32f7:	e8 b4 bb 00 00       	call   eeb0 <_Z10traceedgecPv>
    32fc:	be 20 00 00 00       	mov    esi,0x20
    3301:	b9 20 00 00 00       	mov    ecx,0x20
    3306:	48 89 ef             	mov    rdi,rbp
    3309:	31 d2                	xor    edx,edx
    330b:	e8 60 1d 01 00       	call   15070 <memset_s>
    3310:	48 89 5c 24 30       	mov    QWORD PTR [rsp+0x30],rbx
    3315:	c7 44 24 38 20 00 00 	mov    DWORD PTR [rsp+0x38],0x20
    331c:	00 
    331d:	48 8d 84 24 90 01 00 	lea    rax,[rsp+0x190]
    3324:	00 
    3325:	48 89 44 24 40       	mov    QWORD PTR [rsp+0x40],rax
    332a:	c7 44 24 48 20 00 00 	mov    DWORD PTR [rsp+0x48],0x20
    3331:	00 
    3332:	48 8d 84 24 50 01 00 	lea    rax,[rsp+0x150]
    3339:	00 
    333a:	48 89 44 24 50       	mov    QWORD PTR [rsp+0x50],rax
    333f:	c7 44 24 58 20 00 00 	mov    DWORD PTR [rsp+0x58],0x20
    3346:	00 
    3347:	48 8d 3d e2 f2 ff ff 	lea    rdi,[rip+0xfffffffffffff2e2]        # 2630 <sgxsd_enclave_sha256>
    334e:	e8 5d bb 00 00       	call   eeb0 <_Z10traceedgecPv>
    3353:	48 8d 9c 24 d0 00 00 	lea    rbx,[rsp+0xd0]
    335a:	00 
    335b:	48 8d 54 24 30       	lea    rdx,[rsp+0x30]
    3360:	48 89 df             	mov    rdi,rbx
    3363:	be 03 00 00 00       	mov    esi,0x3
    3368:	e8 c3 f2 ff ff       	call   2630 <sgxsd_enclave_sha256>
    336d:	48 8d ac 24 b0 00 00 	lea    rbp,[rsp+0xb0]
    3374:	00 
    3375:	48 89 1c 24          	mov    QWORD PTR [rsp],rbx
    3379:	c7 44 24 08 20 00 00 	mov    DWORD PTR [rsp+0x8],0x20
    3380:	00 
    3381:	4c 89 6c 24 10       	mov    QWORD PTR [rsp+0x10],r13
    3386:	c7 44 24 18 20 00 00 	mov    DWORD PTR [rsp+0x18],0x20
    338d:	00 
    338e:	4c 89 64 24 20       	mov    QWORD PTR [rsp+0x20],r12
    3393:	c7 44 24 28 20 00 00 	mov    DWORD PTR [rsp+0x28],0x20
    339a:	00 
    339b:	48 8d 3d ae f3 ff ff 	lea    rdi,[rip+0xfffffffffffff3ae]        # 2750 <sgxsd_enclave_hmac_sha256>
    33a2:	e8 09 bb 00 00       	call   eeb0 <_Z10traceedgecPv>
    33a7:	48 89 e2             	mov    rdx,rsp
    33aa:	48 89 ef             	mov    rdi,rbp
    33ad:	be 03 00 00 00       	mov    esi,0x3
    33b2:	e8 99 f3 ff ff       	call   2750 <sgxsd_enclave_hmac_sha256>
    33b7:	4c 89 ff             	mov    rdi,r15
    33ba:	e8 f1 ba 00 00       	call   eeb0 <_Z10traceedgecPv>
    33bf:	be 20 00 00 00       	mov    esi,0x20
    33c4:	b9 20 00 00 00       	mov    ecx,0x20
    33c9:	4c 89 ef             	mov    rdi,r13
    33cc:	31 d2                	xor    edx,edx
    33ce:	e8 9d 1c 01 00       	call   15070 <memset_s>
    33d3:	4c 89 ff             	mov    rdi,r15
    33d6:	e8 d5 ba 00 00       	call   eeb0 <_Z10traceedgecPv>
    33db:	be 20 00 00 00       	mov    esi,0x20
    33e0:	b9 20 00 00 00       	mov    ecx,0x20
    33e5:	4c 89 e7             	mov    rdi,r12
    33e8:	31 d2                	xor    edx,edx
    33ea:	e8 81 1c 01 00       	call   15070 <memset_s>
    33ef:	4c 89 ff             	mov    rdi,r15
    33f2:	e8 b9 ba 00 00       	call   eeb0 <_Z10traceedgecPv>
    33f7:	be 20 00 00 00       	mov    esi,0x20
    33fc:	b9 20 00 00 00       	mov    ecx,0x20
    3401:	48 89 df             	mov    rdi,rbx
    3404:	31 d2                	xor    edx,edx
    3406:	e8 65 1c 01 00       	call   15070 <memset_s>
    340b:	49 8d 5e 64          	lea    rbx,[r14+0x64]
    340f:	4c 89 ff             	mov    rdi,r15
    3412:	e8 99 ba 00 00       	call   eeb0 <_Z10traceedgecPv>
    3417:	be 0c 00 00 00       	mov    esi,0xc
    341c:	b9 0c 00 00 00       	mov    ecx,0xc
    3421:	48 89 df             	mov    rdi,rbx
    3424:	31 d2                	xor    edx,edx
    3426:	e8 45 1c 01 00       	call   15070 <memset_s>
    342b:	48 8d 3d de fb ff ff 	lea    rdi,[rip+0xfffffffffffffbde]        # 3010 <sgxsd_enclave_derive_request_keys>
    3432:	e8 79 ba 00 00       	call   eeb0 <_Z10traceedgecPv>
    3437:	48 8d ac 24 a8 00 00 	lea    rbp,[rsp+0xa8]
    343e:	00 
    343f:	48 8d 94 24 88 00 00 	lea    rdx,[rsp+0x88]
    3446:	00 
    3447:	48 89 ef             	mov    rdi,rbp
    344a:	31 f6                	xor    esi,esi
    344c:	e8 bf fb ff ff       	call   3010 <sgxsd_enclave_derive_request_keys>
    3451:	48 8d 3d 38 f9 ff ff 	lea    rdi,[rip+0xfffffffffffff938]        # 2d90 <sgxsd_enclave_add_pending_request>
    3458:	e8 53 ba 00 00       	call   eeb0 <_Z10traceedgecPv>
    345d:	48 8d 7c 24 60       	lea    rdi,[rsp+0x60]
    3462:	48 89 ee             	mov    rsi,rbp
    3465:	e8 26 f9 ff ff       	call   2d90 <sgxsd_enclave_add_pending_request>
    346a:	85 c0                	test   eax,eax
    346c:	74 66                	je     34d4 <sgxsd_enclave_negotiate_request+0x334>
    346e:	89 c5                	mov    ebp,eax
    3470:	bf 01 00 00 00       	mov    edi,0x1
    3475:	e8 a6 bd 00 00       	call   f220 <_Z7tracebrPv>
    347a:	eb 1d                	jmp    3499 <sgxsd_enclave_negotiate_request+0x2f9>
    347c:	bf 01 00 00 00       	mov    edi,0x1
    3481:	e8 9a bd 00 00       	call   f220 <_Z7tracebrPv>
    3486:	bd 02 00 00 00       	mov    ebp,0x2
    348b:	eb 0c                	jmp    3499 <sgxsd_enclave_negotiate_request+0x2f9>
    348d:	31 ff                	xor    edi,edi
    348f:	e8 8c bd 00 00       	call   f220 <_Z7tracebrPv>
    3494:	bd 05 00 00 00       	mov    ebp,0x5
    3499:	48 8b bc 24 e8 01 00 	mov    rdi,QWORD PTR [rsp+0x1e8]
    34a0:	00 
    34a1:	c5 f8 77             	vzeroupper 
    34a4:	e8 07 ba 00 00       	call   eeb0 <_Z10traceedgecPv>
    34a9:	64 48 8b 04 25 28 00 	mov    rax,QWORD PTR fs:0x28
    34b0:	00 00 
    34b2:	48 3b 84 24 b0 01 00 	cmp    rax,QWORD PTR [rsp+0x1b0]
    34b9:	00 
    34ba:	0f 85 e7 00 00 00    	jne    35a7 <sgxsd_enclave_negotiate_request+0x407>
    34c0:	89 e8                	mov    eax,ebp
    34c2:	48 81 c4 b8 01 00 00 	add    rsp,0x1b8
    34c9:	5b                   	pop    rbx
    34ca:	41 5c                	pop    r12
    34cc:	41 5d                	pop    r13
    34ce:	41 5e                	pop    r14
    34d0:	41 5f                	pop    r15
    34d2:	5d                   	pop    rbp
    34d3:	c3                   	ret    
    34d4:	31 ff                	xor    edi,edi
    34d6:	e8 45 bd 00 00       	call   f220 <_Z7tracebrPv>
    34db:	48 8d 3d 8e 1b 01 00 	lea    rdi,[rip+0x11b8e]        # 15070 <memset_s>
    34e2:	e8 c9 b9 00 00       	call   eeb0 <_Z10traceedgecPv>
    34e7:	be 20 00 00 00       	mov    esi,0x20
    34ec:	b9 20 00 00 00       	mov    ecx,0x20
    34f1:	48 8d bc 24 b0 00 00 	lea    rdi,[rsp+0xb0]
    34f8:	00 
    34f9:	31 d2                	xor    edx,edx
    34fb:	e8 70 1b 01 00       	call   15070 <memset_s>
    3500:	4d 8d 66 40          	lea    r12,[r14+0x40]
    3504:	4d 8d 7e 70          	lea    r15,[r14+0x70]
    3508:	48 8d 3d d1 ed ff ff 	lea    rdi,[rip+0xffffffffffffedd1]        # 22e0 <sgxsd_aes_gcm_run>
    350f:	e8 9c b9 00 00       	call   eeb0 <_Z10traceedgecPv>
    3514:	48 83 ec 08          	sub    rsp,0x8
    3518:	bd 01 00 00 00       	mov    ebp,0x1
    351d:	4c 8d ac 24 90 00 00 	lea    r13,[rsp+0x90]
    3524:	00 
    3525:	48 8d 54 24 68       	lea    rdx,[rsp+0x68]
    352a:	bf 01 00 00 00       	mov    edi,0x1
    352f:	4c 89 ee             	mov    rsi,r13
    3532:	b9 24 00 00 00       	mov    ecx,0x24
    3537:	4d 89 e0             	mov    r8,r12
    353a:	49 89 d9             	mov    r9,rbx
    353d:	41 57                	push   r15
    353f:	6a 00                	push   0x0
    3541:	6a 00                	push   0x0
    3543:	e8 98 ed ff ff       	call   22e0 <sgxsd_aes_gcm_run>
    3548:	48 83 c4 20          	add    rsp,0x20
    354c:	89 c3                	mov    ebx,eax
    354e:	48 8d 3d 1b 1b 01 00 	lea    rdi,[rip+0x11b1b]        # 15070 <memset_s>
    3555:	e8 56 b9 00 00       	call   eeb0 <_Z10traceedgecPv>
    355a:	be 20 00 00 00       	mov    esi,0x20
    355f:	b9 20 00 00 00       	mov    ecx,0x20
    3564:	4c 89 ef             	mov    rdi,r13
    3567:	31 d2                	xor    edx,edx
    3569:	e8 02 1b 01 00       	call   15070 <memset_s>
    356e:	85 db                	test   ebx,ebx
    3570:	0f 85 fa fe ff ff    	jne    3470 <sgxsd_enclave_negotiate_request+0x2d0>
    3576:	31 ff                	xor    edi,edi
    3578:	e8 a3 bc 00 00       	call   f220 <_Z7tracebrPv>
    357d:	48 8d 84 24 50 01 00 	lea    rax,[rsp+0x150]
    3584:	00 
    3585:	c5 fc 10 00          	vmovups ymm0,YMMWORD PTR [rax]
    3589:	c4 c1 7c 11 06       	vmovups YMMWORD PTR [r14],ymm0
    358e:	48 8d 84 24 90 01 00 	lea    rax,[rsp+0x190]
    3595:	00 
    3596:	c5 fc 10 00          	vmovups ymm0,YMMWORD PTR [rax]
    359a:	c4 c1 7c 11 46 20    	vmovups YMMWORD PTR [r14+0x20],ymm0
    35a0:	31 ed                	xor    ebp,ebp
    35a2:	e9 f2 fe ff ff       	jmp    3499 <sgxsd_enclave_negotiate_request+0x2f9>
    35a7:	e8 24 e9 00 00       	call   11ed0 <__stack_chk_fail>
    35ac:	0f 1f 40 00          	nop    DWORD PTR [rax+0x0]

00000000000035b0 <sgxsd_enclave_server_reply>:
    35b0:	55                   	push   rbp
    35b1:	41 57                	push   r15
    35b3:	41 56                	push   r14
    35b5:	53                   	push   rbx
    35b6:	50                   	push   rax
    35b7:	89 f5                	mov    ebp,esi
    35b9:	48 89 fb             	mov    rbx,rdi
    35bc:	4c 8d 74 24 30       	lea    r14,[rsp+0x30]
    35c1:	48 8d 3d 88 00 00 00 	lea    rdi,[rip+0x88]        # 3650 <sgxsd_enclave_server_reply_noerase>
    35c8:	e8 e3 b8 00 00       	call   eeb0 <_Z10traceedgecPv>
    35cd:	48 89 df             	mov    rdi,rbx
    35d0:	89 ee                	mov    esi,ebp
    35d2:	4c 89 f2             	mov    rdx,r14
    35d5:	e8 76 00 00 00       	call   3650 <sgxsd_enclave_server_reply_noerase>
    35da:	41 89 c7             	mov    r15d,eax
    35dd:	48 85 db             	test   rbx,rbx
    35e0:	74 28                	je     360a <sgxsd_enclave_server_reply+0x5a>
    35e2:	bf 01 00 00 00       	mov    edi,0x1
    35e7:	e8 34 bc 00 00       	call   f220 <_Z7tracebrPv>
    35ec:	89 ed                	mov    ebp,ebp
    35ee:	48 8d 3d 7b 1a 01 00 	lea    rdi,[rip+0x11a7b]        # 15070 <memset_s>
    35f5:	e8 b6 b8 00 00       	call   eeb0 <_Z10traceedgecPv>
    35fa:	48 89 df             	mov    rdi,rbx
    35fd:	48 89 ee             	mov    rsi,rbp
    3600:	31 d2                	xor    edx,edx
    3602:	48 89 e9             	mov    rcx,rbp
    3605:	e8 66 1a 01 00       	call   15070 <memset_s>
    360a:	31 ff                	xor    edi,edi
    360c:	e8 0f bc 00 00       	call   f220 <_Z7tracebrPv>
    3611:	48 8d 3d 58 1a 01 00 	lea    rdi,[rip+0x11a58]        # 15070 <memset_s>
    3618:	e8 93 b8 00 00       	call   eeb0 <_Z10traceedgecPv>
    361d:	be 28 00 00 00       	mov    esi,0x28
    3622:	b9 28 00 00 00       	mov    ecx,0x28
    3627:	4c 89 f7             	mov    rdi,r14
    362a:	31 d2                	xor    edx,edx
    362c:	e8 3f 1a 01 00       	call   15070 <memset_s>
    3631:	48 8b 7c 24 28       	mov    rdi,QWORD PTR [rsp+0x28]
    3636:	e8 75 b8 00 00       	call   eeb0 <_Z10traceedgecPv>
    363b:	44 89 f8             	mov    eax,r15d
    363e:	48 83 c4 08          	add    rsp,0x8
    3642:	5b                   	pop    rbx
    3643:	41 5e                	pop    r14
    3645:	41 5f                	pop    r15
    3647:	5d                   	pop    rbp
    3648:	c3                   	ret    
    3649:	0f 1f 80 00 00 00 00 	nop    DWORD PTR [rax+0x0]

0000000000003650 <sgxsd_enclave_server_reply_noerase>:
    3650:	55                   	push   rbp
    3651:	41 57                	push   r15
    3653:	41 56                	push   r14
    3655:	41 55                	push   r13
    3657:	41 54                	push   r12
    3659:	53                   	push   rbx
    365a:	48 83 ec 58          	sub    rsp,0x58
    365e:	49 89 d6             	mov    r14,rdx
    3661:	41 89 f7             	mov    r15d,esi
    3664:	48 89 fb             	mov    rbx,rdi
    3667:	64 48 8b 04 25 28 00 	mov    rax,QWORD PTR fs:0x28
    366e:	00 00 
    3670:	48 89 44 24 50       	mov    QWORD PTR [rsp+0x50],rax
    3675:	48 85 ff             	test   rdi,rdi
    3678:	74 32                	je     36ac <sgxsd_enclave_server_reply_noerase+0x5c>
    367a:	31 ff                	xor    edi,edi
    367c:	e8 9f bb 00 00       	call   f220 <_Z7tracebrPv>
    3681:	48 8d 3d a8 bf 00 00 	lea    rdi,[rip+0xbfa8]        # f630 <sgx_read_rand>
    3688:	e8 23 b8 00 00       	call   eeb0 <_Z10traceedgecPv>
    368d:	48 8d 7c 24 10       	lea    rdi,[rsp+0x10]
    3692:	be 0c 00 00 00       	mov    esi,0xc
    3697:	e8 94 bf 00 00       	call   f630 <sgx_read_rand>
    369c:	85 c0                	test   eax,eax
    369e:	74 2f                	je     36cf <sgxsd_enclave_server_reply_noerase+0x7f>
    36a0:	89 c5                	mov    ebp,eax
    36a2:	bf 01 00 00 00       	mov    edi,0x1
    36a7:	e9 b6 00 00 00       	jmp    3762 <sgxsd_enclave_server_reply_noerase+0x112>
    36ac:	bf 01 00 00 00       	mov    edi,0x1
    36b1:	e8 6a bb 00 00       	call   f220 <_Z7tracebrPv>
    36b6:	45 85 ff             	test   r15d,r15d
    36b9:	74 bf                	je     367a <sgxsd_enclave_server_reply_noerase+0x2a>
    36bb:	bf 01 00 00 00       	mov    edi,0x1
    36c0:	e8 5b bb 00 00       	call   f220 <_Z7tracebrPv>
    36c5:	bd 02 00 00 00       	mov    ebp,0x2
    36ca:	e9 98 00 00 00       	jmp    3767 <sgxsd_enclave_server_reply_noerase+0x117>
    36cf:	31 ff                	xor    edi,edi
    36d1:	e8 4a bb 00 00       	call   f220 <_Z7tracebrPv>
    36d6:	80 4c 24 10 01       	or     BYTE PTR [rsp+0x10],0x1
    36db:	4d 8d 66 08          	lea    r12,[r14+0x8]
    36df:	4c 8d 6c 24 1c       	lea    r13,[rsp+0x1c]
    36e4:	48 8d 3d f5 eb ff ff 	lea    rdi,[rip+0xffffffffffffebf5]        # 22e0 <sgxsd_aes_gcm_run>
    36eb:	e8 c0 b7 00 00       	call   eeb0 <_Z10traceedgecPv>
    36f0:	48 83 ec 08          	sub    rsp,0x8
    36f4:	bd 01 00 00 00       	mov    ebp,0x1
    36f9:	4c 8d 4c 24 18       	lea    r9,[rsp+0x18]
    36fe:	bf 01 00 00 00       	mov    edi,0x1
    3703:	4c 89 e6             	mov    rsi,r12
    3706:	48 89 da             	mov    rdx,rbx
    3709:	44 89 f9             	mov    ecx,r15d
    370c:	49 89 d8             	mov    r8,rbx
    370f:	41 55                	push   r13
    3711:	6a 00                	push   0x0
    3713:	6a 00                	push   0x0
    3715:	e8 c6 eb ff ff       	call   22e0 <sgxsd_aes_gcm_run>
    371a:	48 83 c4 20          	add    rsp,0x20
    371e:	85 c0                	test   eax,eax
    3720:	74 07                	je     3729 <sgxsd_enclave_server_reply_noerase+0xd9>
    3722:	bf 01 00 00 00       	mov    edi,0x1
    3727:	eb 39                	jmp    3762 <sgxsd_enclave_server_reply_noerase+0x112>
    3729:	31 ff                	xor    edi,edi
    372b:	e8 f0 ba 00 00       	call   f220 <_Z7tracebrPv>
    3730:	45 89 ff             	mov    r15d,r15d
    3733:	49 8b 2e             	mov    rbp,QWORD PTR [r14]
    3736:	48 8d 3d 03 e5 ff ff 	lea    rdi,[rip+0xffffffffffffe503]        # 1c40 <sgxsd_ocall_reply>
    373d:	e8 6e b7 00 00       	call   eeb0 <_Z10traceedgecPv>
    3742:	48 8d 7c 24 0c       	lea    rdi,[rsp+0xc]
    3747:	48 8d 74 24 10       	lea    rsi,[rsp+0x10]
    374c:	48 89 da             	mov    rdx,rbx
    374f:	4c 89 f9             	mov    rcx,r15
    3752:	49 89 e8             	mov    r8,rbp
    3755:	e8 e6 e4 ff ff       	call   1c40 <sgxsd_ocall_reply>
    375a:	85 c0                	test   eax,eax
    375c:	74 37                	je     3795 <sgxsd_enclave_server_reply_noerase+0x145>
    375e:	89 c5                	mov    ebp,eax
    3760:	31 ff                	xor    edi,edi
    3762:	e8 b9 ba 00 00       	call   f220 <_Z7tracebrPv>
    3767:	48 8b bc 24 88 00 00 	mov    rdi,QWORD PTR [rsp+0x88]
    376e:	00 
    376f:	e8 3c b7 00 00       	call   eeb0 <_Z10traceedgecPv>
    3774:	64 48 8b 04 25 28 00 	mov    rax,QWORD PTR fs:0x28
    377b:	00 00 
    377d:	48 3b 44 24 50       	cmp    rax,QWORD PTR [rsp+0x50]
    3782:	75 21                	jne    37a5 <sgxsd_enclave_server_reply_noerase+0x155>
    3784:	89 e8                	mov    eax,ebp
    3786:	48 83 c4 58          	add    rsp,0x58
    378a:	5b                   	pop    rbx
    378b:	41 5c                	pop    r12
    378d:	41 5d                	pop    r13
    378f:	41 5e                	pop    r14
    3791:	41 5f                	pop    r15
    3793:	5d                   	pop    rbp
    3794:	c3                   	ret    
    3795:	bf 01 00 00 00       	mov    edi,0x1
    379a:	e8 81 ba 00 00       	call   f220 <_Z7tracebrPv>
    379f:	8b 6c 24 0c          	mov    ebp,DWORD PTR [rsp+0xc]
    37a3:	eb c2                	jmp    3767 <sgxsd_enclave_server_reply_noerase+0x117>
    37a5:	e8 26 e7 00 00       	call   11ed0 <__stack_chk_fail>
    37aa:	66 0f 1f 44 00 00    	nop    WORD PTR [rax+rax*1+0x0]

00000000000037b0 <sgxsd_enclave_server_start>:
    37b0:	41 57                	push   r15
    37b2:	41 56                	push   r14
    37b4:	41 54                	push   r12
    37b6:	53                   	push   rbx
    37b7:	50                   	push   rax
    37b8:	80 3d a1 44 23 00 00 	cmp    BYTE PTR [rip+0x2344a1],0x0        # 237c60 <g_sgxsd_enclave_node_initialized>
    37bf:	74 2a                	je     37eb <sgxsd_enclave_server_start+0x3b>
    37c1:	48 89 f3             	mov    rbx,rsi
    37c4:	49 89 fe             	mov    r14,rdi
    37c7:	bf 01 00 00 00       	mov    edi,0x1
    37cc:	e8 4f ba 00 00       	call   f220 <_Z7tracebrPv>
    37d1:	48 81 fb 00 01 00 00 	cmp    rbx,0x100
    37d8:	72 1f                	jb     37f9 <sgxsd_enclave_server_start+0x49>
    37da:	bf 01 00 00 00       	mov    edi,0x1
    37df:	e8 3c ba 00 00       	call   f220 <_Z7tracebrPv>
    37e4:	bb 02 00 00 00       	mov    ebx,0x2
    37e9:	eb 70                	jmp    385b <sgxsd_enclave_server_start+0xab>
    37eb:	31 ff                	xor    edi,edi
    37ed:	e8 2e ba 00 00       	call   f220 <_Z7tracebrPv>
    37f2:	bb 05 00 00 00       	mov    ebx,0x5
    37f7:	eb 62                	jmp    385b <sgxsd_enclave_server_start+0xab>
    37f9:	31 ff                	xor    edi,edi
    37fb:	e8 20 ba 00 00       	call   f220 <_Z7tracebrPv>
    3800:	48 c1 e3 04          	shl    rbx,0x4
    3804:	48 8d 05 25 4c 23 00 	lea    rax,[rip+0x234c25]        # 238430 <g_sgxsd_enclave_server_states>
    380b:	4c 8d 3c 18          	lea    r15,[rax+rbx*1]
    380f:	4c 8d 24 03          	lea    r12,[rbx+rax*1]
    3813:	49 83 c4 04          	add    r12,0x4
    3817:	48 8d 3d b2 1b 01 00 	lea    rdi,[rip+0x11bb2]        # 153d0 <sgx_spin_lock>
    381e:	e8 8d b6 00 00       	call   eeb0 <_Z10traceedgecPv>
    3823:	4c 89 e7             	mov    rdi,r12
    3826:	e8 a5 1b 01 00       	call   153d0 <sgx_spin_lock>
    382b:	0f ae e8             	lfence 
    382e:	48 8d 3d 4b 00 00 00 	lea    rdi,[rip+0x4b]        # 3880 <sgxsd_enclave_server_start_locked>
    3835:	e8 76 b6 00 00       	call   eeb0 <_Z10traceedgecPv>
    383a:	4c 89 f7             	mov    rdi,r14
    383d:	4c 89 fe             	mov    rsi,r15
    3840:	e8 3b 00 00 00       	call   3880 <sgxsd_enclave_server_start_locked>
    3845:	89 c3                	mov    ebx,eax
    3847:	48 8d 3d e2 1b 01 00 	lea    rdi,[rip+0x11be2]        # 15430 <sgx_spin_unlock>
    384e:	e8 5d b6 00 00       	call   eeb0 <_Z10traceedgecPv>
    3853:	4c 89 e7             	mov    rdi,r12
    3856:	e8 d5 1b 01 00       	call   15430 <sgx_spin_unlock>
    385b:	48 8b 7c 24 28       	mov    rdi,QWORD PTR [rsp+0x28]
    3860:	e8 4b b6 00 00       	call   eeb0 <_Z10traceedgecPv>
    3865:	89 d8                	mov    eax,ebx
    3867:	48 83 c4 08          	add    rsp,0x8
    386b:	5b                   	pop    rbx
    386c:	41 5c                	pop    r12
    386e:	41 5e                	pop    r14
    3870:	41 5f                	pop    r15
    3872:	c3                   	ret    
    3873:	66 2e 0f 1f 84 00 00 	nop    WORD PTR cs:[rax+rax*1+0x0]
    387a:	00 00 00 
    387d:	0f 1f 00             	nop    DWORD PTR [rax]

0000000000003880 <sgxsd_enclave_server_start_locked>:
    3880:	55                   	push   rbp
    3881:	41 57                	push   r15
    3883:	41 56                	push   r14
    3885:	53                   	push   rbx
    3886:	50                   	push   rax
    3887:	80 3e 00             	cmp    BYTE PTR [rsi],0x0
    388a:	74 11                	je     389d <sgxsd_enclave_server_start_locked+0x1d>
    388c:	bf 01 00 00 00       	mov    edi,0x1
    3891:	e8 8a b9 00 00       	call   f220 <_Z7tracebrPv>
    3896:	bd 05 00 00 00       	mov    ebp,0x5
    389b:	eb 4a                	jmp    38e7 <sgxsd_enclave_server_start_locked+0x67>
    389d:	48 89 f3             	mov    rbx,rsi
    38a0:	49 89 fe             	mov    r14,rdi
    38a3:	31 ed                	xor    ebp,ebp
    38a5:	31 ff                	xor    edi,edi
    38a7:	e8 74 b9 00 00       	call   f220 <_Z7tracebrPv>
    38ac:	4c 8d 7b 08          	lea    r15,[rbx+0x8]
    38b0:	48 8d 3d 19 ab 00 00 	lea    rdi,[rip+0xab19]        # e3d0 <sgxsd_enclave_server_init>
    38b7:	e8 f4 b5 00 00       	call   eeb0 <_Z10traceedgecPv>
    38bc:	4c 89 f7             	mov    rdi,r14
    38bf:	4c 89 fe             	mov    rsi,r15
    38c2:	e8 09 ab 00 00       	call   e3d0 <sgxsd_enclave_server_init>
    38c7:	85 c0                	test   eax,eax
    38c9:	74 0f                	je     38da <sgxsd_enclave_server_start_locked+0x5a>
    38cb:	41 89 c6             	mov    r14d,eax
    38ce:	31 ff                	xor    edi,edi
    38d0:	e8 4b b9 00 00       	call   f220 <_Z7tracebrPv>
    38d5:	44 89 f5             	mov    ebp,r14d
    38d8:	eb 0d                	jmp    38e7 <sgxsd_enclave_server_start_locked+0x67>
    38da:	bf 01 00 00 00       	mov    edi,0x1
    38df:	e8 3c b9 00 00       	call   f220 <_Z7tracebrPv>
    38e4:	c6 03 01             	mov    BYTE PTR [rbx],0x1
    38e7:	48 8b 7c 24 28       	mov    rdi,QWORD PTR [rsp+0x28]
    38ec:	e8 bf b5 00 00       	call   eeb0 <_Z10traceedgecPv>
    38f1:	89 e8                	mov    eax,ebp
    38f3:	48 83 c4 08          	add    rsp,0x8
    38f7:	5b                   	pop    rbx
    38f8:	41 5e                	pop    r14
    38fa:	41 5f                	pop    r15
    38fc:	5d                   	pop    rbp
    38fd:	c3                   	ret    
    38fe:	66 90                	xchg   ax,ax

0000000000003900 <sgxsd_enclave_server_call>:
    3900:	55                   	push   rbp
    3901:	41 57                	push   r15
    3903:	41 56                	push   r14
    3905:	41 55                	push   r13
    3907:	41 54                	push   r12
    3909:	53                   	push   rbx
    390a:	50                   	push   rax
    390b:	80 3d 4e 43 23 00 00 	cmp    BYTE PTR [rip+0x23434e],0x0        # 237c60 <g_sgxsd_enclave_node_initialized>
    3912:	74 39                	je     394d <sgxsd_enclave_server_call+0x4d>
    3914:	4c 89 cd             	mov    rbp,r9
    3917:	4d 89 c6             	mov    r14,r8
    391a:	49 89 cf             	mov    r15,rcx
    391d:	49 89 d4             	mov    r12,rdx
    3920:	49 89 f5             	mov    r13,rsi
    3923:	48 89 fb             	mov    rbx,rdi
    3926:	bf 01 00 00 00       	mov    edi,0x1
    392b:	e8 f0 b8 00 00       	call   f220 <_Z7tracebrPv>
    3930:	48 81 fd 00 01 00 00 	cmp    rbp,0x100
    3937:	72 22                	jb     395b <sgxsd_enclave_server_call+0x5b>
    3939:	bf 01 00 00 00       	mov    edi,0x1
    393e:	e8 dd b8 00 00       	call   f220 <_Z7tracebrPv>
    3943:	bb 02 00 00 00       	mov    ebx,0x2
    3948:	e9 80 00 00 00       	jmp    39cd <sgxsd_enclave_server_call+0xcd>
    394d:	31 ff                	xor    edi,edi
    394f:	e8 cc b8 00 00       	call   f220 <_Z7tracebrPv>
    3954:	bb 05 00 00 00       	mov    ebx,0x5
    3959:	eb 72                	jmp    39cd <sgxsd_enclave_server_call+0xcd>
    395b:	31 ff                	xor    edi,edi
    395d:	e8 be b8 00 00       	call   f220 <_Z7tracebrPv>
    3962:	48 c1 e5 04          	shl    rbp,0x4
    3966:	48 8d 05 c3 4a 23 00 	lea    rax,[rip+0x234ac3]        # 238430 <g_sgxsd_enclave_server_states>
    396d:	48 8d 0c 28          	lea    rcx,[rax+rbp*1]
    3971:	48 89 0c 24          	mov    QWORD PTR [rsp],rcx
    3975:	48 01 c5             	add    rbp,rax
    3978:	48 83 c5 04          	add    rbp,0x4
    397c:	48 8d 3d 4d 1a 01 00 	lea    rdi,[rip+0x11a4d]        # 153d0 <sgx_spin_lock>
    3983:	e8 28 b5 00 00       	call   eeb0 <_Z10traceedgecPv>
    3988:	48 89 ef             	mov    rdi,rbp
    398b:	e8 40 1a 01 00       	call   153d0 <sgx_spin_lock>
    3990:	0f ae e8             	lfence 
    3993:	48 8d 3d 56 00 00 00 	lea    rdi,[rip+0x56]        # 39f0 <sgxsd_enclave_server_call_locked>
    399a:	e8 11 b5 00 00       	call   eeb0 <_Z10traceedgecPv>
    399f:	48 89 df             	mov    rdi,rbx
    39a2:	4c 89 ee             	mov    rsi,r13
    39a5:	4c 89 e2             	mov    rdx,r12
    39a8:	4c 89 f9             	mov    rcx,r15
    39ab:	4d 89 f0             	mov    r8,r14
    39ae:	4c 8b 0c 24          	mov    r9,QWORD PTR [rsp]
    39b2:	e8 39 00 00 00       	call   39f0 <sgxsd_enclave_server_call_locked>
    39b7:	89 c3                	mov    ebx,eax
    39b9:	48 8d 3d 70 1a 01 00 	lea    rdi,[rip+0x11a70]        # 15430 <sgx_spin_unlock>
    39c0:	e8 eb b4 00 00       	call   eeb0 <_Z10traceedgecPv>
    39c5:	48 89 ef             	mov    rdi,rbp
    39c8:	e8 63 1a 01 00       	call   15430 <sgx_spin_unlock>
    39cd:	48 8b 7c 24 38       	mov    rdi,QWORD PTR [rsp+0x38]
    39d2:	e8 d9 b4 00 00       	call   eeb0 <_Z10traceedgecPv>
    39d7:	89 d8                	mov    eax,ebx
    39d9:	48 83 c4 08          	add    rsp,0x8
    39dd:	5b                   	pop    rbx
    39de:	41 5c                	pop    r12
    39e0:	41 5d                	pop    r13
    39e2:	41 5e                	pop    r14
    39e4:	41 5f                	pop    r15
    39e6:	5d                   	pop    rbp
    39e7:	c3                   	ret    
    39e8:	0f 1f 84 00 00 00 00 	nop    DWORD PTR [rax+rax*1+0x0]
    39ef:	00 

00000000000039f0 <sgxsd_enclave_server_call_locked>:
    39f0:	55                   	push   rbp
    39f1:	41 57                	push   r15
    39f3:	41 56                	push   r14
    39f5:	41 55                	push   r13
    39f7:	41 54                	push   r12
    39f9:	53                   	push   rbx
    39fa:	48 81 ec b8 00 00 00 	sub    rsp,0xb8
    3a01:	64 48 8b 04 25 28 00 	mov    rax,QWORD PTR fs:0x28
    3a08:	00 00 
    3a0a:	48 89 84 24 b0 00 00 	mov    QWORD PTR [rsp+0xb0],rax
    3a11:	00 
    3a12:	41 80 39 00          	cmp    BYTE PTR [r9],0x0
    3a16:	0f 84 8d 00 00 00    	je     3aa9 <sgxsd_enclave_server_call_locked+0xb9>
    3a1c:	4d 89 cd             	mov    r13,r9
    3a1f:	4d 89 c4             	mov    r12,r8
    3a22:	49 89 ce             	mov    r14,rcx
    3a25:	49 89 d7             	mov    r15,rdx
    3a28:	48 89 f3             	mov    rbx,rsi
    3a2b:	48 89 fd             	mov    rbp,rdi
    3a2e:	bf 01 00 00 00       	mov    edi,0x1
    3a33:	e8 e8 b7 00 00       	call   f220 <_Z7tracebrPv>
    3a38:	48 85 db             	test   rbx,rbx
    3a3b:	74 5b                	je     3a98 <sgxsd_enclave_server_call_locked+0xa8>
    3a3d:	31 ff                	xor    edi,edi
    3a3f:	e8 dc b7 00 00       	call   f220 <_Z7tracebrPv>
    3a44:	4d 85 ff             	test   r15,r15
    3a47:	74 4f                	je     3a98 <sgxsd_enclave_server_call_locked+0xa8>
    3a49:	31 ff                	xor    edi,edi
    3a4b:	e8 d0 b7 00 00       	call   f220 <_Z7tracebrPv>
    3a50:	4d 85 f6             	test   r14,r14
    3a53:	74 43                	je     3a98 <sgxsd_enclave_server_call_locked+0xa8>
    3a55:	48 89 6c 24 30       	mov    QWORD PTR [rsp+0x30],rbp
    3a5a:	31 ff                	xor    edi,edi
    3a5c:	e8 bf b7 00 00       	call   f220 <_Z7tracebrPv>
    3a61:	48 8d 6b 1c          	lea    rbp,[rbx+0x1c]
    3a65:	48 8d 3d 74 f4 ff ff 	lea    rdi,[rip+0xfffffffffffff474]        # 2ee0 <sgxsd_enclave_remove_pending_request>
    3a6c:	e8 3f b4 00 00       	call   eeb0 <_Z10traceedgecPv>
    3a71:	48 8d b4 24 88 00 00 	lea    rsi,[rsp+0x88]
    3a78:	00 
    3a79:	48 89 6c 24 38       	mov    QWORD PTR [rsp+0x38],rbp
    3a7e:	48 89 ef             	mov    rdi,rbp
    3a81:	e8 5a f4 ff ff       	call   2ee0 <sgxsd_enclave_remove_pending_request>
    3a86:	85 c0                	test   eax,eax
    3a88:	74 63                	je     3aed <sgxsd_enclave_server_call_locked+0xfd>
    3a8a:	89 c5                	mov    ebp,eax
    3a8c:	bf 01 00 00 00       	mov    edi,0x1
    3a91:	e8 8a b7 00 00       	call   f220 <_Z7tracebrPv>
    3a96:	eb 1d                	jmp    3ab5 <sgxsd_enclave_server_call_locked+0xc5>
    3a98:	bf 01 00 00 00       	mov    edi,0x1
    3a9d:	e8 7e b7 00 00       	call   f220 <_Z7tracebrPv>
    3aa2:	bd 02 00 00 00       	mov    ebp,0x2
    3aa7:	eb 0c                	jmp    3ab5 <sgxsd_enclave_server_call_locked+0xc5>
    3aa9:	31 ff                	xor    edi,edi
    3aab:	e8 70 b7 00 00       	call   f220 <_Z7tracebrPv>
    3ab0:	bd 05 00 00 00       	mov    ebp,0x5
    3ab5:	48 8b bc 24 e8 00 00 	mov    rdi,QWORD PTR [rsp+0xe8]
    3abc:	00 
    3abd:	e8 ee b3 00 00       	call   eeb0 <_Z10traceedgecPv>
    3ac2:	64 48 8b 04 25 28 00 	mov    rax,QWORD PTR fs:0x28
    3ac9:	00 00 
    3acb:	48 3b 84 24 b0 00 00 	cmp    rax,QWORD PTR [rsp+0xb0]
    3ad2:	00 
    3ad3:	0f 85 8a 01 00 00    	jne    3c63 <sgxsd_enclave_server_call_locked+0x273>
    3ad9:	89 e8                	mov    eax,ebp
    3adb:	48 81 c4 b8 00 00 00 	add    rsp,0xb8
    3ae2:	5b                   	pop    rbx
    3ae3:	41 5c                	pop    r12
    3ae5:	41 5d                	pop    r13
    3ae7:	41 5e                	pop    r14
    3ae9:	41 5f                	pop    r15
    3aeb:	5d                   	pop    rbp
    3aec:	c3                   	ret    
    3aed:	31 ff                	xor    edi,edi
    3aef:	e8 2c b7 00 00       	call   f220 <_Z7tracebrPv>
    3af4:	c5 f8 57 c0          	vxorps xmm0,xmm0,xmm0
    3af8:	c5 fc 11 44 24 48    	vmovups YMMWORD PTR [rsp+0x48],ymm0
    3afe:	4c 89 64 24 40       	mov    QWORD PTR [rsp+0x40],r12
    3b03:	48 8d 3d 06 f5 ff ff 	lea    rdi,[rip+0xfffffffffffff506]        # 3010 <sgxsd_enclave_derive_request_keys>
    3b0a:	c5 f8 77             	vzeroupper 
    3b0d:	e8 9e b3 00 00       	call   eeb0 <_Z10traceedgecPv>
    3b12:	48 8d ac 24 88 00 00 	lea    rbp,[rsp+0x88]
    3b19:	00 
    3b1a:	4c 8d 64 24 68       	lea    r12,[rsp+0x68]
    3b1f:	48 89 ef             	mov    rdi,rbp
    3b22:	4c 89 e6             	mov    rsi,r12
    3b25:	48 8d 54 24 48       	lea    rdx,[rsp+0x48]
    3b2a:	e8 e1 f4 ff ff       	call   3010 <sgxsd_enclave_derive_request_keys>
    3b2f:	48 8d 3d 3a 15 01 00 	lea    rdi,[rip+0x1153a]        # 15070 <memset_s>
    3b36:	e8 75 b3 00 00       	call   eeb0 <_Z10traceedgecPv>
    3b3b:	be 28 00 00 00       	mov    esi,0x28
    3b40:	b9 28 00 00 00       	mov    ecx,0x28
    3b45:	48 89 ef             	mov    rdi,rbp
    3b48:	31 d2                	xor    edx,edx
    3b4a:	e8 21 15 01 00       	call   15070 <memset_s>
    3b4f:	48 8d 6b 0c          	lea    rbp,[rbx+0xc]
    3b53:	48 8d 3d 86 e7 ff ff 	lea    rdi,[rip+0xffffffffffffe786]        # 22e0 <sgxsd_aes_gcm_run>
    3b5a:	e8 51 b3 00 00       	call   eeb0 <_Z10traceedgecPv>
    3b5f:	48 89 6c 24 10       	mov    QWORD PTR [rsp+0x10],rbp
    3b64:	48 8b 44 24 38       	mov    rax,QWORD PTR [rsp+0x38]
    3b69:	48 89 04 24          	mov    QWORD PTR [rsp],rax
    3b6d:	c7 44 24 08 24 00 00 	mov    DWORD PTR [rsp+0x8],0x24
    3b74:	00 
    3b75:	bf 00 00 00 00       	mov    edi,0x0
    3b7a:	4c 89 e6             	mov    rsi,r12
    3b7d:	4c 89 fa             	mov    rdx,r15
    3b80:	44 89 f1             	mov    ecx,r14d
    3b83:	4d 89 f8             	mov    r8,r15
    3b86:	49 89 d9             	mov    r9,rbx
    3b89:	e8 52 e7 ff ff       	call   22e0 <sgxsd_aes_gcm_run>
    3b8e:	89 c3                	mov    ebx,eax
    3b90:	48 8d 3d d9 14 01 00 	lea    rdi,[rip+0x114d9]        # 15070 <memset_s>
    3b97:	e8 14 b3 00 00       	call   eeb0 <_Z10traceedgecPv>
    3b9c:	be 20 00 00 00       	mov    esi,0x20
    3ba1:	b9 20 00 00 00       	mov    ecx,0x20
    3ba6:	4c 89 e7             	mov    rdi,r12
    3ba9:	31 d2                	xor    edx,edx
    3bab:	e8 c0 14 01 00       	call   15070 <memset_s>
    3bb0:	85 db                	test   ebx,ebx
    3bb2:	74 26                	je     3bda <sgxsd_enclave_server_call_locked+0x1ea>
    3bb4:	bd 01 00 00 00       	mov    ebp,0x1
    3bb9:	bf 01 00 00 00       	mov    edi,0x1
    3bbe:	e8 5d b6 00 00       	call   f220 <_Z7tracebrPv>
    3bc3:	83 fb 02             	cmp    ebx,0x2
    3bc6:	0f 84 c0 fe ff ff    	je     3a8c <sgxsd_enclave_server_call_locked+0x9c>
    3bcc:	31 ff                	xor    edi,edi
    3bce:	e8 4d b6 00 00       	call   f220 <_Z7tracebrPv>
    3bd3:	89 dd                	mov    ebp,ebx
    3bd5:	e9 db fe ff ff       	jmp    3ab5 <sgxsd_enclave_server_call_locked+0xc5>
    3bda:	31 ff                	xor    edi,edi
    3bdc:	e8 3f b6 00 00       	call   f220 <_Z7tracebrPv>
    3be1:	49 83 c5 08          	add    r13,0x8
    3be5:	48 8d 3d c4 a8 00 00 	lea    rdi,[rip+0xa8c4]        # e4b0 <sgxsd_enclave_server_handle_call>
    3bec:	e8 bf b2 00 00       	call   eeb0 <_Z10traceedgecPv>
    3bf1:	48 8b 44 24 60       	mov    rax,QWORD PTR [rsp+0x60]
    3bf6:	48 89 44 24 20       	mov    QWORD PTR [rsp+0x20],rax
    3bfb:	c5 fc 10 44 24 40    	vmovups ymm0,YMMWORD PTR [rsp+0x40]
    3c01:	c5 fc 11 04 24       	vmovups YMMWORD PTR [rsp],ymm0
    3c06:	48 8b 7c 24 30       	mov    rdi,QWORD PTR [rsp+0x30]
    3c0b:	4c 89 fe             	mov    rsi,r15
    3c0e:	44 89 f2             	mov    edx,r14d
    3c11:	4c 89 e9             	mov    rcx,r13
    3c14:	c5 f8 77             	vzeroupper 
    3c17:	e8 94 a8 00 00       	call   e4b0 <sgxsd_enclave_server_handle_call>
    3c1c:	89 c5                	mov    ebp,eax
    3c1e:	44 89 f3             	mov    ebx,r14d
    3c21:	4c 8d 35 48 14 01 00 	lea    r14,[rip+0x11448]        # 15070 <memset_s>
    3c28:	4c 89 f7             	mov    rdi,r14
    3c2b:	e8 80 b2 00 00       	call   eeb0 <_Z10traceedgecPv>
    3c30:	4c 89 ff             	mov    rdi,r15
    3c33:	48 89 de             	mov    rsi,rbx
    3c36:	31 d2                	xor    edx,edx
    3c38:	48 89 d9             	mov    rcx,rbx
    3c3b:	e8 30 14 01 00       	call   15070 <memset_s>
    3c40:	4c 89 f7             	mov    rdi,r14
    3c43:	e8 68 b2 00 00       	call   eeb0 <_Z10traceedgecPv>
    3c48:	48 8d 7c 24 40       	lea    rdi,[rsp+0x40]
    3c4d:	be 28 00 00 00       	mov    esi,0x28
    3c52:	b9 28 00 00 00       	mov    ecx,0x28
    3c57:	31 d2                	xor    edx,edx
    3c59:	e8 12 14 01 00       	call   15070 <memset_s>
    3c5e:	e9 52 fe ff ff       	jmp    3ab5 <sgxsd_enclave_server_call_locked+0xc5>
    3c63:	e8 68 e2 00 00       	call   11ed0 <__stack_chk_fail>
    3c68:	0f 1f 84 00 00 00 00 	nop    DWORD PTR [rax+rax*1+0x0]
    3c6f:	00 

0000000000003c70 <sgxsd_enclave_server_stop>:
    3c70:	41 57                	push   r15
    3c72:	41 56                	push   r14
    3c74:	41 54                	push   r12
    3c76:	53                   	push   rbx
    3c77:	50                   	push   rax
    3c78:	80 3d e1 3f 23 00 00 	cmp    BYTE PTR [rip+0x233fe1],0x0        # 237c60 <g_sgxsd_enclave_node_initialized>
    3c7f:	74 2a                	je     3cab <sgxsd_enclave_server_stop+0x3b>
    3c81:	48 89 f3             	mov    rbx,rsi
    3c84:	49 89 fe             	mov    r14,rdi
    3c87:	bf 01 00 00 00       	mov    edi,0x1
    3c8c:	e8 8f b5 00 00       	call   f220 <_Z7tracebrPv>
    3c91:	48 81 fb 00 01 00 00 	cmp    rbx,0x100
    3c98:	72 1f                	jb     3cb9 <sgxsd_enclave_server_stop+0x49>
    3c9a:	bf 01 00 00 00       	mov    edi,0x1
    3c9f:	e8 7c b5 00 00       	call   f220 <_Z7tracebrPv>
    3ca4:	bb 02 00 00 00       	mov    ebx,0x2
    3ca9:	eb 70                	jmp    3d1b <sgxsd_enclave_server_stop+0xab>
    3cab:	31 ff                	xor    edi,edi
    3cad:	e8 6e b5 00 00       	call   f220 <_Z7tracebrPv>
    3cb2:	bb 05 00 00 00       	mov    ebx,0x5
    3cb7:	eb 62                	jmp    3d1b <sgxsd_enclave_server_stop+0xab>
    3cb9:	31 ff                	xor    edi,edi
    3cbb:	e8 60 b5 00 00       	call   f220 <_Z7tracebrPv>
    3cc0:	48 c1 e3 04          	shl    rbx,0x4
    3cc4:	48 8d 05 65 47 23 00 	lea    rax,[rip+0x234765]        # 238430 <g_sgxsd_enclave_server_states>
    3ccb:	4c 8d 3c 18          	lea    r15,[rax+rbx*1]
    3ccf:	4c 8d 24 03          	lea    r12,[rbx+rax*1]
    3cd3:	49 83 c4 04          	add    r12,0x4
    3cd7:	48 8d 3d f2 16 01 00 	lea    rdi,[rip+0x116f2]        # 153d0 <sgx_spin_lock>
    3cde:	e8 cd b1 00 00       	call   eeb0 <_Z10traceedgecPv>
    3ce3:	4c 89 e7             	mov    rdi,r12
    3ce6:	e8 e5 16 01 00       	call   153d0 <sgx_spin_lock>
    3ceb:	0f ae e8             	lfence 
    3cee:	48 8d 3d 4b 00 00 00 	lea    rdi,[rip+0x4b]        # 3d40 <sgxsd_enclave_server_stop_locked>
    3cf5:	e8 b6 b1 00 00       	call   eeb0 <_Z10traceedgecPv>
    3cfa:	4c 89 f7             	mov    rdi,r14
    3cfd:	4c 89 fe             	mov    rsi,r15
    3d00:	e8 3b 00 00 00       	call   3d40 <sgxsd_enclave_server_stop_locked>
    3d05:	89 c3                	mov    ebx,eax
    3d07:	48 8d 3d 22 17 01 00 	lea    rdi,[rip+0x11722]        # 15430 <sgx_spin_unlock>
    3d0e:	e8 9d b1 00 00       	call   eeb0 <_Z10traceedgecPv>
    3d13:	4c 89 e7             	mov    rdi,r12
    3d16:	e8 15 17 01 00       	call   15430 <sgx_spin_unlock>
    3d1b:	48 8b 7c 24 28       	mov    rdi,QWORD PTR [rsp+0x28]
    3d20:	e8 8b b1 00 00       	call   eeb0 <_Z10traceedgecPv>
    3d25:	89 d8                	mov    eax,ebx
    3d27:	48 83 c4 08          	add    rsp,0x8
    3d2b:	5b                   	pop    rbx
    3d2c:	41 5c                	pop    r12
    3d2e:	41 5e                	pop    r14
    3d30:	41 5f                	pop    r15
    3d32:	c3                   	ret    
    3d33:	66 2e 0f 1f 84 00 00 	nop    WORD PTR cs:[rax+rax*1+0x0]
    3d3a:	00 00 00 
    3d3d:	0f 1f 00             	nop    DWORD PTR [rax]

0000000000003d40 <sgxsd_enclave_server_stop_locked>:
    3d40:	41 57                	push   r15
    3d42:	41 56                	push   r14
    3d44:	53                   	push   rbx
    3d45:	80 3e 00             	cmp    BYTE PTR [rsi],0x0
    3d48:	74 4f                	je     3d99 <sgxsd_enclave_server_stop_locked+0x59>
    3d4a:	48 89 f3             	mov    rbx,rsi
    3d4d:	49 89 fe             	mov    r14,rdi
    3d50:	bf 01 00 00 00       	mov    edi,0x1
    3d55:	e8 c6 b4 00 00       	call   f220 <_Z7tracebrPv>
    3d5a:	4c 8b 7b 08          	mov    r15,QWORD PTR [rbx+0x8]
    3d5e:	48 8d 3d 0b 13 01 00 	lea    rdi,[rip+0x1130b]        # 15070 <memset_s>
    3d65:	e8 46 b1 00 00       	call   eeb0 <_Z10traceedgecPv>
    3d6a:	be 10 00 00 00       	mov    esi,0x10
    3d6f:	b9 10 00 00 00       	mov    ecx,0x10
    3d74:	48 89 df             	mov    rdi,rbx
    3d77:	31 d2                	xor    edx,edx
    3d79:	e8 f2 12 01 00       	call   15070 <memset_s>
    3d7e:	48 8d 3d db a8 00 00 	lea    rdi,[rip+0xa8db]        # e660 <sgxsd_enclave_server_terminate>
    3d85:	e8 26 b1 00 00       	call   eeb0 <_Z10traceedgecPv>
    3d8a:	4c 89 f7             	mov    rdi,r14
    3d8d:	4c 89 fe             	mov    rsi,r15
    3d90:	e8 cb a8 00 00       	call   e660 <sgxsd_enclave_server_terminate>
    3d95:	89 c3                	mov    ebx,eax
    3d97:	eb 0c                	jmp    3da5 <sgxsd_enclave_server_stop_locked+0x65>
    3d99:	31 ff                	xor    edi,edi
    3d9b:	e8 80 b4 00 00       	call   f220 <_Z7tracebrPv>
    3da0:	bb 05 00 00 00       	mov    ebx,0x5
    3da5:	48 8b 7c 24 18       	mov    rdi,QWORD PTR [rsp+0x18]
    3daa:	e8 01 b1 00 00       	call   eeb0 <_Z10traceedgecPv>
    3daf:	89 d8                	mov    eax,ebx
    3db1:	5b                   	pop    rbx
    3db2:	41 5e                	pop    r14
    3db4:	41 5f                	pop    r15
    3db6:	c3                   	ret    
    3db7:	66 0f 1f 84 00 00 00 	nop    WORD PTR [rax+rax*1+0x0]
    3dbe:	00 00 

0000000000003dc0 <br_range_dec32be>:
    3dc0:	41 57                	push   r15
    3dc2:	41 56                	push   r14
    3dc4:	41 54                	push   r12
    3dc6:	53                   	push   rbx
    3dc7:	50                   	push   rax
    3dc8:	48 85 f6             	test   rsi,rsi
    3dcb:	74 2f                	je     3dfc <br_range_dec32be+0x3c>
    3dcd:	49 89 d6             	mov    r14,rdx
    3dd0:	49 89 f4             	mov    r12,rsi
    3dd3:	49 89 ff             	mov    r15,rdi
    3dd6:	31 db                	xor    ebx,ebx
    3dd8:	0f 1f 84 00 00 00 00 	nop    DWORD PTR [rax+rax*1+0x0]
    3ddf:	00 
    3de0:	bf 01 00 00 00       	mov    edi,0x1
    3de5:	e8 36 b4 00 00       	call   f220 <_Z7tracebrPv>
    3dea:	41 8b 04 9e          	mov    eax,DWORD PTR [r14+rbx*4]
    3dee:	41 0f 38 f1 04 9f    	movbe  DWORD PTR [r15+rbx*4],eax
    3df4:	48 ff c3             	inc    rbx
    3df7:	49 39 dc             	cmp    r12,rbx
    3dfa:	75 e4                	jne    3de0 <br_range_dec32be+0x20>
    3dfc:	31 ff                	xor    edi,edi
    3dfe:	e8 1d b4 00 00       	call   f220 <_Z7tracebrPv>
    3e03:	48 8b 7c 24 28       	mov    rdi,QWORD PTR [rsp+0x28]
    3e08:	48 83 c4 08          	add    rsp,0x8
    3e0c:	5b                   	pop    rbx
    3e0d:	41 5c                	pop    r12
    3e0f:	41 5e                	pop    r14
    3e11:	41 5f                	pop    r15
    3e13:	e9 98 b0 00 00       	jmp    eeb0 <_Z10traceedgecPv>
    3e18:	0f 1f 84 00 00 00 00 	nop    DWORD PTR [rax+rax*1+0x0]
    3e1f:	00 

0000000000003e20 <br_range_enc32be>:
    3e20:	41 57                	push   r15
    3e22:	41 56                	push   r14
    3e24:	41 54                	push   r12
    3e26:	53                   	push   rbx
    3e27:	50                   	push   rax
    3e28:	48 85 d2             	test   rdx,rdx
    3e2b:	74 2f                	je     3e5c <br_range_enc32be+0x3c>
    3e2d:	49 89 d4             	mov    r12,rdx
    3e30:	49 89 f6             	mov    r14,rsi
    3e33:	49 89 ff             	mov    r15,rdi
    3e36:	31 db                	xor    ebx,ebx
    3e38:	0f 1f 84 00 00 00 00 	nop    DWORD PTR [rax+rax*1+0x0]
    3e3f:	00 
    3e40:	bf 01 00 00 00       	mov    edi,0x1
    3e45:	e8 d6 b3 00 00       	call   f220 <_Z7tracebrPv>
    3e4a:	41 8b 04 9e          	mov    eax,DWORD PTR [r14+rbx*4]
    3e4e:	41 0f 38 f1 04 9f    	movbe  DWORD PTR [r15+rbx*4],eax
    3e54:	48 ff c3             	inc    rbx
    3e57:	49 39 dc             	cmp    r12,rbx
    3e5a:	75 e4                	jne    3e40 <br_range_enc32be+0x20>
    3e5c:	31 ff                	xor    edi,edi
    3e5e:	e8 bd b3 00 00       	call   f220 <_Z7tracebrPv>
    3e63:	48 8b 7c 24 28       	mov    rdi,QWORD PTR [rsp+0x28]
    3e68:	48 83 c4 08          	add    rsp,0x8
    3e6c:	5b                   	pop    rbx
    3e6d:	41 5c                	pop    r12
    3e6f:	41 5e                	pop    r14
    3e71:	41 5f                	pop    r15
    3e73:	e9 38 b0 00 00       	jmp    eeb0 <_Z10traceedgecPv>
    3e78:	0f 1f 84 00 00 00 00 	nop    DWORD PTR [rax+rax*1+0x0]
    3e7f:	00 

0000000000003e80 <br_ghash_pclmul>:
    3e80:	55                   	push   rbp
    3e81:	41 57                	push   r15
    3e83:	41 56                	push   r14
    3e85:	41 55                	push   r13
    3e87:	41 54                	push   r12
    3e89:	53                   	push   rbx
    3e8a:	48 81 ec e8 00 00 00 	sub    rsp,0xe8
    3e91:	48 89 d3             	mov    rbx,rdx
    3e94:	48 89 34 24          	mov    QWORD PTR [rsp],rsi
    3e98:	48 89 7c 24 38       	mov    QWORD PTR [rsp+0x38],rdi
    3e9d:	64 48 8b 04 25 28 00 	mov    rax,QWORD PTR fs:0x28
    3ea4:	00 00 
    3ea6:	48 89 84 24 e0 00 00 	mov    QWORD PTR [rsp+0xe0],rax
    3ead:	00 
    3eae:	48 89 cd             	mov    rbp,rcx
    3eb1:	48 c1 ed 06          	shr    rbp,0x6
    3eb5:	41 89 cd             	mov    r13d,ecx
    3eb8:	41 83 e5 3f          	and    r13d,0x3f
    3ebc:	49 89 cf             	mov    r15,rcx
    3ebf:	49 83 e7 c0          	and    r15,0xffffffffffffffc0
    3ec3:	49 01 d7             	add    r15,rdx
    3ec6:	4d 8d 75 0f          	lea    r14,[r13+0xf]
    3eca:	f6 c1 0f             	test   cl,0xf
    3ecd:	74 3e                	je     3f0d <br_ghash_pclmul+0x8d>
    3ecf:	4c 8d a4 24 a0 00 00 	lea    r12,[rsp+0xa0]
    3ed6:	00 
    3ed7:	bf 01 00 00 00       	mov    edi,0x1
    3edc:	e8 3f b3 00 00       	call   f220 <_Z7tracebrPv>
    3ee1:	4c 89 e7             	mov    rdi,r12
    3ee4:	4c 89 fe             	mov    rsi,r15
    3ee7:	4c 89 ea             	mov    rdx,r13
    3eea:	e8 61 0f 01 00       	call   14e50 <memcpy>
    3eef:	4a 8d 3c 2c          	lea    rdi,[rsp+r13*1]
    3ef3:	48 81 c7 a0 00 00 00 	add    rdi,0xa0
    3efa:	44 89 f2             	mov    edx,r14d
    3efd:	83 e2 f0             	and    edx,0xfffffff0
    3f00:	4c 29 ea             	sub    rdx,r13
    3f03:	31 f6                	xor    esi,esi
    3f05:	e8 56 11 01 00       	call   15060 <memset>
    3f0a:	4d 89 e7             	mov    r15,r12
    3f0d:	49 c1 ee 04          	shr    r14,0x4
    3f11:	31 ff                	xor    edi,edi
    3f13:	e8 08 b3 00 00       	call   f220 <_Z7tracebrPv>
    3f18:	4c 8b 64 24 38       	mov    r12,QWORD PTR [rsp+0x38]
    3f1d:	c4 c1 7a 6f 04 24    	vmovdqu xmm0,XMMWORD PTR [r12]
    3f23:	48 8b 04 24          	mov    rax,QWORD PTR [rsp]
    3f27:	c5 fa 6f 08          	vmovdqu xmm1,XMMWORD PTR [rax]
    3f2b:	c5 f9 6f 15 cd cf 02 	vmovdqa xmm2,XMMWORD PTR [rip+0x2cfcd]        # 30f00 <sgxsd_enclave_generate_curve25519_keypair.BASEPOINT+0x28>
    3f32:	00 
    3f33:	c4 e2 79 00 c2       	vpshufb xmm0,xmm0,xmm2
    3f38:	c5 f9 7f 04 24       	vmovdqa XMMWORD PTR [rsp],xmm0
    3f3d:	c4 e2 71 00 ca       	vpshufb xmm1,xmm1,xmm2
    3f42:	c5 f9 70 c1 0e       	vpshufd xmm0,xmm1,0xe
    3f47:	c5 f9 7f 4c 24 20    	vmovdqa XMMWORD PTR [rsp+0x20],xmm1
    3f4d:	c5 f9 ef c1          	vpxor  xmm0,xmm0,xmm1
    3f51:	c5 f9 7f 44 24 10    	vmovdqa XMMWORD PTR [rsp+0x10],xmm0
    3f57:	48 85 ed             	test   rbp,rbp
    3f5a:	0f 84 73 04 00 00    	je     43d3 <br_ghash_pclmul+0x553>
    3f60:	bf 01 00 00 00       	mov    edi,0x1
    3f65:	e8 b6 b2 00 00       	call   f220 <_Z7tracebrPv>
    3f6a:	c5 f9 6f 7c 24 20    	vmovdqa xmm7,XMMWORD PTR [rsp+0x20]
    3f70:	c4 e3 41 44 c7 11    	vpclmulhqhqdq xmm0,xmm7,xmm7
    3f76:	c4 e3 41 44 d7 00    	vpclmullqlqdq xmm2,xmm7,xmm7
    3f7c:	c5 f9 70 c8 0e       	vpshufd xmm1,xmm0,0xe
    3f81:	c5 f9 70 da 0e       	vpshufd xmm3,xmm2,0xe
    3f86:	c5 f1 d4 c9          	vpaddq xmm1,xmm1,xmm1
    3f8a:	c5 d9 73 d0 3f       	vpsrlq xmm4,xmm0,0x3f
    3f8f:	c5 71 eb dc          	vpor   xmm11,xmm1,xmm4
    3f93:	c5 f9 d4 c0          	vpaddq xmm0,xmm0,xmm0
    3f97:	c5 f1 73 d3 3f       	vpsrlq xmm1,xmm3,0x3f
    3f9c:	c5 71 eb d0          	vpor   xmm10,xmm1,xmm0
    3fa0:	c5 e1 d4 c3          	vpaddq xmm0,xmm3,xmm3
    3fa4:	c5 f1 73 d2 3f       	vpsrlq xmm1,xmm2,0x3f
    3fa9:	c5 f9 eb d9          	vpor   xmm3,xmm0,xmm1
    3fad:	c5 69 d4 e2          	vpaddq xmm12,xmm2,xmm2
    3fb1:	c5 f1 73 d2 01       	vpsrlq xmm1,xmm2,0x1
    3fb6:	c5 79 6f 05 52 cf 02 	vmovdqa xmm8,XMMWORD PTR [rip+0x2cf52]        # 30f10 <sgxsd_enclave_generate_curve25519_keypair.BASEPOINT+0x38>
    3fbd:	00 
    3fbe:	c4 41 71 db e8       	vpand  xmm13,xmm1,xmm8
    3fc3:	c5 f9 73 d2 06       	vpsrlq xmm0,xmm2,0x6
    3fc8:	c5 79 6f 0d 50 cf 02 	vmovdqa xmm9,XMMWORD PTR [rip+0x2cf50]        # 30f20 <sgxsd_enclave_generate_curve25519_keypair.BASEPOINT+0x48>
    3fcf:	00 
    3fd0:	c4 c1 79 db c1       	vpand  xmm0,xmm0,xmm9
    3fd5:	c5 f1 73 f2 3f       	vpsllq xmm1,xmm2,0x3f
    3fda:	c5 d1 73 f2 3a       	vpsllq xmm5,xmm2,0x3a
    3fdf:	c5 d1 ef c9          	vpxor  xmm1,xmm5,xmm1
    3fe3:	c5 f1 ef cb          	vpxor  xmm1,xmm1,xmm3
    3fe7:	c5 d1 73 d1 01       	vpsrlq xmm5,xmm1,0x1
    3fec:	c5 d9 73 d1 02       	vpsrlq xmm4,xmm1,0x2
    3ff1:	c5 c9 73 d1 07       	vpsrlq xmm6,xmm1,0x7
    3ff6:	c5 c9 ef ed          	vpxor  xmm5,xmm6,xmm5
    3ffa:	c4 c1 71 ef cb       	vpxor  xmm1,xmm1,xmm11
    3fff:	c5 f1 ef cc          	vpxor  xmm1,xmm1,xmm4
    4003:	c5 f1 ef cd          	vpxor  xmm1,xmm1,xmm5
    4007:	c5 d9 73 f3 3e       	vpsllq xmm4,xmm3,0x3e
    400c:	c5 e1 73 f3 39       	vpsllq xmm3,xmm3,0x39
    4011:	c5 d9 ef db          	vpxor  xmm3,xmm4,xmm3
    4015:	c5 99 ef d2          	vpxor  xmm2,xmm12,xmm2
    4019:	c4 c1 69 ef d5       	vpxor  xmm2,xmm2,xmm13
    401e:	c5 e9 ef c0          	vpxor  xmm0,xmm2,xmm0
    4022:	c4 c1 79 ef c2       	vpxor  xmm0,xmm0,xmm10
    4027:	c5 f9 ef c3          	vpxor  xmm0,xmm0,xmm3
    402b:	c5 79 6c d9          	vpunpcklqdq xmm11,xmm0,xmm1
    402f:	c5 f1 ef c8          	vpxor  xmm1,xmm1,xmm0
    4033:	c4 c3 41 44 c3 11    	vpclmulhqhqdq xmm0,xmm7,xmm11
    4039:	c4 c3 41 44 d3 00    	vpclmullqlqdq xmm2,xmm7,xmm11
    403f:	c5 f9 7f 8c 24 80 00 	vmovdqa XMMWORD PTR [rsp+0x80],xmm1
    4046:	00 00 
    4048:	c4 e3 71 44 4c 24 10 	vpclmullqlqdq xmm1,xmm1,XMMWORD PTR [rsp+0x10]
    404f:	00 
    4050:	c5 e9 ef d8          	vpxor  xmm3,xmm2,xmm0
    4054:	c5 e1 ef c9          	vpxor  xmm1,xmm3,xmm1
    4058:	c5 f9 70 d8 0e       	vpshufd xmm3,xmm0,0xe
    405d:	c5 f9 70 e1 0e       	vpshufd xmm4,xmm1,0xe
    4062:	c5 f9 ef c4          	vpxor  xmm0,xmm0,xmm4
    4066:	c5 f9 70 e2 0e       	vpshufd xmm4,xmm2,0xe
    406b:	c5 f1 ef cc          	vpxor  xmm1,xmm1,xmm4
    406f:	c5 e1 d4 db          	vpaddq xmm3,xmm3,xmm3
    4073:	c5 d9 73 d0 3f       	vpsrlq xmm4,xmm0,0x3f
    4078:	c5 d9 eb db          	vpor   xmm3,xmm4,xmm3
    407c:	c5 f9 d4 c0          	vpaddq xmm0,xmm0,xmm0
    4080:	c5 d9 73 d1 3f       	vpsrlq xmm4,xmm1,0x3f
    4085:	c5 79 eb d4          	vpor   xmm10,xmm0,xmm4
    4089:	c5 f1 d4 c9          	vpaddq xmm1,xmm1,xmm1
    408d:	c5 d9 73 d2 3f       	vpsrlq xmm4,xmm2,0x3f
    4092:	c5 f1 eb cc          	vpor   xmm1,xmm1,xmm4
    4096:	c5 e9 d4 e2          	vpaddq xmm4,xmm2,xmm2
    409a:	c5 d1 73 d2 01       	vpsrlq xmm5,xmm2,0x1
    409f:	c4 c1 51 db e8       	vpand  xmm5,xmm5,xmm8
    40a4:	c5 c9 73 f2 3f       	vpsllq xmm6,xmm2,0x3f
    40a9:	c5 c1 73 f2 3a       	vpsllq xmm7,xmm2,0x3a
    40ae:	c5 c1 ef f6          	vpxor  xmm6,xmm7,xmm6
    40b2:	c5 c9 ef f1          	vpxor  xmm6,xmm6,xmm1
    40b6:	c5 c1 73 d6 01       	vpsrlq xmm7,xmm6,0x1
    40bb:	c5 f9 73 d6 07       	vpsrlq xmm0,xmm6,0x7
    40c0:	c5 f9 ef c7          	vpxor  xmm0,xmm0,xmm7
    40c4:	c5 c1 73 d6 02       	vpsrlq xmm7,xmm6,0x2
    40c9:	c5 c1 ef f6          	vpxor  xmm6,xmm7,xmm6
    40cd:	c5 c1 73 d2 06       	vpsrlq xmm7,xmm2,0x6
    40d2:	c4 c1 41 db f9       	vpand  xmm7,xmm7,xmm9
    40d7:	c5 c9 ef c0          	vpxor  xmm0,xmm6,xmm0
    40db:	c5 f9 ef c3          	vpxor  xmm0,xmm0,xmm3
    40df:	c5 e1 73 f1 3e       	vpsllq xmm3,xmm1,0x3e
    40e4:	c5 f1 73 f1 39       	vpsllq xmm1,xmm1,0x39
    40e9:	c4 c1 71 ef ca       	vpxor  xmm1,xmm1,xmm10
    40ee:	c5 d9 ef d2          	vpxor  xmm2,xmm4,xmm2
    40f2:	c5 e9 ef d5          	vpxor  xmm2,xmm2,xmm5
    40f6:	c5 e9 ef d7          	vpxor  xmm2,xmm2,xmm7
    40fa:	c5 e9 ef d3          	vpxor  xmm2,xmm2,xmm3
    40fe:	c5 e9 ef c9          	vpxor  xmm1,xmm2,xmm1
    4102:	c5 f1 6c d0          	vpunpcklqdq xmm2,xmm1,xmm0
    4106:	c5 f9 7f 54 24 70    	vmovdqa XMMWORD PTR [rsp+0x70],xmm2
    410c:	c5 f9 ef c1          	vpxor  xmm0,xmm0,xmm1
    4110:	c5 f9 7f 44 24 60    	vmovdqa XMMWORD PTR [rsp+0x60],xmm0
    4116:	c4 c3 21 44 c3 11    	vpclmulhqhqdq xmm0,xmm11,xmm11
    411c:	c5 79 7f 9c 24 90 00 	vmovdqa XMMWORD PTR [rsp+0x90],xmm11
    4123:	00 00 
    4125:	c4 c3 21 44 cb 00    	vpclmullqlqdq xmm1,xmm11,xmm11
    412b:	c5 f9 70 d0 0e       	vpshufd xmm2,xmm0,0xe
    4130:	c5 f9 70 d9 0e       	vpshufd xmm3,xmm1,0xe
    4135:	c5 e9 d4 d2          	vpaddq xmm2,xmm2,xmm2
    4139:	c5 d9 73 d0 3f       	vpsrlq xmm4,xmm0,0x3f
    413e:	c5 e9 eb d4          	vpor   xmm2,xmm2,xmm4
    4142:	c5 f9 d4 c0          	vpaddq xmm0,xmm0,xmm0
    4146:	c5 d9 73 d3 3f       	vpsrlq xmm4,xmm3,0x3f
    414b:	c5 59 eb d0          	vpor   xmm10,xmm4,xmm0
    414f:	c5 e1 d4 db          	vpaddq xmm3,xmm3,xmm3
    4153:	c5 d9 73 d1 3f       	vpsrlq xmm4,xmm1,0x3f
    4158:	c5 e1 eb dc          	vpor   xmm3,xmm3,xmm4
    415c:	c5 d9 73 d1 01       	vpsrlq xmm4,xmm1,0x1
    4161:	c4 c1 59 db e0       	vpand  xmm4,xmm4,xmm8
    4166:	c5 d1 73 d1 06       	vpsrlq xmm5,xmm1,0x6
    416b:	c4 c1 51 db e9       	vpand  xmm5,xmm5,xmm9
    4170:	c5 c9 73 f1 3f       	vpsllq xmm6,xmm1,0x3f
    4175:	c5 c1 73 f1 3a       	vpsllq xmm7,xmm1,0x3a
    417a:	c5 c1 ef f6          	vpxor  xmm6,xmm7,xmm6
    417e:	c5 c9 ef f3          	vpxor  xmm6,xmm6,xmm3
    4182:	c5 c1 73 d6 01       	vpsrlq xmm7,xmm6,0x1
    4187:	c5 f9 73 d6 07       	vpsrlq xmm0,xmm6,0x7
    418c:	c5 f9 ef c7          	vpxor  xmm0,xmm0,xmm7
    4190:	c5 c9 ef d2          	vpxor  xmm2,xmm6,xmm2
    4194:	c5 c9 73 d6 02       	vpsrlq xmm6,xmm6,0x2
    4199:	c5 e9 ef d6          	vpxor  xmm2,xmm2,xmm6
    419d:	c5 e9 ef c0          	vpxor  xmm0,xmm2,xmm0
    41a1:	c5 e9 73 f3 3e       	vpsllq xmm2,xmm3,0x3e
    41a6:	c5 e1 73 f3 39       	vpsllq xmm3,xmm3,0x39
    41ab:	c5 e9 ef d3          	vpxor  xmm2,xmm2,xmm3
    41af:	c5 f1 d4 d9          	vpaddq xmm3,xmm1,xmm1
    41b3:	c5 e1 ef c9          	vpxor  xmm1,xmm3,xmm1
    41b7:	c5 f1 ef cc          	vpxor  xmm1,xmm1,xmm4
    41bb:	c5 f1 ef cd          	vpxor  xmm1,xmm1,xmm5
    41bf:	c4 c1 71 ef ca       	vpxor  xmm1,xmm1,xmm10
    41c4:	c5 f1 ef ca          	vpxor  xmm1,xmm1,xmm2
    41c8:	c5 f1 6c d0          	vpunpcklqdq xmm2,xmm1,xmm0
    41cc:	c5 f9 7f 54 24 50    	vmovdqa XMMWORD PTR [rsp+0x50],xmm2
    41d2:	c5 f9 ef c1          	vpxor  xmm0,xmm0,xmm1
    41d6:	c5 f9 7f 44 24 40    	vmovdqa XMMWORD PTR [rsp+0x40],xmm0
    41dc:	c5 f9 6f 04 24       	vmovdqa xmm0,XMMWORD PTR [rsp]
    41e1:	66 2e 0f 1f 84 00 00 	nop    WORD PTR cs:[rax+rax*1+0x0]
    41e8:	00 00 00 
    41eb:	0f 1f 44 00 00       	nop    DWORD PTR [rax+rax*1+0x0]
    41f0:	c5 f9 7f 04 24       	vmovdqa XMMWORD PTR [rsp],xmm0
    41f5:	bf 01 00 00 00       	mov    edi,0x1
    41fa:	e8 21 b0 00 00       	call   f220 <_Z7tracebrPv>
    41ff:	c5 fa 6f 03          	vmovdqu xmm0,XMMWORD PTR [rbx]
    4203:	c5 fa 6f 4b 10       	vmovdqu xmm1,XMMWORD PTR [rbx+0x10]
    4208:	c5 fa 6f 53 20       	vmovdqu xmm2,XMMWORD PTR [rbx+0x20]
    420d:	c5 fa 6f 5b 30       	vmovdqu xmm3,XMMWORD PTR [rbx+0x30]
    4212:	c5 f9 6f 25 e6 cc 02 	vmovdqa xmm4,XMMWORD PTR [rip+0x2cce6]        # 30f00 <sgxsd_enclave_generate_curve25519_keypair.BASEPOINT+0x28>
    4219:	00 
    421a:	c4 e2 79 00 c4       	vpshufb xmm0,xmm0,xmm4
    421f:	c5 f9 ef 04 24       	vpxor  xmm0,xmm0,XMMWORD PTR [rsp]
    4224:	c4 e2 71 00 cc       	vpshufb xmm1,xmm1,xmm4
    4229:	c4 e2 69 00 d4       	vpshufb xmm2,xmm2,xmm4
    422e:	c4 e2 61 00 dc       	vpshufb xmm3,xmm3,xmm4
    4233:	c5 f9 70 e1 4e       	vpshufd xmm4,xmm1,0x4e
    4238:	c5 d9 ef e1          	vpxor  xmm4,xmm4,xmm1
    423c:	c4 e3 59 44 64 24 60 	vpclmullqlqdq xmm4,xmm4,XMMWORD PTR [rsp+0x60]
    4243:	00 
    4244:	c5 f9 70 ea 4e       	vpshufd xmm5,xmm2,0x4e
    4249:	c5 51 ef c2          	vpxor  xmm8,xmm5,xmm2
    424d:	c5 f9 70 f3 4e       	vpshufd xmm6,xmm3,0x4e
    4252:	c5 49 ef cb          	vpxor  xmm9,xmm6,xmm3
    4256:	c5 f9 70 f8 4e       	vpshufd xmm7,xmm0,0x4e
    425b:	c5 f9 ef ff          	vpxor  xmm7,xmm0,xmm7
    425f:	c4 e3 41 44 7c 24 40 	vpclmullqlqdq xmm7,xmm7,XMMWORD PTR [rsp+0x40]
    4266:	00 
    4267:	c5 41 ef d4          	vpxor  xmm10,xmm7,xmm4
    426b:	c5 79 6f 5c 24 70    	vmovdqa xmm11,XMMWORD PTR [rsp+0x70]
    4271:	c4 c3 71 44 fb 11    	vpclmulhqhqdq xmm7,xmm1,xmm11
    4277:	c5 79 6f a4 24 90 00 	vmovdqa xmm12,XMMWORD PTR [rsp+0x90]
    427e:	00 00 
    4280:	c4 c3 69 44 ec 11    	vpclmulhqhqdq xmm5,xmm2,xmm12
    4286:	c5 c1 ef ed          	vpxor  xmm5,xmm7,xmm5
    428a:	c5 f9 6f 64 24 50    	vmovdqa xmm4,XMMWORD PTR [rsp+0x50]
    4290:	c4 e3 79 44 fc 11    	vpclmulhqhqdq xmm7,xmm0,xmm4
    4296:	c5 c1 ef ed          	vpxor  xmm5,xmm7,xmm5
    429a:	c5 f9 6f 74 24 20    	vmovdqa xmm6,XMMWORD PTR [rsp+0x20]
    42a0:	c4 e3 61 44 fe 11    	vpclmulhqhqdq xmm7,xmm3,xmm6
    42a6:	c5 d1 ef ef          	vpxor  xmm5,xmm5,xmm7
    42aa:	c4 e3 79 44 c4 00    	vpclmullqlqdq xmm0,xmm0,xmm4
    42b0:	c4 c3 71 44 cb 00    	vpclmullqlqdq xmm1,xmm1,xmm11
    42b6:	c4 c3 69 44 d4 00    	vpclmullqlqdq xmm2,xmm2,xmm12
    42bc:	c5 f1 ef ca          	vpxor  xmm1,xmm1,xmm2
    42c0:	c5 f9 ef c1          	vpxor  xmm0,xmm0,xmm1
    42c4:	c4 e3 61 44 ce 00    	vpclmullqlqdq xmm1,xmm3,xmm6
    42ca:	c5 f9 ef c1          	vpxor  xmm0,xmm0,xmm1
    42ce:	c4 e3 39 44 8c 24 80 	vpclmullqlqdq xmm1,xmm8,XMMWORD PTR [rsp+0x80]
    42d5:	00 00 00 00 
    42d9:	c4 e3 31 44 54 24 10 	vpclmullqlqdq xmm2,xmm9,XMMWORD PTR [rsp+0x10]
    42e0:	00 
    42e1:	c5 f1 ef ca          	vpxor  xmm1,xmm1,xmm2
    42e5:	c5 f9 ef d5          	vpxor  xmm2,xmm0,xmm5
    42e9:	c4 c1 69 ef d2       	vpxor  xmm2,xmm2,xmm10
    42ee:	c5 e9 ef c9          	vpxor  xmm1,xmm2,xmm1
    42f2:	c5 f9 70 d5 4e       	vpshufd xmm2,xmm5,0x4e
    42f7:	c5 f9 70 d9 0e       	vpshufd xmm3,xmm1,0xe
    42fc:	c5 d1 ef db          	vpxor  xmm3,xmm5,xmm3
    4300:	c5 f9 70 e0 0e       	vpshufd xmm4,xmm0,0xe
    4305:	c5 f1 ef cc          	vpxor  xmm1,xmm1,xmm4
    4309:	c5 e9 d4 d2          	vpaddq xmm2,xmm2,xmm2
    430d:	c5 d9 73 d3 3f       	vpsrlq xmm4,xmm3,0x3f
    4312:	c5 d9 eb d2          	vpor   xmm2,xmm4,xmm2
    4316:	c5 e1 d4 db          	vpaddq xmm3,xmm3,xmm3
    431a:	c5 d9 73 d1 3f       	vpsrlq xmm4,xmm1,0x3f
    431f:	c5 61 eb c4          	vpor   xmm8,xmm3,xmm4
    4323:	c5 f1 d4 c9          	vpaddq xmm1,xmm1,xmm1
    4327:	c5 d9 73 d0 3f       	vpsrlq xmm4,xmm0,0x3f
    432c:	c5 f1 eb cc          	vpor   xmm1,xmm1,xmm4
    4330:	c5 f9 d4 e0          	vpaddq xmm4,xmm0,xmm0
    4334:	c5 f9 db 2d f4 cb 02 	vpand  xmm5,xmm0,XMMWORD PTR [rip+0x2cbf4]        # 30f30 <sgxsd_enclave_generate_curve25519_keypair.BASEPOINT+0x58>
    433b:	00 
    433c:	c5 d1 ef e4          	vpxor  xmm4,xmm5,xmm4
    4340:	c5 d1 73 d0 01       	vpsrlq xmm5,xmm0,0x1
    4345:	c5 d1 db 2d c3 cb 02 	vpand  xmm5,xmm5,XMMWORD PTR [rip+0x2cbc3]        # 30f10 <sgxsd_enclave_generate_curve25519_keypair.BASEPOINT+0x38>
    434c:	00 
    434d:	c5 c9 73 d0 06       	vpsrlq xmm6,xmm0,0x6
    4352:	c5 c9 db 35 c6 cb 02 	vpand  xmm6,xmm6,XMMWORD PTR [rip+0x2cbc6]        # 30f20 <sgxsd_enclave_generate_curve25519_keypair.BASEPOINT+0x48>
    4359:	00 
    435a:	c5 d1 ef ee          	vpxor  xmm5,xmm5,xmm6
    435e:	c5 c9 73 f0 3f       	vpsllq xmm6,xmm0,0x3f
    4363:	c5 c1 73 f0 3a       	vpsllq xmm7,xmm0,0x3a
    4368:	c5 c1 ef f6          	vpxor  xmm6,xmm7,xmm6
    436c:	c5 c9 ef f1          	vpxor  xmm6,xmm6,xmm1
    4370:	c5 c1 73 d6 01       	vpsrlq xmm7,xmm6,0x1
    4375:	c5 e1 73 d6 07       	vpsrlq xmm3,xmm6,0x7
    437a:	c5 e1 ef df          	vpxor  xmm3,xmm3,xmm7
    437e:	c5 c1 73 d6 02       	vpsrlq xmm7,xmm6,0x2
    4383:	c5 c1 ef f6          	vpxor  xmm6,xmm7,xmm6
    4387:	c5 c9 ef db          	vpxor  xmm3,xmm6,xmm3
    438b:	c5 e1 ef d2          	vpxor  xmm2,xmm3,xmm2
    438f:	c5 f9 db 05 a9 cb 02 	vpand  xmm0,xmm0,XMMWORD PTR [rip+0x2cba9]        # 30f40 <sgxsd_enclave_generate_curve25519_keypair.BASEPOINT+0x68>
    4396:	00 
    4397:	c5 d9 ef c0          	vpxor  xmm0,xmm4,xmm0
    439b:	c5 f9 ef c5          	vpxor  xmm0,xmm0,xmm5
    439f:	c5 e1 73 f1 3e       	vpsllq xmm3,xmm1,0x3e
    43a4:	c5 f1 73 f1 39       	vpsllq xmm1,xmm1,0x39
    43a9:	c5 e1 ef c9          	vpxor  xmm1,xmm3,xmm1
    43ad:	c4 c1 71 ef c8       	vpxor  xmm1,xmm1,xmm8
    43b2:	c5 f9 ef c1          	vpxor  xmm0,xmm0,xmm1
    43b6:	c5 f9 6c c2          	vpunpcklqdq xmm0,xmm0,xmm2
    43ba:	48 83 c3 40          	add    rbx,0x40
    43be:	48 ff cd             	dec    rbp
    43c1:	0f 85 29 fe ff ff    	jne    41f0 <br_ghash_pclmul+0x370>
    43c7:	c5 f9 7f 04 24       	vmovdqa XMMWORD PTR [rsp],xmm0
    43cc:	31 ff                	xor    edi,edi
    43ce:	e8 4d ae 00 00       	call   f220 <_Z7tracebrPv>
    43d3:	31 ff                	xor    edi,edi
    43d5:	e8 46 ae 00 00       	call   f220 <_Z7tracebrPv>
    43da:	4d 85 f6             	test   r14,r14
    43dd:	0f 84 2e 01 00 00    	je     4511 <br_ghash_pclmul+0x691>
    43e3:	66 2e 0f 1f 84 00 00 	nop    WORD PTR cs:[rax+rax*1+0x0]
    43ea:	00 00 00 
    43ed:	0f 1f 00             	nop    DWORD PTR [rax]
    43f0:	bf 01 00 00 00       	mov    edi,0x1
    43f5:	e8 26 ae 00 00       	call   f220 <_Z7tracebrPv>
    43fa:	c4 c1 7a 6f 07       	vmovdqu xmm0,XMMWORD PTR [r15]
    43ff:	c4 e2 79 00 05 f8 ca 	vpshufb xmm0,xmm0,XMMWORD PTR [rip+0x2caf8]        # 30f00 <sgxsd_enclave_generate_curve25519_keypair.BASEPOINT+0x28>
    4406:	02 00 
    4408:	c5 f9 ef 04 24       	vpxor  xmm0,xmm0,XMMWORD PTR [rsp]
    440d:	c5 f9 70 c8 4e       	vpshufd xmm1,xmm0,0x4e
    4412:	c5 f9 ef c9          	vpxor  xmm1,xmm0,xmm1
    4416:	c5 f9 6f 5c 24 20    	vmovdqa xmm3,XMMWORD PTR [rsp+0x20]
    441c:	c4 e3 79 44 d3 11    	vpclmulhqhqdq xmm2,xmm0,xmm3
    4422:	c4 e3 79 44 c3 00    	vpclmullqlqdq xmm0,xmm0,xmm3
    4428:	c4 e3 71 44 4c 24 10 	vpclmullqlqdq xmm1,xmm1,XMMWORD PTR [rsp+0x10]
    442f:	00 
    4430:	c5 f9 ef da          	vpxor  xmm3,xmm0,xmm2
    4434:	c5 e1 ef c9          	vpxor  xmm1,xmm3,xmm1
    4438:	c5 f9 70 da 4e       	vpshufd xmm3,xmm2,0x4e
    443d:	c5 f9 70 e1 0e       	vpshufd xmm4,xmm1,0xe
    4442:	c5 e9 ef d4          	vpxor  xmm2,xmm2,xmm4
    4446:	c5 f9 70 e0 0e       	vpshufd xmm4,xmm0,0xe
    444b:	c5 f1 ef cc          	vpxor  xmm1,xmm1,xmm4
    444f:	c5 e1 d4 db          	vpaddq xmm3,xmm3,xmm3
    4453:	c5 d9 73 d2 3f       	vpsrlq xmm4,xmm2,0x3f
    4458:	c5 d9 eb db          	vpor   xmm3,xmm4,xmm3
    445c:	c5 e9 d4 d2          	vpaddq xmm2,xmm2,xmm2
    4460:	c5 d9 73 d1 3f       	vpsrlq xmm4,xmm1,0x3f
    4465:	c5 e9 eb d4          	vpor   xmm2,xmm2,xmm4
    4469:	c5 f1 d4 c9          	vpaddq xmm1,xmm1,xmm1
    446d:	c5 d9 73 d0 3f       	vpsrlq xmm4,xmm0,0x3f
    4472:	c5 f1 eb cc          	vpor   xmm1,xmm1,xmm4
    4476:	c5 f9 d4 e0          	vpaddq xmm4,xmm0,xmm0
    447a:	c5 f9 db 2d ae ca 02 	vpand  xmm5,xmm0,XMMWORD PTR [rip+0x2caae]        # 30f30 <sgxsd_enclave_generate_curve25519_keypair.BASEPOINT+0x58>
    4481:	00 
    4482:	c5 d1 ef e4          	vpxor  xmm4,xmm5,xmm4
    4486:	c5 d1 73 f0 3f       	vpsllq xmm5,xmm0,0x3f
    448b:	c5 c9 73 f0 3a       	vpsllq xmm6,xmm0,0x3a
    4490:	c5 c9 ef ed          	vpxor  xmm5,xmm6,xmm5
    4494:	c5 d1 ef e9          	vpxor  xmm5,xmm5,xmm1
    4498:	c5 c9 73 d5 01       	vpsrlq xmm6,xmm5,0x1
    449d:	c5 c1 73 d5 07       	vpsrlq xmm7,xmm5,0x7
    44a2:	c5 c1 ef f6          	vpxor  xmm6,xmm7,xmm6
    44a6:	c5 c1 73 d5 02       	vpsrlq xmm7,xmm5,0x2
    44ab:	c5 c1 ef ed          	vpxor  xmm5,xmm7,xmm5
    44af:	c5 d1 ef ee          	vpxor  xmm5,xmm5,xmm6
    44b3:	c5 d1 ef db          	vpxor  xmm3,xmm5,xmm3
    44b7:	c5 f9 db 2d 81 ca 02 	vpand  xmm5,xmm0,XMMWORD PTR [rip+0x2ca81]        # 30f40 <sgxsd_enclave_generate_curve25519_keypair.BASEPOINT+0x68>
    44be:	00 
    44bf:	c5 d9 ef e5          	vpxor  xmm4,xmm4,xmm5
    44c3:	c5 d1 73 d0 01       	vpsrlq xmm5,xmm0,0x1
    44c8:	c5 d1 db 2d 40 ca 02 	vpand  xmm5,xmm5,XMMWORD PTR [rip+0x2ca40]        # 30f10 <sgxsd_enclave_generate_curve25519_keypair.BASEPOINT+0x38>
    44cf:	00 
    44d0:	c5 f9 73 d0 06       	vpsrlq xmm0,xmm0,0x6
    44d5:	c5 f9 db 05 43 ca 02 	vpand  xmm0,xmm0,XMMWORD PTR [rip+0x2ca43]        # 30f20 <sgxsd_enclave_generate_curve25519_keypair.BASEPOINT+0x48>
    44dc:	00 
    44dd:	c5 d9 ef e5          	vpxor  xmm4,xmm4,xmm5
    44e1:	c5 d1 73 f1 3e       	vpsllq xmm5,xmm1,0x3e
    44e6:	c5 f9 ef c5          	vpxor  xmm0,xmm0,xmm5
    44ea:	c5 d9 ef c0          	vpxor  xmm0,xmm4,xmm0
    44ee:	c5 f1 73 f1 39       	vpsllq xmm1,xmm1,0x39
    44f3:	c5 f1 ef ca          	vpxor  xmm1,xmm1,xmm2
    44f7:	c5 f9 ef c1          	vpxor  xmm0,xmm0,xmm1
    44fb:	c5 f9 6c c3          	vpunpcklqdq xmm0,xmm0,xmm3
    44ff:	c5 f9 7f 04 24       	vmovdqa XMMWORD PTR [rsp],xmm0
    4504:	49 83 c7 10          	add    r15,0x10
    4508:	49 ff ce             	dec    r14
    450b:	0f 85 df fe ff ff    	jne    43f0 <br_ghash_pclmul+0x570>
    4511:	31 ff                	xor    edi,edi
    4513:	e8 08 ad 00 00       	call   f220 <_Z7tracebrPv>
    4518:	c5 f9 6f 04 24       	vmovdqa xmm0,XMMWORD PTR [rsp]
    451d:	c4 e2 79 00 05 da c9 	vpshufb xmm0,xmm0,XMMWORD PTR [rip+0x2c9da]        # 30f00 <sgxsd_enclave_generate_curve25519_keypair.BASEPOINT+0x28>
    4524:	02 00 
    4526:	c4 c1 7a 7f 04 24    	vmovdqu XMMWORD PTR [r12],xmm0
    452c:	64 48 8b 04 25 28 00 	mov    rax,QWORD PTR fs:0x28
    4533:	00 00 
    4535:	48 3b 84 24 e0 00 00 	cmp    rax,QWORD PTR [rsp+0xe0]
    453c:	00 
    453d:	75 12                	jne    4551 <br_ghash_pclmul+0x6d1>
    453f:	48 81 c4 e8 00 00 00 	add    rsp,0xe8
    4546:	5b                   	pop    rbx
    4547:	41 5c                	pop    r12
    4549:	41 5d                	pop    r13
    454b:	41 5e                	pop    r14
    454d:	41 5f                	pop    r15
    454f:	5d                   	pop    rbp
    4550:	c3                   	ret    
    4551:	e8 7a d9 00 00       	call   11ed0 <__stack_chk_fail>
    4556:	66 2e 0f 1f 84 00 00 	nop    WORD PTR cs:[rax+rax*1+0x0]
    455d:	00 00 00 

0000000000004560 <br_aes_x86ni_keysched_enc>:
    4560:	41 57                	push   r15
    4562:	41 56                	push   r14
    4564:	41 54                	push   r12
    4566:	53                   	push   rbx
    4567:	48 81 ec f8 00 00 00 	sub    rsp,0xf8
    456e:	49 89 d6             	mov    r14,rdx
    4571:	48 89 f3             	mov    rbx,rsi
    4574:	49 89 ff             	mov    r15,rdi
    4577:	48 8d 3d 52 00 00 00 	lea    rdi,[rip+0x52]        # 45d0 <x86ni_keysched>
    457e:	e8 2d a9 00 00       	call   eeb0 <_Z10traceedgecPv>
    4583:	49 89 e4             	mov    r12,rsp
    4586:	4c 89 e7             	mov    rdi,r12
    4589:	48 89 de             	mov    rsi,rbx
    458c:	4c 89 f2             	mov    rdx,r14
    458f:	e8 3c 00 00 00       	call   45d0 <x86ni_keysched>
    4594:	89 c3                	mov    ebx,eax
    4596:	c1 e0 04             	shl    eax,0x4
    4599:	8d 50 10             	lea    edx,[rax+0x10]
    459c:	4c 89 ff             	mov    rdi,r15
    459f:	4c 89 e6             	mov    rsi,r12
    45a2:	e8 a9 08 01 00       	call   14e50 <memcpy>
    45a7:	48 8b bc 24 18 01 00 	mov    rdi,QWORD PTR [rsp+0x118]
    45ae:	00 
    45af:	e8 fc a8 00 00       	call   eeb0 <_Z10traceedgecPv>
    45b4:	89 d8                	mov    eax,ebx
    45b6:	48 81 c4 f8 00 00 00 	add    rsp,0xf8
    45bd:	5b                   	pop    rbx
    45be:	41 5c                	pop    r12
    45c0:	41 5e                	pop    r14
    45c2:	41 5f                	pop    r15
    45c4:	c3                   	ret    
    45c5:	66 2e 0f 1f 84 00 00 	nop    WORD PTR cs:[rax+rax*1+0x0]
    45cc:	00 00 00 
    45cf:	90                   	nop

00000000000045d0 <x86ni_keysched>:
    45d0:	53                   	push   rbx
    45d1:	48 83 fa 20          	cmp    rdx,0x20
    45d5:	0f 84 00 02 00 00    	je     47db <x86ni_keysched+0x20b>
    45db:	48 83 fa 18          	cmp    rdx,0x18
    45df:	0f 84 84 04 00 00    	je     4a69 <x86ni_keysched+0x499>
    45e5:	31 db                	xor    ebx,ebx
    45e7:	48 83 fa 10          	cmp    rdx,0x10
    45eb:	0f 85 d2 06 00 00    	jne    4cc3 <x86ni_keysched+0x6f3>
    45f1:	c5 fa 6f 06          	vmovdqu xmm0,XMMWORD PTR [rsi]
    45f5:	c4 e3 79 df c8 01    	vaeskeygenassist xmm1,xmm0,0x1
    45fb:	c5 e9 73 f8 04       	vpslldq xmm2,xmm0,0x4
    4600:	c5 f9 ef d2          	vpxor  xmm2,xmm0,xmm2
    4604:	c5 e1 73 fa 04       	vpslldq xmm3,xmm2,0x4
    4609:	c5 e9 ef d3          	vpxor  xmm2,xmm2,xmm3
    460d:	c5 e1 73 fa 04       	vpslldq xmm3,xmm2,0x4
    4612:	c5 f9 70 c9 ff       	vpshufd xmm1,xmm1,0xff
    4617:	c5 e9 ef d3          	vpxor  xmm2,xmm2,xmm3
    461b:	c5 f1 ef ca          	vpxor  xmm1,xmm1,xmm2
    461f:	c4 e3 79 df d1 02    	vaeskeygenassist xmm2,xmm1,0x2
    4625:	c5 e1 73 f9 04       	vpslldq xmm3,xmm1,0x4
    462a:	c5 f1 ef db          	vpxor  xmm3,xmm1,xmm3
    462e:	c5 d9 73 fb 04       	vpslldq xmm4,xmm3,0x4
    4633:	c5 e1 ef dc          	vpxor  xmm3,xmm3,xmm4
    4637:	c5 d9 73 fb 04       	vpslldq xmm4,xmm3,0x4
    463c:	c5 f9 70 d2 ff       	vpshufd xmm2,xmm2,0xff
    4641:	c5 e1 ef dc          	vpxor  xmm3,xmm3,xmm4
    4645:	c5 e9 ef d3          	vpxor  xmm2,xmm2,xmm3
    4649:	c4 e3 79 df da 04    	vaeskeygenassist xmm3,xmm2,0x4
    464f:	c5 d9 73 fa 04       	vpslldq xmm4,xmm2,0x4
    4654:	c5 e9 ef e4          	vpxor  xmm4,xmm2,xmm4
    4658:	c5 d1 73 fc 04       	vpslldq xmm5,xmm4,0x4
    465d:	c5 d9 ef e5          	vpxor  xmm4,xmm4,xmm5
    4661:	c5 d1 73 fc 04       	vpslldq xmm5,xmm4,0x4
    4666:	c5 f9 70 db ff       	vpshufd xmm3,xmm3,0xff
    466b:	c5 d9 ef e5          	vpxor  xmm4,xmm4,xmm5
    466f:	c5 e1 ef dc          	vpxor  xmm3,xmm3,xmm4
    4673:	c4 e3 79 df e3 08    	vaeskeygenassist xmm4,xmm3,0x8
    4679:	c5 d1 73 fb 04       	vpslldq xmm5,xmm3,0x4
    467e:	c5 e1 ef ed          	vpxor  xmm5,xmm3,xmm5
    4682:	c5 c9 73 fd 04       	vpslldq xmm6,xmm5,0x4
    4687:	c5 d1 ef ee          	vpxor  xmm5,xmm5,xmm6
    468b:	c5 c9 73 fd 04       	vpslldq xmm6,xmm5,0x4
    4690:	c5 f9 70 e4 ff       	vpshufd xmm4,xmm4,0xff
    4695:	c5 d1 ef ee          	vpxor  xmm5,xmm5,xmm6
    4699:	c5 d9 ef e5          	vpxor  xmm4,xmm4,xmm5
    469d:	c4 e3 79 df ec 10    	vaeskeygenassist xmm5,xmm4,0x10
    46a3:	c5 f9 7f 07          	vmovdqa XMMWORD PTR [rdi],xmm0
    46a7:	c5 f9 73 fc 04       	vpslldq xmm0,xmm4,0x4
    46ac:	c5 d9 ef c0          	vpxor  xmm0,xmm4,xmm0
    46b0:	c5 c9 73 f8 04       	vpslldq xmm6,xmm0,0x4
    46b5:	c5 f9 ef c6          	vpxor  xmm0,xmm0,xmm6
    46b9:	c5 c9 73 f8 04       	vpslldq xmm6,xmm0,0x4
    46be:	c5 f9 ef c6          	vpxor  xmm0,xmm0,xmm6
    46c2:	c5 f9 70 ed ff       	vpshufd xmm5,xmm5,0xff
    46c7:	c5 d1 ef c0          	vpxor  xmm0,xmm5,xmm0
    46cb:	c4 e3 79 df e8 20    	vaeskeygenassist xmm5,xmm0,0x20
    46d1:	c5 f9 7f 4f 10       	vmovdqa XMMWORD PTR [rdi+0x10],xmm1
    46d6:	c5 f9 7f 57 20       	vmovdqa XMMWORD PTR [rdi+0x20],xmm2
    46db:	c5 f1 73 f8 04       	vpslldq xmm1,xmm0,0x4
    46e0:	c5 f9 ef c9          	vpxor  xmm1,xmm0,xmm1
    46e4:	c5 e9 73 f9 04       	vpslldq xmm2,xmm1,0x4
    46e9:	c5 f1 ef ca          	vpxor  xmm1,xmm1,xmm2
    46ed:	c5 e9 73 f9 04       	vpslldq xmm2,xmm1,0x4
    46f2:	c5 f1 ef ca          	vpxor  xmm1,xmm1,xmm2
    46f6:	c5 f9 70 d5 ff       	vpshufd xmm2,xmm5,0xff
    46fb:	c5 e9 ef c9          	vpxor  xmm1,xmm2,xmm1
    46ff:	c4 e3 79 df d1 40    	vaeskeygenassist xmm2,xmm1,0x40
    4705:	c5 f9 7f 5f 30       	vmovdqa XMMWORD PTR [rdi+0x30],xmm3
    470a:	c5 f9 7f 67 40       	vmovdqa XMMWORD PTR [rdi+0x40],xmm4
    470f:	c5 e1 73 f9 04       	vpslldq xmm3,xmm1,0x4
    4714:	c5 f1 ef db          	vpxor  xmm3,xmm1,xmm3
    4718:	c5 d9 73 fb 04       	vpslldq xmm4,xmm3,0x4
    471d:	c5 e1 ef dc          	vpxor  xmm3,xmm3,xmm4
    4721:	c5 d9 73 fb 04       	vpslldq xmm4,xmm3,0x4
    4726:	c5 e1 ef dc          	vpxor  xmm3,xmm3,xmm4
    472a:	c5 f9 70 d2 ff       	vpshufd xmm2,xmm2,0xff
    472f:	c5 e9 ef d3          	vpxor  xmm2,xmm2,xmm3
    4733:	c4 e3 79 df da 80    	vaeskeygenassist xmm3,xmm2,0x80
    4739:	c5 f9 7f 47 50       	vmovdqa XMMWORD PTR [rdi+0x50],xmm0
    473e:	c5 f9 7f 4f 60       	vmovdqa XMMWORD PTR [rdi+0x60],xmm1
    4743:	c5 f9 73 fa 04       	vpslldq xmm0,xmm2,0x4
    4748:	c5 e9 ef c0          	vpxor  xmm0,xmm2,xmm0
    474c:	c5 f1 73 f8 04       	vpslldq xmm1,xmm0,0x4
    4751:	c5 f9 ef c1          	vpxor  xmm0,xmm0,xmm1
    4755:	c5 f1 73 f8 04       	vpslldq xmm1,xmm0,0x4
    475a:	c5 f9 ef c1          	vpxor  xmm0,xmm0,xmm1
    475e:	c5 f9 70 cb ff       	vpshufd xmm1,xmm3,0xff
    4763:	c5 f1 ef c0          	vpxor  xmm0,xmm1,xmm0
    4767:	c4 e3 79 df c8 1b    	vaeskeygenassist xmm1,xmm0,0x1b
    476d:	c5 f9 7f 57 70       	vmovdqa XMMWORD PTR [rdi+0x70],xmm2
    4772:	c5 f9 7f 87 80 00 00 	vmovdqa XMMWORD PTR [rdi+0x80],xmm0
    4779:	00 
    477a:	c5 e9 73 f8 04       	vpslldq xmm2,xmm0,0x4
    477f:	c5 f9 ef c2          	vpxor  xmm0,xmm0,xmm2
    4783:	c5 e9 73 f8 04       	vpslldq xmm2,xmm0,0x4
    4788:	c5 f9 ef c2          	vpxor  xmm0,xmm0,xmm2
    478c:	c5 e9 73 f8 04       	vpslldq xmm2,xmm0,0x4
    4791:	c5 f9 70 c9 ff       	vpshufd xmm1,xmm1,0xff
    4796:	c5 f9 ef c2          	vpxor  xmm0,xmm0,xmm2
    479a:	c5 f1 ef c0          	vpxor  xmm0,xmm1,xmm0
    479e:	c4 e3 79 df c8 36    	vaeskeygenassist xmm1,xmm0,0x36
    47a4:	c5 f9 7f 87 90 00 00 	vmovdqa XMMWORD PTR [rdi+0x90],xmm0
    47ab:	00 
    47ac:	c5 e9 73 f8 04       	vpslldq xmm2,xmm0,0x4
    47b1:	c5 f9 ef c2          	vpxor  xmm0,xmm0,xmm2
    47b5:	c5 e9 73 f8 04       	vpslldq xmm2,xmm0,0x4
    47ba:	c5 f9 ef d2          	vpxor  xmm2,xmm0,xmm2
    47be:	c5 f9 73 fa 04       	vpslldq xmm0,xmm2,0x4
    47c3:	c5 f9 70 c9 ff       	vpshufd xmm1,xmm1,0xff
    47c8:	c5 e9 ef c9          	vpxor  xmm1,xmm2,xmm1
    47cc:	bb 0a 00 00 00       	mov    ebx,0xa
    47d1:	b8 0a 00 00 00       	mov    eax,0xa
    47d6:	e9 db 04 00 00       	jmp    4cb6 <x86ni_keysched+0x6e6>
    47db:	c5 fa 6f 46 10       	vmovdqu xmm0,XMMWORD PTR [rsi+0x10]
    47e0:	c4 e3 79 df c8 01    	vaeskeygenassist xmm1,xmm0,0x1
    47e6:	c5 fa 6f 1e          	vmovdqu xmm3,XMMWORD PTR [rsi]
    47ea:	c5 f9 70 c9 ff       	vpshufd xmm1,xmm1,0xff
    47ef:	c5 e9 73 fb 04       	vpslldq xmm2,xmm3,0x4
    47f4:	c5 e1 ef d2          	vpxor  xmm2,xmm3,xmm2
    47f8:	c5 d9 73 fb 08       	vpslldq xmm4,xmm3,0x8
    47fd:	c5 d1 73 fb 0c       	vpslldq xmm5,xmm3,0xc
    4802:	c5 d9 ef e5          	vpxor  xmm4,xmm4,xmm5
    4806:	c5 e9 ef d4          	vpxor  xmm2,xmm2,xmm4
    480a:	c5 e9 ef c9          	vpxor  xmm1,xmm2,xmm1
    480e:	c4 e3 79 df d1 00    	vaeskeygenassist xmm2,xmm1,0x0
    4814:	c5 f9 70 d2 aa       	vpshufd xmm2,xmm2,0xaa
    4819:	c5 d9 73 f8 04       	vpslldq xmm4,xmm0,0x4
    481e:	c5 d1 73 f8 08       	vpslldq xmm5,xmm0,0x8
    4823:	c5 c9 73 f8 0c       	vpslldq xmm6,xmm0,0xc
    4828:	c5 d1 ef ee          	vpxor  xmm5,xmm5,xmm6
    482c:	c5 f9 ef e4          	vpxor  xmm4,xmm0,xmm4
    4830:	c5 d9 ef e5          	vpxor  xmm4,xmm4,xmm5
    4834:	c5 d9 ef d2          	vpxor  xmm2,xmm4,xmm2
    4838:	c4 e3 79 df e2 02    	vaeskeygenassist xmm4,xmm2,0x2
    483e:	c5 f9 70 e4 ff       	vpshufd xmm4,xmm4,0xff
    4843:	c5 d1 73 f9 04       	vpslldq xmm5,xmm1,0x4
    4848:	c5 f1 ef ed          	vpxor  xmm5,xmm1,xmm5
    484c:	c5 c9 73 f9 08       	vpslldq xmm6,xmm1,0x8
    4851:	c5 d1 ef ee          	vpxor  xmm5,xmm5,xmm6
    4855:	c5 c9 73 f9 0c       	vpslldq xmm6,xmm1,0xc
    485a:	c5 d1 ef ee          	vpxor  xmm5,xmm5,xmm6
    485e:	c5 d9 ef e5          	vpxor  xmm4,xmm4,xmm5
    4862:	c4 e3 79 df ec 00    	vaeskeygenassist xmm5,xmm4,0x0
    4868:	c5 79 70 c5 aa       	vpshufd xmm8,xmm5,0xaa
    486d:	c5 c9 73 fa 04       	vpslldq xmm6,xmm2,0x4
    4872:	c5 c1 73 fa 08       	vpslldq xmm7,xmm2,0x8
    4877:	c5 d1 73 fa 0c       	vpslldq xmm5,xmm2,0xc
    487c:	c5 e9 ef f6          	vpxor  xmm6,xmm2,xmm6
    4880:	c5 c9 ef f7          	vpxor  xmm6,xmm6,xmm7
    4884:	c5 c9 ef ed          	vpxor  xmm5,xmm6,xmm5
    4888:	c5 b9 ef ed          	vpxor  xmm5,xmm8,xmm5
    488c:	c4 e3 79 df f5 04    	vaeskeygenassist xmm6,xmm5,0x4
    4892:	c5 79 70 c6 ff       	vpshufd xmm8,xmm6,0xff
    4897:	c5 c1 73 fc 04       	vpslldq xmm7,xmm4,0x4
    489c:	c5 c9 73 fc 08       	vpslldq xmm6,xmm4,0x8
    48a1:	c5 d9 ef ff          	vpxor  xmm7,xmm4,xmm7
    48a5:	c5 c1 ef f6          	vpxor  xmm6,xmm7,xmm6
    48a9:	c5 c1 73 fc 0c       	vpslldq xmm7,xmm4,0xc
    48ae:	c5 c9 ef f7          	vpxor  xmm6,xmm6,xmm7
    48b2:	c5 b9 ef f6          	vpxor  xmm6,xmm8,xmm6
    48b6:	c4 63 79 df c6 00    	vaeskeygenassist xmm8,xmm6,0x0
    48bc:	c5 f9 7f 1f          	vmovdqa XMMWORD PTR [rdi],xmm3
    48c0:	c5 e1 73 fd 04       	vpslldq xmm3,xmm5,0x4
    48c5:	c5 c1 73 fd 08       	vpslldq xmm7,xmm5,0x8
    48ca:	c5 d1 ef db          	vpxor  xmm3,xmm5,xmm3
    48ce:	c5 e1 ef df          	vpxor  xmm3,xmm3,xmm7
    48d2:	c5 c1 73 fd 0c       	vpslldq xmm7,xmm5,0xc
    48d7:	c5 e1 ef df          	vpxor  xmm3,xmm3,xmm7
    48db:	c4 c1 79 70 f8 aa    	vpshufd xmm7,xmm8,0xaa
    48e1:	c5 c1 ef db          	vpxor  xmm3,xmm7,xmm3
    48e5:	c4 e3 79 df fb 08    	vaeskeygenassist xmm7,xmm3,0x8
    48eb:	c5 f9 7f 47 10       	vmovdqa XMMWORD PTR [rdi+0x10],xmm0
    48f0:	c5 f9 7f 4f 20       	vmovdqa XMMWORD PTR [rdi+0x20],xmm1
    48f5:	c5 f9 73 fe 04       	vpslldq xmm0,xmm6,0x4
    48fa:	c5 f1 73 fe 08       	vpslldq xmm1,xmm6,0x8
    48ff:	c5 c9 ef c0          	vpxor  xmm0,xmm6,xmm0
    4903:	c5 f9 ef c1          	vpxor  xmm0,xmm0,xmm1
    4907:	c5 f1 73 fe 0c       	vpslldq xmm1,xmm6,0xc
    490c:	c5 f9 ef c1          	vpxor  xmm0,xmm0,xmm1
    4910:	c5 f9 70 cf ff       	vpshufd xmm1,xmm7,0xff
    4915:	c5 f1 ef c0          	vpxor  xmm0,xmm1,xmm0
    4919:	c4 e3 79 df c8 00    	vaeskeygenassist xmm1,xmm0,0x0
    491f:	c5 f9 7f 57 30       	vmovdqa XMMWORD PTR [rdi+0x30],xmm2
    4924:	c5 f9 7f 67 40       	vmovdqa XMMWORD PTR [rdi+0x40],xmm4
    4929:	c5 e9 73 fb 04       	vpslldq xmm2,xmm3,0x4
    492e:	c5 d9 73 fb 08       	vpslldq xmm4,xmm3,0x8
    4933:	c5 e1 ef d2          	vpxor  xmm2,xmm3,xmm2
    4937:	c5 e9 ef d4          	vpxor  xmm2,xmm2,xmm4
    493b:	c5 d9 73 fb 0c       	vpslldq xmm4,xmm3,0xc
    4940:	c5 e9 ef d4          	vpxor  xmm2,xmm2,xmm4
    4944:	c5 f9 70 c9 aa       	vpshufd xmm1,xmm1,0xaa
    4949:	c5 f1 ef ca          	vpxor  xmm1,xmm1,xmm2
    494d:	c4 e3 79 df d1 10    	vaeskeygenassist xmm2,xmm1,0x10
    4953:	c5 f9 7f 6f 50       	vmovdqa XMMWORD PTR [rdi+0x50],xmm5
    4958:	c5 f9 7f 77 60       	vmovdqa XMMWORD PTR [rdi+0x60],xmm6
    495d:	c5 f9 70 d2 ff       	vpshufd xmm2,xmm2,0xff
    4962:	c5 d9 73 f8 04       	vpslldq xmm4,xmm0,0x4
    4967:	c5 d1 73 f8 08       	vpslldq xmm5,xmm0,0x8
    496c:	c5 f9 ef e4          	vpxor  xmm4,xmm0,xmm4
    4970:	c5 d9 ef e5          	vpxor  xmm4,xmm4,xmm5
    4974:	c5 d1 73 f8 0c       	vpslldq xmm5,xmm0,0xc
    4979:	c5 d9 ef e5          	vpxor  xmm4,xmm4,xmm5
    497d:	c5 e9 ef d4          	vpxor  xmm2,xmm2,xmm4
    4981:	c4 e3 79 df e2 00    	vaeskeygenassist xmm4,xmm2,0x0
    4987:	c5 f9 7f 5f 70       	vmovdqa XMMWORD PTR [rdi+0x70],xmm3
    498c:	c5 f9 7f 87 80 00 00 	vmovdqa XMMWORD PTR [rdi+0x80],xmm0
    4993:	00 
    4994:	c5 f9 70 c4 aa       	vpshufd xmm0,xmm4,0xaa
    4999:	c5 e1 73 f9 04       	vpslldq xmm3,xmm1,0x4
    499e:	c5 d9 73 f9 08       	vpslldq xmm4,xmm1,0x8
    49a3:	c5 d1 73 f9 0c       	vpslldq xmm5,xmm1,0xc
    49a8:	c5 f1 ef db          	vpxor  xmm3,xmm1,xmm3
    49ac:	c5 e1 ef dc          	vpxor  xmm3,xmm3,xmm4
    49b0:	c5 e1 ef dd          	vpxor  xmm3,xmm3,xmm5
    49b4:	c5 f9 ef c3          	vpxor  xmm0,xmm0,xmm3
    49b8:	c4 e3 79 df d8 20    	vaeskeygenassist xmm3,xmm0,0x20
    49be:	c5 f9 7f 8f 90 00 00 	vmovdqa XMMWORD PTR [rdi+0x90],xmm1
    49c5:	00 
    49c6:	c5 f9 7f 97 a0 00 00 	vmovdqa XMMWORD PTR [rdi+0xa0],xmm2
    49cd:	00 
    49ce:	c5 f9 70 cb ff       	vpshufd xmm1,xmm3,0xff
    49d3:	c5 e1 73 fa 04       	vpslldq xmm3,xmm2,0x4
    49d8:	c5 d9 73 fa 08       	vpslldq xmm4,xmm2,0x8
    49dd:	c5 d1 73 fa 0c       	vpslldq xmm5,xmm2,0xc
    49e2:	c5 e9 ef d3          	vpxor  xmm2,xmm2,xmm3
    49e6:	c5 e9 ef d4          	vpxor  xmm2,xmm2,xmm4
    49ea:	c5 e9 ef d5          	vpxor  xmm2,xmm2,xmm5
    49ee:	c5 f1 ef ca          	vpxor  xmm1,xmm1,xmm2
    49f2:	c4 e3 79 df d1 00    	vaeskeygenassist xmm2,xmm1,0x0
    49f8:	c5 f9 7f 87 b0 00 00 	vmovdqa XMMWORD PTR [rdi+0xb0],xmm0
    49ff:	00 
    4a00:	c5 f9 7f 8f c0 00 00 	vmovdqa XMMWORD PTR [rdi+0xc0],xmm1
    4a07:	00 
    4a08:	c5 f9 70 d2 aa       	vpshufd xmm2,xmm2,0xaa
    4a0d:	c5 e1 73 f8 04       	vpslldq xmm3,xmm0,0x4
    4a12:	c5 d9 73 f8 08       	vpslldq xmm4,xmm0,0x8
    4a17:	c5 d1 73 f8 0c       	vpslldq xmm5,xmm0,0xc
    4a1c:	c5 f9 ef c3          	vpxor  xmm0,xmm0,xmm3
    4a20:	c5 f9 ef c4          	vpxor  xmm0,xmm0,xmm4
    4a24:	c5 f9 ef c5          	vpxor  xmm0,xmm0,xmm5
    4a28:	c5 e9 ef c0          	vpxor  xmm0,xmm2,xmm0
    4a2c:	c4 e3 79 df d0 40    	vaeskeygenassist xmm2,xmm0,0x40
    4a32:	c5 f9 7f 87 d0 00 00 	vmovdqa XMMWORD PTR [rdi+0xd0],xmm0
    4a39:	00 
    4a3a:	c5 f9 70 d2 ff       	vpshufd xmm2,xmm2,0xff
    4a3f:	c5 e1 73 f9 04       	vpslldq xmm3,xmm1,0x4
    4a44:	c5 d9 73 f9 08       	vpslldq xmm4,xmm1,0x8
    4a49:	c5 f9 73 f9 0c       	vpslldq xmm0,xmm1,0xc
    4a4e:	c5 f1 ef cb          	vpxor  xmm1,xmm1,xmm3
    4a52:	c5 f1 ef cc          	vpxor  xmm1,xmm1,xmm4
    4a56:	c5 e9 ef c9          	vpxor  xmm1,xmm2,xmm1
    4a5a:	bb 0e 00 00 00       	mov    ebx,0xe
    4a5f:	b8 0e 00 00 00       	mov    eax,0xe
    4a64:	e9 4d 02 00 00       	jmp    4cb6 <x86ni_keysched+0x6e6>
    4a69:	c5 f9 70 46 08 4e    	vpshufd xmm0,XMMWORD PTR [rsi+0x8],0x4e
    4a6f:	c4 e3 79 df c8 01    	vaeskeygenassist xmm1,xmm0,0x1
    4a75:	c5 fa 6f 16          	vmovdqu xmm2,XMMWORD PTR [rsi]
    4a79:	c5 f9 7f 17          	vmovdqa XMMWORD PTR [rdi],xmm2
    4a7d:	c5 f9 70 c9 55       	vpshufd xmm1,xmm1,0x55
    4a82:	c5 e1 73 fa 04       	vpslldq xmm3,xmm2,0x4
    4a87:	c5 e9 ef db          	vpxor  xmm3,xmm2,xmm3
    4a8b:	c5 d9 73 fa 08       	vpslldq xmm4,xmm2,0x8
    4a90:	c5 e9 73 fa 0c       	vpslldq xmm2,xmm2,0xc
    4a95:	c5 d9 ef d2          	vpxor  xmm2,xmm4,xmm2
    4a99:	c5 e1 ef d2          	vpxor  xmm2,xmm3,xmm2
    4a9d:	c5 e9 ef c9          	vpxor  xmm1,xmm2,xmm1
    4aa1:	c5 f9 70 d1 ff       	vpshufd xmm2,xmm1,0xff
    4aa6:	c5 e1 73 f8 04       	vpslldq xmm3,xmm0,0x4
    4aab:	c5 e1 ef d8          	vpxor  xmm3,xmm3,xmm0
    4aaf:	c5 f9 6c c1          	vpunpcklqdq xmm0,xmm0,xmm1
    4ab3:	c5 f9 7f 47 10       	vmovdqa XMMWORD PTR [rdi+0x10],xmm0
    4ab8:	c5 e1 ef c2          	vpxor  xmm0,xmm3,xmm2
    4abc:	c4 e3 79 df d0 02    	vaeskeygenassist xmm2,xmm0,0x2
    4ac2:	c4 e3 79 0f d9 08    	vpalignr xmm3,xmm0,xmm1,0x8
    4ac8:	c5 f9 70 d2 55       	vpshufd xmm2,xmm2,0x55
    4acd:	c5 d9 73 f9 04       	vpslldq xmm4,xmm1,0x4
    4ad2:	c5 f1 ef e4          	vpxor  xmm4,xmm1,xmm4
    4ad6:	c5 d1 73 f9 08       	vpslldq xmm5,xmm1,0x8
    4adb:	c5 d9 ef e5          	vpxor  xmm4,xmm4,xmm5
    4adf:	c5 f1 73 f9 0c       	vpslldq xmm1,xmm1,0xc
    4ae4:	c5 d9 ef c9          	vpxor  xmm1,xmm4,xmm1
    4ae8:	c5 e9 ef c9          	vpxor  xmm1,xmm2,xmm1
    4aec:	c5 f9 70 d1 ff       	vpshufd xmm2,xmm1,0xff
    4af1:	c5 d9 73 f8 04       	vpslldq xmm4,xmm0,0x4
    4af6:	c5 f9 ef c4          	vpxor  xmm0,xmm0,xmm4
    4afa:	c5 f9 ef c2          	vpxor  xmm0,xmm0,xmm2
    4afe:	c4 e3 79 df d0 04    	vaeskeygenassist xmm2,xmm0,0x4
    4b04:	c5 f9 7f 5f 20       	vmovdqa XMMWORD PTR [rdi+0x20],xmm3
    4b09:	c5 f9 7f 4f 30       	vmovdqa XMMWORD PTR [rdi+0x30],xmm1
    4b0e:	c5 f9 70 d2 55       	vpshufd xmm2,xmm2,0x55
    4b13:	c5 e1 73 f9 04       	vpslldq xmm3,xmm1,0x4
    4b18:	c5 d9 73 f9 08       	vpslldq xmm4,xmm1,0x8
    4b1d:	c5 d1 73 f9 0c       	vpslldq xmm5,xmm1,0xc
    4b22:	c5 f1 ef cb          	vpxor  xmm1,xmm1,xmm3
    4b26:	c5 f1 ef cc          	vpxor  xmm1,xmm1,xmm4
    4b2a:	c5 f1 ef cd          	vpxor  xmm1,xmm1,xmm5
    4b2e:	c5 e9 ef c9          	vpxor  xmm1,xmm2,xmm1
    4b32:	c5 f9 70 d1 ff       	vpshufd xmm2,xmm1,0xff
    4b37:	c5 e1 73 f8 04       	vpslldq xmm3,xmm0,0x4
    4b3c:	c5 f9 ef db          	vpxor  xmm3,xmm0,xmm3
    4b40:	c5 f9 6c c1          	vpunpcklqdq xmm0,xmm0,xmm1
    4b44:	c5 f9 7f 47 40       	vmovdqa XMMWORD PTR [rdi+0x40],xmm0
    4b49:	c5 e1 ef c2          	vpxor  xmm0,xmm3,xmm2
    4b4d:	c4 e3 79 df d0 08    	vaeskeygenassist xmm2,xmm0,0x8
    4b53:	c4 e3 79 0f d9 08    	vpalignr xmm3,xmm0,xmm1,0x8
    4b59:	c5 f9 70 d2 55       	vpshufd xmm2,xmm2,0x55
    4b5e:	c5 d9 73 f9 04       	vpslldq xmm4,xmm1,0x4
    4b63:	c5 d1 73 f9 08       	vpslldq xmm5,xmm1,0x8
    4b68:	c5 f1 ef e4          	vpxor  xmm4,xmm1,xmm4
    4b6c:	c5 f1 73 f9 0c       	vpslldq xmm1,xmm1,0xc
    4b71:	c5 d9 ef e5          	vpxor  xmm4,xmm4,xmm5
    4b75:	c5 d9 ef c9          	vpxor  xmm1,xmm4,xmm1
    4b79:	c5 e9 ef c9          	vpxor  xmm1,xmm2,xmm1
    4b7d:	c5 f9 70 d1 ff       	vpshufd xmm2,xmm1,0xff
    4b82:	c5 d9 73 f8 04       	vpslldq xmm4,xmm0,0x4
    4b87:	c5 f9 ef c4          	vpxor  xmm0,xmm0,xmm4
    4b8b:	c5 f9 ef c2          	vpxor  xmm0,xmm0,xmm2
    4b8f:	c4 e3 79 df d0 10    	vaeskeygenassist xmm2,xmm0,0x10
    4b95:	c5 f9 7f 5f 50       	vmovdqa XMMWORD PTR [rdi+0x50],xmm3
    4b9a:	c5 f9 7f 4f 60       	vmovdqa XMMWORD PTR [rdi+0x60],xmm1
    4b9f:	c5 f9 70 d2 55       	vpshufd xmm2,xmm2,0x55
    4ba4:	c5 e1 73 f9 04       	vpslldq xmm3,xmm1,0x4
    4ba9:	c5 d9 73 f9 08       	vpslldq xmm4,xmm1,0x8
    4bae:	c5 d1 73 f9 0c       	vpslldq xmm5,xmm1,0xc
    4bb3:	c5 f1 ef cb          	vpxor  xmm1,xmm1,xmm3
    4bb7:	c5 f1 ef cc          	vpxor  xmm1,xmm1,xmm4
    4bbb:	c5 f1 ef cd          	vpxor  xmm1,xmm1,xmm5
    4bbf:	c5 e9 ef c9          	vpxor  xmm1,xmm2,xmm1
    4bc3:	c5 f9 70 d1 ff       	vpshufd xmm2,xmm1,0xff
    4bc8:	c5 e1 73 f8 04       	vpslldq xmm3,xmm0,0x4
    4bcd:	c5 f9 ef db          	vpxor  xmm3,xmm0,xmm3
    4bd1:	c5 f9 6c c1          	vpunpcklqdq xmm0,xmm0,xmm1
    4bd5:	c5 f9 7f 47 70       	vmovdqa XMMWORD PTR [rdi+0x70],xmm0
    4bda:	c5 e1 ef c2          	vpxor  xmm0,xmm3,xmm2
    4bde:	c4 e3 79 df d0 20    	vaeskeygenassist xmm2,xmm0,0x20
    4be4:	c4 e3 79 0f d9 08    	vpalignr xmm3,xmm0,xmm1,0x8
    4bea:	c5 f9 70 d2 55       	vpshufd xmm2,xmm2,0x55
    4bef:	c5 d9 73 f9 04       	vpslldq xmm4,xmm1,0x4
    4bf4:	c5 d1 73 f9 08       	vpslldq xmm5,xmm1,0x8
    4bf9:	c5 f1 ef e4          	vpxor  xmm4,xmm1,xmm4
    4bfd:	c5 f1 73 f9 0c       	vpslldq xmm1,xmm1,0xc
    4c02:	c5 d9 ef e5          	vpxor  xmm4,xmm4,xmm5
    4c06:	c5 d9 ef c9          	vpxor  xmm1,xmm4,xmm1
    4c0a:	c5 e9 ef c9          	vpxor  xmm1,xmm2,xmm1
    4c0e:	c5 f9 70 d1 ff       	vpshufd xmm2,xmm1,0xff
    4c13:	c5 d9 73 f8 04       	vpslldq xmm4,xmm0,0x4
    4c18:	c5 f9 ef c4          	vpxor  xmm0,xmm0,xmm4
    4c1c:	c5 f9 ef c2          	vpxor  xmm0,xmm0,xmm2
    4c20:	c4 e3 79 df d0 40    	vaeskeygenassist xmm2,xmm0,0x40
    4c26:	c5 f9 7f 9f 80 00 00 	vmovdqa XMMWORD PTR [rdi+0x80],xmm3
    4c2d:	00 
    4c2e:	c5 f9 7f 8f 90 00 00 	vmovdqa XMMWORD PTR [rdi+0x90],xmm1
    4c35:	00 
    4c36:	c5 f9 70 d2 55       	vpshufd xmm2,xmm2,0x55
    4c3b:	c5 e1 73 f9 04       	vpslldq xmm3,xmm1,0x4
    4c40:	c5 d9 73 f9 08       	vpslldq xmm4,xmm1,0x8
    4c45:	c5 d1 73 f9 0c       	vpslldq xmm5,xmm1,0xc
    4c4a:	c5 f1 ef cb          	vpxor  xmm1,xmm1,xmm3
    4c4e:	c5 f1 ef cc          	vpxor  xmm1,xmm1,xmm4
    4c52:	c5 f1 ef cd          	vpxor  xmm1,xmm1,xmm5
    4c56:	c5 e9 ef c9          	vpxor  xmm1,xmm2,xmm1
    4c5a:	c5 f9 70 d1 ff       	vpshufd xmm2,xmm1,0xff
    4c5f:	c5 e1 73 f8 04       	vpslldq xmm3,xmm0,0x4
    4c64:	c5 f9 ef db          	vpxor  xmm3,xmm0,xmm3
    4c68:	c5 f9 6c c1          	vpunpcklqdq xmm0,xmm0,xmm1
    4c6c:	c5 f9 7f 87 a0 00 00 	vmovdqa XMMWORD PTR [rdi+0xa0],xmm0
    4c73:	00 
    4c74:	c5 e1 ef c2          	vpxor  xmm0,xmm3,xmm2
    4c78:	c4 e3 79 df d0 80    	vaeskeygenassist xmm2,xmm0,0x80
    4c7e:	c4 e3 79 0f c1 08    	vpalignr xmm0,xmm0,xmm1,0x8
    4c84:	c5 f9 7f 87 b0 00 00 	vmovdqa XMMWORD PTR [rdi+0xb0],xmm0
    4c8b:	00 
    4c8c:	c5 f9 70 d2 55       	vpshufd xmm2,xmm2,0x55
    4c91:	c5 e1 73 f9 04       	vpslldq xmm3,xmm1,0x4
    4c96:	c5 d9 73 f9 08       	vpslldq xmm4,xmm1,0x8
    4c9b:	c5 f9 73 f9 0c       	vpslldq xmm0,xmm1,0xc
    4ca0:	c5 f1 ef cb          	vpxor  xmm1,xmm1,xmm3
    4ca4:	c5 f1 ef cc          	vpxor  xmm1,xmm1,xmm4
    4ca8:	c5 e9 ef c9          	vpxor  xmm1,xmm2,xmm1
    4cac:	bb 0c 00 00 00       	mov    ebx,0xc
    4cb1:	b8 0c 00 00 00       	mov    eax,0xc
    4cb6:	c5 f1 ef c0          	vpxor  xmm0,xmm1,xmm0
    4cba:	48 c1 e0 04          	shl    rax,0x4
    4cbe:	c5 f9 7f 04 07       	vmovdqa XMMWORD PTR [rdi+rax*1],xmm0
    4cc3:	48 8b 7c 24 08       	mov    rdi,QWORD PTR [rsp+0x8]
    4cc8:	e8 e3 a1 00 00       	call   eeb0 <_Z10traceedgecPv>
    4ccd:	89 d8                	mov    eax,ebx
    4ccf:	5b                   	pop    rbx
    4cd0:	c3                   	ret    
    4cd1:	66 2e 0f 1f 84 00 00 	nop    WORD PTR cs:[rax+rax*1+0x0]
    4cd8:	00 00 00 
    4cdb:	0f 1f 44 00 00       	nop    DWORD PTR [rax+rax*1+0x0]

0000000000004ce0 <br_aes_x86ni_ctr_init>:
    4ce0:	41 57                	push   r15
    4ce2:	41 56                	push   r14
    4ce4:	41 54                	push   r12
    4ce6:	53                   	push   rbx
    4ce7:	50                   	push   rax
    4ce8:	49 89 d6             	mov    r14,rdx
    4ceb:	49 89 f7             	mov    r15,rsi
    4cee:	48 89 fb             	mov    rbx,rdi
    4cf1:	48 8d 05 60 20 23 00 	lea    rax,[rip+0x232060]        # 236d58 <br_aes_x86ni_ctr_vtable>
    4cf8:	48 89 07             	mov    QWORD PTR [rdi],rax
    4cfb:	4c 8d 67 08          	lea    r12,[rdi+0x8]
    4cff:	48 8d 3d 5a f8 ff ff 	lea    rdi,[rip+0xfffffffffffff85a]        # 4560 <br_aes_x86ni_keysched_enc>
    4d06:	e8 a5 a1 00 00       	call   eeb0 <_Z10traceedgecPv>
    4d0b:	4c 89 e7             	mov    rdi,r12
    4d0e:	4c 89 fe             	mov    rsi,r15
    4d11:	4c 89 f2             	mov    rdx,r14
    4d14:	e8 47 f8 ff ff       	call   4560 <br_aes_x86ni_keysched_enc>
    4d19:	89 83 f8 00 00 00    	mov    DWORD PTR [rbx+0xf8],eax
    4d1f:	48 8b 7c 24 28       	mov    rdi,QWORD PTR [rsp+0x28]
    4d24:	48 83 c4 08          	add    rsp,0x8
    4d28:	5b                   	pop    rbx
    4d29:	41 5c                	pop    r12
    4d2b:	41 5e                	pop    r14
    4d2d:	41 5f                	pop    r15
    4d2f:	e9 7c a1 00 00       	jmp    eeb0 <_Z10traceedgecPv>
    4d34:	66 2e 0f 1f 84 00 00 	nop    WORD PTR cs:[rax+rax*1+0x0]
    4d3b:	00 00 00 
    4d3e:	66 90                	xchg   ax,ax

0000000000004d40 <br_aes_x86ni_ctr_run>:
    4d40:	55                   	push   rbp
    4d41:	41 57                	push   r15
    4d43:	41 56                	push   r14
    4d45:	41 55                	push   r13
    4d47:	41 54                	push   r12
    4d49:	53                   	push   rbx
    4d4a:	48 81 ec b8 01 00 00 	sub    rsp,0x1b8
    4d51:	4c 89 04 24          	mov    QWORD PTR [rsp],r8
    4d55:	49 89 cc             	mov    r12,rcx
    4d58:	41 89 d7             	mov    r15d,edx
    4d5b:	49 89 fd             	mov    r13,rdi
    4d5e:	64 48 8b 04 25 28 00 	mov    rax,QWORD PTR fs:0x28
    4d65:	00 00 
    4d67:	48 89 84 24 b0 01 00 	mov    QWORD PTR [rsp+0x1b0],rax
    4d6e:	00 
    4d6f:	8b 46 08             	mov    eax,DWORD PTR [rsi+0x8]
    4d72:	89 44 24 58          	mov    DWORD PTR [rsp+0x58],eax
    4d76:	48 8b 06             	mov    rax,QWORD PTR [rsi]
    4d79:	48 89 44 24 50       	mov    QWORD PTR [rsp+0x50],rax
    4d7e:	44 8b b7 f8 00 00 00 	mov    r14d,DWORD PTR [rdi+0xf8]
    4d85:	31 db                	xor    ebx,ebx
    4d87:	31 ed                	xor    ebp,ebp
    4d89:	0f 1f 80 00 00 00 00 	nop    DWORD PTR [rax+0x0]
    4d90:	bf 01 00 00 00       	mov    edi,0x1
    4d95:	e8 86 a4 00 00       	call   f220 <_Z7tracebrPv>
    4d9a:	89 d8                	mov    eax,ebx
    4d9c:	c4 c1 78 10 44 05 08 	vmovups xmm0,XMMWORD PTR [r13+rax*1+0x8]
    4da3:	89 e8                	mov    eax,ebp
    4da5:	48 c1 e0 04          	shl    rax,0x4
    4da9:	c5 f8 29 84 04 80 00 	vmovaps XMMWORD PTR [rsp+rax*1+0x80],xmm0
    4db0:	00 00 
    4db2:	ff c5                	inc    ebp
    4db4:	83 c3 10             	add    ebx,0x10
    4db7:	44 39 f5             	cmp    ebp,r14d
    4dba:	76 d4                	jbe    4d90 <br_aes_x86ni_ctr_run+0x50>
    4dbc:	31 ff                	xor    edi,edi
    4dbe:	e8 5d a4 00 00       	call   f220 <_Z7tracebrPv>
    4dc3:	48 83 3c 24 00       	cmp    QWORD PTR [rsp],0x0
    4dc8:	0f 84 7e 04 00 00    	je     524c <br_aes_x86ni_ctr_run+0x50c>
    4dce:	c5 f8 28 44 24 50    	vmovaps xmm0,XMMWORD PTR [rsp+0x50]
    4dd4:	c5 f8 29 44 24 40    	vmovaps XMMWORD PTR [rsp+0x40],xmm0
    4dda:	c5 f8 28 84 24 80 00 	vmovaps xmm0,XMMWORD PTR [rsp+0x80]
    4de1:	00 00 
    4de3:	c5 f8 29 44 24 70    	vmovaps XMMWORD PTR [rsp+0x70],xmm0
    4de9:	c5 f8 28 84 24 90 00 	vmovaps xmm0,XMMWORD PTR [rsp+0x90]
    4df0:	00 00 
    4df2:	c5 f8 29 44 24 60    	vmovaps XMMWORD PTR [rsp+0x60],xmm0
    4df8:	44 89 f5             	mov    ebp,r14d
    4dfb:	4c 8b 34 24          	mov    r14,QWORD PTR [rsp]
    4dff:	90                   	nop
    4e00:	44 89 fb             	mov    ebx,r15d
    4e03:	bf 01 00 00 00       	mov    edi,0x1
    4e08:	e8 13 a4 00 00       	call   f220 <_Z7tracebrPv>
    4e0d:	8d 43 01             	lea    eax,[rbx+0x1]
    4e10:	8d 4b 02             	lea    ecx,[rbx+0x2]
    4e13:	44 8d 7b 03          	lea    r15d,[rbx+0x3]
    4e17:	89 da                	mov    edx,ebx
    4e19:	0f ca                	bswap  edx
    4e1b:	c5 f9 6f 5c 24 40    	vmovdqa xmm3,XMMWORD PTR [rsp+0x40]
    4e21:	c4 e3 61 22 c2 03    	vpinsrd xmm0,xmm3,edx,0x3
    4e27:	0f c8                	bswap  eax
    4e29:	c4 e3 61 22 c8 03    	vpinsrd xmm1,xmm3,eax,0x3
    4e2f:	0f c9                	bswap  ecx
    4e31:	c4 e3 61 22 d1 03    	vpinsrd xmm2,xmm3,ecx,0x3
    4e37:	44 89 f8             	mov    eax,r15d
    4e3a:	0f c8                	bswap  eax
    4e3c:	c4 e3 61 22 d8 03    	vpinsrd xmm3,xmm3,eax,0x3
    4e42:	c5 f9 6f 64 24 70    	vmovdqa xmm4,XMMWORD PTR [rsp+0x70]
    4e48:	c5 d9 ef c0          	vpxor  xmm0,xmm4,xmm0
    4e4c:	c5 d9 ef c9          	vpxor  xmm1,xmm4,xmm1
    4e50:	c5 d9 ef d2          	vpxor  xmm2,xmm4,xmm2
    4e54:	c5 d9 ef db          	vpxor  xmm3,xmm4,xmm3
    4e58:	c5 f9 6f 64 24 60    	vmovdqa xmm4,XMMWORD PTR [rsp+0x60]
    4e5e:	c4 e2 79 dc c4       	vaesenc xmm0,xmm0,xmm4
    4e63:	c4 e2 71 dc cc       	vaesenc xmm1,xmm1,xmm4
    4e68:	c4 e2 69 dc d4       	vaesenc xmm2,xmm2,xmm4
    4e6d:	c4 e2 61 dc dc       	vaesenc xmm3,xmm3,xmm4
    4e72:	c5 f9 6f a4 24 a0 00 	vmovdqa xmm4,XMMWORD PTR [rsp+0xa0]
    4e79:	00 00 
    4e7b:	c5 f9 6f ac 24 b0 00 	vmovdqa xmm5,XMMWORD PTR [rsp+0xb0]
    4e82:	00 00 
    4e84:	c5 f9 6f b4 24 c0 00 	vmovdqa xmm6,XMMWORD PTR [rsp+0xc0]
    4e8b:	00 00 
    4e8d:	c5 f9 6f bc 24 d0 00 	vmovdqa xmm7,XMMWORD PTR [rsp+0xd0]
    4e94:	00 00 
    4e96:	c4 e2 79 dc c4       	vaesenc xmm0,xmm0,xmm4
    4e9b:	c4 e2 71 dc cc       	vaesenc xmm1,xmm1,xmm4
    4ea0:	c4 e2 69 dc d4       	vaesenc xmm2,xmm2,xmm4
    4ea5:	c4 e2 61 dc dc       	vaesenc xmm3,xmm3,xmm4
    4eaa:	c4 e2 79 dc c5       	vaesenc xmm0,xmm0,xmm5
    4eaf:	c4 e2 71 dc cd       	vaesenc xmm1,xmm1,xmm5
    4eb4:	c4 e2 69 dc d5       	vaesenc xmm2,xmm2,xmm5
    4eb9:	c4 e2 61 dc dd       	vaesenc xmm3,xmm3,xmm5
    4ebe:	c4 e2 79 dc c6       	vaesenc xmm0,xmm0,xmm6
    4ec3:	c4 e2 71 dc ce       	vaesenc xmm1,xmm1,xmm6
    4ec8:	c4 e2 69 dc d6       	vaesenc xmm2,xmm2,xmm6
    4ecd:	c4 e2 61 dc de       	vaesenc xmm3,xmm3,xmm6
    4ed2:	c4 e2 79 dc c7       	vaesenc xmm0,xmm0,xmm7
    4ed7:	c4 e2 71 dc cf       	vaesenc xmm1,xmm1,xmm7
    4edc:	c4 e2 69 dc d7       	vaesenc xmm2,xmm2,xmm7
    4ee1:	c4 e2 61 dc df       	vaesenc xmm3,xmm3,xmm7
    4ee6:	c5 f9 6f a4 24 e0 00 	vmovdqa xmm4,XMMWORD PTR [rsp+0xe0]
    4eed:	00 00 
    4eef:	c4 e2 79 dc c4       	vaesenc xmm0,xmm0,xmm4
    4ef4:	c4 e2 71 dc cc       	vaesenc xmm1,xmm1,xmm4
    4ef9:	c4 e2 69 dc d4       	vaesenc xmm2,xmm2,xmm4
    4efe:	c4 e2 61 dc dc       	vaesenc xmm3,xmm3,xmm4
    4f03:	c5 f9 6f a4 24 f0 00 	vmovdqa xmm4,XMMWORD PTR [rsp+0xf0]
    4f0a:	00 00 
    4f0c:	c4 e2 79 dc c4       	vaesenc xmm0,xmm0,xmm4
    4f11:	c4 e2 71 dc cc       	vaesenc xmm1,xmm1,xmm4
    4f16:	c4 e2 69 dc d4       	vaesenc xmm2,xmm2,xmm4
    4f1b:	c4 e2 61 dc dc       	vaesenc xmm3,xmm3,xmm4
    4f20:	c5 f9 6f a4 24 00 01 	vmovdqa xmm4,XMMWORD PTR [rsp+0x100]
    4f27:	00 00 
    4f29:	c4 e2 79 dc c4       	vaesenc xmm0,xmm0,xmm4
    4f2e:	c4 e2 71 dc cc       	vaesenc xmm1,xmm1,xmm4
    4f33:	c4 e2 69 dc d4       	vaesenc xmm2,xmm2,xmm4
    4f38:	c4 e2 61 dc dc       	vaesenc xmm3,xmm3,xmm4
    4f3d:	c5 f9 6f a4 24 10 01 	vmovdqa xmm4,XMMWORD PTR [rsp+0x110]
    4f44:	00 00 
    4f46:	c4 e2 79 dc ec       	vaesenc xmm5,xmm0,xmm4
    4f4b:	c4 e2 71 dc cc       	vaesenc xmm1,xmm1,xmm4
    4f50:	c4 e2 69 dc d4       	vaesenc xmm2,xmm2,xmm4
    4f55:	c4 e2 61 dc c4       	vaesenc xmm0,xmm3,xmm4
    4f5a:	83 fd 0a             	cmp    ebp,0xa
    4f5d:	c5 f9 7f 04 24       	vmovdqa XMMWORD PTR [rsp],xmm0
    4f62:	c5 f9 7f 54 24 30    	vmovdqa XMMWORD PTR [rsp+0x30],xmm2
    4f68:	c5 f9 7f 4c 24 20    	vmovdqa XMMWORD PTR [rsp+0x20],xmm1
    4f6e:	c5 f9 7f 6c 24 10    	vmovdqa XMMWORD PTR [rsp+0x10],xmm5
    4f74:	75 5a                	jne    4fd0 <br_aes_x86ni_ctr_run+0x290>
    4f76:	bf 01 00 00 00       	mov    edi,0x1
    4f7b:	e8 a0 a2 00 00       	call   f220 <_Z7tracebrPv>
    4f80:	c5 f9 6f 84 24 20 01 	vmovdqa xmm0,XMMWORD PTR [rsp+0x120]
    4f87:	00 00 
    4f89:	c5 f9 6f 4c 24 10    	vmovdqa xmm1,XMMWORD PTR [rsp+0x10]
    4f8f:	c4 e2 71 dd c8       	vaesenclast xmm1,xmm1,xmm0
    4f94:	c5 f9 7f 4c 24 10    	vmovdqa XMMWORD PTR [rsp+0x10],xmm1
    4f9a:	c5 f9 6f 4c 24 20    	vmovdqa xmm1,XMMWORD PTR [rsp+0x20]
    4fa0:	c4 e2 71 dd c8       	vaesenclast xmm1,xmm1,xmm0
    4fa5:	c5 f9 7f 4c 24 20    	vmovdqa XMMWORD PTR [rsp+0x20],xmm1
    4fab:	c5 f9 6f 4c 24 30    	vmovdqa xmm1,XMMWORD PTR [rsp+0x30]
    4fb1:	c4 e2 71 dd c8       	vaesenclast xmm1,xmm1,xmm0
    4fb6:	c5 f9 7f 4c 24 30    	vmovdqa XMMWORD PTR [rsp+0x30],xmm1
    4fbc:	c5 f9 6f 0c 24       	vmovdqa xmm1,XMMWORD PTR [rsp]
    4fc1:	c4 e2 71 dd c0       	vaesenclast xmm0,xmm1,xmm0
    4fc6:	e9 66 01 00 00       	jmp    5131 <br_aes_x86ni_ctr_run+0x3f1>
    4fcb:	0f 1f 44 00 00       	nop    DWORD PTR [rax+rax*1+0x0]
    4fd0:	31 ff                	xor    edi,edi
    4fd2:	e8 49 a2 00 00       	call   f220 <_Z7tracebrPv>
    4fd7:	83 fd 0c             	cmp    ebp,0xc
    4fda:	0f 85 90 00 00 00    	jne    5070 <br_aes_x86ni_ctr_run+0x330>
    4fe0:	bf 01 00 00 00       	mov    edi,0x1
    4fe5:	e8 36 a2 00 00       	call   f220 <_Z7tracebrPv>
    4fea:	c5 f9 6f 84 24 20 01 	vmovdqa xmm0,XMMWORD PTR [rsp+0x120]
    4ff1:	00 00 
    4ff3:	c5 f9 6f 8c 24 30 01 	vmovdqa xmm1,XMMWORD PTR [rsp+0x130]
    4ffa:	00 00 
    4ffc:	c5 f9 6f 94 24 40 01 	vmovdqa xmm2,XMMWORD PTR [rsp+0x140]
    5003:	00 00 
    5005:	c5 f9 6f 5c 24 10    	vmovdqa xmm3,XMMWORD PTR [rsp+0x10]
    500b:	c4 e2 61 dc d8       	vaesenc xmm3,xmm3,xmm0
    5010:	c5 f9 6f 64 24 20    	vmovdqa xmm4,XMMWORD PTR [rsp+0x20]
    5016:	c4 e2 59 dc e0       	vaesenc xmm4,xmm4,xmm0
    501b:	c5 f9 6f 6c 24 30    	vmovdqa xmm5,XMMWORD PTR [rsp+0x30]
    5021:	c4 e2 51 dc e8       	vaesenc xmm5,xmm5,xmm0
    5026:	c5 f9 6f 34 24       	vmovdqa xmm6,XMMWORD PTR [rsp]
    502b:	c4 e2 49 dc c0       	vaesenc xmm0,xmm6,xmm0
    5030:	c4 e2 61 dc d9       	vaesenc xmm3,xmm3,xmm1
    5035:	c4 e2 59 dc e1       	vaesenc xmm4,xmm4,xmm1
    503a:	c4 e2 51 dc e9       	vaesenc xmm5,xmm5,xmm1
    503f:	c4 e2 79 dc c1       	vaesenc xmm0,xmm0,xmm1
    5044:	c4 e2 61 dd ca       	vaesenclast xmm1,xmm3,xmm2
    5049:	c5 f9 7f 4c 24 10    	vmovdqa XMMWORD PTR [rsp+0x10],xmm1
    504f:	c4 e2 59 dd ca       	vaesenclast xmm1,xmm4,xmm2
    5054:	c5 f9 7f 4c 24 20    	vmovdqa XMMWORD PTR [rsp+0x20],xmm1
    505a:	c4 e2 51 dd ca       	vaesenclast xmm1,xmm5,xmm2
    505f:	c5 f9 7f 4c 24 30    	vmovdqa XMMWORD PTR [rsp+0x30],xmm1
    5065:	c4 e2 79 dd c2       	vaesenclast xmm0,xmm0,xmm2
    506a:	e9 c2 00 00 00       	jmp    5131 <br_aes_x86ni_ctr_run+0x3f1>
    506f:	90                   	nop
    5070:	31 ff                	xor    edi,edi
    5072:	e8 a9 a1 00 00       	call   f220 <_Z7tracebrPv>
    5077:	c5 f9 6f 84 24 20 01 	vmovdqa xmm0,XMMWORD PTR [rsp+0x120]
    507e:	00 00 
    5080:	c5 f9 6f 8c 24 30 01 	vmovdqa xmm1,XMMWORD PTR [rsp+0x130]
    5087:	00 00 
    5089:	c5 f9 6f 94 24 40 01 	vmovdqa xmm2,XMMWORD PTR [rsp+0x140]
    5090:	00 00 
    5092:	c5 f9 6f 9c 24 50 01 	vmovdqa xmm3,XMMWORD PTR [rsp+0x150]
    5099:	00 00 
    509b:	c5 f9 6f 64 24 10    	vmovdqa xmm4,XMMWORD PTR [rsp+0x10]
    50a1:	c4 e2 59 dc e0       	vaesenc xmm4,xmm4,xmm0
    50a6:	c5 f9 6f 6c 24 20    	vmovdqa xmm5,XMMWORD PTR [rsp+0x20]
    50ac:	c4 e2 51 dc e8       	vaesenc xmm5,xmm5,xmm0
    50b1:	c5 f9 6f 74 24 30    	vmovdqa xmm6,XMMWORD PTR [rsp+0x30]
    50b7:	c4 e2 49 dc f0       	vaesenc xmm6,xmm6,xmm0
    50bc:	c5 f9 6f 3c 24       	vmovdqa xmm7,XMMWORD PTR [rsp]
    50c1:	c4 e2 41 dc c0       	vaesenc xmm0,xmm7,xmm0
    50c6:	c4 e2 59 dc e1       	vaesenc xmm4,xmm4,xmm1
    50cb:	c4 e2 51 dc e9       	vaesenc xmm5,xmm5,xmm1
    50d0:	c4 e2 49 dc f1       	vaesenc xmm6,xmm6,xmm1
    50d5:	c4 e2 79 dc c1       	vaesenc xmm0,xmm0,xmm1
    50da:	c4 e2 59 dc ca       	vaesenc xmm1,xmm4,xmm2
    50df:	c4 e2 51 dc e2       	vaesenc xmm4,xmm5,xmm2
    50e4:	c4 e2 49 dc ea       	vaesenc xmm5,xmm6,xmm2
    50e9:	c4 e2 79 dc c2       	vaesenc xmm0,xmm0,xmm2
    50ee:	c4 e2 71 dc cb       	vaesenc xmm1,xmm1,xmm3
    50f3:	c4 e2 59 dc d3       	vaesenc xmm2,xmm4,xmm3
    50f8:	c4 e2 51 dc e3       	vaesenc xmm4,xmm5,xmm3
    50fd:	c4 e2 79 dc c3       	vaesenc xmm0,xmm0,xmm3
    5102:	c5 f9 6f 9c 24 60 01 	vmovdqa xmm3,XMMWORD PTR [rsp+0x160]
    5109:	00 00 
    510b:	c4 e2 71 dd cb       	vaesenclast xmm1,xmm1,xmm3
    5110:	c5 f9 7f 4c 24 10    	vmovdqa XMMWORD PTR [rsp+0x10],xmm1
    5116:	c4 e2 69 dd cb       	vaesenclast xmm1,xmm2,xmm3
    511b:	c5 f9 7f 4c 24 20    	vmovdqa XMMWORD PTR [rsp+0x20],xmm1
    5121:	c4 e2 59 dd cb       	vaesenclast xmm1,xmm4,xmm3
    5126:	c5 f9 7f 4c 24 30    	vmovdqa XMMWORD PTR [rsp+0x30],xmm1
    512c:	c4 e2 79 dd c3       	vaesenclast xmm0,xmm0,xmm3
    5131:	c5 f9 7f 04 24       	vmovdqa XMMWORD PTR [rsp],xmm0
    5136:	49 83 fe 3f          	cmp    r14,0x3f
    513a:	76 73                	jbe    51af <br_aes_x86ni_ctr_run+0x46f>
    513c:	bf 01 00 00 00       	mov    edi,0x1
    5141:	e8 da a0 00 00       	call   f220 <_Z7tracebrPv>
    5146:	c5 f8 28 44 24 10    	vmovaps xmm0,XMMWORD PTR [rsp+0x10]
    514c:	c4 c1 78 57 04 24    	vxorps xmm0,xmm0,XMMWORD PTR [r12]
    5152:	c5 f9 6f 4c 24 20    	vmovdqa xmm1,XMMWORD PTR [rsp+0x20]
    5158:	c4 c1 71 ef 4c 24 10 	vpxor  xmm1,xmm1,XMMWORD PTR [r12+0x10]
    515f:	c5 f9 6f 54 24 30    	vmovdqa xmm2,XMMWORD PTR [rsp+0x30]
    5165:	c4 c1 69 ef 54 24 20 	vpxor  xmm2,xmm2,XMMWORD PTR [r12+0x20]
    516c:	c5 f9 6f 1c 24       	vmovdqa xmm3,XMMWORD PTR [rsp]
    5171:	c4 c1 61 ef 5c 24 30 	vpxor  xmm3,xmm3,XMMWORD PTR [r12+0x30]
    5178:	c4 c1 78 11 04 24    	vmovups XMMWORD PTR [r12],xmm0
    517e:	c4 c1 7a 7f 4c 24 10 	vmovdqu XMMWORD PTR [r12+0x10],xmm1
    5185:	c4 c1 7a 7f 54 24 20 	vmovdqu XMMWORD PTR [r12+0x20],xmm2
    518c:	c4 c1 7a 7f 5c 24 30 	vmovdqu XMMWORD PTR [r12+0x30],xmm3
    5193:	41 ff c7             	inc    r15d
    5196:	49 83 c4 40          	add    r12,0x40
    519a:	49 83 c6 c0          	add    r14,0xffffffffffffffc0
    519e:	0f 85 5c fc ff ff    	jne    4e00 <br_aes_x86ni_ctr_run+0xc0>
    51a4:	83 c3 04             	add    ebx,0x4
    51a7:	41 89 df             	mov    r15d,ebx
    51aa:	e9 9d 00 00 00       	jmp    524c <br_aes_x86ni_ctr_run+0x50c>
    51af:	48 89 5c 24 40       	mov    QWORD PTR [rsp+0x40],rbx
    51b4:	31 ed                	xor    ebp,ebp
    51b6:	31 ff                	xor    edi,edi
    51b8:	e8 63 a0 00 00       	call   f220 <_Z7tracebrPv>
    51bd:	c5 f8 28 44 24 10    	vmovaps xmm0,XMMWORD PTR [rsp+0x10]
    51c3:	c5 f8 29 84 24 70 01 	vmovaps XMMWORD PTR [rsp+0x170],xmm0
    51ca:	00 00 
    51cc:	c5 f8 28 44 24 20    	vmovaps xmm0,XMMWORD PTR [rsp+0x20]
    51d2:	c5 f8 29 84 24 80 01 	vmovaps XMMWORD PTR [rsp+0x180],xmm0
    51d9:	00 00 
    51db:	c5 f8 28 44 24 30    	vmovaps xmm0,XMMWORD PTR [rsp+0x30]
    51e1:	c5 f8 29 84 24 90 01 	vmovaps XMMWORD PTR [rsp+0x190],xmm0
    51e8:	00 00 
    51ea:	c5 f8 28 04 24       	vmovaps xmm0,XMMWORD PTR [rsp]
    51ef:	c5 f8 29 84 24 a0 01 	vmovaps XMMWORD PTR [rsp+0x1a0],xmm0
    51f6:	00 00 
    51f8:	4d 85 f6             	test   r14,r14
    51fb:	74 39                	je     5236 <br_aes_x86ni_ctr_run+0x4f6>
    51fd:	bb 01 00 00 00       	mov    ebx,0x1
    5202:	45 31 ff             	xor    r15d,r15d
    5205:	66 2e 0f 1f 84 00 00 	nop    WORD PTR cs:[rax+rax*1+0x0]
    520c:	00 00 00 
    520f:	90                   	nop
    5210:	41 89 ed             	mov    r13d,ebp
    5213:	bf 01 00 00 00       	mov    edi,0x1
    5218:	e8 03 a0 00 00       	call   f220 <_Z7tracebrPv>
    521d:	42 0f b6 84 3c 70 01 	movzx  eax,BYTE PTR [rsp+r15*1+0x170]
    5224:	00 00 
    5226:	43 30 04 2c          	xor    BYTE PTR [r12+r13*1],al
    522a:	41 89 df             	mov    r15d,ebx
    522d:	ff c3                	inc    ebx
    522f:	ff c5                	inc    ebp
    5231:	4d 39 fe             	cmp    r14,r15
    5234:	77 da                	ja     5210 <br_aes_x86ni_ctr_run+0x4d0>
    5236:	31 ff                	xor    edi,edi
    5238:	e8 e3 9f 00 00       	call   f220 <_Z7tracebrPv>
    523d:	41 c1 ee 04          	shr    r14d,0x4
    5241:	48 8b 44 24 40       	mov    rax,QWORD PTR [rsp+0x40]
    5246:	44 01 f0             	add    eax,r14d
    5249:	41 89 c7             	mov    r15d,eax
    524c:	31 ff                	xor    edi,edi
    524e:	e8 cd 9f 00 00       	call   f220 <_Z7tracebrPv>
    5253:	48 8b bc 24 e8 01 00 	mov    rdi,QWORD PTR [rsp+0x1e8]
    525a:	00 
    525b:	e8 50 9c 00 00       	call   eeb0 <_Z10traceedgecPv>
    5260:	64 48 8b 04 25 28 00 	mov    rax,QWORD PTR fs:0x28
    5267:	00 00 
