
../src/contact_traced_toplaywith/enclave.signed.so:     file format elf64-x86-64


Disassembly of section .plt:

0000000000000c60 <.plt>:
 c60:	ff 35 a2 13 24 00    	push   QWORD PTR [rip+0x2413a2]        # 242008 <_GLOBAL_OFFSET_TABLE_+0x8>
 c66:	ff 25 a4 13 24 00    	jmp    QWORD PTR [rip+0x2413a4]        # 242010 <_GLOBAL_OFFSET_TABLE_+0x10>
 c6c:	0f 1f 40 00          	nop    DWORD PTR [rax+0x0]

Disassembly of section .plt.got:

0000000000000c70 <_Z9pcl_entryPvS_@plt>:
 c70:	ff 25 42 13 24 00    	jmp    QWORD PTR [rip+0x241342]        # 241fb8 <_Z9pcl_entryPvS_>
 c76:	66 90                	xchg   ax,ax

Disassembly of section .text:

0000000000000c80 <trts_access_version_dummy1>:
     c80:	48 8d 05 a9 13 24 00 	lea    rax,[rip+0x2413a9]        # 242030 <sgx_trts_version>
     c87:	c6 00 73             	mov    BYTE PTR [rax],0x73
     c8a:	c3                   	ret    
     c8b:	0f 1f 44 00 00       	nop    DWORD PTR [rax+rax*1+0x0]

0000000000000c90 <tstdc_access_version_dummy1>:
     c90:	c6 05 c9 13 24 00 73 	mov    BYTE PTR [rip+0x2413c9],0x73        # 242060 <sgx_tstdc_version>
     c97:	48 8d 05 c2 13 24 00 	lea    rax,[rip+0x2413c2]        # 242060 <sgx_tstdc_version>
     c9e:	c3                   	ret    
     c9f:	90                   	nop

0000000000000ca0 <tcrypto_access_version_dummy1>:
     ca0:	c6 05 39 1c 24 00 73 	mov    BYTE PTR [rip+0x241c39],0x73        # 2428e0 <sgx_tcrypto_version>
     ca7:	48 8d 05 32 1c 24 00 	lea    rax,[rip+0x241c32]        # 2428e0 <sgx_tcrypto_version>
     cae:	c3                   	ret    
     caf:	90                   	nop

0000000000000cb0 <tservice_access_version_dummy1>:
     cb0:	c6 05 a9 1f 24 00 73 	mov    BYTE PTR [rip+0x241fa9],0x73        # 242c60 <sgx_tservice_version>
     cb7:	48 8d 05 a2 1f 24 00 	lea    rax,[rip+0x241fa2]        # 242c60 <sgx_tservice_version>
     cbe:	c3                   	ret    
     cbf:	90                   	nop

0000000000000cc0 <sgx_sgxsd_enclave_node_init>:
     cc0:	55                   	push   rbp
     cc1:	41 57                	push   r15
     cc3:	41 56                	push   r14
     cc5:	53                   	push   rbx
     cc6:	50                   	push   rax
     cc7:	bd 02 00 00 00       	mov    ebp,0x2
     ccc:	48 85 ff             	test   rdi,rdi
     ccf:	0f 84 63 01 00 00    	je     e38 <sgx_sgxsd_enclave_node_init+0x178>
     cd5:	48 89 fb             	mov    rbx,rdi
     cd8:	bf 01 00 00 00       	mov    edi,0x1
     cdd:	e8 4e e4 00 00       	call   f130 <_Z7tracebrPv>
     ce2:	48 8d 3d c7 e6 00 00 	lea    rdi,[rip+0xe6c7]        # f3b0 <sgx_is_outside_enclave>
     ce9:	e8 d2 e0 00 00       	call   edc0 <_Z10traceedgecPv>
     cee:	be 10 00 00 00       	mov    esi,0x10
     cf3:	48 89 df             	mov    rdi,rbx
     cf6:	e8 b5 e6 00 00       	call   f3b0 <sgx_is_outside_enclave>
     cfb:	85 c0                	test   eax,eax
     cfd:	0f 84 35 01 00 00    	je     e38 <sgx_sgxsd_enclave_node_init+0x178>
     d03:	bf 01 00 00 00       	mov    edi,0x1
     d08:	e8 23 e4 00 00       	call   f130 <_Z7tracebrPv>
     d0d:	0f ae e8             	lfence 
     d10:	4c 8b 7b 08          	mov    r15,QWORD PTR [rbx+0x8]
     d14:	4d 85 ff             	test   r15,r15
     d17:	0f 84 ab 00 00 00    	je     dc8 <sgx_sgxsd_enclave_node_init+0x108>
     d1d:	bf 01 00 00 00       	mov    edi,0x1
     d22:	e8 09 e4 00 00       	call   f130 <_Z7tracebrPv>
     d27:	48 8d 3d 82 e6 00 00 	lea    rdi,[rip+0xe682]        # f3b0 <sgx_is_outside_enclave>
     d2e:	e8 8d e0 00 00       	call   edc0 <_Z10traceedgecPv>
     d33:	be 01 00 00 00       	mov    esi,0x1
     d38:	4c 89 ff             	mov    rdi,r15
     d3b:	e8 70 e6 00 00       	call   f3b0 <sgx_is_outside_enclave>
     d40:	89 c5                	mov    ebp,eax
     d42:	31 ff                	xor    edi,edi
     d44:	e8 e7 e3 00 00       	call   f130 <_Z7tracebrPv>
     d49:	85 ed                	test   ebp,ebp
     d4b:	0f 84 86 00 00 00    	je     dd7 <sgx_sgxsd_enclave_node_init+0x117>
     d51:	0f ae e8             	lfence 
     d54:	bf 01 00 00 00       	mov    edi,0x1
     d59:	e8 d2 e3 00 00       	call   f130 <_Z7tracebrPv>
     d5e:	bf 01 00 00 00       	mov    edi,0x1
     d63:	e8 c8 e3 00 00       	call   f130 <_Z7tracebrPv>
     d68:	48 8d 3d d1 18 01 00 	lea    rdi,[rip+0x118d1]        # 12640 <dlmalloc>
     d6f:	e8 4c e0 00 00       	call   edc0 <_Z10traceedgecPv>
     d74:	bf 01 00 00 00       	mov    edi,0x1
     d79:	e8 c2 18 01 00       	call   12640 <dlmalloc>
     d7e:	48 85 c0             	test   rax,rax
     d81:	74 5b                	je     dde <sgx_sgxsd_enclave_node_init+0x11e>
     d83:	49 89 c6             	mov    r14,rax
     d86:	31 ff                	xor    edi,edi
     d88:	e8 a3 e3 00 00       	call   f130 <_Z7tracebrPv>
     d8d:	48 8d 3d 8c 4c 01 00 	lea    rdi,[rip+0x14c8c]        # 15a20 <memcpy_s>
     d94:	e8 27 e0 00 00       	call   edc0 <_Z10traceedgecPv>
     d99:	be 01 00 00 00       	mov    esi,0x1
     d9e:	b9 01 00 00 00       	mov    ecx,0x1
     da3:	4c 89 f7             	mov    rdi,r14
     da6:	4c 89 fa             	mov    rdx,r15
     da9:	e8 72 4c 01 00       	call   15a20 <memcpy_s>
     dae:	85 c0                	test   eax,eax
     db0:	74 3d                	je     def <sgx_sgxsd_enclave_node_init+0x12f>
     db2:	bd 01 00 00 00       	mov    ebp,0x1
     db7:	bf 01 00 00 00       	mov    edi,0x1
     dbc:	e8 6f e3 00 00       	call   f130 <_Z7tracebrPv>
     dc1:	4d 85 f6             	test   r14,r14
     dc4:	75 54                	jne    e1a <sgx_sgxsd_enclave_node_init+0x15a>
     dc6:	eb 70                	jmp    e38 <sgx_sgxsd_enclave_node_init+0x178>
     dc8:	45 31 f6             	xor    r14d,r14d
     dcb:	31 ff                	xor    edi,edi
     dcd:	e8 5e e3 00 00       	call   f130 <_Z7tracebrPv>
     dd2:	0f ae e8             	lfence 
     dd5:	eb 1f                	jmp    df6 <sgx_sgxsd_enclave_node_init+0x136>
     dd7:	bd 02 00 00 00       	mov    ebp,0x2
     ddc:	eb 61                	jmp    e3f <sgx_sgxsd_enclave_node_init+0x17f>
     dde:	bf 01 00 00 00       	mov    edi,0x1
     de3:	e8 48 e3 00 00       	call   f130 <_Z7tracebrPv>
     de8:	bd 03 00 00 00       	mov    ebp,0x3
     ded:	eb 49                	jmp    e38 <sgx_sgxsd_enclave_node_init+0x178>
     def:	31 ff                	xor    edi,edi
     df1:	e8 3a e3 00 00       	call   f130 <_Z7tracebrPv>
     df6:	31 ed                	xor    ebp,ebp
     df8:	31 ff                	xor    edi,edi
     dfa:	e8 31 e3 00 00       	call   f130 <_Z7tracebrPv>
     dff:	48 8d 3d 4a 14 00 00 	lea    rdi,[rip+0x144a]        # 2250 <sgxsd_enclave_node_init>
     e06:	e8 b5 df 00 00       	call   edc0 <_Z10traceedgecPv>
     e0b:	4c 89 f7             	mov    rdi,r14
     e0e:	e8 3d 14 00 00       	call   2250 <sgxsd_enclave_node_init>
     e13:	89 03                	mov    DWORD PTR [rbx],eax
     e15:	4d 85 f6             	test   r14,r14
     e18:	74 1e                	je     e38 <sgx_sgxsd_enclave_node_init+0x178>
     e1a:	bf 01 00 00 00       	mov    edi,0x1
     e1f:	e8 0c e3 00 00       	call   f130 <_Z7tracebrPv>
     e24:	48 8d 3d 15 32 01 00 	lea    rdi,[rip+0x13215]        # 14040 <dlfree>
     e2b:	e8 90 df 00 00       	call   edc0 <_Z10traceedgecPv>
     e30:	4c 89 f7             	mov    rdi,r14
     e33:	e8 08 32 01 00       	call   14040 <dlfree>
     e38:	31 ff                	xor    edi,edi
     e3a:	e8 f1 e2 00 00       	call   f130 <_Z7tracebrPv>
     e3f:	48 8b 7c 24 28       	mov    rdi,QWORD PTR [rsp+0x28]
     e44:	e8 77 df 00 00       	call   edc0 <_Z10traceedgecPv>
     e49:	89 e8                	mov    eax,ebp
     e4b:	48 83 c4 08          	add    rsp,0x8
     e4f:	5b                   	pop    rbx
     e50:	41 5e                	pop    r14
     e52:	41 5f                	pop    r15
     e54:	5d                   	pop    rbp
     e55:	c3                   	ret    
     e56:	66 2e 0f 1f 84 00 00 	nop    WORD PTR cs:[rax+rax*1+0x0]
     e5d:	00 00 00 

0000000000000e60 <sgx_sgxsd_enclave_get_next_report>:
     e60:	55                   	push   rbp
     e61:	41 57                	push   r15
     e63:	41 56                	push   r14
     e65:	41 54                	push   r12
     e67:	53                   	push   rbx
     e68:	48 81 ec 00 02 00 00 	sub    rsp,0x200
     e6f:	41 bf 02 00 00 00    	mov    r15d,0x2
     e75:	48 85 ff             	test   rdi,rdi
     e78:	0f 84 fa 01 00 00    	je     1078 <sgx_sgxsd_enclave_get_next_report+0x218>
     e7e:	48 89 fb             	mov    rbx,rdi
     e81:	bf 01 00 00 00       	mov    edi,0x1
     e86:	e8 a5 e2 00 00       	call   f130 <_Z7tracebrPv>
     e8b:	48 8d 3d 1e e5 00 00 	lea    rdi,[rip+0xe51e]        # f3b0 <sgx_is_outside_enclave>
     e92:	e8 29 df 00 00       	call   edc0 <_Z10traceedgecPv>
     e97:	be 10 02 00 00       	mov    esi,0x210
     e9c:	48 89 df             	mov    rdi,rbx
     e9f:	e8 0c e5 00 00       	call   f3b0 <sgx_is_outside_enclave>
     ea4:	85 c0                	test   eax,eax
     ea6:	0f 84 cc 01 00 00    	je     1078 <sgx_sgxsd_enclave_get_next_report+0x218>
     eac:	bf 01 00 00 00       	mov    edi,0x1
     eb1:	e8 7a e2 00 00       	call   f130 <_Z7tracebrPv>
     eb6:	0f ae e8             	lfence 
     eb9:	4c 8b b3 08 02 00 00 	mov    r14,QWORD PTR [rbx+0x208]
     ec0:	4d 85 f6             	test   r14,r14
     ec3:	0f 84 de 00 00 00    	je     fa7 <sgx_sgxsd_enclave_get_next_report+0x147>
     ec9:	bf 01 00 00 00       	mov    edi,0x1
     ece:	e8 5d e2 00 00       	call   f130 <_Z7tracebrPv>
     ed3:	48 8d 3d d6 e4 00 00 	lea    rdi,[rip+0xe4d6]        # f3b0 <sgx_is_outside_enclave>
     eda:	e8 e1 de 00 00       	call   edc0 <_Z10traceedgecPv>
     edf:	be b0 01 00 00       	mov    esi,0x1b0
     ee4:	4c 89 f7             	mov    rdi,r14
     ee7:	e8 c4 e4 00 00       	call   f3b0 <sgx_is_outside_enclave>
     eec:	89 c5                	mov    ebp,eax
     eee:	31 ff                	xor    edi,edi
     ef0:	e8 3b e2 00 00       	call   f130 <_Z7tracebrPv>
     ef5:	85 ed                	test   ebp,ebp
     ef7:	0f 84 5a 01 00 00    	je     1057 <sgx_sgxsd_enclave_get_next_report+0x1f7>
     efd:	0f ae e8             	lfence 
     f00:	bf 01 00 00 00       	mov    edi,0x1
     f05:	e8 26 e2 00 00       	call   f130 <_Z7tracebrPv>
     f0a:	bf 01 00 00 00       	mov    edi,0x1
     f0f:	e8 1c e2 00 00       	call   f130 <_Z7tracebrPv>
     f14:	48 8d 3d 25 17 01 00 	lea    rdi,[rip+0x11725]        # 12640 <dlmalloc>
     f1b:	e8 a0 de 00 00       	call   edc0 <_Z10traceedgecPv>
     f20:	bf b0 01 00 00       	mov    edi,0x1b0
     f25:	e8 16 17 01 00       	call   12640 <dlmalloc>
     f2a:	48 85 c0             	test   rax,rax
     f2d:	0f 84 35 01 00 00    	je     1068 <sgx_sgxsd_enclave_get_next_report+0x208>
     f33:	48 89 c5             	mov    rbp,rax
     f36:	31 ff                	xor    edi,edi
     f38:	e8 f3 e1 00 00       	call   f130 <_Z7tracebrPv>
     f3d:	c5 f8 57 c0          	vxorps xmm0,xmm0,xmm0
     f41:	c5 fc 11 85 90 01 00 	vmovups YMMWORD PTR [rbp+0x190],ymm0
     f48:	00 
     f49:	c5 fc 11 85 80 01 00 	vmovups YMMWORD PTR [rbp+0x180],ymm0
     f50:	00 
     f51:	c5 fc 11 85 60 01 00 	vmovups YMMWORD PTR [rbp+0x160],ymm0
     f58:	00 
     f59:	c5 fc 11 85 40 01 00 	vmovups YMMWORD PTR [rbp+0x140],ymm0
     f60:	00 
     f61:	c5 fc 11 85 20 01 00 	vmovups YMMWORD PTR [rbp+0x120],ymm0
     f68:	00 
     f69:	c5 fc 11 85 00 01 00 	vmovups YMMWORD PTR [rbp+0x100],ymm0
     f70:	00 
     f71:	c5 fc 11 85 e0 00 00 	vmovups YMMWORD PTR [rbp+0xe0],ymm0
     f78:	00 
     f79:	c5 fc 11 85 c0 00 00 	vmovups YMMWORD PTR [rbp+0xc0],ymm0
     f80:	00 
     f81:	c5 fc 11 85 a0 00 00 	vmovups YMMWORD PTR [rbp+0xa0],ymm0
     f88:	00 
     f89:	c5 fc 11 85 80 00 00 	vmovups YMMWORD PTR [rbp+0x80],ymm0
     f90:	00 
     f91:	c5 fc 11 45 60       	vmovups YMMWORD PTR [rbp+0x60],ymm0
     f96:	c5 fc 11 45 40       	vmovups YMMWORD PTR [rbp+0x40],ymm0
     f9b:	c5 fc 11 45 20       	vmovups YMMWORD PTR [rbp+0x20],ymm0
     fa0:	c5 fc 11 45 00       	vmovups YMMWORD PTR [rbp+0x0],ymm0
     fa5:	eb 0c                	jmp    fb3 <sgx_sgxsd_enclave_get_next_report+0x153>
     fa7:	31 ed                	xor    ebp,ebp
     fa9:	31 ff                	xor    edi,edi
     fab:	e8 80 e1 00 00       	call   f130 <_Z7tracebrPv>
     fb0:	0f ae e8             	lfence 
     fb3:	45 31 ff             	xor    r15d,r15d
     fb6:	31 ff                	xor    edi,edi
     fb8:	c5 f8 77             	vzeroupper 
     fbb:	e8 70 e1 00 00       	call   f130 <_Z7tracebrPv>
     fc0:	4c 8d 63 08          	lea    r12,[rbx+0x8]
     fc4:	48 8d 3d b5 1d 00 00 	lea    rdi,[rip+0x1db5]        # 2d80 <sgxsd_enclave_get_next_report>
     fcb:	e8 f0 dd 00 00       	call   edc0 <_Z10traceedgecPv>
     fd0:	b9 00 02 00 00       	mov    ecx,0x200
     fd5:	48 89 e7             	mov    rdi,rsp
     fd8:	4c 89 e6             	mov    rsi,r12
     fdb:	f3 a4                	rep movs BYTE PTR es:[rdi],BYTE PTR ds:[rsi]
     fdd:	48 89 ef             	mov    rdi,rbp
     fe0:	e8 9b 1d 00 00       	call   2d80 <sgxsd_enclave_get_next_report>
     fe5:	89 03                	mov    DWORD PTR [rbx],eax
     fe7:	48 85 ed             	test   rbp,rbp
     fea:	74 73                	je     105f <sgx_sgxsd_enclave_get_next_report+0x1ff>
     fec:	41 bf 01 00 00 00    	mov    r15d,0x1
     ff2:	bf 01 00 00 00       	mov    edi,0x1
     ff7:	e8 34 e1 00 00       	call   f130 <_Z7tracebrPv>
     ffc:	48 8d 3d 1d 4a 01 00 	lea    rdi,[rip+0x14a1d]        # 15a20 <memcpy_s>
    1003:	e8 b8 dd 00 00       	call   edc0 <_Z10traceedgecPv>
    1008:	be b0 01 00 00       	mov    esi,0x1b0
    100d:	b9 b0 01 00 00       	mov    ecx,0x1b0
    1012:	4c 89 f7             	mov    rdi,r14
    1015:	48 89 ea             	mov    rdx,rbp
    1018:	e8 03 4a 01 00       	call   15a20 <memcpy_s>
    101d:	b3 01                	mov    bl,0x1
    101f:	85 c0                	test   eax,eax
    1021:	75 0c                	jne    102f <sgx_sgxsd_enclave_get_next_report+0x1cf>
    1023:	31 db                	xor    ebx,ebx
    1025:	31 ff                	xor    edi,edi
    1027:	e8 04 e1 00 00       	call   f130 <_Z7tracebrPv>
    102c:	45 31 ff             	xor    r15d,r15d
    102f:	0f b6 fb             	movzx  edi,bl
    1032:	e8 f9 e0 00 00       	call   f130 <_Z7tracebrPv>
    1037:	bf 01 00 00 00       	mov    edi,0x1
    103c:	e8 ef e0 00 00       	call   f130 <_Z7tracebrPv>
    1041:	48 8d 3d f8 2f 01 00 	lea    rdi,[rip+0x12ff8]        # 14040 <dlfree>
    1048:	e8 73 dd 00 00       	call   edc0 <_Z10traceedgecPv>
    104d:	48 89 ef             	mov    rdi,rbp
    1050:	e8 eb 2f 01 00       	call   14040 <dlfree>
    1055:	eb 21                	jmp    1078 <sgx_sgxsd_enclave_get_next_report+0x218>
    1057:	41 bf 02 00 00 00    	mov    r15d,0x2
    105d:	eb 20                	jmp    107f <sgx_sgxsd_enclave_get_next_report+0x21f>
    105f:	31 ff                	xor    edi,edi
    1061:	e8 ca e0 00 00       	call   f130 <_Z7tracebrPv>
    1066:	eb 10                	jmp    1078 <sgx_sgxsd_enclave_get_next_report+0x218>
    1068:	bf 01 00 00 00       	mov    edi,0x1
    106d:	e8 be e0 00 00       	call   f130 <_Z7tracebrPv>
    1072:	41 bf 03 00 00 00    	mov    r15d,0x3
    1078:	31 ff                	xor    edi,edi
    107a:	e8 b1 e0 00 00       	call   f130 <_Z7tracebrPv>
    107f:	48 8b bc 24 28 02 00 	mov    rdi,QWORD PTR [rsp+0x228]
    1086:	00 
    1087:	e8 34 dd 00 00       	call   edc0 <_Z10traceedgecPv>
    108c:	44 89 f8             	mov    eax,r15d
    108f:	48 81 c4 00 02 00 00 	add    rsp,0x200
    1096:	5b                   	pop    rbx
    1097:	41 5c                	pop    r12
    1099:	41 5e                	pop    r14
    109b:	41 5f                	pop    r15
    109d:	5d                   	pop    rbp
    109e:	c3                   	ret    
    109f:	90                   	nop

00000000000010a0 <sgx_sgxsd_enclave_set_current_quote>:
    10a0:	53                   	push   rbx
    10a1:	48 85 ff             	test   rdi,rdi
    10a4:	74 4e                	je     10f4 <sgx_sgxsd_enclave_set_current_quote+0x54>
    10a6:	48 89 fb             	mov    rbx,rdi
    10a9:	bf 01 00 00 00       	mov    edi,0x1
    10ae:	e8 7d e0 00 00       	call   f130 <_Z7tracebrPv>
    10b3:	48 8d 3d f6 e2 00 00 	lea    rdi,[rip+0xe2f6]        # f3b0 <sgx_is_outside_enclave>
    10ba:	e8 01 dd 00 00       	call   edc0 <_Z10traceedgecPv>
    10bf:	be 04 00 00 00       	mov    esi,0x4
    10c4:	48 89 df             	mov    rdi,rbx
    10c7:	e8 e4 e2 00 00       	call   f3b0 <sgx_is_outside_enclave>
    10cc:	85 c0                	test   eax,eax
    10ce:	74 24                	je     10f4 <sgx_sgxsd_enclave_set_current_quote+0x54>
    10d0:	bf 01 00 00 00       	mov    edi,0x1
    10d5:	e8 56 e0 00 00       	call   f130 <_Z7tracebrPv>
    10da:	0f ae e8             	lfence 
    10dd:	48 8d 3d 1c 1e 00 00 	lea    rdi,[rip+0x1e1c]        # 2f00 <sgxsd_enclave_set_current_quote>
    10e4:	e8 d7 dc 00 00       	call   edc0 <_Z10traceedgecPv>
    10e9:	e8 12 1e 00 00       	call   2f00 <sgxsd_enclave_set_current_quote>
    10ee:	89 03                	mov    DWORD PTR [rbx],eax
    10f0:	31 db                	xor    ebx,ebx
    10f2:	eb 0c                	jmp    1100 <sgx_sgxsd_enclave_set_current_quote+0x60>
    10f4:	31 ff                	xor    edi,edi
    10f6:	e8 35 e0 00 00       	call   f130 <_Z7tracebrPv>
    10fb:	bb 02 00 00 00       	mov    ebx,0x2
    1100:	48 8b 7c 24 08       	mov    rdi,QWORD PTR [rsp+0x8]
    1105:	e8 b6 dc 00 00       	call   edc0 <_Z10traceedgecPv>
    110a:	89 d8                	mov    eax,ebx
    110c:	5b                   	pop    rbx
    110d:	c3                   	ret    
    110e:	66 90                	xchg   ax,ax

0000000000001110 <sgx_sgxsd_enclave_negotiate_request>:
    1110:	55                   	push   rbp
    1111:	41 57                	push   r15
    1113:	41 56                	push   r14
    1115:	41 55                	push   r13
    1117:	41 54                	push   r12
    1119:	53                   	push   rbx
    111a:	50                   	push   rax
    111b:	41 be 02 00 00 00    	mov    r14d,0x2
    1121:	48 85 ff             	test   rdi,rdi
    1124:	0f 84 8f 02 00 00    	je     13b9 <sgx_sgxsd_enclave_negotiate_request+0x2a9>
    112a:	48 89 fb             	mov    rbx,rdi
    112d:	bf 01 00 00 00       	mov    edi,0x1
    1132:	e8 f9 df 00 00       	call   f130 <_Z7tracebrPv>
    1137:	48 8d 3d 72 e2 00 00 	lea    rdi,[rip+0xe272]        # f3b0 <sgx_is_outside_enclave>
    113e:	e8 7d dc 00 00       	call   edc0 <_Z10traceedgecPv>
    1143:	be 18 00 00 00       	mov    esi,0x18
    1148:	48 89 df             	mov    rdi,rbx
    114b:	e8 60 e2 00 00       	call   f3b0 <sgx_is_outside_enclave>
    1150:	85 c0                	test   eax,eax
    1152:	0f 84 61 02 00 00    	je     13b9 <sgx_sgxsd_enclave_negotiate_request+0x2a9>
    1158:	bf 01 00 00 00       	mov    edi,0x1
    115d:	e8 ce df 00 00       	call   f130 <_Z7tracebrPv>
    1162:	0f ae e8             	lfence 
    1165:	48 8b 6b 08          	mov    rbp,QWORD PTR [rbx+0x8]
    1169:	4c 8b 7b 10          	mov    r15,QWORD PTR [rbx+0x10]
    116d:	48 85 ed             	test   rbp,rbp
    1170:	74 2b                	je     119d <sgx_sgxsd_enclave_negotiate_request+0x8d>
    1172:	bf 01 00 00 00       	mov    edi,0x1
    1177:	e8 b4 df 00 00       	call   f130 <_Z7tracebrPv>
    117c:	48 8d 3d 2d e2 00 00 	lea    rdi,[rip+0xe22d]        # f3b0 <sgx_is_outside_enclave>
    1183:	e8 38 dc 00 00       	call   edc0 <_Z10traceedgecPv>
    1188:	be 20 00 00 00       	mov    esi,0x20
    118d:	48 89 ef             	mov    rdi,rbp
    1190:	e8 1b e2 00 00       	call   f3b0 <sgx_is_outside_enclave>
    1195:	85 c0                	test   eax,eax
    1197:	0f 84 1c 02 00 00    	je     13b9 <sgx_sgxsd_enclave_negotiate_request+0x2a9>
    119d:	31 ff                	xor    edi,edi
    119f:	e8 8c df 00 00       	call   f130 <_Z7tracebrPv>
    11a4:	4d 85 ff             	test   r15,r15
    11a7:	74 2b                	je     11d4 <sgx_sgxsd_enclave_negotiate_request+0xc4>
    11a9:	bf 01 00 00 00       	mov    edi,0x1
    11ae:	e8 7d df 00 00       	call   f130 <_Z7tracebrPv>
    11b3:	48 8d 3d f6 e1 00 00 	lea    rdi,[rip+0xe1f6]        # f3b0 <sgx_is_outside_enclave>
    11ba:	e8 01 dc 00 00       	call   edc0 <_Z10traceedgecPv>
    11bf:	be 80 00 00 00       	mov    esi,0x80
    11c4:	4c 89 ff             	mov    rdi,r15
    11c7:	e8 e4 e1 00 00       	call   f3b0 <sgx_is_outside_enclave>
    11cc:	85 c0                	test   eax,eax
    11ce:	0f 84 e5 01 00 00    	je     13b9 <sgx_sgxsd_enclave_negotiate_request+0x2a9>
    11d4:	45 31 e4             	xor    r12d,r12d
    11d7:	31 ff                	xor    edi,edi
    11d9:	e8 52 df 00 00       	call   f130 <_Z7tracebrPv>
    11de:	0f ae e8             	lfence 
    11e1:	48 85 ed             	test   rbp,rbp
    11e4:	0f 84 91 00 00 00    	je     127b <sgx_sgxsd_enclave_negotiate_request+0x16b>
    11ea:	41 be 01 00 00 00    	mov    r14d,0x1
    11f0:	bf 01 00 00 00       	mov    edi,0x1
    11f5:	e8 36 df 00 00       	call   f130 <_Z7tracebrPv>
    11fa:	bf 01 00 00 00       	mov    edi,0x1
    11ff:	e8 2c df 00 00       	call   f130 <_Z7tracebrPv>
    1204:	48 8d 3d 35 14 01 00 	lea    rdi,[rip+0x11435]        # 12640 <dlmalloc>
    120b:	e8 b0 db 00 00       	call   edc0 <_Z10traceedgecPv>
    1210:	bf 20 00 00 00       	mov    edi,0x20
    1215:	e8 26 14 01 00       	call   12640 <dlmalloc>
    121a:	48 85 c0             	test   rax,rax
    121d:	74 39                	je     1258 <sgx_sgxsd_enclave_negotiate_request+0x148>
    121f:	49 89 c4             	mov    r12,rax
    1222:	45 31 ed             	xor    r13d,r13d
    1225:	31 ff                	xor    edi,edi
    1227:	e8 04 df 00 00       	call   f130 <_Z7tracebrPv>
    122c:	48 8d 3d ed 47 01 00 	lea    rdi,[rip+0x147ed]        # 15a20 <memcpy_s>
    1233:	e8 88 db 00 00       	call   edc0 <_Z10traceedgecPv>
    1238:	be 20 00 00 00       	mov    esi,0x20
    123d:	b9 20 00 00 00       	mov    ecx,0x20
    1242:	4c 89 e7             	mov    rdi,r12
    1245:	48 89 ea             	mov    rdx,rbp
    1248:	e8 d3 47 01 00       	call   15a20 <memcpy_s>
    124d:	85 c0                	test   eax,eax
    124f:	74 23                	je     1274 <sgx_sgxsd_enclave_negotiate_request+0x164>
    1251:	b3 01                	mov    bl,0x1
    1253:	e9 0c 01 00 00       	jmp    1364 <sgx_sgxsd_enclave_negotiate_request+0x254>
    1258:	bf 01 00 00 00       	mov    edi,0x1
    125d:	e8 ce de 00 00       	call   f130 <_Z7tracebrPv>
    1262:	31 ff                	xor    edi,edi
    1264:	e8 c7 de 00 00       	call   f130 <_Z7tracebrPv>
    1269:	41 be 03 00 00 00    	mov    r14d,0x3
    126f:	e9 45 01 00 00       	jmp    13b9 <sgx_sgxsd_enclave_negotiate_request+0x2a9>
    1274:	31 ff                	xor    edi,edi
    1276:	e8 b5 de 00 00       	call   f130 <_Z7tracebrPv>
    127b:	45 31 f6             	xor    r14d,r14d
    127e:	31 ff                	xor    edi,edi
    1280:	e8 ab de 00 00       	call   f130 <_Z7tracebrPv>
    1285:	4d 85 ff             	test   r15,r15
    1288:	74 5b                	je     12e5 <sgx_sgxsd_enclave_negotiate_request+0x1d5>
    128a:	bf 01 00 00 00       	mov    edi,0x1
    128f:	e8 9c de 00 00       	call   f130 <_Z7tracebrPv>
    1294:	bf 01 00 00 00       	mov    edi,0x1
    1299:	e8 92 de 00 00       	call   f130 <_Z7tracebrPv>
    129e:	48 8d 3d 9b 13 01 00 	lea    rdi,[rip+0x1139b]        # 12640 <dlmalloc>
    12a5:	e8 16 db 00 00       	call   edc0 <_Z10traceedgecPv>
    12aa:	bf 80 00 00 00       	mov    edi,0x80
    12af:	e8 8c 13 01 00       	call   12640 <dlmalloc>
    12b4:	48 85 c0             	test   rax,rax
    12b7:	0f 84 9c 00 00 00    	je     1359 <sgx_sgxsd_enclave_negotiate_request+0x249>
    12bd:	49 89 c5             	mov    r13,rax
    12c0:	31 ff                	xor    edi,edi
    12c2:	e8 69 de 00 00       	call   f130 <_Z7tracebrPv>
    12c7:	c5 f8 57 c0          	vxorps xmm0,xmm0,xmm0
    12cb:	c4 c1 7c 11 45 60    	vmovups YMMWORD PTR [r13+0x60],ymm0
    12d1:	c4 c1 7c 11 45 40    	vmovups YMMWORD PTR [r13+0x40],ymm0
    12d7:	c4 c1 7c 11 45 20    	vmovups YMMWORD PTR [r13+0x20],ymm0
    12dd:	c4 c1 7c 11 45 00    	vmovups YMMWORD PTR [r13+0x0],ymm0
    12e3:	eb 03                	jmp    12e8 <sgx_sgxsd_enclave_negotiate_request+0x1d8>
    12e5:	45 31 ed             	xor    r13d,r13d
    12e8:	31 ff                	xor    edi,edi
    12ea:	c5 f8 77             	vzeroupper 
    12ed:	e8 3e de 00 00       	call   f130 <_Z7tracebrPv>
    12f2:	48 8d 3d a7 20 00 00 	lea    rdi,[rip+0x20a7]        # 33a0 <sgxsd_enclave_negotiate_request>
    12f9:	e8 c2 da 00 00       	call   edc0 <_Z10traceedgecPv>
    12fe:	4c 89 e7             	mov    rdi,r12
    1301:	4c 89 ee             	mov    rsi,r13
    1304:	e8 97 20 00 00       	call   33a0 <sgxsd_enclave_negotiate_request>
    1309:	89 03                	mov    DWORD PTR [rbx],eax
    130b:	4d 85 ed             	test   r13,r13
    130e:	74 45                	je     1355 <sgx_sgxsd_enclave_negotiate_request+0x245>
    1310:	41 be 01 00 00 00    	mov    r14d,0x1
    1316:	bf 01 00 00 00       	mov    edi,0x1
    131b:	e8 10 de 00 00       	call   f130 <_Z7tracebrPv>
    1320:	48 8d 3d f9 46 01 00 	lea    rdi,[rip+0x146f9]        # 15a20 <memcpy_s>
    1327:	e8 94 da 00 00       	call   edc0 <_Z10traceedgecPv>
    132c:	be 80 00 00 00       	mov    esi,0x80
    1331:	b9 80 00 00 00       	mov    ecx,0x80
    1336:	4c 89 ff             	mov    rdi,r15
    1339:	4c 89 ea             	mov    rdx,r13
    133c:	e8 df 46 01 00       	call   15a20 <memcpy_s>
    1341:	b3 01                	mov    bl,0x1
    1343:	85 c0                	test   eax,eax
    1345:	75 1d                	jne    1364 <sgx_sgxsd_enclave_negotiate_request+0x254>
    1347:	31 db                	xor    ebx,ebx
    1349:	31 ff                	xor    edi,edi
    134b:	e8 e0 dd 00 00       	call   f130 <_Z7tracebrPv>
    1350:	45 31 f6             	xor    r14d,r14d
    1353:	eb 0f                	jmp    1364 <sgx_sgxsd_enclave_negotiate_request+0x254>
    1355:	31 db                	xor    ebx,ebx
    1357:	eb 0b                	jmp    1364 <sgx_sgxsd_enclave_negotiate_request+0x254>
    1359:	41 be 03 00 00 00    	mov    r14d,0x3
    135f:	b3 01                	mov    bl,0x1
    1361:	45 31 ed             	xor    r13d,r13d
    1364:	0f b6 fb             	movzx  edi,bl
    1367:	e8 c4 dd 00 00       	call   f130 <_Z7tracebrPv>
    136c:	4d 85 e4             	test   r12,r12
    136f:	74 1e                	je     138f <sgx_sgxsd_enclave_negotiate_request+0x27f>
    1371:	bf 01 00 00 00       	mov    edi,0x1
    1376:	e8 b5 dd 00 00       	call   f130 <_Z7tracebrPv>
    137b:	48 8d 3d be 2c 01 00 	lea    rdi,[rip+0x12cbe]        # 14040 <dlfree>
    1382:	e8 39 da 00 00       	call   edc0 <_Z10traceedgecPv>
    1387:	4c 89 e7             	mov    rdi,r12
    138a:	e8 b1 2c 01 00       	call   14040 <dlfree>
    138f:	31 ff                	xor    edi,edi
    1391:	e8 9a dd 00 00       	call   f130 <_Z7tracebrPv>
    1396:	4d 85 ed             	test   r13,r13
    1399:	74 1e                	je     13b9 <sgx_sgxsd_enclave_negotiate_request+0x2a9>
    139b:	bf 01 00 00 00       	mov    edi,0x1
    13a0:	e8 8b dd 00 00       	call   f130 <_Z7tracebrPv>
    13a5:	48 8d 3d 94 2c 01 00 	lea    rdi,[rip+0x12c94]        # 14040 <dlfree>
    13ac:	e8 0f da 00 00       	call   edc0 <_Z10traceedgecPv>
    13b1:	4c 89 ef             	mov    rdi,r13
    13b4:	e8 87 2c 01 00       	call   14040 <dlfree>
    13b9:	31 ff                	xor    edi,edi
    13bb:	e8 70 dd 00 00       	call   f130 <_Z7tracebrPv>
    13c0:	48 8b 7c 24 38       	mov    rdi,QWORD PTR [rsp+0x38]
    13c5:	e8 f6 d9 00 00       	call   edc0 <_Z10traceedgecPv>
    13ca:	44 89 f0             	mov    eax,r14d
    13cd:	48 83 c4 08          	add    rsp,0x8
    13d1:	5b                   	pop    rbx
    13d2:	41 5c                	pop    r12
    13d4:	41 5d                	pop    r13
    13d6:	41 5e                	pop    r14
    13d8:	41 5f                	pop    r15
    13da:	5d                   	pop    rbp
    13db:	c3                   	ret    
    13dc:	0f 1f 40 00          	nop    DWORD PTR [rax+0x0]

00000000000013e0 <sgx_sgxsd_enclave_server_start>:
    13e0:	55                   	push   rbp
    13e1:	41 57                	push   r15
    13e3:	41 56                	push   r14
    13e5:	53                   	push   rbx
    13e6:	50                   	push   rax
    13e7:	bd 02 00 00 00       	mov    ebp,0x2
    13ec:	48 85 ff             	test   rdi,rdi
    13ef:	0f 84 6a 01 00 00    	je     155f <sgx_sgxsd_enclave_server_start+0x17f>
    13f5:	48 89 fb             	mov    rbx,rdi
    13f8:	bf 01 00 00 00       	mov    edi,0x1
    13fd:	e8 2e dd 00 00       	call   f130 <_Z7tracebrPv>
    1402:	48 8d 3d a7 df 00 00 	lea    rdi,[rip+0xdfa7]        # f3b0 <sgx_is_outside_enclave>
    1409:	e8 b2 d9 00 00       	call   edc0 <_Z10traceedgecPv>
    140e:	be 18 00 00 00       	mov    esi,0x18
    1413:	48 89 df             	mov    rdi,rbx
    1416:	e8 95 df 00 00       	call   f3b0 <sgx_is_outside_enclave>
    141b:	85 c0                	test   eax,eax
    141d:	0f 84 3c 01 00 00    	je     155f <sgx_sgxsd_enclave_server_start+0x17f>
    1423:	bf 01 00 00 00       	mov    edi,0x1
    1428:	e8 03 dd 00 00       	call   f130 <_Z7tracebrPv>
    142d:	0f ae e8             	lfence 
    1430:	4c 8b 7b 08          	mov    r15,QWORD PTR [rbx+0x8]
    1434:	4d 85 ff             	test   r15,r15
    1437:	0f 84 ab 00 00 00    	je     14e8 <sgx_sgxsd_enclave_server_start+0x108>
    143d:	bf 01 00 00 00       	mov    edi,0x1
    1442:	e8 e9 dc 00 00       	call   f130 <_Z7tracebrPv>
    1447:	48 8d 3d 62 df 00 00 	lea    rdi,[rip+0xdf62]        # f3b0 <sgx_is_outside_enclave>
    144e:	e8 6d d9 00 00       	call   edc0 <_Z10traceedgecPv>
    1453:	be 04 00 00 00       	mov    esi,0x4
    1458:	4c 89 ff             	mov    rdi,r15
    145b:	e8 50 df 00 00       	call   f3b0 <sgx_is_outside_enclave>
    1460:	89 c5                	mov    ebp,eax
    1462:	31 ff                	xor    edi,edi
    1464:	e8 c7 dc 00 00       	call   f130 <_Z7tracebrPv>
    1469:	85 ed                	test   ebp,ebp
    146b:	0f 84 86 00 00 00    	je     14f7 <sgx_sgxsd_enclave_server_start+0x117>
    1471:	0f ae e8             	lfence 
    1474:	bf 01 00 00 00       	mov    edi,0x1
    1479:	e8 b2 dc 00 00       	call   f130 <_Z7tracebrPv>
    147e:	bf 01 00 00 00       	mov    edi,0x1
    1483:	e8 a8 dc 00 00       	call   f130 <_Z7tracebrPv>
    1488:	48 8d 3d b1 11 01 00 	lea    rdi,[rip+0x111b1]        # 12640 <dlmalloc>
    148f:	e8 2c d9 00 00       	call   edc0 <_Z10traceedgecPv>
    1494:	bf 04 00 00 00       	mov    edi,0x4
    1499:	e8 a2 11 01 00       	call   12640 <dlmalloc>
    149e:	48 85 c0             	test   rax,rax
    14a1:	74 5b                	je     14fe <sgx_sgxsd_enclave_server_start+0x11e>
    14a3:	49 89 c6             	mov    r14,rax
    14a6:	31 ff                	xor    edi,edi
    14a8:	e8 83 dc 00 00       	call   f130 <_Z7tracebrPv>
    14ad:	48 8d 3d 6c 45 01 00 	lea    rdi,[rip+0x1456c]        # 15a20 <memcpy_s>
    14b4:	e8 07 d9 00 00       	call   edc0 <_Z10traceedgecPv>
    14b9:	be 04 00 00 00       	mov    esi,0x4
    14be:	b9 04 00 00 00       	mov    ecx,0x4
    14c3:	4c 89 f7             	mov    rdi,r14
    14c6:	4c 89 fa             	mov    rdx,r15
    14c9:	e8 52 45 01 00       	call   15a20 <memcpy_s>
    14ce:	85 c0                	test   eax,eax
    14d0:	74 3d                	je     150f <sgx_sgxsd_enclave_server_start+0x12f>
    14d2:	bd 01 00 00 00       	mov    ebp,0x1
    14d7:	bf 01 00 00 00       	mov    edi,0x1
    14dc:	e8 4f dc 00 00       	call   f130 <_Z7tracebrPv>
    14e1:	4d 85 f6             	test   r14,r14
    14e4:	75 5b                	jne    1541 <sgx_sgxsd_enclave_server_start+0x161>
    14e6:	eb 77                	jmp    155f <sgx_sgxsd_enclave_server_start+0x17f>
    14e8:	45 31 f6             	xor    r14d,r14d
    14eb:	31 ff                	xor    edi,edi
    14ed:	e8 3e dc 00 00       	call   f130 <_Z7tracebrPv>
    14f2:	0f ae e8             	lfence 
    14f5:	eb 1f                	jmp    1516 <sgx_sgxsd_enclave_server_start+0x136>
    14f7:	bd 02 00 00 00       	mov    ebp,0x2
    14fc:	eb 68                	jmp    1566 <sgx_sgxsd_enclave_server_start+0x186>
    14fe:	bf 01 00 00 00       	mov    edi,0x1
    1503:	e8 28 dc 00 00       	call   f130 <_Z7tracebrPv>
    1508:	bd 03 00 00 00       	mov    ebp,0x3
    150d:	eb 50                	jmp    155f <sgx_sgxsd_enclave_server_start+0x17f>
    150f:	31 ff                	xor    edi,edi
    1511:	e8 1a dc 00 00       	call   f130 <_Z7tracebrPv>
    1516:	31 ed                	xor    ebp,ebp
    1518:	31 ff                	xor    edi,edi
    151a:	e8 11 dc 00 00       	call   f130 <_Z7tracebrPv>
    151f:	4c 8b 7b 10          	mov    r15,QWORD PTR [rbx+0x10]
    1523:	48 8d 3d 86 24 00 00 	lea    rdi,[rip+0x2486]        # 39b0 <sgxsd_enclave_server_start>
    152a:	e8 91 d8 00 00       	call   edc0 <_Z10traceedgecPv>
    152f:	4c 89 f7             	mov    rdi,r14
    1532:	4c 89 fe             	mov    rsi,r15
    1535:	e8 76 24 00 00       	call   39b0 <sgxsd_enclave_server_start>
    153a:	89 03                	mov    DWORD PTR [rbx],eax
    153c:	4d 85 f6             	test   r14,r14
    153f:	74 1e                	je     155f <sgx_sgxsd_enclave_server_start+0x17f>
    1541:	bf 01 00 00 00       	mov    edi,0x1
    1546:	e8 e5 db 00 00       	call   f130 <_Z7tracebrPv>
    154b:	48 8d 3d ee 2a 01 00 	lea    rdi,[rip+0x12aee]        # 14040 <dlfree>
    1552:	e8 69 d8 00 00       	call   edc0 <_Z10traceedgecPv>
    1557:	4c 89 f7             	mov    rdi,r14
    155a:	e8 e1 2a 01 00       	call   14040 <dlfree>
    155f:	31 ff                	xor    edi,edi
    1561:	e8 ca db 00 00       	call   f130 <_Z7tracebrPv>
    1566:	48 8b 7c 24 28       	mov    rdi,QWORD PTR [rsp+0x28]
    156b:	e8 50 d8 00 00       	call   edc0 <_Z10traceedgecPv>
    1570:	89 e8                	mov    eax,ebp
    1572:	48 83 c4 08          	add    rsp,0x8
    1576:	5b                   	pop    rbx
    1577:	41 5e                	pop    r14
    1579:	41 5f                	pop    r15
    157b:	5d                   	pop    rbp
    157c:	c3                   	ret    
    157d:	0f 1f 00             	nop    DWORD PTR [rax]

0000000000001580 <sgx_sgxsd_enclave_server_call>:
    1580:	55                   	push   rbp
    1581:	41 57                	push   r15
    1583:	41 56                	push   r14
    1585:	41 55                	push   r13
    1587:	41 54                	push   r12
    1589:	53                   	push   rbx
    158a:	48 83 ec 18          	sub    rsp,0x18
    158e:	41 be 02 00 00 00    	mov    r14d,0x2
    1594:	48 85 ff             	test   rdi,rdi
    1597:	0f 84 bd 02 00 00    	je     185a <sgx_sgxsd_enclave_server_call+0x2da>
    159d:	48 89 fb             	mov    rbx,rdi
    15a0:	bf 01 00 00 00       	mov    edi,0x1
    15a5:	e8 86 db 00 00       	call   f130 <_Z7tracebrPv>
    15aa:	48 8d 3d ff dd 00 00 	lea    rdi,[rip+0xddff]        # f3b0 <sgx_is_outside_enclave>
    15b1:	e8 0a d8 00 00       	call   edc0 <_Z10traceedgecPv>
    15b6:	be 38 00 00 00       	mov    esi,0x38
    15bb:	48 89 df             	mov    rdi,rbx
    15be:	e8 ed dd 00 00       	call   f3b0 <sgx_is_outside_enclave>
    15c3:	85 c0                	test   eax,eax
    15c5:	0f 84 8f 02 00 00    	je     185a <sgx_sgxsd_enclave_server_call+0x2da>
    15cb:	bf 01 00 00 00       	mov    edi,0x1
    15d0:	e8 5b db 00 00       	call   f130 <_Z7tracebrPv>
    15d5:	0f ae e8             	lfence 
    15d8:	48 8b 6b 08          	mov    rbp,QWORD PTR [rbx+0x8]
    15dc:	4c 8b 63 10          	mov    r12,QWORD PTR [rbx+0x10]
    15e0:	4c 8b 6b 18          	mov    r13,QWORD PTR [rbx+0x18]
    15e4:	4c 8b 7b 20          	mov    r15,QWORD PTR [rbx+0x20]
    15e8:	48 85 ed             	test   rbp,rbp
    15eb:	74 2b                	je     1618 <sgx_sgxsd_enclave_server_call+0x98>
    15ed:	bf 01 00 00 00       	mov    edi,0x1
    15f2:	e8 39 db 00 00       	call   f130 <_Z7tracebrPv>
    15f7:	48 8d 3d b2 dd 00 00 	lea    rdi,[rip+0xddb2]        # f3b0 <sgx_is_outside_enclave>
    15fe:	e8 bd d7 00 00       	call   edc0 <_Z10traceedgecPv>
    1603:	be 04 00 00 00       	mov    esi,0x4
    1608:	48 89 ef             	mov    rdi,rbp
    160b:	e8 a0 dd 00 00       	call   f3b0 <sgx_is_outside_enclave>
    1610:	85 c0                	test   eax,eax
    1612:	0f 84 42 02 00 00    	je     185a <sgx_sgxsd_enclave_server_call+0x2da>
    1618:	31 ff                	xor    edi,edi
    161a:	e8 11 db 00 00       	call   f130 <_Z7tracebrPv>
    161f:	4d 85 e4             	test   r12,r12
    1622:	74 2b                	je     164f <sgx_sgxsd_enclave_server_call+0xcf>
    1624:	bf 01 00 00 00       	mov    edi,0x1
    1629:	e8 02 db 00 00       	call   f130 <_Z7tracebrPv>
    162e:	48 8d 3d 7b dd 00 00 	lea    rdi,[rip+0xdd7b]        # f3b0 <sgx_is_outside_enclave>
    1635:	e8 86 d7 00 00       	call   edc0 <_Z10traceedgecPv>
    163a:	be 40 00 00 00       	mov    esi,0x40
    163f:	4c 89 e7             	mov    rdi,r12
    1642:	e8 69 dd 00 00       	call   f3b0 <sgx_is_outside_enclave>
    1647:	85 c0                	test   eax,eax
    1649:	0f 84 0b 02 00 00    	je     185a <sgx_sgxsd_enclave_server_call+0x2da>
    164f:	31 ff                	xor    edi,edi
    1651:	e8 da da 00 00       	call   f130 <_Z7tracebrPv>
    1656:	4d 85 ed             	test   r13,r13
    1659:	74 29                	je     1684 <sgx_sgxsd_enclave_server_call+0x104>
    165b:	bf 01 00 00 00       	mov    edi,0x1
    1660:	e8 cb da 00 00       	call   f130 <_Z7tracebrPv>
    1665:	48 8d 3d 44 dd 00 00 	lea    rdi,[rip+0xdd44]        # f3b0 <sgx_is_outside_enclave>
    166c:	e8 4f d7 00 00       	call   edc0 <_Z10traceedgecPv>
    1671:	4c 89 ef             	mov    rdi,r13
    1674:	4c 89 fe             	mov    rsi,r15
    1677:	e8 34 dd 00 00       	call   f3b0 <sgx_is_outside_enclave>
    167c:	85 c0                	test   eax,eax
    167e:	0f 84 d6 01 00 00    	je     185a <sgx_sgxsd_enclave_server_call+0x2da>
    1684:	4c 89 7c 24 08       	mov    QWORD PTR [rsp+0x8],r15
    1689:	45 31 ff             	xor    r15d,r15d
    168c:	31 ff                	xor    edi,edi
    168e:	e8 9d da 00 00       	call   f130 <_Z7tracebrPv>
    1693:	0f ae e8             	lfence 
    1696:	48 85 ed             	test   rbp,rbp
    1699:	0f 84 9d 00 00 00    	je     173c <sgx_sgxsd_enclave_server_call+0x1bc>
    169f:	bf 01 00 00 00       	mov    edi,0x1
    16a4:	e8 87 da 00 00       	call   f130 <_Z7tracebrPv>
    16a9:	bf 01 00 00 00       	mov    edi,0x1
    16ae:	e8 7d da 00 00       	call   f130 <_Z7tracebrPv>
    16b3:	48 8d 3d 86 0f 01 00 	lea    rdi,[rip+0x10f86]        # 12640 <dlmalloc>
    16ba:	e8 01 d7 00 00       	call   edc0 <_Z10traceedgecPv>
    16bf:	bf 04 00 00 00       	mov    edi,0x4
    16c4:	e8 77 0f 01 00       	call   12640 <dlmalloc>
    16c9:	48 85 c0             	test   rax,rax
    16cc:	74 44                	je     1712 <sgx_sgxsd_enclave_server_call+0x192>
    16ce:	49 89 c7             	mov    r15,rax
    16d1:	31 ff                	xor    edi,edi
    16d3:	e8 58 da 00 00       	call   f130 <_Z7tracebrPv>
    16d8:	48 8d 3d 41 43 01 00 	lea    rdi,[rip+0x14341]        # 15a20 <memcpy_s>
    16df:	e8 dc d6 00 00       	call   edc0 <_Z10traceedgecPv>
    16e4:	be 04 00 00 00       	mov    esi,0x4
    16e9:	b9 04 00 00 00       	mov    ecx,0x4
    16ee:	4c 89 ff             	mov    rdi,r15
    16f1:	48 89 ea             	mov    rdx,rbp
    16f4:	e8 27 43 01 00       	call   15a20 <memcpy_s>
    16f9:	85 c0                	test   eax,eax
    16fb:	74 38                	je     1735 <sgx_sgxsd_enclave_server_call+0x1b5>
    16fd:	41 be 01 00 00 00    	mov    r14d,0x1
    1703:	bf 01 00 00 00       	mov    edi,0x1
    1708:	e8 23 da 00 00       	call   f130 <_Z7tracebrPv>
    170d:	e9 cc 00 00 00       	jmp    17de <sgx_sgxsd_enclave_server_call+0x25e>
    1712:	bf 01 00 00 00       	mov    edi,0x1
    1717:	e8 14 da 00 00       	call   f130 <_Z7tracebrPv>
    171c:	31 ff                	xor    edi,edi
    171e:	e8 0d da 00 00       	call   f130 <_Z7tracebrPv>
    1723:	31 ff                	xor    edi,edi
    1725:	e8 06 da 00 00       	call   f130 <_Z7tracebrPv>
    172a:	41 be 03 00 00 00    	mov    r14d,0x3
    1730:	e9 25 01 00 00       	jmp    185a <sgx_sgxsd_enclave_server_call+0x2da>
    1735:	31 ff                	xor    edi,edi
    1737:	e8 f4 d9 00 00       	call   f130 <_Z7tracebrPv>
    173c:	31 ff                	xor    edi,edi
    173e:	e8 ed d9 00 00       	call   f130 <_Z7tracebrPv>
    1743:	4d 85 e4             	test   r12,r12
    1746:	74 7b                	je     17c3 <sgx_sgxsd_enclave_server_call+0x243>
    1748:	bf 01 00 00 00       	mov    edi,0x1
    174d:	e8 de d9 00 00       	call   f130 <_Z7tracebrPv>
    1752:	bf 01 00 00 00       	mov    edi,0x1
    1757:	e8 d4 d9 00 00       	call   f130 <_Z7tracebrPv>
    175c:	48 8d 3d dd 0e 01 00 	lea    rdi,[rip+0x10edd]        # 12640 <dlmalloc>
    1763:	e8 58 d6 00 00       	call   edc0 <_Z10traceedgecPv>
    1768:	bf 40 00 00 00       	mov    edi,0x40
    176d:	e8 ce 0e 01 00       	call   12640 <dlmalloc>
    1772:	48 85 c0             	test   rax,rax
    1775:	74 57                	je     17ce <sgx_sgxsd_enclave_server_call+0x24e>
    1777:	48 89 c5             	mov    rbp,rax
    177a:	31 ff                	xor    edi,edi
    177c:	e8 af d9 00 00       	call   f130 <_Z7tracebrPv>
    1781:	48 8d 3d 98 42 01 00 	lea    rdi,[rip+0x14298]        # 15a20 <memcpy_s>
    1788:	e8 33 d6 00 00       	call   edc0 <_Z10traceedgecPv>
    178d:	be 40 00 00 00       	mov    esi,0x40
    1792:	b9 40 00 00 00       	mov    ecx,0x40
    1797:	48 89 2c 24          	mov    QWORD PTR [rsp],rbp
    179b:	48 89 ef             	mov    rdi,rbp
    179e:	4c 89 e2             	mov    rdx,r12
    17a1:	e8 7a 42 01 00       	call   15a20 <memcpy_s>
    17a6:	85 c0                	test   eax,eax
    17a8:	0f 84 cf 00 00 00    	je     187d <sgx_sgxsd_enclave_server_call+0x2fd>
    17ae:	41 be 01 00 00 00    	mov    r14d,0x1
    17b4:	bf 01 00 00 00       	mov    edi,0x1
    17b9:	e8 72 d9 00 00       	call   f130 <_Z7tracebrPv>
    17be:	e9 b8 01 00 00       	jmp    197b <sgx_sgxsd_enclave_server_call+0x3fb>
    17c3:	31 c0                	xor    eax,eax
    17c5:	48 89 04 24          	mov    QWORD PTR [rsp],rax
    17c9:	e9 b6 00 00 00       	jmp    1884 <sgx_sgxsd_enclave_server_call+0x304>
    17ce:	bf 01 00 00 00       	mov    edi,0x1
    17d3:	e8 58 d9 00 00       	call   f130 <_Z7tracebrPv>
    17d8:	41 be 03 00 00 00    	mov    r14d,0x3
    17de:	45 31 e4             	xor    r12d,r12d
    17e1:	31 ed                	xor    ebp,ebp
    17e3:	4d 85 ff             	test   r15,r15
    17e6:	74 1e                	je     1806 <sgx_sgxsd_enclave_server_call+0x286>
    17e8:	bf 01 00 00 00       	mov    edi,0x1
    17ed:	e8 3e d9 00 00       	call   f130 <_Z7tracebrPv>
    17f2:	48 8d 3d 47 28 01 00 	lea    rdi,[rip+0x12847]        # 14040 <dlfree>
    17f9:	e8 c2 d5 00 00       	call   edc0 <_Z10traceedgecPv>
    17fe:	4c 89 ff             	mov    rdi,r15
    1801:	e8 3a 28 01 00       	call   14040 <dlfree>
    1806:	31 ff                	xor    edi,edi
    1808:	e8 23 d9 00 00       	call   f130 <_Z7tracebrPv>
    180d:	4d 85 e4             	test   r12,r12
    1810:	74 1e                	je     1830 <sgx_sgxsd_enclave_server_call+0x2b0>
    1812:	bf 01 00 00 00       	mov    edi,0x1
    1817:	e8 14 d9 00 00       	call   f130 <_Z7tracebrPv>
    181c:	48 8d 3d 1d 28 01 00 	lea    rdi,[rip+0x1281d]        # 14040 <dlfree>
    1823:	e8 98 d5 00 00       	call   edc0 <_Z10traceedgecPv>
    1828:	4c 89 e7             	mov    rdi,r12
    182b:	e8 10 28 01 00       	call   14040 <dlfree>
    1830:	31 ff                	xor    edi,edi
    1832:	e8 f9 d8 00 00       	call   f130 <_Z7tracebrPv>
    1837:	48 85 ed             	test   rbp,rbp
    183a:	74 1e                	je     185a <sgx_sgxsd_enclave_server_call+0x2da>
    183c:	bf 01 00 00 00       	mov    edi,0x1
    1841:	e8 ea d8 00 00       	call   f130 <_Z7tracebrPv>
    1846:	48 8d 3d f3 27 01 00 	lea    rdi,[rip+0x127f3]        # 14040 <dlfree>
    184d:	e8 6e d5 00 00       	call   edc0 <_Z10traceedgecPv>
    1852:	48 89 ef             	mov    rdi,rbp
    1855:	e8 e6 27 01 00       	call   14040 <dlfree>
    185a:	31 ff                	xor    edi,edi
    185c:	e8 cf d8 00 00       	call   f130 <_Z7tracebrPv>
    1861:	48 8b 7c 24 48       	mov    rdi,QWORD PTR [rsp+0x48]
    1866:	e8 55 d5 00 00       	call   edc0 <_Z10traceedgecPv>
    186b:	44 89 f0             	mov    eax,r14d
    186e:	48 83 c4 18          	add    rsp,0x18
    1872:	5b                   	pop    rbx
    1873:	41 5c                	pop    r12
    1875:	41 5d                	pop    r13
    1877:	41 5e                	pop    r14
    1879:	41 5f                	pop    r15
    187b:	5d                   	pop    rbp
    187c:	c3                   	ret    
    187d:	31 ff                	xor    edi,edi
    187f:	e8 ac d8 00 00       	call   f130 <_Z7tracebrPv>
    1884:	45 31 f6             	xor    r14d,r14d
    1887:	31 ff                	xor    edi,edi
    1889:	e8 a2 d8 00 00       	call   f130 <_Z7tracebrPv>
    188e:	4d 85 ed             	test   r13,r13
    1891:	0f 84 83 00 00 00    	je     191a <sgx_sgxsd_enclave_server_call+0x39a>
    1897:	bf 01 00 00 00       	mov    edi,0x1
    189c:	e8 8f d8 00 00       	call   f130 <_Z7tracebrPv>
    18a1:	4c 8b 64 24 08       	mov    r12,QWORD PTR [rsp+0x8]
    18a6:	4d 85 e4             	test   r12,r12
    18a9:	74 6f                	je     191a <sgx_sgxsd_enclave_server_call+0x39a>
    18ab:	bf 01 00 00 00       	mov    edi,0x1
    18b0:	e8 7b d8 00 00       	call   f130 <_Z7tracebrPv>
    18b5:	31 ff                	xor    edi,edi
    18b7:	e8 74 d8 00 00       	call   f130 <_Z7tracebrPv>
    18bc:	48 8d 3d 7d 0d 01 00 	lea    rdi,[rip+0x10d7d]        # 12640 <dlmalloc>
    18c3:	e8 f8 d4 00 00       	call   edc0 <_Z10traceedgecPv>
    18c8:	4c 89 e7             	mov    rdi,r12
    18cb:	e8 70 0d 01 00       	call   12640 <dlmalloc>
    18d0:	48 85 c0             	test   rax,rax
    18d3:	0f 84 92 00 00 00    	je     196b <sgx_sgxsd_enclave_server_call+0x3eb>
    18d9:	48 89 c5             	mov    rbp,rax
    18dc:	31 ff                	xor    edi,edi
    18de:	e8 4d d8 00 00       	call   f130 <_Z7tracebrPv>
    18e3:	48 8d 3d 36 41 01 00 	lea    rdi,[rip+0x14136]        # 15a20 <memcpy_s>
    18ea:	e8 d1 d4 00 00       	call   edc0 <_Z10traceedgecPv>
    18ef:	48 89 ef             	mov    rdi,rbp
    18f2:	4c 89 e6             	mov    rsi,r12
    18f5:	4c 89 ea             	mov    rdx,r13
    18f8:	4c 89 e1             	mov    rcx,r12
    18fb:	e8 20 41 01 00       	call   15a20 <memcpy_s>
    1900:	85 c0                	test   eax,eax
    1902:	0f 84 87 00 00 00    	je     198f <sgx_sgxsd_enclave_server_call+0x40f>
    1908:	41 be 01 00 00 00    	mov    r14d,0x1
    190e:	bf 01 00 00 00       	mov    edi,0x1
    1913:	e8 18 d8 00 00       	call   f130 <_Z7tracebrPv>
    1918:	eb 63                	jmp    197d <sgx_sgxsd_enclave_server_call+0x3fd>
    191a:	31 ed                	xor    ebp,ebp
    191c:	31 ff                	xor    edi,edi
    191e:	e8 0d d8 00 00       	call   f130 <_Z7tracebrPv>
    1923:	48 8b 43 28          	mov    rax,QWORD PTR [rbx+0x28]
    1927:	48 89 44 24 10       	mov    QWORD PTR [rsp+0x10],rax
    192c:	4c 8b 6b 30          	mov    r13,QWORD PTR [rbx+0x30]
    1930:	48 8d 3d c9 21 00 00 	lea    rdi,[rip+0x21c9]        # 3b00 <sgxsd_enclave_server_call>
    1937:	e8 84 d4 00 00       	call   edc0 <_Z10traceedgecPv>
    193c:	4c 89 ff             	mov    rdi,r15
    193f:	4c 8b 24 24          	mov    r12,QWORD PTR [rsp]
    1943:	4c 89 e6             	mov    rsi,r12
    1946:	48 89 ea             	mov    rdx,rbp
    1949:	48 8b 4c 24 08       	mov    rcx,QWORD PTR [rsp+0x8]
    194e:	4c 8b 44 24 10       	mov    r8,QWORD PTR [rsp+0x10]
    1953:	4d 89 e9             	mov    r9,r13
    1956:	e8 a5 21 00 00       	call   3b00 <sgxsd_enclave_server_call>
    195b:	89 03                	mov    DWORD PTR [rbx],eax
    195d:	4d 85 ff             	test   r15,r15
    1960:	0f 85 82 fe ff ff    	jne    17e8 <sgx_sgxsd_enclave_server_call+0x268>
    1966:	e9 9b fe ff ff       	jmp    1806 <sgx_sgxsd_enclave_server_call+0x286>
    196b:	bf 01 00 00 00       	mov    edi,0x1
    1970:	e8 bb d7 00 00       	call   f130 <_Z7tracebrPv>
    1975:	41 be 03 00 00 00    	mov    r14d,0x3
    197b:	31 ed                	xor    ebp,ebp
    197d:	4c 8b 24 24          	mov    r12,QWORD PTR [rsp]
    1981:	4d 85 ff             	test   r15,r15
    1984:	0f 85 5e fe ff ff    	jne    17e8 <sgx_sgxsd_enclave_server_call+0x268>
    198a:	e9 77 fe ff ff       	jmp    1806 <sgx_sgxsd_enclave_server_call+0x286>
    198f:	31 ff                	xor    edi,edi
    1991:	e8 9a d7 00 00       	call   f130 <_Z7tracebrPv>
    1996:	eb 84                	jmp    191c <sgx_sgxsd_enclave_server_call+0x39c>
    1998:	0f 1f 84 00 00 00 00 	nop    DWORD PTR [rax+rax*1+0x0]
    199f:	00 

00000000000019a0 <sgx_sgxsd_enclave_server_stop>:
    19a0:	55                   	push   rbp
    19a1:	41 57                	push   r15
    19a3:	41 56                	push   r14
    19a5:	53                   	push   rbx
    19a6:	50                   	push   rax
    19a7:	bd 02 00 00 00       	mov    ebp,0x2
    19ac:	48 85 ff             	test   rdi,rdi
    19af:	0f 84 6a 01 00 00    	je     1b1f <sgx_sgxsd_enclave_server_stop+0x17f>
    19b5:	48 89 fb             	mov    rbx,rdi
    19b8:	bf 01 00 00 00       	mov    edi,0x1
    19bd:	e8 6e d7 00 00       	call   f130 <_Z7tracebrPv>
    19c2:	48 8d 3d e7 d9 00 00 	lea    rdi,[rip+0xd9e7]        # f3b0 <sgx_is_outside_enclave>
    19c9:	e8 f2 d3 00 00       	call   edc0 <_Z10traceedgecPv>
    19ce:	be 18 00 00 00       	mov    esi,0x18
    19d3:	48 89 df             	mov    rdi,rbx
    19d6:	e8 d5 d9 00 00       	call   f3b0 <sgx_is_outside_enclave>
    19db:	85 c0                	test   eax,eax
    19dd:	0f 84 3c 01 00 00    	je     1b1f <sgx_sgxsd_enclave_server_stop+0x17f>
    19e3:	bf 01 00 00 00       	mov    edi,0x1
    19e8:	e8 43 d7 00 00       	call   f130 <_Z7tracebrPv>
    19ed:	0f ae e8             	lfence 
    19f0:	4c 8b 7b 08          	mov    r15,QWORD PTR [rbx+0x8]
    19f4:	4d 85 ff             	test   r15,r15
    19f7:	0f 84 ab 00 00 00    	je     1aa8 <sgx_sgxsd_enclave_server_stop+0x108>
    19fd:	bf 01 00 00 00       	mov    edi,0x1
    1a02:	e8 29 d7 00 00       	call   f130 <_Z7tracebrPv>
    1a07:	48 8d 3d a2 d9 00 00 	lea    rdi,[rip+0xd9a2]        # f3b0 <sgx_is_outside_enclave>
    1a0e:	e8 ad d3 00 00       	call   edc0 <_Z10traceedgecPv>
    1a13:	be 10 00 00 00       	mov    esi,0x10
    1a18:	4c 89 ff             	mov    rdi,r15
    1a1b:	e8 90 d9 00 00       	call   f3b0 <sgx_is_outside_enclave>
    1a20:	89 c5                	mov    ebp,eax
    1a22:	31 ff                	xor    edi,edi
    1a24:	e8 07 d7 00 00       	call   f130 <_Z7tracebrPv>
    1a29:	85 ed                	test   ebp,ebp
    1a2b:	0f 84 86 00 00 00    	je     1ab7 <sgx_sgxsd_enclave_server_stop+0x117>
    1a31:	0f ae e8             	lfence 
    1a34:	bf 01 00 00 00       	mov    edi,0x1
    1a39:	e8 f2 d6 00 00       	call   f130 <_Z7tracebrPv>
    1a3e:	bf 01 00 00 00       	mov    edi,0x1
    1a43:	e8 e8 d6 00 00       	call   f130 <_Z7tracebrPv>
    1a48:	48 8d 3d f1 0b 01 00 	lea    rdi,[rip+0x10bf1]        # 12640 <dlmalloc>
    1a4f:	e8 6c d3 00 00       	call   edc0 <_Z10traceedgecPv>
    1a54:	bf 10 00 00 00       	mov    edi,0x10
    1a59:	e8 e2 0b 01 00       	call   12640 <dlmalloc>
    1a5e:	48 85 c0             	test   rax,rax
    1a61:	74 5b                	je     1abe <sgx_sgxsd_enclave_server_stop+0x11e>
    1a63:	49 89 c6             	mov    r14,rax
    1a66:	31 ff                	xor    edi,edi
    1a68:	e8 c3 d6 00 00       	call   f130 <_Z7tracebrPv>
    1a6d:	48 8d 3d ac 3f 01 00 	lea    rdi,[rip+0x13fac]        # 15a20 <memcpy_s>
    1a74:	e8 47 d3 00 00       	call   edc0 <_Z10traceedgecPv>
    1a79:	be 10 00 00 00       	mov    esi,0x10
    1a7e:	b9 10 00 00 00       	mov    ecx,0x10
    1a83:	4c 89 f7             	mov    rdi,r14
    1a86:	4c 89 fa             	mov    rdx,r15
    1a89:	e8 92 3f 01 00       	call   15a20 <memcpy_s>
    1a8e:	85 c0                	test   eax,eax
    1a90:	74 3d                	je     1acf <sgx_sgxsd_enclave_server_stop+0x12f>
    1a92:	bd 01 00 00 00       	mov    ebp,0x1
    1a97:	bf 01 00 00 00       	mov    edi,0x1
    1a9c:	e8 8f d6 00 00       	call   f130 <_Z7tracebrPv>
    1aa1:	4d 85 f6             	test   r14,r14
    1aa4:	75 5b                	jne    1b01 <sgx_sgxsd_enclave_server_stop+0x161>
    1aa6:	eb 77                	jmp    1b1f <sgx_sgxsd_enclave_server_stop+0x17f>
    1aa8:	45 31 f6             	xor    r14d,r14d
    1aab:	31 ff                	xor    edi,edi
    1aad:	e8 7e d6 00 00       	call   f130 <_Z7tracebrPv>
    1ab2:	0f ae e8             	lfence 
    1ab5:	eb 1f                	jmp    1ad6 <sgx_sgxsd_enclave_server_stop+0x136>
    1ab7:	bd 02 00 00 00       	mov    ebp,0x2
    1abc:	eb 68                	jmp    1b26 <sgx_sgxsd_enclave_server_stop+0x186>
    1abe:	bf 01 00 00 00       	mov    edi,0x1
    1ac3:	e8 68 d6 00 00       	call   f130 <_Z7tracebrPv>
    1ac8:	bd 03 00 00 00       	mov    ebp,0x3
    1acd:	eb 50                	jmp    1b1f <sgx_sgxsd_enclave_server_stop+0x17f>
    1acf:	31 ff                	xor    edi,edi
    1ad1:	e8 5a d6 00 00       	call   f130 <_Z7tracebrPv>
    1ad6:	31 ed                	xor    ebp,ebp
    1ad8:	31 ff                	xor    edi,edi
    1ada:	e8 51 d6 00 00       	call   f130 <_Z7tracebrPv>
    1adf:	4c 8b 7b 10          	mov    r15,QWORD PTR [rbx+0x10]
    1ae3:	48 8d 3d 86 23 00 00 	lea    rdi,[rip+0x2386]        # 3e70 <sgxsd_enclave_server_stop>
    1aea:	e8 d1 d2 00 00       	call   edc0 <_Z10traceedgecPv>
    1aef:	4c 89 f7             	mov    rdi,r14
    1af2:	4c 89 fe             	mov    rsi,r15
    1af5:	e8 76 23 00 00       	call   3e70 <sgxsd_enclave_server_stop>
    1afa:	89 03                	mov    DWORD PTR [rbx],eax
    1afc:	4d 85 f6             	test   r14,r14
    1aff:	74 1e                	je     1b1f <sgx_sgxsd_enclave_server_stop+0x17f>
    1b01:	bf 01 00 00 00       	mov    edi,0x1
    1b06:	e8 25 d6 00 00       	call   f130 <_Z7tracebrPv>
    1b0b:	48 8d 3d 2e 25 01 00 	lea    rdi,[rip+0x1252e]        # 14040 <dlfree>
    1b12:	e8 a9 d2 00 00       	call   edc0 <_Z10traceedgecPv>
    1b17:	4c 89 f7             	mov    rdi,r14
    1b1a:	e8 21 25 01 00       	call   14040 <dlfree>
    1b1f:	31 ff                	xor    edi,edi
    1b21:	e8 0a d6 00 00       	call   f130 <_Z7tracebrPv>
    1b26:	48 8b 7c 24 28       	mov    rdi,QWORD PTR [rsp+0x28]
    1b2b:	e8 90 d2 00 00       	call   edc0 <_Z10traceedgecPv>
    1b30:	89 e8                	mov    eax,ebp
    1b32:	48 83 c4 08          	add    rsp,0x8
    1b36:	5b                   	pop    rbx
    1b37:	41 5e                	pop    r14
    1b39:	41 5f                	pop    r15
    1b3b:	5d                   	pop    rbp
    1b3c:	c3                   	ret    
    1b3d:	0f 1f 00             	nop    DWORD PTR [rax]

0000000000001b40 <sgx_hello>:
    1b40:	53                   	push   rbx
    1b41:	48 85 ff             	test   rdi,rdi
    1b44:	74 11                	je     1b57 <sgx_hello+0x17>
    1b46:	bf 01 00 00 00       	mov    edi,0x1
    1b4b:	e8 e0 d5 00 00       	call   f130 <_Z7tracebrPv>
    1b50:	bb 02 00 00 00       	mov    ebx,0x2
    1b55:	eb 1a                	jmp    1b71 <sgx_hello+0x31>
    1b57:	31 db                	xor    ebx,ebx
    1b59:	31 ff                	xor    edi,edi
    1b5b:	e8 d0 d5 00 00       	call   f130 <_Z7tracebrPv>
    1b60:	48 8d 3d 79 25 00 00 	lea    rdi,[rip+0x2579]        # 40e0 <hello>
    1b67:	e8 54 d2 00 00       	call   edc0 <_Z10traceedgecPv>
    1b6c:	e8 6f 25 00 00       	call   40e0 <hello>
    1b71:	48 8b 7c 24 08       	mov    rdi,QWORD PTR [rsp+0x8]
    1b76:	e8 45 d2 00 00       	call   edc0 <_Z10traceedgecPv>
    1b7b:	89 d8                	mov    eax,ebx
    1b7d:	5b                   	pop    rbx
    1b7e:	c3                   	ret    
    1b7f:	90                   	nop

0000000000001b80 <sgx_setBucket>:
    1b80:	55                   	push   rbp
    1b81:	53                   	push   rbx
    1b82:	50                   	push   rax
    1b83:	bd 02 00 00 00       	mov    ebp,0x2
    1b88:	48 85 ff             	test   rdi,rdi
    1b8b:	74 1e                	je     1bab <sgx_setBucket+0x2b>
    1b8d:	48 89 fb             	mov    rbx,rdi
    1b90:	be 08 00 00 00       	mov    esi,0x8
    1b95:	e8 16 d8 00 00       	call   f3b0 <sgx_is_outside_enclave>
    1b9a:	85 c0                	test   eax,eax
    1b9c:	74 0d                	je     1bab <sgx_setBucket+0x2b>
    1b9e:	0f ae e8             	lfence 
    1ba1:	48 8b 3b             	mov    rdi,QWORD PTR [rbx]
    1ba4:	e8 97 d0 00 00       	call   ec40 <setBucket>
    1ba9:	31 ed                	xor    ebp,ebp
    1bab:	89 e8                	mov    eax,ebp
    1bad:	48 83 c4 08          	add    rsp,0x8
    1bb1:	5b                   	pop    rbx
    1bb2:	5d                   	pop    rbp
    1bb3:	c3                   	ret    
    1bb4:	66 2e 0f 1f 84 00 00 	nop    WORD PTR cs:[rax+rax*1+0x0]
    1bbb:	00 00 00 
    1bbe:	66 90                	xchg   ax,ax

0000000000001bc0 <sgx_setActionCounter>:
    1bc0:	53                   	push   rbx
    1bc1:	48 85 ff             	test   rdi,rdi
    1bc4:	74 52                	je     1c18 <sgx_setActionCounter+0x58>
    1bc6:	48 89 fb             	mov    rbx,rdi
    1bc9:	bf 01 00 00 00       	mov    edi,0x1
    1bce:	e8 5d d5 00 00       	call   f130 <_Z7tracebrPv>
    1bd3:	48 8d 3d d6 d7 00 00 	lea    rdi,[rip+0xd7d6]        # f3b0 <sgx_is_outside_enclave>
    1bda:	e8 e1 d1 00 00       	call   edc0 <_Z10traceedgecPv>
    1bdf:	be 08 00 00 00       	mov    esi,0x8
    1be4:	48 89 df             	mov    rdi,rbx
    1be7:	e8 c4 d7 00 00       	call   f3b0 <sgx_is_outside_enclave>
    1bec:	85 c0                	test   eax,eax
    1bee:	74 28                	je     1c18 <sgx_setActionCounter+0x58>
    1bf0:	bf 01 00 00 00       	mov    edi,0x1
    1bf5:	e8 36 d5 00 00       	call   f130 <_Z7tracebrPv>
    1bfa:	0f ae e8             	lfence 
    1bfd:	48 8b 1b             	mov    rbx,QWORD PTR [rbx]
    1c00:	48 8d 3d 59 d0 00 00 	lea    rdi,[rip+0xd059]        # ec60 <setActionCounter>
    1c07:	e8 b4 d1 00 00       	call   edc0 <_Z10traceedgecPv>
    1c0c:	48 89 df             	mov    rdi,rbx
    1c0f:	e8 4c d0 00 00       	call   ec60 <setActionCounter>
    1c14:	31 db                	xor    ebx,ebx
    1c16:	eb 0c                	jmp    1c24 <sgx_setActionCounter+0x64>
    1c18:	31 ff                	xor    edi,edi
    1c1a:	e8 11 d5 00 00       	call   f130 <_Z7tracebrPv>
    1c1f:	bb 02 00 00 00       	mov    ebx,0x2
    1c24:	48 8b 7c 24 08       	mov    rdi,QWORD PTR [rsp+0x8]
    1c29:	e8 92 d1 00 00       	call   edc0 <_Z10traceedgecPv>
    1c2e:	89 d8                	mov    eax,ebx
    1c30:	5b                   	pop    rbx
    1c31:	c3                   	ret    
    1c32:	66 2e 0f 1f 84 00 00 	nop    WORD PTR cs:[rax+rax*1+0x0]
    1c39:	00 00 00 
    1c3c:	0f 1f 40 00          	nop    DWORD PTR [rax+0x0]

0000000000001c40 <sgx_bootSecureCommunication>:
    1c40:	b8 02 00 00 00       	mov    eax,0x2
    1c45:	48 85 ff             	test   rdi,rdi
    1c48:	74 01                	je     1c4b <sgx_bootSecureCommunication+0xb>
    1c4a:	c3                   	ret    
    1c4b:	50                   	push   rax
    1c4c:	e8 2f d0 00 00       	call   ec80 <bootSecureCommunication>
    1c51:	31 c0                	xor    eax,eax
    1c53:	48 83 c4 08          	add    rsp,0x8
    1c57:	c3                   	ret    
    1c58:	0f 1f 84 00 00 00 00 	nop    DWORD PTR [rax+rax*1+0x0]
    1c5f:	00 

0000000000001c60 <sgx_makeEndMsg>:
    1c60:	b8 02 00 00 00       	mov    eax,0x2
    1c65:	48 85 ff             	test   rdi,rdi
    1c68:	74 01                	je     1c6b <sgx_makeEndMsg+0xb>
    1c6a:	c3                   	ret    
    1c6b:	50                   	push   rax
    1c6c:	e8 0f cc 00 00       	call   e880 <makeEndMsg>
    1c71:	31 c0                	xor    eax,eax
    1c73:	48 83 c4 08          	add    rsp,0x8
    1c77:	c3                   	ret    
    1c78:	0f 1f 84 00 00 00 00 	nop    DWORD PTR [rax+rax*1+0x0]
    1c7f:	00 

0000000000001c80 <sgxsd_ocall_reply>:
    1c80:	55                   	push   rbp
    1c81:	41 57                	push   r15
    1c83:	41 56                	push   r14
    1c85:	41 55                	push   r13
    1c87:	41 54                	push   r12
    1c89:	53                   	push   rbx
    1c8a:	48 83 ec 28          	sub    rsp,0x28
    1c8e:	4d 89 c6             	mov    r14,r8
    1c91:	48 89 cd             	mov    rbp,rcx
    1c94:	49 89 d5             	mov    r13,rdx
    1c97:	48 89 f3             	mov    rbx,rsi
    1c9a:	49 89 fc             	mov    r12,rdi
    1c9d:	48 85 f6             	test   rsi,rsi
    1ca0:	74 2b                	je     1ccd <sgxsd_ocall_reply+0x4d>
    1ca2:	bf 01 00 00 00       	mov    edi,0x1
    1ca7:	e8 84 d4 00 00       	call   f130 <_Z7tracebrPv>
    1cac:	48 8d 3d ad d6 00 00 	lea    rdi,[rip+0xd6ad]        # f360 <sgx_is_within_enclave>
    1cb3:	e8 08 d1 00 00       	call   edc0 <_Z10traceedgecPv>
    1cb8:	be 40 00 00 00       	mov    esi,0x40
    1cbd:	48 89 df             	mov    rdi,rbx
    1cc0:	e8 9b d6 00 00       	call   f360 <sgx_is_within_enclave>
    1cc5:	85 c0                	test   eax,eax
    1cc7:	0f 84 8d 00 00 00    	je     1d5a <sgxsd_ocall_reply+0xda>
    1ccd:	31 ff                	xor    edi,edi
    1ccf:	e8 5c d4 00 00       	call   f130 <_Z7tracebrPv>
    1cd4:	4d 85 ed             	test   r13,r13
    1cd7:	74 25                	je     1cfe <sgxsd_ocall_reply+0x7e>
    1cd9:	bf 01 00 00 00       	mov    edi,0x1
    1cde:	e8 4d d4 00 00       	call   f130 <_Z7tracebrPv>
    1ce3:	48 8d 3d 76 d6 00 00 	lea    rdi,[rip+0xd676]        # f360 <sgx_is_within_enclave>
    1cea:	e8 d1 d0 00 00       	call   edc0 <_Z10traceedgecPv>
    1cef:	4c 89 ef             	mov    rdi,r13
    1cf2:	48 89 ee             	mov    rsi,rbp
    1cf5:	e8 66 d6 00 00       	call   f360 <sgx_is_within_enclave>
    1cfa:	85 c0                	test   eax,eax
    1cfc:	74 5c                	je     1d5a <sgxsd_ocall_reply+0xda>
    1cfe:	48 89 6c 24 08       	mov    QWORD PTR [rsp+0x8],rbp
    1d03:	31 ed                	xor    ebp,ebp
    1d05:	48 85 db             	test   rbx,rbx
    1d08:	40 0f 95 c5          	setne  bpl
    1d0c:	31 ff                	xor    edi,edi
    1d0e:	e8 1d d4 00 00       	call   f130 <_Z7tracebrPv>
    1d13:	49 89 ef             	mov    r15,rbp
    1d16:	49 c1 e7 06          	shl    r15,0x6
    1d1a:	49 83 cf 28          	or     r15,0x28
    1d1e:	89 ef                	mov    edi,ebp
    1d20:	e8 0b d4 00 00       	call   f130 <_Z7tracebrPv>
    1d25:	89 ef                	mov    edi,ebp
    1d27:	e8 04 d4 00 00       	call   f130 <_Z7tracebrPv>
    1d2c:	31 ff                	xor    edi,edi
    1d2e:	e8 fd d3 00 00       	call   f130 <_Z7tracebrPv>
    1d33:	4d 85 ed             	test   r13,r13
    1d36:	74 33                	je     1d6b <sgxsd_ocall_reply+0xeb>
    1d38:	bf 01 00 00 00       	mov    edi,0x1
    1d3d:	e8 ee d3 00 00       	call   f130 <_Z7tracebrPv>
    1d42:	bf 01 00 00 00       	mov    edi,0x1
    1d47:	e8 e4 d3 00 00       	call   f130 <_Z7tracebrPv>
    1d4c:	4c 03 7c 24 08       	add    r15,QWORD PTR [rsp+0x8]
    1d51:	73 26                	jae    1d79 <sgxsd_ocall_reply+0xf9>
    1d53:	bf 01 00 00 00       	mov    edi,0x1
    1d58:	eb 02                	jmp    1d5c <sgxsd_ocall_reply+0xdc>
    1d5a:	31 ff                	xor    edi,edi
    1d5c:	e8 cf d3 00 00       	call   f130 <_Z7tracebrPv>
    1d61:	bd 02 00 00 00       	mov    ebp,0x2
    1d66:	e9 a0 01 00 00       	jmp    1f0b <sgxsd_ocall_reply+0x28b>
    1d6b:	31 ff                	xor    edi,edi
    1d6d:	e8 be d3 00 00       	call   f130 <_Z7tracebrPv>
    1d72:	31 ff                	xor    edi,edi
    1d74:	e8 b7 d3 00 00       	call   f130 <_Z7tracebrPv>
    1d79:	4c 89 74 24 20       	mov    QWORD PTR [rsp+0x20],r14
    1d7e:	31 ff                	xor    edi,edi
    1d80:	e8 ab d3 00 00       	call   f130 <_Z7tracebrPv>
    1d85:	48 8d 3d 74 d6 00 00 	lea    rdi,[rip+0xd674]        # f400 <sgx_ocalloc>
    1d8c:	e8 2f d0 00 00       	call   edc0 <_Z10traceedgecPv>
    1d91:	4c 89 ff             	mov    rdi,r15
    1d94:	e8 67 d6 00 00       	call   f400 <sgx_ocalloc>
    1d99:	48 85 c0             	test   rax,rax
    1d9c:	0f 84 8a 00 00 00    	je     1e2c <sgxsd_ocall_reply+0x1ac>
    1da2:	49 89 c6             	mov    r14,rax
    1da5:	4c 89 64 24 18       	mov    QWORD PTR [rsp+0x18],r12
    1daa:	31 ff                	xor    edi,edi
    1dac:	e8 7f d3 00 00       	call   f130 <_Z7tracebrPv>
    1db1:	4d 8d 66 28          	lea    r12,[r14+0x28]
    1db5:	49 8d 6f d8          	lea    rbp,[r15-0x28]
    1db9:	48 85 db             	test   rbx,rbx
    1dbc:	74 7d                	je     1e3b <sgxsd_ocall_reply+0x1bb>
    1dbe:	48 89 6c 24 10       	mov    QWORD PTR [rsp+0x10],rbp
    1dc3:	bd 01 00 00 00       	mov    ebp,0x1
    1dc8:	bf 01 00 00 00       	mov    edi,0x1
    1dcd:	e8 5e d3 00 00       	call   f130 <_Z7tracebrPv>
    1dd2:	4d 89 66 08          	mov    QWORD PTR [r14+0x8],r12
    1dd6:	48 8d 3d 43 3c 01 00 	lea    rdi,[rip+0x13c43]        # 15a20 <memcpy_s>
    1ddd:	e8 de cf 00 00       	call   edc0 <_Z10traceedgecPv>
    1de2:	b9 40 00 00 00       	mov    ecx,0x40
    1de7:	4c 89 e7             	mov    rdi,r12
    1dea:	48 8b 74 24 10       	mov    rsi,QWORD PTR [rsp+0x10]
    1def:	48 89 da             	mov    rdx,rbx
    1df2:	e8 29 3c 01 00       	call   15a20 <memcpy_s>
    1df7:	85 c0                	test   eax,eax
    1df9:	0f 85 93 00 00 00    	jne    1e92 <sgxsd_ocall_reply+0x212>
    1dff:	31 ff                	xor    edi,edi
    1e01:	e8 2a d3 00 00       	call   f130 <_Z7tracebrPv>
    1e06:	4d 89 f4             	mov    r12,r14
    1e09:	49 83 c4 68          	add    r12,0x68
    1e0d:	49 83 c7 98          	add    r15,0xffffffffffffff98
    1e11:	48 8b 5c 24 08       	mov    rbx,QWORD PTR [rsp+0x8]
    1e16:	4d 85 ed             	test   r13,r13
    1e19:	75 3c                	jne    1e57 <sgxsd_ocall_reply+0x1d7>
    1e1b:	31 ff                	xor    edi,edi
    1e1d:	e8 0e d3 00 00       	call   f130 <_Z7tracebrPv>
    1e22:	49 c7 46 10 00 00 00 	mov    QWORD PTR [r14+0x10],0x0
    1e29:	00 
    1e2a:	eb 74                	jmp    1ea0 <sgxsd_ocall_reply+0x220>
    1e2c:	bd 01 00 00 00       	mov    ebp,0x1
    1e31:	bf 01 00 00 00       	mov    edi,0x1
    1e36:	e9 ba 00 00 00       	jmp    1ef5 <sgxsd_ocall_reply+0x275>
    1e3b:	31 ff                	xor    edi,edi
    1e3d:	e8 ee d2 00 00       	call   f130 <_Z7tracebrPv>
    1e42:	49 c7 46 08 00 00 00 	mov    QWORD PTR [r14+0x8],0x0
    1e49:	00 
    1e4a:	48 8b 5c 24 08       	mov    rbx,QWORD PTR [rsp+0x8]
    1e4f:	49 89 ef             	mov    r15,rbp
    1e52:	4d 85 ed             	test   r13,r13
    1e55:	74 c4                	je     1e1b <sgxsd_ocall_reply+0x19b>
    1e57:	bd 01 00 00 00       	mov    ebp,0x1
    1e5c:	bf 01 00 00 00       	mov    edi,0x1
    1e61:	e8 ca d2 00 00       	call   f130 <_Z7tracebrPv>
    1e66:	4d 89 66 10          	mov    QWORD PTR [r14+0x10],r12
    1e6a:	31 ff                	xor    edi,edi
    1e6c:	e8 bf d2 00 00       	call   f130 <_Z7tracebrPv>
    1e71:	48 8d 3d a8 3b 01 00 	lea    rdi,[rip+0x13ba8]        # 15a20 <memcpy_s>
    1e78:	e8 43 cf 00 00       	call   edc0 <_Z10traceedgecPv>
    1e7d:	4c 89 e7             	mov    rdi,r12
    1e80:	4c 89 fe             	mov    rsi,r15
    1e83:	4c 89 ea             	mov    rdx,r13
    1e86:	48 89 d9             	mov    rcx,rbx
    1e89:	e8 92 3b 01 00       	call   15a20 <memcpy_s>
    1e8e:	85 c0                	test   eax,eax
    1e90:	74 07                	je     1e99 <sgxsd_ocall_reply+0x219>
    1e92:	bf 01 00 00 00       	mov    edi,0x1
    1e97:	eb 5c                	jmp    1ef5 <sgxsd_ocall_reply+0x275>
    1e99:	31 ff                	xor    edi,edi
    1e9b:	e8 90 d2 00 00       	call   f130 <_Z7tracebrPv>
    1ea0:	49 89 5e 18          	mov    QWORD PTR [r14+0x18],rbx
    1ea4:	48 8b 44 24 20       	mov    rax,QWORD PTR [rsp+0x20]
    1ea9:	49 89 46 20          	mov    QWORD PTR [r14+0x20],rax
    1ead:	48 8d 3d 8c eb 00 00 	lea    rdi,[rip+0xeb8c]        # 10a40 <sgx_ocall>
    1eb4:	e8 07 cf 00 00       	call   edc0 <_Z10traceedgecPv>
    1eb9:	31 ff                	xor    edi,edi
    1ebb:	4c 89 f6             	mov    rsi,r14
    1ebe:	e8 7d eb 00 00       	call   10a40 <sgx_ocall>
    1ec3:	89 c5                	mov    ebp,eax
    1ec5:	85 c0                	test   eax,eax
    1ec7:	48 8b 5c 24 18       	mov    rbx,QWORD PTR [rsp+0x18]
    1ecc:	75 25                	jne    1ef3 <sgxsd_ocall_reply+0x273>
    1ece:	bf 01 00 00 00       	mov    edi,0x1
    1ed3:	e8 58 d2 00 00       	call   f130 <_Z7tracebrPv>
    1ed8:	48 85 db             	test   rbx,rbx
    1edb:	74 0f                	je     1eec <sgxsd_ocall_reply+0x26c>
    1edd:	bf 01 00 00 00       	mov    edi,0x1
    1ee2:	e8 49 d2 00 00       	call   f130 <_Z7tracebrPv>
    1ee7:	41 8b 06             	mov    eax,DWORD PTR [r14]
    1eea:	89 03                	mov    DWORD PTR [rbx],eax
    1eec:	31 ff                	xor    edi,edi
    1eee:	e8 3d d2 00 00       	call   f130 <_Z7tracebrPv>
    1ef3:	31 ff                	xor    edi,edi
    1ef5:	e8 36 d2 00 00       	call   f130 <_Z7tracebrPv>
    1efa:	48 8d 3d ef d5 00 00 	lea    rdi,[rip+0xd5ef]        # f4f0 <sgx_ocfree>
    1f01:	e8 ba ce 00 00       	call   edc0 <_Z10traceedgecPv>
    1f06:	e8 e5 d5 00 00       	call   f4f0 <sgx_ocfree>
    1f0b:	48 8b 7c 24 58       	mov    rdi,QWORD PTR [rsp+0x58]
    1f10:	e8 ab ce 00 00       	call   edc0 <_Z10traceedgecPv>
    1f15:	89 e8                	mov    eax,ebp
    1f17:	48 83 c4 28          	add    rsp,0x28
    1f1b:	5b                   	pop    rbx
    1f1c:	41 5c                	pop    r12
    1f1e:	41 5d                	pop    r13
    1f20:	41 5e                	pop    r14
    1f22:	41 5f                	pop    r15
    1f24:	5d                   	pop    rbp
    1f25:	c3                   	ret    
    1f26:	66 2e 0f 1f 84 00 00 	nop    WORD PTR cs:[rax+rax*1+0x0]
    1f2d:	00 00 00 

0000000000001f30 <ocall_print_string>:
    1f30:	55                   	push   rbp
    1f31:	41 57                	push   r15
    1f33:	41 56                	push   r14
    1f35:	41 54                	push   r12
    1f37:	53                   	push   rbx
    1f38:	49 89 fc             	mov    r12,rdi
    1f3b:	48 85 ff             	test   rdi,rdi
    1f3e:	0f 84 89 00 00 00    	je     1fcd <ocall_print_string+0x9d>
    1f44:	bf 01 00 00 00       	mov    edi,0x1
    1f49:	e8 e2 d1 00 00       	call   f130 <_Z7tracebrPv>
    1f4e:	48 8d 3d eb 39 01 00 	lea    rdi,[rip+0x139eb]        # 15940 <strlen>
    1f55:	e8 66 ce 00 00       	call   edc0 <_Z10traceedgecPv>
    1f5a:	4c 89 e7             	mov    rdi,r12
    1f5d:	e8 de 39 01 00       	call   15940 <strlen>
    1f62:	48 89 c5             	mov    rbp,rax
    1f65:	4c 8d 70 01          	lea    r14,[rax+0x1]
    1f69:	bf 01 00 00 00       	mov    edi,0x1
    1f6e:	e8 bd d1 00 00       	call   f130 <_Z7tracebrPv>
    1f73:	48 8d 3d e6 d3 00 00 	lea    rdi,[rip+0xd3e6]        # f360 <sgx_is_within_enclave>
    1f7a:	e8 41 ce 00 00       	call   edc0 <_Z10traceedgecPv>
    1f7f:	4c 89 e7             	mov    rdi,r12
    1f82:	4c 89 f6             	mov    rsi,r14
    1f85:	e8 d6 d3 00 00       	call   f360 <sgx_is_within_enclave>
    1f8a:	89 c3                	mov    ebx,eax
    1f8c:	31 ff                	xor    edi,edi
    1f8e:	e8 9d d1 00 00       	call   f130 <_Z7tracebrPv>
    1f93:	41 bf 02 00 00 00    	mov    r15d,0x2
    1f99:	85 db                	test   ebx,ebx
    1f9b:	0f 84 30 01 00 00    	je     20d1 <ocall_print_string+0x1a1>
    1fa1:	bf 01 00 00 00       	mov    edi,0x1
    1fa6:	e8 85 d1 00 00       	call   f130 <_Z7tracebrPv>
    1fab:	48 83 c5 09          	add    rbp,0x9
    1faf:	bf 01 00 00 00       	mov    edi,0x1
    1fb4:	e8 77 d1 00 00       	call   f130 <_Z7tracebrPv>
    1fb9:	4c 39 f5             	cmp    rbp,r14
    1fbc:	73 33                	jae    1ff1 <ocall_print_string+0xc1>
    1fbe:	bf 01 00 00 00       	mov    edi,0x1
    1fc3:	e8 68 d1 00 00       	call   f130 <_Z7tracebrPv>
    1fc8:	e9 04 01 00 00       	jmp    20d1 <ocall_print_string+0x1a1>
    1fcd:	45 31 f6             	xor    r14d,r14d
    1fd0:	31 ff                	xor    edi,edi
    1fd2:	e8 59 d1 00 00       	call   f130 <_Z7tracebrPv>
    1fd7:	31 ff                	xor    edi,edi
    1fd9:	e8 52 d1 00 00       	call   f130 <_Z7tracebrPv>
    1fde:	31 ff                	xor    edi,edi
    1fe0:	e8 4b d1 00 00       	call   f130 <_Z7tracebrPv>
    1fe5:	31 ff                	xor    edi,edi
    1fe7:	e8 44 d1 00 00       	call   f130 <_Z7tracebrPv>
    1fec:	bd 08 00 00 00       	mov    ebp,0x8
    1ff1:	31 ff                	xor    edi,edi
    1ff3:	e8 38 d1 00 00       	call   f130 <_Z7tracebrPv>
    1ff8:	48 8d 3d 01 d4 00 00 	lea    rdi,[rip+0xd401]        # f400 <sgx_ocalloc>
    1fff:	e8 bc cd 00 00       	call   edc0 <_Z10traceedgecPv>
    2004:	48 89 ef             	mov    rdi,rbp
    2007:	e8 f4 d3 00 00       	call   f400 <sgx_ocalloc>
    200c:	48 85 c0             	test   rax,rax
    200f:	74 59                	je     206a <ocall_print_string+0x13a>
    2011:	48 89 c5             	mov    rbp,rax
    2014:	31 ff                	xor    edi,edi
    2016:	e8 15 d1 00 00       	call   f130 <_Z7tracebrPv>
    201b:	4d 85 e4             	test   r12,r12
    201e:	74 57                	je     2077 <ocall_print_string+0x147>
    2020:	48 89 eb             	mov    rbx,rbp
    2023:	48 83 c3 08          	add    rbx,0x8
    2027:	41 bf 01 00 00 00    	mov    r15d,0x1
    202d:	bf 01 00 00 00       	mov    edi,0x1
    2032:	e8 f9 d0 00 00       	call   f130 <_Z7tracebrPv>
    2037:	48 89 5d 00          	mov    QWORD PTR [rbp+0x0],rbx
    203b:	31 ff                	xor    edi,edi
    203d:	e8 ee d0 00 00       	call   f130 <_Z7tracebrPv>
    2042:	48 8d 3d d7 39 01 00 	lea    rdi,[rip+0x139d7]        # 15a20 <memcpy_s>
    2049:	e8 72 cd 00 00       	call   edc0 <_Z10traceedgecPv>
    204e:	48 89 df             	mov    rdi,rbx
    2051:	4c 89 f6             	mov    rsi,r14
    2054:	4c 89 e2             	mov    rdx,r12
    2057:	4c 89 f1             	mov    rcx,r14
    205a:	e8 c1 39 01 00       	call   15a20 <memcpy_s>
    205f:	85 c0                	test   eax,eax
    2061:	74 25                	je     2088 <ocall_print_string+0x158>
    2063:	bf 01 00 00 00       	mov    edi,0x1
    2068:	eb 51                	jmp    20bb <ocall_print_string+0x18b>
    206a:	41 bf 01 00 00 00    	mov    r15d,0x1
    2070:	bf 01 00 00 00       	mov    edi,0x1
    2075:	eb 44                	jmp    20bb <ocall_print_string+0x18b>
    2077:	31 ff                	xor    edi,edi
    2079:	e8 b2 d0 00 00       	call   f130 <_Z7tracebrPv>
    207e:	48 c7 45 00 00 00 00 	mov    QWORD PTR [rbp+0x0],0x0
    2085:	00 
    2086:	eb 07                	jmp    208f <ocall_print_string+0x15f>
    2088:	31 ff                	xor    edi,edi
    208a:	e8 a1 d0 00 00       	call   f130 <_Z7tracebrPv>
    208f:	48 8d 3d aa e9 00 00 	lea    rdi,[rip+0xe9aa]        # 10a40 <sgx_ocall>
    2096:	e8 25 cd 00 00       	call   edc0 <_Z10traceedgecPv>
    209b:	bf 01 00 00 00       	mov    edi,0x1
    20a0:	48 89 ee             	mov    rsi,rbp
    20a3:	e8 98 e9 00 00       	call   10a40 <sgx_ocall>
    20a8:	41 89 c7             	mov    r15d,eax
    20ab:	85 c0                	test   eax,eax
    20ad:	75 0a                	jne    20b9 <ocall_print_string+0x189>
    20af:	bf 01 00 00 00       	mov    edi,0x1
    20b4:	e8 77 d0 00 00       	call   f130 <_Z7tracebrPv>
    20b9:	31 ff                	xor    edi,edi
    20bb:	e8 70 d0 00 00       	call   f130 <_Z7tracebrPv>
    20c0:	48 8d 3d 29 d4 00 00 	lea    rdi,[rip+0xd429]        # f4f0 <sgx_ocfree>
    20c7:	e8 f4 cc 00 00       	call   edc0 <_Z10traceedgecPv>
    20cc:	e8 1f d4 00 00       	call   f4f0 <sgx_ocfree>
    20d1:	48 8b 7c 24 28       	mov    rdi,QWORD PTR [rsp+0x28]
    20d6:	e8 e5 cc 00 00       	call   edc0 <_Z10traceedgecPv>
    20db:	44 89 f8             	mov    eax,r15d
    20de:	5b                   	pop    rbx
    20df:	41 5c                	pop    r12
    20e1:	41 5e                	pop    r14
    20e3:	41 5f                	pop    r15
    20e5:	5d                   	pop    rbp
    20e6:	c3                   	ret    
    20e7:	66 0f 1f 84 00 00 00 	nop    WORD PTR [rax+rax*1+0x0]
    20ee:	00 00 

00000000000020f0 <ocall_monitorgatewayu>:
    20f0:	55                   	push   rbp
    20f1:	41 57                	push   r15
    20f3:	41 56                	push   r14
    20f5:	41 55                	push   r13
    20f7:	41 54                	push   r12
    20f9:	53                   	push   rbx
    20fa:	48 83 ec 18          	sub    rsp,0x18
    20fe:	49 89 ce             	mov    r14,rcx
    2101:	48 89 d5             	mov    rbp,rdx
    2104:	49 89 f4             	mov    r12,rsi
    2107:	48 89 fb             	mov    rbx,rdi
    210a:	48 85 ff             	test   rdi,rdi
    210d:	74 13                	je     2122 <ocall_monitorgatewayu+0x32>
    210f:	48 89 df             	mov    rdi,rbx
    2112:	4c 89 e6             	mov    rsi,r12
    2115:	e8 46 d2 00 00       	call   f360 <sgx_is_within_enclave>
    211a:	85 c0                	test   eax,eax
    211c:	0f 84 8d 00 00 00    	je     21af <ocall_monitorgatewayu+0xbf>
    2122:	48 85 ed             	test   rbp,rbp
    2125:	74 0f                	je     2136 <ocall_monitorgatewayu+0x46>
    2127:	48 89 ef             	mov    rdi,rbp
    212a:	4c 89 f6             	mov    rsi,r14
    212d:	e8 2e d2 00 00       	call   f360 <sgx_is_within_enclave>
    2132:	85 c0                	test   eax,eax
    2134:	74 79                	je     21af <ocall_monitorgatewayu+0xbf>
    2136:	48 85 db             	test   rbx,rbx
    2139:	4d 89 e5             	mov    r13,r12
    213c:	4c 0f 44 eb          	cmove  r13,rbx
    2140:	41 bf 02 00 00 00    	mov    r15d,0x2
    2146:	49 83 fd df          	cmp    r13,0xffffffffffffffdf
    214a:	0f 87 ea 00 00 00    	ja     223a <ocall_monitorgatewayu+0x14a>
    2150:	48 85 ed             	test   rbp,rbp
    2153:	4c 89 74 24 10       	mov    QWORD PTR [rsp+0x10],r14
    2158:	48 89 6c 24 08       	mov    QWORD PTR [rsp+0x8],rbp
    215d:	4c 0f 44 f5          	cmove  r14,rbp
    2161:	4b 8d 3c 2e          	lea    rdi,[r14+r13*1]
    2165:	48 83 c7 20          	add    rdi,0x20
    2169:	4c 39 f7             	cmp    rdi,r14
    216c:	0f 82 c8 00 00 00    	jb     223a <ocall_monitorgatewayu+0x14a>
    2172:	e8 89 d2 00 00       	call   f400 <sgx_ocalloc>
    2177:	48 85 c0             	test   rax,rax
    217a:	0f 84 a8 00 00 00    	je     2228 <ocall_monitorgatewayu+0x138>
    2180:	49 89 c7             	mov    r15,rax
    2183:	48 89 c5             	mov    rbp,rax
    2186:	48 83 c5 20          	add    rbp,0x20
    218a:	48 85 db             	test   rbx,rbx
    218d:	74 2b                	je     21ba <ocall_monitorgatewayu+0xca>
    218f:	4d 01 ee             	add    r14,r13
    2192:	49 89 2f             	mov    QWORD PTR [r15],rbp
    2195:	48 89 ef             	mov    rdi,rbp
    2198:	4c 89 f6             	mov    rsi,r14
    219b:	48 89 da             	mov    rdx,rbx
    219e:	4c 89 e1             	mov    rcx,r12
    21a1:	e8 7a 38 01 00       	call   15a20 <memcpy_s>
    21a6:	85 c0                	test   eax,eax
    21a8:	75 7e                	jne    2228 <ocall_monitorgatewayu+0x138>
    21aa:	4c 01 e5             	add    rbp,r12
    21ad:	eb 12                	jmp    21c1 <ocall_monitorgatewayu+0xd1>
    21af:	41 bf 02 00 00 00    	mov    r15d,0x2
    21b5:	e9 80 00 00 00       	jmp    223a <ocall_monitorgatewayu+0x14a>
    21ba:	49 c7 07 00 00 00 00 	mov    QWORD PTR [r15],0x0
    21c1:	4c 8b 74 24 10       	mov    r14,QWORD PTR [rsp+0x10]
    21c6:	48 8b 5c 24 08       	mov    rbx,QWORD PTR [rsp+0x8]
    21cb:	4d 89 67 08          	mov    QWORD PTR [r15+0x8],r12
    21cf:	48 85 db             	test   rbx,rbx
    21d2:	74 16                	je     21ea <ocall_monitorgatewayu+0xfa>
    21d4:	49 89 6f 10          	mov    QWORD PTR [r15+0x10],rbp
    21d8:	49 89 ec             	mov    r12,rbp
    21db:	48 89 ef             	mov    rdi,rbp
    21de:	31 f6                	xor    esi,esi
    21e0:	4c 89 f2             	mov    rdx,r14
    21e3:	e8 78 33 01 00       	call   15560 <memset>
    21e8:	eb 0b                	jmp    21f5 <ocall_monitorgatewayu+0x105>
    21ea:	49 c7 47 10 00 00 00 	mov    QWORD PTR [r15+0x10],0x0
    21f1:	00 
    21f2:	45 31 e4             	xor    r12d,r12d
    21f5:	4d 89 77 18          	mov    QWORD PTR [r15+0x18],r14
    21f9:	bf 02 00 00 00       	mov    edi,0x2
    21fe:	4c 89 fe             	mov    rsi,r15
    2201:	e8 3a e8 00 00       	call   10a40 <sgx_ocall>
    2206:	41 89 c7             	mov    r15d,eax
    2209:	48 85 db             	test   rbx,rbx
    220c:	74 27                	je     2235 <ocall_monitorgatewayu+0x145>
    220e:	45 85 ff             	test   r15d,r15d
    2211:	75 22                	jne    2235 <ocall_monitorgatewayu+0x145>
    2213:	48 89 df             	mov    rdi,rbx
    2216:	4c 89 f6             	mov    rsi,r14
    2219:	4c 89 e2             	mov    rdx,r12
    221c:	4c 89 f1             	mov    rcx,r14
    221f:	e8 fc 37 01 00       	call   15a20 <memcpy_s>
    2224:	85 c0                	test   eax,eax
    2226:	74 0d                	je     2235 <ocall_monitorgatewayu+0x145>
    2228:	e8 c3 d2 00 00       	call   f4f0 <sgx_ocfree>
    222d:	41 bf 01 00 00 00    	mov    r15d,0x1
    2233:	eb 05                	jmp    223a <ocall_monitorgatewayu+0x14a>
    2235:	e8 b6 d2 00 00       	call   f4f0 <sgx_ocfree>
    223a:	44 89 f8             	mov    eax,r15d
    223d:	48 83 c4 18          	add    rsp,0x18
    2241:	5b                   	pop    rbx
    2242:	41 5c                	pop    r12
    2244:	41 5d                	pop    r13
    2246:	41 5e                	pop    r14
    2248:	41 5f                	pop    r15
    224a:	5d                   	pop    rbp
    224b:	c3                   	ret    
    224c:	0f 1f 40 00          	nop    DWORD PTR [rax+0x0]

0000000000002250 <sgxsd_enclave_node_init>:
    2250:	41 56                	push   r14
    2252:	53                   	push   rbx
    2253:	50                   	push   rax
    2254:	48 89 fb             	mov    rbx,rdi
    2257:	48 8d 3d 72 36 01 00 	lea    rdi,[rip+0x13672]        # 158d0 <sgx_spin_lock>
    225e:	e8 5d cb 00 00       	call   edc0 <_Z10traceedgecPv>
    2263:	4c 8d 35 8a 2b 24 00 	lea    r14,[rip+0x242b8a]        # 244df4 <g_sgxsd_enclave_node_init_lock>
    226a:	4c 89 f7             	mov    rdi,r14
    226d:	e8 5e 36 01 00       	call   158d0 <sgx_spin_lock>
    2272:	0f ae e8             	lfence 
    2275:	48 8d 3d 44 00 00 00 	lea    rdi,[rip+0x44]        # 22c0 <sgxsd_enclave_node_init_locked>
    227c:	e8 3f cb 00 00       	call   edc0 <_Z10traceedgecPv>
    2281:	48 89 df             	mov    rdi,rbx
    2284:	e8 37 00 00 00       	call   22c0 <sgxsd_enclave_node_init_locked>
    2289:	89 c3                	mov    ebx,eax
    228b:	48 8d 3d 9e 36 01 00 	lea    rdi,[rip+0x1369e]        # 15930 <sgx_spin_unlock>
    2292:	e8 29 cb 00 00       	call   edc0 <_Z10traceedgecPv>
    2297:	4c 89 f7             	mov    rdi,r14
    229a:	e8 91 36 01 00       	call   15930 <sgx_spin_unlock>
    229f:	48 8b 7c 24 18       	mov    rdi,QWORD PTR [rsp+0x18]
    22a4:	e8 17 cb 00 00       	call   edc0 <_Z10traceedgecPv>
    22a9:	89 d8                	mov    eax,ebx
    22ab:	48 83 c4 08          	add    rsp,0x8
    22af:	5b                   	pop    rbx
    22b0:	41 5e                	pop    r14
    22b2:	c3                   	ret    
    22b3:	66 2e 0f 1f 84 00 00 	nop    WORD PTR cs:[rax+rax*1+0x0]
    22ba:	00 00 00 
    22bd:	0f 1f 00             	nop    DWORD PTR [rax]

00000000000022c0 <sgxsd_enclave_node_init_locked>:
    22c0:	55                   	push   rbp
    22c1:	53                   	push   rbx
    22c2:	50                   	push   rax
    22c3:	80 3d d6 09 24 00 00 	cmp    BYTE PTR [rip+0x2409d6],0x0        # 242ca0 <g_sgxsd_enclave_node_initialized>
    22ca:	74 14                	je     22e0 <sgxsd_enclave_node_init_locked+0x20>
    22cc:	bf 01 00 00 00       	mov    edi,0x1
    22d1:	e8 5a ce 00 00       	call   f130 <_Z7tracebrPv>
    22d6:	bd 05 00 00 00       	mov    ebp,0x5
    22db:	e9 82 00 00 00       	jmp    2362 <sgxsd_enclave_node_init_locked+0xa2>
    22e0:	48 89 fb             	mov    rbx,rdi
    22e3:	31 ff                	xor    edi,edi
    22e5:	e8 46 ce 00 00       	call   f130 <_Z7tracebrPv>
    22ea:	48 8d 3d bf d0 00 00 	lea    rdi,[rip+0xd0bf]        # f3b0 <sgx_is_outside_enclave>
    22f1:	e8 ca ca 00 00       	call   edc0 <_Z10traceedgecPv>
    22f6:	31 ff                	xor    edi,edi
    22f8:	31 f6                	xor    esi,esi
    22fa:	e8 b1 d0 00 00       	call   f3b0 <sgx_is_outside_enclave>
    22ff:	83 f8 01             	cmp    eax,0x1
    2302:	75 4f                	jne    2353 <sgxsd_enclave_node_init_locked+0x93>
    2304:	31 ff                	xor    edi,edi
    2306:	e8 25 ce 00 00       	call   f130 <_Z7tracebrPv>
    230b:	48 8d 3d 9e d0 00 00 	lea    rdi,[rip+0xd09e]        # f3b0 <sgx_is_outside_enclave>
    2312:	e8 a9 ca 00 00       	call   edc0 <_Z10traceedgecPv>
    2317:	48 c7 c7 ff ff ff ff 	mov    rdi,0xffffffffffffffff
    231e:	31 f6                	xor    esi,esi
    2320:	e8 8b d0 00 00       	call   f3b0 <sgx_is_outside_enclave>
    2325:	83 f8 01             	cmp    eax,0x1
    2328:	75 29                	jne    2353 <sgxsd_enclave_node_init_locked+0x93>
    232a:	31 ff                	xor    edi,edi
    232c:	e8 ff cd 00 00       	call   f130 <_Z7tracebrPv>
    2331:	48 85 db             	test   rbx,rbx
    2334:	74 0c                	je     2342 <sgxsd_enclave_node_init_locked+0x82>
    2336:	31 ff                	xor    edi,edi
    2338:	e8 f3 cd 00 00       	call   f130 <_Z7tracebrPv>
    233d:	80 3b 40             	cmp    BYTE PTR [rbx],0x40
    2340:	72 33                	jb     2375 <sgxsd_enclave_node_init_locked+0xb5>
    2342:	bf 01 00 00 00       	mov    edi,0x1
    2347:	e8 e4 cd 00 00       	call   f130 <_Z7tracebrPv>
    234c:	bd 02 00 00 00       	mov    ebp,0x2
    2351:	eb 0f                	jmp    2362 <sgxsd_enclave_node_init_locked+0xa2>
    2353:	bd 01 00 00 00       	mov    ebp,0x1
    2358:	bf 01 00 00 00       	mov    edi,0x1
    235d:	e8 ce cd 00 00       	call   f130 <_Z7tracebrPv>
    2362:	48 8b 7c 24 18       	mov    rdi,QWORD PTR [rsp+0x18]
    2367:	e8 54 ca 00 00       	call   edc0 <_Z10traceedgecPv>
    236c:	89 e8                	mov    eax,ebp
    236e:	48 83 c4 08          	add    rsp,0x8
    2372:	5b                   	pop    rbx
    2373:	5d                   	pop    rbp
    2374:	c3                   	ret    
    2375:	31 ff                	xor    edi,edi
    2377:	e8 b4 cd 00 00       	call   f130 <_Z7tracebrPv>
    237c:	48 8d 3d dd 00 00 00 	lea    rdi,[rip+0xdd]        # 2460 <sgxsd_enclave_generate_curve25519_keypair>
    2383:	e8 38 ca 00 00       	call   edc0 <_Z10traceedgecPv>
    2388:	48 8d 3d 81 19 24 00 	lea    rdi,[rip+0x241981]        # 243d10 <g_sgxsd_enclave_dh_keypair>
    238f:	e8 cc 00 00 00       	call   2460 <sgxsd_enclave_generate_curve25519_keypair>
    2394:	85 c0                	test   eax,eax
    2396:	75 4b                	jne    23e3 <sgxsd_enclave_node_init_locked+0x123>
    2398:	31 ff                	xor    edi,edi
    239a:	e8 91 cd 00 00       	call   f130 <_Z7tracebrPv>
    239f:	48 8d 3d ba 00 00 00 	lea    rdi,[rip+0xba]        # 2460 <sgxsd_enclave_generate_curve25519_keypair>
    23a6:	e8 15 ca 00 00       	call   edc0 <_Z10traceedgecPv>
    23ab:	48 8d 3d c6 19 24 00 	lea    rdi,[rip+0x2419c6]        # 243d78 <g_sgxsd_enclave_new_dh_keypair>
    23b2:	e8 a9 00 00 00       	call   2460 <sgxsd_enclave_generate_curve25519_keypair>
    23b7:	85 c0                	test   eax,eax
    23b9:	75 28                	jne    23e3 <sgxsd_enclave_node_init_locked+0x123>
    23bb:	31 ff                	xor    edi,edi
    23bd:	e8 6e cd 00 00       	call   f130 <_Z7tracebrPv>
    23c2:	48 8d 3d 77 d1 00 00 	lea    rdi,[rip+0xd177]        # f540 <sgx_read_rand>
    23c9:	e8 f2 c9 00 00       	call   edc0 <_Z10traceedgecPv>
    23ce:	48 8d 3d 83 19 24 00 	lea    rdi,[rip+0x241983]        # 243d58 <g_sgxsd_enclave_pending_request_id_key>
    23d5:	be 20 00 00 00       	mov    esi,0x20
    23da:	e8 61 d1 00 00       	call   f540 <sgx_read_rand>
    23df:	85 c0                	test   eax,eax
    23e1:	74 07                	je     23ea <sgxsd_enclave_node_init_locked+0x12a>
    23e3:	89 c5                	mov    ebp,eax
    23e5:	e9 6e ff ff ff       	jmp    2358 <sgxsd_enclave_node_init_locked+0x98>
    23ea:	31 ed                	xor    ebp,ebp
    23ec:	31 ff                	xor    edi,edi
    23ee:	e8 3d cd 00 00       	call   f130 <_Z7tracebrPv>
    23f3:	8a 03                	mov    al,BYTE PTR [rbx]
    23f5:	88 05 e9 19 24 00    	mov    BYTE PTR [rip+0x2419e9],al        # 243de4 <g_sgxsd_enclave_pending_requests_table_order>
    23fb:	b9 01 00 00 00       	mov    ecx,0x1
    2400:	c4 e2 f9 f7 d9       	shlx   rbx,rcx,rax
    2405:	48 8d 3d 94 25 01 00 	lea    rdi,[rip+0x12594]        # 149a0 <calloc>
    240c:	e8 af c9 00 00       	call   edc0 <_Z10traceedgecPv>
    2411:	be 28 00 00 00       	mov    esi,0x28
    2416:	48 89 df             	mov    rdi,rbx
    2419:	e8 82 25 01 00       	call   149a0 <calloc>
    241e:	48 89 05 2b 19 24 00 	mov    QWORD PTR [rip+0x24192b],rax        # 243d50 <g_sgxsd_enclave_pending_requests>
    2425:	48 85 c0             	test   rax,rax
    2428:	74 13                	je     243d <sgxsd_enclave_node_init_locked+0x17d>
    242a:	31 ff                	xor    edi,edi
    242c:	e8 ff cc 00 00       	call   f130 <_Z7tracebrPv>
    2431:	c6 05 68 08 24 00 01 	mov    BYTE PTR [rip+0x240868],0x1        # 242ca0 <g_sgxsd_enclave_node_initialized>
    2438:	e9 25 ff ff ff       	jmp    2362 <sgxsd_enclave_node_init_locked+0xa2>
    243d:	bf 01 00 00 00       	mov    edi,0x1
    2442:	e8 e9 cc 00 00       	call   f130 <_Z7tracebrPv>
    2447:	bd 03 00 00 00       	mov    ebp,0x3
    244c:	e9 11 ff ff ff       	jmp    2362 <sgxsd_enclave_node_init_locked+0xa2>
    2451:	66 2e 0f 1f 84 00 00 	nop    WORD PTR cs:[rax+rax*1+0x0]
    2458:	00 00 00 
    245b:	0f 1f 44 00 00       	nop    DWORD PTR [rax+rax*1+0x0]

0000000000002460 <sgxsd_enclave_generate_curve25519_keypair>:
    2460:	55                   	push   rbp
    2461:	41 56                	push   r14
    2463:	53                   	push   rbx
    2464:	48 89 fb             	mov    rbx,rdi
    2467:	48 8d 3d e2 06 00 00 	lea    rdi,[rip+0x6e2]        # 2b50 <sgxsd_enclave_generate_curve25519_privkey>
    246e:	e8 4d c9 00 00       	call   edc0 <_Z10traceedgecPv>
    2473:	48 89 df             	mov    rdi,rbx
    2476:	e8 d5 06 00 00       	call   2b50 <sgxsd_enclave_generate_curve25519_privkey>
    247b:	89 c5                	mov    ebp,eax
    247d:	85 c0                	test   eax,eax
    247f:	74 0c                	je     248d <sgxsd_enclave_generate_curve25519_keypair+0x2d>
    2481:	bf 01 00 00 00       	mov    edi,0x1
    2486:	e8 a5 cc 00 00       	call   f130 <_Z7tracebrPv>
    248b:	eb 36                	jmp    24c3 <sgxsd_enclave_generate_curve25519_keypair+0x63>
    248d:	31 ff                	xor    edi,edi
    248f:	e8 9c cc 00 00       	call   f130 <_Z7tracebrPv>
    2494:	80 23 f8             	and    BYTE PTR [rbx],0xf8
    2497:	8a 43 1f             	mov    al,BYTE PTR [rbx+0x1f]
    249a:	24 3f                	and    al,0x3f
    249c:	0c 40                	or     al,0x40
    249e:	88 43 1f             	mov    BYTE PTR [rbx+0x1f],al
    24a1:	4c 8d 73 20          	lea    r14,[rbx+0x20]
    24a5:	48 8d 3d 14 44 00 00 	lea    rdi,[rip+0x4414]        # 68c0 <curve25519_donna>
    24ac:	e8 0f c9 00 00       	call   edc0 <_Z10traceedgecPv>
    24b1:	48 8d 15 28 7f 03 00 	lea    rdx,[rip+0x37f28]        # 3a3e0 <sgxsd_enclave_generate_curve25519_keypair.BASEPOINT>
    24b8:	4c 89 f7             	mov    rdi,r14
    24bb:	48 89 de             	mov    rsi,rbx
    24be:	e8 fd 43 00 00       	call   68c0 <curve25519_donna>
    24c3:	48 8b 7c 24 18       	mov    rdi,QWORD PTR [rsp+0x18]
    24c8:	e8 f3 c8 00 00       	call   edc0 <_Z10traceedgecPv>
    24cd:	89 e8                	mov    eax,ebp
    24cf:	5b                   	pop    rbx
    24d0:	41 5e                	pop    r14
    24d2:	5d                   	pop    rbp
    24d3:	c3                   	ret    
    24d4:	66 2e 0f 1f 84 00 00 	nop    WORD PTR cs:[rax+rax*1+0x0]
    24db:	00 00 00 
    24de:	66 90                	xchg   ax,ax

00000000000024e0 <sgxsd_aes_gcm_run>:
    24e0:	55                   	push   rbp
    24e1:	41 57                	push   r15
    24e3:	41 56                	push   r14
    24e5:	41 55                	push   r13
    24e7:	41 54                	push   r12
    24e9:	53                   	push   rbx
    24ea:	48 81 ec 78 01 00 00 	sub    rsp,0x178
    24f1:	64 48 8b 04 25 28 00 	mov    rax,QWORD PTR fs:0x28
    24f8:	00 00 
    24fa:	48 89 84 24 70 01 00 	mov    QWORD PTR [rsp+0x170],rax
    2501:	00 
    2502:	48 85 f6             	test   rsi,rsi
    2505:	0f 84 0c 02 00 00    	je     2717 <sgxsd_aes_gcm_run+0x237>
    250b:	4c 89 cd             	mov    rbp,r9
    250e:	4d 89 c6             	mov    r14,r8
    2511:	41 89 cd             	mov    r13d,ecx
    2514:	48 89 d3             	mov    rbx,rdx
    2517:	49 89 f4             	mov    r12,rsi
    251a:	41 89 ff             	mov    r15d,edi
    251d:	31 ff                	xor    edi,edi
    251f:	e8 0c cc 00 00       	call   f130 <_Z7tracebrPv>
    2524:	48 85 db             	test   rbx,rbx
    2527:	74 0c                	je     2535 <sgxsd_aes_gcm_run+0x55>
    2529:	31 ff                	xor    edi,edi
    252b:	e8 00 cc 00 00       	call   f130 <_Z7tracebrPv>
    2530:	4d 85 f6             	test   r14,r14
    2533:	75 13                	jne    2548 <sgxsd_aes_gcm_run+0x68>
    2535:	bf 01 00 00 00       	mov    edi,0x1
    253a:	e8 f1 cb 00 00       	call   f130 <_Z7tracebrPv>
    253f:	45 85 ed             	test   r13d,r13d
    2542:	0f 85 cf 01 00 00    	jne    2717 <sgxsd_aes_gcm_run+0x237>
    2548:	31 ff                	xor    edi,edi
    254a:	e8 e1 cb 00 00       	call   f130 <_Z7tracebrPv>
    254f:	48 85 ed             	test   rbp,rbp
    2552:	0f 84 bf 01 00 00    	je     2717 <sgxsd_aes_gcm_run+0x237>
    2558:	31 ff                	xor    edi,edi
    255a:	e8 d1 cb 00 00       	call   f130 <_Z7tracebrPv>
    255f:	48 83 bc 24 b0 01 00 	cmp    QWORD PTR [rsp+0x1b0],0x0
    2566:	00 00 
    2568:	0f 84 91 01 00 00    	je     26ff <sgxsd_aes_gcm_run+0x21f>
    256e:	31 ff                	xor    edi,edi
    2570:	e8 bb cb 00 00       	call   f130 <_Z7tracebrPv>
    2575:	48 83 bc 24 c0 01 00 	cmp    QWORD PTR [rsp+0x1c0],0x0
    257c:	00 00 
    257e:	0f 84 93 01 00 00    	je     2717 <sgxsd_aes_gcm_run+0x237>
    2584:	31 ff                	xor    edi,edi
    2586:	e8 a5 cb 00 00       	call   f130 <_Z7tracebrPv>
    258b:	48 8d 3d fe 32 00 00 	lea    rdi,[rip+0x32fe]        # 5890 <br_aes_x86ni_ctr_init>
    2592:	e8 29 c8 00 00       	call   edc0 <_Z10traceedgecPv>
    2597:	48 8d 7c 24 70       	lea    rdi,[rsp+0x70]
    259c:	ba 20 00 00 00       	mov    edx,0x20
    25a1:	4c 89 e6             	mov    rsi,r12
    25a4:	e8 e7 32 00 00       	call   5890 <br_aes_x86ni_ctr_init>
    25a9:	48 8d 3d 90 38 00 00 	lea    rdi,[rip+0x3890]        # 5e40 <br_gcm_init>
    25b0:	e8 0b c8 00 00       	call   edc0 <_Z10traceedgecPv>
    25b5:	48 8d 15 74 24 00 00 	lea    rdx,[rip+0x2474]        # 4a30 <br_ghash_pclmul>
    25bc:	49 89 e4             	mov    r12,rsp
    25bf:	4c 89 e7             	mov    rdi,r12
    25c2:	48 8d 74 24 70       	lea    rsi,[rsp+0x70]
    25c7:	e8 74 38 00 00       	call   5e40 <br_gcm_init>
    25cc:	48 8d 3d fd 38 00 00 	lea    rdi,[rip+0x38fd]        # 5ed0 <br_gcm_reset>
    25d3:	e8 e8 c7 00 00       	call   edc0 <_Z10traceedgecPv>
    25d8:	ba 0c 00 00 00       	mov    edx,0xc
    25dd:	4c 89 e7             	mov    rdi,r12
    25e0:	48 89 ee             	mov    rsi,rbp
    25e3:	e8 e8 38 00 00       	call   5ed0 <br_gcm_reset>
    25e8:	8b ac 24 b8 01 00 00 	mov    ebp,DWORD PTR [rsp+0x1b8]
    25ef:	85 ed                	test   ebp,ebp
    25f1:	74 2b                	je     261e <sgxsd_aes_gcm_run+0x13e>
    25f3:	bf 01 00 00 00       	mov    edi,0x1
    25f8:	e8 33 cb 00 00       	call   f130 <_Z7tracebrPv>
    25fd:	89 ed                	mov    ebp,ebp
    25ff:	48 8d 3d 2a 3a 00 00 	lea    rdi,[rip+0x3a2a]        # 6030 <br_gcm_aad_inject>
    2606:	e8 b5 c7 00 00       	call   edc0 <_Z10traceedgecPv>
    260b:	48 89 e7             	mov    rdi,rsp
    260e:	48 8b b4 24 b0 01 00 	mov    rsi,QWORD PTR [rsp+0x1b0]
    2615:	00 
    2616:	48 89 ea             	mov    rdx,rbp
    2619:	e8 12 3a 00 00       	call   6030 <br_gcm_aad_inject>
    261e:	31 ff                	xor    edi,edi
    2620:	e8 0b cb 00 00       	call   f130 <_Z7tracebrPv>
    2625:	48 8d 3d 34 3b 00 00 	lea    rdi,[rip+0x3b34]        # 6160 <br_gcm_flip>
    262c:	e8 8f c7 00 00       	call   edc0 <_Z10traceedgecPv>
    2631:	48 89 e7             	mov    rdi,rsp
    2634:	e8 27 3b 00 00       	call   6160 <br_gcm_flip>
    2639:	45 85 ed             	test   r13d,r13d
    263c:	74 3b                	je     2679 <sgxsd_aes_gcm_run+0x199>
    263e:	bf 01 00 00 00       	mov    edi,0x1
    2643:	e8 e8 ca 00 00       	call   f130 <_Z7tracebrPv>
    2648:	44 89 ed             	mov    ebp,r13d
    264b:	4c 89 f7             	mov    rdi,r14
    264e:	48 89 de             	mov    rsi,rbx
    2651:	48 89 ea             	mov    rdx,rbp
    2654:	e8 07 2d 01 00       	call   15360 <memmove>
    2659:	41 0f b6 df          	movzx  ebx,r15b
    265d:	48 8d 3d 6c 3b 00 00 	lea    rdi,[rip+0x3b6c]        # 61d0 <br_gcm_run>
    2664:	e8 57 c7 00 00       	call   edc0 <_Z10traceedgecPv>
    2669:	48 89 e7             	mov    rdi,rsp
    266c:	89 de                	mov    esi,ebx
    266e:	4c 89 f2             	mov    rdx,r14
    2671:	48 89 e9             	mov    rcx,rbp
    2674:	e8 57 3b 00 00       	call   61d0 <br_gcm_run>
    2679:	31 db                	xor    ebx,ebx
    267b:	31 ff                	xor    edi,edi
    267d:	e8 ae ca 00 00       	call   f130 <_Z7tracebrPv>
    2682:	45 84 ff             	test   r15b,r15b
    2685:	0f 84 d3 00 00 00    	je     275e <sgxsd_aes_gcm_run+0x27e>
    268b:	bf 01 00 00 00       	mov    edi,0x1
    2690:	e8 9b ca 00 00       	call   f130 <_Z7tracebrPv>
    2695:	48 8d 3d 74 3e 00 00 	lea    rdi,[rip+0x3e74]        # 6510 <br_gcm_get_tag>
    269c:	e8 1f c7 00 00       	call   edc0 <_Z10traceedgecPv>
    26a1:	49 89 e6             	mov    r14,rsp
    26a4:	4c 89 f7             	mov    rdi,r14
    26a7:	48 8b b4 24 c0 01 00 	mov    rsi,QWORD PTR [rsp+0x1c0]
    26ae:	00 
    26af:	e8 5c 3e 00 00       	call   6510 <br_gcm_get_tag>
    26b4:	48 8d 2d b5 2e 01 00 	lea    rbp,[rip+0x12eb5]        # 15570 <memset_s>
    26bb:	48 89 ef             	mov    rdi,rbp
    26be:	e8 fd c6 00 00       	call   edc0 <_Z10traceedgecPv>
    26c3:	48 8d 7c 24 70       	lea    rdi,[rsp+0x70]
    26c8:	31 db                	xor    ebx,ebx
    26ca:	be 00 01 00 00       	mov    esi,0x100
    26cf:	b9 00 01 00 00       	mov    ecx,0x100
    26d4:	31 d2                	xor    edx,edx
    26d6:	e8 95 2e 01 00       	call   15570 <memset_s>
    26db:	48 89 ef             	mov    rdi,rbp
    26de:	e8 dd c6 00 00       	call   edc0 <_Z10traceedgecPv>
    26e3:	be 70 00 00 00       	mov    esi,0x70
    26e8:	b9 70 00 00 00       	mov    ecx,0x70
    26ed:	4c 89 f7             	mov    rdi,r14
    26f0:	31 d2                	xor    edx,edx
    26f2:	e8 79 2e 01 00       	call   15570 <memset_s>
    26f7:	40 b5 01             	mov    bpl,0x1
    26fa:	e9 0f 01 00 00       	jmp    280e <sgxsd_aes_gcm_run+0x32e>
    26ff:	bf 01 00 00 00       	mov    edi,0x1
    2704:	e8 27 ca 00 00       	call   f130 <_Z7tracebrPv>
    2709:	83 bc 24 b8 01 00 00 	cmp    DWORD PTR [rsp+0x1b8],0x0
    2710:	00 
    2711:	0f 84 57 fe ff ff    	je     256e <sgxsd_aes_gcm_run+0x8e>
    2717:	bf 01 00 00 00       	mov    edi,0x1
    271c:	e8 0f ca 00 00       	call   f130 <_Z7tracebrPv>
    2721:	bb 02 00 00 00       	mov    ebx,0x2
    2726:	48 8b bc 24 a8 01 00 	mov    rdi,QWORD PTR [rsp+0x1a8]
    272d:	00 
    272e:	e8 8d c6 00 00       	call   edc0 <_Z10traceedgecPv>
    2733:	64 48 8b 04 25 28 00 	mov    rax,QWORD PTR fs:0x28
    273a:	00 00 
    273c:	48 3b 84 24 70 01 00 	cmp    rax,QWORD PTR [rsp+0x170]
    2743:	00 
    2744:	0f 85 d2 00 00 00    	jne    281c <sgxsd_aes_gcm_run+0x33c>
    274a:	89 d8                	mov    eax,ebx
    274c:	48 81 c4 78 01 00 00 	add    rsp,0x178
    2753:	5b                   	pop    rbx
    2754:	41 5c                	pop    r12
    2756:	41 5d                	pop    r13
    2758:	41 5e                	pop    r14
    275a:	41 5f                	pop    r15
    275c:	5d                   	pop    rbp
    275d:	c3                   	ret    
    275e:	31 ff                	xor    edi,edi
    2760:	e8 cb c9 00 00       	call   f130 <_Z7tracebrPv>
    2765:	48 8d 3d 54 3f 00 00 	lea    rdi,[rip+0x3f54]        # 66c0 <br_gcm_check_tag>
    276c:	e8 4f c6 00 00       	call   edc0 <_Z10traceedgecPv>
    2771:	49 89 e7             	mov    r15,rsp
    2774:	4c 89 ff             	mov    rdi,r15
    2777:	48 8b b4 24 c0 01 00 	mov    rsi,QWORD PTR [rsp+0x1c0]
    277e:	00 
    277f:	e8 3c 3f 00 00       	call   66c0 <br_gcm_check_tag>
    2784:	41 89 c4             	mov    r12d,eax
    2787:	48 8d 2d e2 2d 01 00 	lea    rbp,[rip+0x12de2]        # 15570 <memset_s>
    278e:	48 89 ef             	mov    rdi,rbp
    2791:	e8 2a c6 00 00       	call   edc0 <_Z10traceedgecPv>
    2796:	48 8d 7c 24 70       	lea    rdi,[rsp+0x70]
    279b:	be 00 01 00 00       	mov    esi,0x100
    27a0:	b9 00 01 00 00       	mov    ecx,0x100
    27a5:	31 d2                	xor    edx,edx
    27a7:	e8 c4 2d 01 00       	call   15570 <memset_s>
    27ac:	48 89 ef             	mov    rdi,rbp
    27af:	e8 0c c6 00 00       	call   edc0 <_Z10traceedgecPv>
    27b4:	be 70 00 00 00       	mov    esi,0x70
    27b9:	b9 70 00 00 00       	mov    ecx,0x70
    27be:	4c 89 ff             	mov    rdi,r15
    27c1:	31 d2                	xor    edx,edx
    27c3:	e8 a8 2d 01 00       	call   15570 <memset_s>
    27c8:	40 b5 01             	mov    bpl,0x1
    27cb:	45 85 e4             	test   r12d,r12d
    27ce:	75 3e                	jne    280e <sgxsd_aes_gcm_run+0x32e>
    27d0:	31 ed                	xor    ebp,ebp
    27d2:	31 ff                	xor    edi,edi
    27d4:	e8 57 c9 00 00       	call   f130 <_Z7tracebrPv>
    27d9:	bb 01 30 00 00       	mov    ebx,0x3001
    27de:	4d 85 f6             	test   r14,r14
    27e1:	74 2b                	je     280e <sgxsd_aes_gcm_run+0x32e>
    27e3:	bf 01 00 00 00       	mov    edi,0x1
    27e8:	e8 43 c9 00 00       	call   f130 <_Z7tracebrPv>
    27ed:	45 89 ef             	mov    r15d,r13d
    27f0:	48 8d 3d 79 2d 01 00 	lea    rdi,[rip+0x12d79]        # 15570 <memset_s>
    27f7:	e8 c4 c5 00 00       	call   edc0 <_Z10traceedgecPv>
    27fc:	31 ed                	xor    ebp,ebp
    27fe:	4c 89 f7             	mov    rdi,r14
    2801:	4c 89 fe             	mov    rsi,r15
    2804:	31 d2                	xor    edx,edx
    2806:	4c 89 f9             	mov    rcx,r15
    2809:	e8 62 2d 01 00       	call   15570 <memset_s>
    280e:	40 0f b6 fd          	movzx  edi,bpl
    2812:	e8 19 c9 00 00       	call   f130 <_Z7tracebrPv>
    2817:	e9 0a ff ff ff       	jmp    2726 <sgxsd_aes_gcm_run+0x246>
    281c:	e8 bf f5 00 00       	call   11de0 <__stack_chk_fail>
    2821:	66 2e 0f 1f 84 00 00 	nop    WORD PTR cs:[rax+rax*1+0x0]
    2828:	00 00 00 
    282b:	0f 1f 44 00 00       	nop    DWORD PTR [rax+rax*1+0x0]

0000000000002830 <sgxsd_enclave_sha256>:
    2830:	55                   	push   rbp
    2831:	41 57                	push   r15
    2833:	41 56                	push   r14
    2835:	41 55                	push   r13
    2837:	41 54                	push   r12
    2839:	53                   	push   rbx
    283a:	48 81 ec 88 00 00 00 	sub    rsp,0x88
    2841:	49 89 d5             	mov    r13,rdx
    2844:	89 f5                	mov    ebp,esi
    2846:	48 89 7c 24 08       	mov    QWORD PTR [rsp+0x8],rdi
    284b:	64 48 8b 04 25 28 00 	mov    rax,QWORD PTR fs:0x28
    2852:	00 00 
    2854:	48 89 84 24 80 00 00 	mov    QWORD PTR [rsp+0x80],rax
    285b:	00 
    285c:	48 8d 3d fd 20 00 00 	lea    rdi,[rip+0x20fd]        # 4960 <br_sha256_init>
    2863:	e8 58 c5 00 00       	call   edc0 <_Z10traceedgecPv>
    2868:	48 8d 7c 24 10       	lea    rdi,[rsp+0x10]
    286d:	e8 ee 20 00 00       	call   4960 <br_sha256_init>
    2872:	85 ed                	test   ebp,ebp
    2874:	74 51                	je     28c7 <sgxsd_enclave_sha256+0x97>
    2876:	41 89 ee             	mov    r14d,ebp
    2879:	49 c1 e6 04          	shl    r14,0x4
    287d:	45 31 ff             	xor    r15d,r15d
    2880:	4c 8d 64 24 10       	lea    r12,[rsp+0x10]
    2885:	66 2e 0f 1f 84 00 00 	nop    WORD PTR cs:[rax+rax*1+0x0]
    288c:	00 00 00 
    288f:	90                   	nop
    2890:	bf 01 00 00 00       	mov    edi,0x1
    2895:	e8 96 c8 00 00       	call   f130 <_Z7tracebrPv>
    289a:	4b 8b 6c 3d 00       	mov    rbp,QWORD PTR [r13+r15*1+0x0]
    289f:	43 8b 5c 3d 08       	mov    ebx,DWORD PTR [r13+r15*1+0x8]
    28a4:	48 8d 3d 45 1d 00 00 	lea    rdi,[rip+0x1d45]        # 45f0 <br_sha224_update>
    28ab:	e8 10 c5 00 00       	call   edc0 <_Z10traceedgecPv>
    28b0:	4c 89 e7             	mov    rdi,r12
    28b3:	48 89 ee             	mov    rsi,rbp
    28b6:	48 89 da             	mov    rdx,rbx
    28b9:	e8 32 1d 00 00       	call   45f0 <br_sha224_update>
    28be:	49 83 c7 10          	add    r15,0x10
    28c2:	4d 39 fe             	cmp    r14,r15
    28c5:	75 c9                	jne    2890 <sgxsd_enclave_sha256+0x60>
    28c7:	31 ff                	xor    edi,edi
    28c9:	e8 62 c8 00 00       	call   f130 <_Z7tracebrPv>
    28ce:	48 8d 3d bb 20 00 00 	lea    rdi,[rip+0x20bb]        # 4990 <br_sha256_out>
    28d5:	e8 e6 c4 00 00       	call   edc0 <_Z10traceedgecPv>
    28da:	48 8d 5c 24 10       	lea    rbx,[rsp+0x10]
    28df:	48 89 df             	mov    rdi,rbx
    28e2:	48 8b 74 24 08       	mov    rsi,QWORD PTR [rsp+0x8]
    28e7:	e8 a4 20 00 00       	call   4990 <br_sha256_out>
    28ec:	48 8d 3d 7d 2c 01 00 	lea    rdi,[rip+0x12c7d]        # 15570 <memset_s>
    28f3:	e8 c8 c4 00 00       	call   edc0 <_Z10traceedgecPv>
    28f8:	be 70 00 00 00       	mov    esi,0x70
    28fd:	b9 70 00 00 00       	mov    ecx,0x70
    2902:	48 89 df             	mov    rdi,rbx
    2905:	31 d2                	xor    edx,edx
    2907:	e8 64 2c 01 00       	call   15570 <memset_s>
    290c:	48 8b bc 24 b8 00 00 	mov    rdi,QWORD PTR [rsp+0xb8]
    2913:	00 
    2914:	e8 a7 c4 00 00       	call   edc0 <_Z10traceedgecPv>
    2919:	64 48 8b 04 25 28 00 	mov    rax,QWORD PTR fs:0x28
    2920:	00 00 
    2922:	48 3b 84 24 80 00 00 	cmp    rax,QWORD PTR [rsp+0x80]
    2929:	00 
    292a:	75 12                	jne    293e <sgxsd_enclave_sha256+0x10e>
    292c:	48 81 c4 88 00 00 00 	add    rsp,0x88
    2933:	5b                   	pop    rbx
    2934:	41 5c                	pop    r12
    2936:	41 5d                	pop    r13
    2938:	41 5e                	pop    r14
    293a:	41 5f                	pop    r15
    293c:	5d                   	pop    rbp
    293d:	c3                   	ret    
    293e:	e8 9d f4 00 00       	call   11de0 <__stack_chk_fail>
    2943:	66 2e 0f 1f 84 00 00 	nop    WORD PTR cs:[rax+rax*1+0x0]
    294a:	00 00 00 
    294d:	0f 1f 00             	nop    DWORD PTR [rax]

0000000000002950 <sgxsd_enclave_hmac_sha256>:
    2950:	55                   	push   rbp
    2951:	41 57                	push   r15
    2953:	41 56                	push   r14
    2955:	41 55                	push   r13
    2957:	41 54                	push   r12
    2959:	53                   	push   rbx
    295a:	48 81 ec c8 00 00 00 	sub    rsp,0xc8
    2961:	48 89 d3             	mov    rbx,rdx
    2964:	41 89 f5             	mov    r13d,esi
    2967:	49 89 fc             	mov    r12,rdi
    296a:	64 48 8b 04 25 28 00 	mov    rax,QWORD PTR fs:0x28
    2971:	00 00 
    2973:	48 89 84 24 c0 00 00 	mov    QWORD PTR [rsp+0xc0],rax
    297a:	00 
    297b:	48 8d 2d ee 2b 01 00 	lea    rbp,[rip+0x12bee]        # 15570 <memset_s>
    2982:	48 89 ef             	mov    rdi,rbp
    2985:	e8 36 c4 00 00       	call   edc0 <_Z10traceedgecPv>
    298a:	4c 8d bc 24 80 00 00 	lea    r15,[rsp+0x80]
    2991:	00 
    2992:	be 40 00 00 00       	mov    esi,0x40
    2997:	b9 40 00 00 00       	mov    ecx,0x40
    299c:	4c 89 ff             	mov    rdi,r15
    299f:	ba 36 00 00 00       	mov    edx,0x36
    29a4:	e8 c7 2b 01 00       	call   15570 <memset_s>
    29a9:	48 89 ef             	mov    rdi,rbp
    29ac:	e8 0f c4 00 00       	call   edc0 <_Z10traceedgecPv>
    29b1:	48 8d 7c 24 40       	lea    rdi,[rsp+0x40]
    29b6:	be 40 00 00 00       	mov    esi,0x40
    29bb:	b9 40 00 00 00       	mov    ecx,0x40
    29c0:	ba 5c 00 00 00       	mov    edx,0x5c
    29c5:	e8 a6 2b 01 00       	call   15570 <memset_s>
    29ca:	83 7b 08 41          	cmp    DWORD PTR [rbx+0x8],0x41
    29ce:	72 35                	jb     2a05 <sgxsd_enclave_hmac_sha256+0xb5>
    29d0:	bf 01 00 00 00       	mov    edi,0x1
    29d5:	e8 56 c7 00 00       	call   f130 <_Z7tracebrPv>
    29da:	48 8d 3d 4f fe ff ff 	lea    rdi,[rip+0xfffffffffffffe4f]        # 2830 <sgxsd_enclave_sha256>
    29e1:	e8 da c3 00 00       	call   edc0 <_Z10traceedgecPv>
    29e6:	48 8d 6c 24 20       	lea    rbp,[rsp+0x20]
    29eb:	48 89 ef             	mov    rdi,rbp
    29ee:	be 01 00 00 00       	mov    esi,0x1
    29f3:	48 89 da             	mov    rdx,rbx
    29f6:	e8 35 fe ff ff       	call   2830 <sgxsd_enclave_sha256>
    29fb:	48 89 2b             	mov    QWORD PTR [rbx],rbp
    29fe:	c7 43 08 20 00 00 00 	mov    DWORD PTR [rbx+0x8],0x20
    2a05:	31 ff                	xor    edi,edi
    2a07:	e8 24 c7 00 00       	call   f130 <_Z7tracebrPv>
    2a0c:	83 7b 08 00          	cmp    DWORD PTR [rbx+0x8],0x0
    2a10:	74 39                	je     2a4b <sgxsd_enclave_hmac_sha256+0xfb>
    2a12:	31 ed                	xor    ebp,ebp
    2a14:	66 2e 0f 1f 84 00 00 	nop    WORD PTR cs:[rax+rax*1+0x0]
    2a1b:	00 00 00 
    2a1e:	66 90                	xchg   ax,ax
    2a20:	bf 01 00 00 00       	mov    edi,0x1
    2a25:	e8 06 c7 00 00       	call   f130 <_Z7tracebrPv>
    2a2a:	48 8b 03             	mov    rax,QWORD PTR [rbx]
    2a2d:	0f b6 0c 28          	movzx  ecx,BYTE PTR [rax+rbp*1]
    2a31:	30 8c 2c 80 00 00 00 	xor    BYTE PTR [rsp+rbp*1+0x80],cl
    2a38:	0f b6 04 28          	movzx  eax,BYTE PTR [rax+rbp*1]
    2a3c:	30 44 2c 40          	xor    BYTE PTR [rsp+rbp*1+0x40],al
    2a40:	48 ff c5             	inc    rbp
    2a43:	8b 43 08             	mov    eax,DWORD PTR [rbx+0x8]
    2a46:	48 39 c5             	cmp    rbp,rax
    2a49:	72 d5                	jb     2a20 <sgxsd_enclave_hmac_sha256+0xd0>
    2a4b:	31 ff                	xor    edi,edi
    2a4d:	e8 de c6 00 00       	call   f130 <_Z7tracebrPv>
    2a52:	48 8d 2d 17 2b 01 00 	lea    rbp,[rip+0x12b17]        # 15570 <memset_s>
    2a59:	48 89 ef             	mov    rdi,rbp
    2a5c:	e8 5f c3 00 00       	call   edc0 <_Z10traceedgecPv>
    2a61:	48 8d 7c 24 20       	lea    rdi,[rsp+0x20]
    2a66:	be 20 00 00 00       	mov    esi,0x20
    2a6b:	b9 20 00 00 00       	mov    ecx,0x20
    2a70:	31 d2                	xor    edx,edx
    2a72:	e8 f9 2a 01 00       	call   15570 <memset_s>
    2a77:	4c 89 3b             	mov    QWORD PTR [rbx],r15
    2a7a:	c7 43 08 40 00 00 00 	mov    DWORD PTR [rbx+0x8],0x40
    2a81:	4c 8d 35 a8 fd ff ff 	lea    r14,[rip+0xfffffffffffffda8]        # 2830 <sgxsd_enclave_sha256>
    2a88:	4c 89 f7             	mov    rdi,r14
    2a8b:	e8 30 c3 00 00       	call   edc0 <_Z10traceedgecPv>
    2a90:	4c 89 e7             	mov    rdi,r12
    2a93:	44 89 ee             	mov    esi,r13d
    2a96:	48 89 da             	mov    rdx,rbx
    2a99:	e8 92 fd ff ff       	call   2830 <sgxsd_enclave_sha256>
    2a9e:	48 8d 5c 24 40       	lea    rbx,[rsp+0x40]
    2aa3:	48 89 1c 24          	mov    QWORD PTR [rsp],rbx
    2aa7:	c7 44 24 08 40 00 00 	mov    DWORD PTR [rsp+0x8],0x40
    2aae:	00 
    2aaf:	4c 89 64 24 10       	mov    QWORD PTR [rsp+0x10],r12
    2ab4:	c7 44 24 18 20 00 00 	mov    DWORD PTR [rsp+0x18],0x20
    2abb:	00 
    2abc:	4c 89 f7             	mov    rdi,r14
    2abf:	e8 fc c2 00 00       	call   edc0 <_Z10traceedgecPv>
    2ac4:	48 89 e2             	mov    rdx,rsp
    2ac7:	4c 89 e7             	mov    rdi,r12
    2aca:	be 02 00 00 00       	mov    esi,0x2
    2acf:	e8 5c fd ff ff       	call   2830 <sgxsd_enclave_sha256>
    2ad4:	48 89 ef             	mov    rdi,rbp
    2ad7:	e8 e4 c2 00 00       	call   edc0 <_Z10traceedgecPv>
    2adc:	be 40 00 00 00       	mov    esi,0x40
    2ae1:	b9 40 00 00 00       	mov    ecx,0x40
    2ae6:	4c 89 ff             	mov    rdi,r15
    2ae9:	31 d2                	xor    edx,edx
    2aeb:	e8 80 2a 01 00       	call   15570 <memset_s>
    2af0:	48 89 ef             	mov    rdi,rbp
    2af3:	e8 c8 c2 00 00       	call   edc0 <_Z10traceedgecPv>
    2af8:	be 40 00 00 00       	mov    esi,0x40
    2afd:	b9 40 00 00 00       	mov    ecx,0x40
    2b02:	48 89 df             	mov    rdi,rbx
    2b05:	31 d2                	xor    edx,edx
    2b07:	e8 64 2a 01 00       	call   15570 <memset_s>
    2b0c:	48 8b bc 24 f8 00 00 	mov    rdi,QWORD PTR [rsp+0xf8]
    2b13:	00 
    2b14:	e8 a7 c2 00 00       	call   edc0 <_Z10traceedgecPv>
    2b19:	64 48 8b 04 25 28 00 	mov    rax,QWORD PTR fs:0x28
    2b20:	00 00 
    2b22:	48 3b 84 24 c0 00 00 	cmp    rax,QWORD PTR [rsp+0xc0]
    2b29:	00 
    2b2a:	75 12                	jne    2b3e <sgxsd_enclave_hmac_sha256+0x1ee>
    2b2c:	48 81 c4 c8 00 00 00 	add    rsp,0xc8
    2b33:	5b                   	pop    rbx
    2b34:	41 5c                	pop    r12
    2b36:	41 5d                	pop    r13
    2b38:	41 5e                	pop    r14
    2b3a:	41 5f                	pop    r15
    2b3c:	5d                   	pop    rbp
    2b3d:	c3                   	ret    
    2b3e:	e8 9d f2 00 00       	call   11de0 <__stack_chk_fail>
    2b43:	66 2e 0f 1f 84 00 00 	nop    WORD PTR cs:[rax+rax*1+0x0]
    2b4a:	00 00 00 
    2b4d:	0f 1f 00             	nop    DWORD PTR [rax]

0000000000002b50 <sgxsd_enclave_generate_curve25519_privkey>:
    2b50:	55                   	push   rbp
    2b51:	48 89 e5             	mov    rbp,rsp
    2b54:	41 57                	push   r15
    2b56:	41 56                	push   r14
    2b58:	41 55                	push   r13
    2b5a:	41 54                	push   r12
    2b5c:	53                   	push   rbx
    2b5d:	48 83 e4 e0          	and    rsp,0xffffffffffffffe0
    2b61:	48 81 ec c0 00 00 00 	sub    rsp,0xc0
    2b68:	48 89 fb             	mov    rbx,rdi
    2b6b:	64 48 8b 04 25 28 00 	mov    rax,QWORD PTR fs:0x28
    2b72:	00 00 
    2b74:	48 89 84 24 a0 00 00 	mov    QWORD PTR [rsp+0xa0],rax
    2b7b:	00 
    2b7c:	48 8d 3d bd c9 00 00 	lea    rdi,[rip+0xc9bd]        # f540 <sgx_read_rand>
    2b83:	e8 38 c2 00 00       	call   edc0 <_Z10traceedgecPv>
    2b88:	be 20 00 00 00       	mov    esi,0x20
    2b8d:	48 89 df             	mov    rdi,rbx
    2b90:	e8 ab c9 00 00       	call   f540 <sgx_read_rand>
    2b95:	41 89 c6             	mov    r14d,eax
    2b98:	85 c0                	test   eax,eax
    2b9a:	74 0f                	je     2bab <sgxsd_enclave_generate_curve25519_privkey+0x5b>
    2b9c:	bf 01 00 00 00       	mov    edi,0x1
    2ba1:	e8 8a c5 00 00       	call   f130 <_Z7tracebrPv>
    2ba6:	e9 a2 01 00 00       	jmp    2d4d <sgxsd_enclave_generate_curve25519_privkey+0x1fd>
    2bab:	31 ff                	xor    edi,edi
    2bad:	e8 7e c5 00 00       	call   f130 <_Z7tracebrPv>
    2bb2:	48 8d 3d 17 2d 01 00 	lea    rdi,[rip+0x12d17]        # 158d0 <sgx_spin_lock>
    2bb9:	e8 02 c2 00 00       	call   edc0 <_Z10traceedgecPv>
    2bbe:	48 8d 3d fb 11 24 00 	lea    rdi,[rip+0x2411fb]        # 243dc0 <g_sgxsd_enclave_read_rand_lock>
    2bc5:	e8 06 2d 01 00       	call   158d0 <sgx_spin_lock>
    2bca:	0f ae e8             	lfence 
    2bcd:	48 8d 05 f0 11 24 00 	lea    rax,[rip+0x2411f0]        # 243dc4 <g_sgxsd_enclave_read_rand_state>
    2bd4:	48 89 44 24 20       	mov    QWORD PTR [rsp+0x20],rax
    2bd9:	c7 44 24 28 20 00 00 	mov    DWORD PTR [rsp+0x28],0x20
    2be0:	00 
    2be1:	48 89 5c 24 30       	mov    QWORD PTR [rsp+0x30],rbx
    2be6:	c7 44 24 38 20 00 00 	mov    DWORD PTR [rsp+0x38],0x20
    2bed:	00 
    2bee:	4c 8d 25 5b fd ff ff 	lea    r12,[rip+0xfffffffffffffd5b]        # 2950 <sgxsd_enclave_hmac_sha256>
    2bf5:	4c 89 e7             	mov    rdi,r12
    2bf8:	e8 c3 c1 00 00       	call   edc0 <_Z10traceedgecPv>
    2bfd:	48 8d bc 24 80 00 00 	lea    rdi,[rsp+0x80]
    2c04:	00 
    2c05:	48 8d 54 24 20       	lea    rdx,[rsp+0x20]
    2c0a:	49 89 ff             	mov    r15,rdi
    2c0d:	be 02 00 00 00       	mov    esi,0x2
    2c12:	e8 39 fd ff ff       	call   2950 <sgxsd_enclave_hmac_sha256>
    2c17:	c5 f8 57 c0          	vxorps xmm0,xmm0,xmm0
    2c1b:	c5 fc 29 44 24 40    	vmovaps YMMWORD PTR [rsp+0x40],ymm0
    2c21:	4c 8d 6c 24 60       	lea    r13,[rsp+0x60]
    2c26:	c6 44 24 60 01       	mov    BYTE PTR [rsp+0x60],0x1
    2c2b:	bf 01 00 00 00       	mov    edi,0x1
    2c30:	c5 f8 77             	vzeroupper 
    2c33:	e8 f8 c4 00 00       	call   f130 <_Z7tracebrPv>
    2c38:	4c 89 3c 24          	mov    QWORD PTR [rsp],r15
    2c3c:	c7 44 24 08 20 00 00 	mov    DWORD PTR [rsp+0x8],0x20
    2c43:	00 
    2c44:	4c 89 6c 24 10       	mov    QWORD PTR [rsp+0x10],r13
    2c49:	c7 44 24 18 01 00 00 	mov    DWORD PTR [rsp+0x18],0x1
    2c50:	00 
    2c51:	4c 89 e7             	mov    rdi,r12
    2c54:	e8 67 c1 00 00       	call   edc0 <_Z10traceedgecPv>
    2c59:	4c 8d 64 24 40       	lea    r12,[rsp+0x40]
    2c5e:	48 89 e2             	mov    rdx,rsp
    2c61:	4c 89 e7             	mov    rdi,r12
    2c64:	be 02 00 00 00       	mov    esi,0x2
    2c69:	e8 e2 fc ff ff       	call   2950 <sgxsd_enclave_hmac_sha256>
    2c6e:	c5 fc 28 44 24 40    	vmovaps ymm0,YMMWORD PTR [rsp+0x40]
    2c74:	c5 fc 11 05 48 11 24 	vmovups YMMWORD PTR [rip+0x241148],ymm0        # 243dc4 <g_sgxsd_enclave_read_rand_state>
    2c7b:	00 
    2c7c:	8a 44 24 60          	mov    al,BYTE PTR [rsp+0x60]
    2c80:	8d 48 01             	lea    ecx,[rax+0x1]
    2c83:	88 4c 24 60          	mov    BYTE PTR [rsp+0x60],cl
    2c87:	31 ff                	xor    edi,edi
    2c89:	45 31 ff             	xor    r15d,r15d
    2c8c:	84 c0                	test   al,al
    2c8e:	40 0f 94 c7          	sete   dil
    2c92:	41 0f 95 c7          	setne  r15b
    2c96:	4d 0f 45 ec          	cmovne r13,r12
    2c9a:	41 c1 e7 05          	shl    r15d,0x5
    2c9e:	41 83 cf 01          	or     r15d,0x1
    2ca2:	c5 f8 77             	vzeroupper 
    2ca5:	e8 86 c4 00 00       	call   f130 <_Z7tracebrPv>
    2caa:	48 8d 84 24 80 00 00 	lea    rax,[rsp+0x80]
    2cb1:	00 
    2cb2:	48 89 04 24          	mov    QWORD PTR [rsp],rax
    2cb6:	c7 44 24 08 20 00 00 	mov    DWORD PTR [rsp+0x8],0x20
    2cbd:	00 
    2cbe:	4c 89 6c 24 10       	mov    QWORD PTR [rsp+0x10],r13
    2cc3:	44 89 7c 24 18       	mov    DWORD PTR [rsp+0x18],r15d
    2cc8:	48 8d 3d 81 fc ff ff 	lea    rdi,[rip+0xfffffffffffffc81]        # 2950 <sgxsd_enclave_hmac_sha256>
    2ccf:	e8 ec c0 00 00       	call   edc0 <_Z10traceedgecPv>
    2cd4:	4c 89 e7             	mov    rdi,r12
    2cd7:	be 02 00 00 00       	mov    esi,0x2
    2cdc:	48 89 e2             	mov    rdx,rsp
    2cdf:	e8 6c fc ff ff       	call   2950 <sgxsd_enclave_hmac_sha256>
    2ce4:	c5 fc 28 44 24 40    	vmovaps ymm0,YMMWORD PTR [rsp+0x40]
    2cea:	c5 fc 11 03          	vmovups YMMWORD PTR [rbx],ymm0
    2cee:	48 8d 3d 3b 2c 01 00 	lea    rdi,[rip+0x12c3b]        # 15930 <sgx_spin_unlock>
    2cf5:	c5 f8 77             	vzeroupper 
    2cf8:	e8 c3 c0 00 00       	call   edc0 <_Z10traceedgecPv>
    2cfd:	48 8d 3d bc 10 24 00 	lea    rdi,[rip+0x2410bc]        # 243dc0 <g_sgxsd_enclave_read_rand_lock>
    2d04:	e8 27 2c 01 00       	call   15930 <sgx_spin_unlock>
    2d09:	48 8d 1d 60 28 01 00 	lea    rbx,[rip+0x12860]        # 15570 <memset_s>
    2d10:	48 89 df             	mov    rdi,rbx
    2d13:	e8 a8 c0 00 00       	call   edc0 <_Z10traceedgecPv>
    2d18:	be 21 00 00 00       	mov    esi,0x21
    2d1d:	b9 21 00 00 00       	mov    ecx,0x21
    2d22:	4c 89 e7             	mov    rdi,r12
    2d25:	31 d2                	xor    edx,edx
    2d27:	e8 44 28 01 00       	call   15570 <memset_s>
    2d2c:	48 89 df             	mov    rdi,rbx
    2d2f:	e8 8c c0 00 00       	call   edc0 <_Z10traceedgecPv>
    2d34:	be 20 00 00 00       	mov    esi,0x20
    2d39:	b9 20 00 00 00       	mov    ecx,0x20
    2d3e:	48 8d bc 24 80 00 00 	lea    rdi,[rsp+0x80]
    2d45:	00 
    2d46:	31 d2                	xor    edx,edx
    2d48:	e8 23 28 01 00       	call   15570 <memset_s>
    2d4d:	48 8b 7d 08          	mov    rdi,QWORD PTR [rbp+0x8]
    2d51:	e8 6a c0 00 00       	call   edc0 <_Z10traceedgecPv>
    2d56:	64 48 8b 04 25 28 00 	mov    rax,QWORD PTR fs:0x28
    2d5d:	00 00 
    2d5f:	48 3b 84 24 a0 00 00 	cmp    rax,QWORD PTR [rsp+0xa0]
    2d66:	00 
    2d67:	75 12                	jne    2d7b <sgxsd_enclave_generate_curve25519_privkey+0x22b>
    2d69:	44 89 f0             	mov    eax,r14d
    2d6c:	48 8d 65 d8          	lea    rsp,[rbp-0x28]
    2d70:	5b                   	pop    rbx
    2d71:	41 5c                	pop    r12
    2d73:	41 5d                	pop    r13
    2d75:	41 5e                	pop    r14
    2d77:	41 5f                	pop    r15
    2d79:	5d                   	pop    rbp
    2d7a:	c3                   	ret    
    2d7b:	e8 60 f0 00 00       	call   11de0 <__stack_chk_fail>

0000000000002d80 <sgxsd_enclave_get_next_report>:
    2d80:	41 56                	push   r14
    2d82:	53                   	push   rbx
    2d83:	48 81 ec 88 00 00 00 	sub    rsp,0x88
    2d8a:	64 48 8b 04 25 28 00 	mov    rax,QWORD PTR fs:0x28
    2d91:	00 00 
    2d93:	48 89 84 24 80 00 00 	mov    QWORD PTR [rsp+0x80],rax
    2d9a:	00 
    2d9b:	80 3d fe fe 23 00 00 	cmp    BYTE PTR [rip+0x23fefe],0x0        # 242ca0 <g_sgxsd_enclave_node_initialized>
    2da2:	74 37                	je     2ddb <sgxsd_enclave_get_next_report+0x5b>
    2da4:	49 89 fe             	mov    r14,rdi
    2da7:	bf 01 00 00 00       	mov    edi,0x1
    2dac:	e8 7f c3 00 00       	call   f130 <_Z7tracebrPv>
    2db1:	4d 85 f6             	test   r14,r14
    2db4:	74 33                	je     2de9 <sgxsd_enclave_get_next_report+0x69>
    2db6:	31 ff                	xor    edi,edi
    2db8:	e8 73 c3 00 00       	call   f130 <_Z7tracebrPv>
    2dbd:	48 8d 3d 9c f6 ff ff 	lea    rdi,[rip+0xfffffffffffff69c]        # 2460 <sgxsd_enclave_generate_curve25519_keypair>
    2dc4:	e8 f7 bf 00 00       	call   edc0 <_Z10traceedgecPv>
    2dc9:	48 8d 7c 24 40       	lea    rdi,[rsp+0x40]
    2dce:	e8 8d f6 ff ff       	call   2460 <sgxsd_enclave_generate_curve25519_keypair>
    2dd3:	85 c0                	test   eax,eax
    2dd5:	74 23                	je     2dfa <sgxsd_enclave_get_next_report+0x7a>
    2dd7:	89 c3                	mov    ebx,eax
    2dd9:	eb 66                	jmp    2e41 <sgxsd_enclave_get_next_report+0xc1>
    2ddb:	31 ff                	xor    edi,edi
    2ddd:	e8 4e c3 00 00       	call   f130 <_Z7tracebrPv>
    2de2:	bb 05 00 00 00       	mov    ebx,0x5
    2de7:	eb 62                	jmp    2e4b <sgxsd_enclave_get_next_report+0xcb>
    2de9:	bf 01 00 00 00       	mov    edi,0x1
    2dee:	e8 3d c3 00 00       	call   f130 <_Z7tracebrPv>
    2df3:	bb 02 00 00 00       	mov    ebx,0x2
    2df8:	eb 51                	jmp    2e4b <sgxsd_enclave_get_next_report+0xcb>
    2dfa:	48 8d 9c 24 a0 00 00 	lea    rbx,[rsp+0xa0]
    2e01:	00 
    2e02:	31 ff                	xor    edi,edi
    2e04:	e8 27 c3 00 00       	call   f130 <_Z7tracebrPv>
    2e09:	c5 f8 57 c0          	vxorps xmm0,xmm0,xmm0
    2e0d:	c5 fc 11 44 24 20    	vmovups YMMWORD PTR [rsp+0x20],ymm0
    2e13:	c5 fc 10 44 24 60    	vmovups ymm0,YMMWORD PTR [rsp+0x60]
    2e19:	c5 fc 11 04 24       	vmovups YMMWORD PTR [rsp],ymm0
    2e1e:	48 8d 3d bb 69 03 00 	lea    rdi,[rip+0x369bb]        # 397e0 <sgx_create_report>
    2e25:	c5 f8 77             	vzeroupper 
    2e28:	e8 93 bf 00 00       	call   edc0 <_Z10traceedgecPv>
    2e2d:	48 89 e6             	mov    rsi,rsp
    2e30:	48 89 df             	mov    rdi,rbx
    2e33:	4c 89 f2             	mov    rdx,r14
    2e36:	e8 a5 69 03 00       	call   397e0 <sgx_create_report>
    2e3b:	89 c3                	mov    ebx,eax
    2e3d:	85 c0                	test   eax,eax
    2e3f:	74 3b                	je     2e7c <sgxsd_enclave_get_next_report+0xfc>
    2e41:	bf 01 00 00 00       	mov    edi,0x1
    2e46:	e8 e5 c2 00 00       	call   f130 <_Z7tracebrPv>
    2e4b:	48 8b bc 24 98 00 00 	mov    rdi,QWORD PTR [rsp+0x98]
    2e52:	00 
    2e53:	e8 68 bf 00 00       	call   edc0 <_Z10traceedgecPv>
    2e58:	64 48 8b 04 25 28 00 	mov    rax,QWORD PTR fs:0x28
    2e5f:	00 00 
    2e61:	48 3b 84 24 80 00 00 	cmp    rax,QWORD PTR [rsp+0x80]
    2e68:	00 
    2e69:	0f 85 8c 00 00 00    	jne    2efb <sgxsd_enclave_get_next_report+0x17b>
    2e6f:	89 d8                	mov    eax,ebx
    2e71:	48 81 c4 88 00 00 00 	add    rsp,0x88
    2e78:	5b                   	pop    rbx
    2e79:	41 5e                	pop    r14
    2e7b:	c3                   	ret    
    2e7c:	31 ff                	xor    edi,edi
    2e7e:	e8 ad c2 00 00       	call   f130 <_Z7tracebrPv>
    2e83:	48 8d 3d 46 2a 01 00 	lea    rdi,[rip+0x12a46]        # 158d0 <sgx_spin_lock>
    2e8a:	e8 31 bf 00 00       	call   edc0 <_Z10traceedgecPv>
    2e8f:	4c 8d 35 62 1f 24 00 	lea    r14,[rip+0x241f62]        # 244df8 <g_sgxsd_enclave_dh_keypair_lock>
    2e96:	4c 89 f7             	mov    rdi,r14
    2e99:	e8 32 2a 01 00       	call   158d0 <sgx_spin_lock>
    2e9e:	0f ae e8             	lfence 
    2ea1:	c5 fc 10 44 24 40    	vmovups ymm0,YMMWORD PTR [rsp+0x40]
    2ea7:	c5 fc 10 4c 24 60    	vmovups ymm1,YMMWORD PTR [rsp+0x60]
    2ead:	c5 fc 11 0d e3 0e 24 	vmovups YMMWORD PTR [rip+0x240ee3],ymm1        # 243d98 <g_sgxsd_enclave_new_dh_keypair+0x20>
    2eb4:	00 
    2eb5:	c5 fc 11 05 bb 0e 24 	vmovups YMMWORD PTR [rip+0x240ebb],ymm0        # 243d78 <g_sgxsd_enclave_new_dh_keypair>
    2ebc:	00 
    2ebd:	48 8d 3d 6c 2a 01 00 	lea    rdi,[rip+0x12a6c]        # 15930 <sgx_spin_unlock>
    2ec4:	c5 f8 77             	vzeroupper 
    2ec7:	e8 f4 be 00 00       	call   edc0 <_Z10traceedgecPv>
    2ecc:	4c 89 f7             	mov    rdi,r14
    2ecf:	e8 5c 2a 01 00       	call   15930 <sgx_spin_unlock>
    2ed4:	48 8d 3d 95 26 01 00 	lea    rdi,[rip+0x12695]        # 15570 <memset_s>
    2edb:	e8 e0 be 00 00       	call   edc0 <_Z10traceedgecPv>
    2ee0:	48 8d 7c 24 40       	lea    rdi,[rsp+0x40]
    2ee5:	be 40 00 00 00       	mov    esi,0x40
    2eea:	b9 40 00 00 00       	mov    ecx,0x40
    2eef:	31 d2                	xor    edx,edx
    2ef1:	e8 7a 26 01 00       	call   15570 <memset_s>
    2ef6:	e9 50 ff ff ff       	jmp    2e4b <sgxsd_enclave_get_next_report+0xcb>
    2efb:	e8 e0 ee 00 00       	call   11de0 <__stack_chk_fail>

0000000000002f00 <sgxsd_enclave_set_current_quote>:
    2f00:	53                   	push   rbx
    2f01:	80 3d 98 fd 23 00 00 	cmp    BYTE PTR [rip+0x23fd98],0x0        # 242ca0 <g_sgxsd_enclave_node_initialized>
    2f08:	74 63                	je     2f6d <sgxsd_enclave_set_current_quote+0x6d>
    2f0a:	bf 01 00 00 00       	mov    edi,0x1
    2f0f:	e8 1c c2 00 00       	call   f130 <_Z7tracebrPv>
    2f14:	48 8d 3d b5 29 01 00 	lea    rdi,[rip+0x129b5]        # 158d0 <sgx_spin_lock>
    2f1b:	e8 a0 be 00 00       	call   edc0 <_Z10traceedgecPv>
    2f20:	48 8d 1d d1 1e 24 00 	lea    rbx,[rip+0x241ed1]        # 244df8 <g_sgxsd_enclave_dh_keypair_lock>
    2f27:	48 89 df             	mov    rdi,rbx
    2f2a:	e8 a1 29 01 00       	call   158d0 <sgx_spin_lock>
    2f2f:	0f ae e8             	lfence 
    2f32:	c5 fc 10 05 5e 0e 24 	vmovups ymm0,YMMWORD PTR [rip+0x240e5e]        # 243d98 <g_sgxsd_enclave_new_dh_keypair+0x20>
    2f39:	00 
    2f3a:	c5 fc 11 05 ee 0d 24 	vmovups YMMWORD PTR [rip+0x240dee],ymm0        # 243d30 <g_sgxsd_enclave_dh_keypair+0x20>
    2f41:	00 
    2f42:	c5 fc 10 05 2e 0e 24 	vmovups ymm0,YMMWORD PTR [rip+0x240e2e]        # 243d78 <g_sgxsd_enclave_new_dh_keypair>
    2f49:	00 
    2f4a:	c5 fc 11 05 be 0d 24 	vmovups YMMWORD PTR [rip+0x240dbe],ymm0        # 243d10 <g_sgxsd_enclave_dh_keypair>
    2f51:	00 
    2f52:	48 8d 3d d7 29 01 00 	lea    rdi,[rip+0x129d7]        # 15930 <sgx_spin_unlock>
    2f59:	c5 f8 77             	vzeroupper 
    2f5c:	e8 5f be 00 00       	call   edc0 <_Z10traceedgecPv>
    2f61:	48 89 df             	mov    rdi,rbx
    2f64:	e8 c7 29 01 00       	call   15930 <sgx_spin_unlock>
    2f69:	31 db                	xor    ebx,ebx
    2f6b:	eb 0c                	jmp    2f79 <sgxsd_enclave_set_current_quote+0x79>
    2f6d:	31 ff                	xor    edi,edi
    2f6f:	e8 bc c1 00 00       	call   f130 <_Z7tracebrPv>
    2f74:	bb 05 00 00 00       	mov    ebx,0x5
    2f79:	48 8b 7c 24 08       	mov    rdi,QWORD PTR [rsp+0x8]
    2f7e:	e8 3d be 00 00       	call   edc0 <_Z10traceedgecPv>
    2f83:	89 d8                	mov    eax,ebx
    2f85:	5b                   	pop    rbx
    2f86:	c3                   	ret    
    2f87:	66 0f 1f 84 00 00 00 	nop    WORD PTR [rax+rax*1+0x0]
    2f8e:	00 00 

0000000000002f90 <sgxsd_enclave_add_pending_request>:
    2f90:	55                   	push   rbp
    2f91:	41 57                	push   r15
    2f93:	41 56                	push   r14
    2f95:	53                   	push   rbx
    2f96:	48 83 ec 38          	sub    rsp,0x38
    2f9a:	48 89 f3             	mov    rbx,rsi
    2f9d:	49 89 fe             	mov    r14,rdi
    2fa0:	64 48 8b 04 25 28 00 	mov    rax,QWORD PTR fs:0x28
    2fa7:	00 00 
    2fa9:	48 89 44 24 30       	mov    QWORD PTR [rsp+0x30],rax
    2fae:	40 8a 2d 2f 0e 24 00 	mov    bpl,BYTE PTR [rip+0x240e2f]        # 243de4 <g_sgxsd_enclave_pending_requests_table_order>
    2fb5:	48 8d 3d 14 29 01 00 	lea    rdi,[rip+0x12914]        # 158d0 <sgx_spin_lock>
    2fbc:	e8 ff bd 00 00       	call   edc0 <_Z10traceedgecPv>
    2fc1:	4c 8d 3d 28 1e 24 00 	lea    r15,[rip+0x241e28]        # 244df0 <g_sgxsd_enclave_pending_requests_lock>
    2fc8:	4c 89 ff             	mov    rdi,r15
    2fcb:	e8 00 29 01 00       	call   158d0 <sgx_spin_lock>
    2fd0:	0f ae e8             	lfence 
    2fd3:	48 8b 05 de 0d 24 00 	mov    rax,QWORD PTR [rip+0x240dde]        # 243db8 <g_sgxsd_enclave_last_pending_request_id_val>
    2fda:	48 ff c0             	inc    rax
    2fdd:	48 89 05 d4 0d 24 00 	mov    QWORD PTR [rip+0x240dd4],rax        # 243db8 <g_sgxsd_enclave_last_pending_request_id_val>
    2fe4:	48 89 44 24 08       	mov    QWORD PTR [rsp+0x8],rax
    2fe9:	48 8b 0d 60 0d 24 00 	mov    rcx,QWORD PTR [rip+0x240d60]        # 243d50 <g_sgxsd_enclave_pending_requests>
    2ff0:	c5 fc 10 43 08       	vmovups ymm0,YMMWORD PTR [rbx+0x8]
    2ff5:	c5 fc 11 44 24 10    	vmovups YMMWORD PTR [rsp+0x10],ymm0
    2ffb:	c4 e2 d0 f5 d0       	bzhi   rdx,rax,rbp
    3000:	48 8d 14 92          	lea    rdx,[rdx+rdx*4]
    3004:	48 89 04 d1          	mov    QWORD PTR [rcx+rdx*8],rax
    3008:	c5 fc 10 44 24 10    	vmovups ymm0,YMMWORD PTR [rsp+0x10]
    300e:	c5 fc 11 44 d1 08    	vmovups YMMWORD PTR [rcx+rdx*8+0x8],ymm0
    3014:	48 8d 3d 15 29 01 00 	lea    rdi,[rip+0x12915]        # 15930 <sgx_spin_unlock>
    301b:	c5 f8 77             	vzeroupper 
    301e:	e8 9d bd 00 00       	call   edc0 <_Z10traceedgecPv>
    3023:	4c 89 ff             	mov    rdi,r15
    3026:	e8 05 29 01 00       	call   15930 <sgx_spin_unlock>
    302b:	49 8d 5e 08          	lea    rbx,[r14+0x8]
    302f:	48 8d 3d 0a c5 00 00 	lea    rdi,[rip+0xc50a]        # f540 <sgx_read_rand>
    3036:	e8 85 bd 00 00       	call   edc0 <_Z10traceedgecPv>
    303b:	be 0c 00 00 00       	mov    esi,0xc
    3040:	48 89 df             	mov    rdi,rbx
    3043:	e8 f8 c4 00 00       	call   f540 <sgx_read_rand>
    3048:	85 c0                	test   eax,eax
    304a:	74 04                	je     3050 <sgxsd_enclave_add_pending_request+0xc0>
    304c:	89 c5                	mov    ebp,eax
    304e:	eb 4e                	jmp    309e <sgxsd_enclave_add_pending_request+0x10e>
    3050:	31 ff                	xor    edi,edi
    3052:	e8 d9 c0 00 00       	call   f130 <_Z7tracebrPv>
    3057:	48 8d 3d 82 f4 ff ff 	lea    rdi,[rip+0xfffffffffffff482]        # 24e0 <sgxsd_aes_gcm_run>
    305e:	e8 5d bd 00 00       	call   edc0 <_Z10traceedgecPv>
    3063:	48 83 ec 08          	sub    rsp,0x8
    3067:	48 8d 35 ea 0c 24 00 	lea    rsi,[rip+0x240cea]        # 243d58 <g_sgxsd_enclave_pending_request_id_key>
    306e:	bd 01 00 00 00       	mov    ebp,0x1
    3073:	48 8d 54 24 10       	lea    rdx,[rsp+0x10]
    3078:	49 8d 46 14          	lea    rax,[r14+0x14]
    307c:	bf 01 00 00 00       	mov    edi,0x1
    3081:	4d 89 f0             	mov    r8,r14
    3084:	b9 08 00 00 00       	mov    ecx,0x8
    3089:	49 89 d9             	mov    r9,rbx
    308c:	50                   	push   rax
    308d:	6a 00                	push   0x0
    308f:	6a 00                	push   0x0
    3091:	e8 4a f4 ff ff       	call   24e0 <sgxsd_aes_gcm_run>
    3096:	48 83 c4 20          	add    rsp,0x20
    309a:	85 c0                	test   eax,eax
    309c:	74 31                	je     30cf <sgxsd_enclave_add_pending_request+0x13f>
    309e:	bf 01 00 00 00       	mov    edi,0x1
    30a3:	e8 88 c0 00 00       	call   f130 <_Z7tracebrPv>
    30a8:	48 8b 7c 24 58       	mov    rdi,QWORD PTR [rsp+0x58]
    30ad:	e8 0e bd 00 00       	call   edc0 <_Z10traceedgecPv>
    30b2:	64 48 8b 04 25 28 00 	mov    rax,QWORD PTR fs:0x28
    30b9:	00 00 
    30bb:	48 3b 44 24 30       	cmp    rax,QWORD PTR [rsp+0x30]
    30c0:	75 18                	jne    30da <sgxsd_enclave_add_pending_request+0x14a>
    30c2:	89 e8                	mov    eax,ebp
    30c4:	48 83 c4 38          	add    rsp,0x38
    30c8:	5b                   	pop    rbx
    30c9:	41 5e                	pop    r14
    30cb:	41 5f                	pop    r15
    30cd:	5d                   	pop    rbp
    30ce:	c3                   	ret    
    30cf:	31 ff                	xor    edi,edi
    30d1:	e8 5a c0 00 00       	call   f130 <_Z7tracebrPv>
    30d6:	31 ed                	xor    ebp,ebp
    30d8:	eb ce                	jmp    30a8 <sgxsd_enclave_add_pending_request+0x118>
    30da:	e8 01 ed 00 00       	call   11de0 <__stack_chk_fail>
    30df:	90                   	nop

00000000000030e0 <sgxsd_enclave_remove_pending_request>:
    30e0:	41 57                	push   r15
    30e2:	41 56                	push   r14
    30e4:	41 54                	push   r12
    30e6:	53                   	push   rbx
    30e7:	50                   	push   rax
    30e8:	49 89 f6             	mov    r14,rsi
    30eb:	48 89 fb             	mov    rbx,rdi
    30ee:	48 c7 04 24 00 00 00 	mov    QWORD PTR [rsp],0x0
    30f5:	00 
    30f6:	48 8d 3d e3 f3 ff ff 	lea    rdi,[rip+0xfffffffffffff3e3]        # 24e0 <sgxsd_aes_gcm_run>
    30fd:	e8 be bc 00 00       	call   edc0 <_Z10traceedgecPv>
    3102:	48 83 ec 08          	sub    rsp,0x8
    3106:	48 8d 35 4b 0c 24 00 	lea    rsi,[rip+0x240c4b]        # 243d58 <g_sgxsd_enclave_pending_request_id_key>
    310d:	4c 8d 44 24 08       	lea    r8,[rsp+0x8]
    3112:	4c 8d 4b 08          	lea    r9,[rbx+0x8]
    3116:	48 8d 43 14          	lea    rax,[rbx+0x14]
    311a:	31 ff                	xor    edi,edi
    311c:	48 89 da             	mov    rdx,rbx
    311f:	b9 08 00 00 00       	mov    ecx,0x8
    3124:	50                   	push   rax
    3125:	6a 00                	push   0x0
    3127:	6a 00                	push   0x0
    3129:	e8 b2 f3 ff ff       	call   24e0 <sgxsd_aes_gcm_run>
    312e:	48 83 c4 20          	add    rsp,0x20
    3132:	85 c0                	test   eax,eax
    3134:	74 11                	je     3147 <sgxsd_enclave_remove_pending_request+0x67>
    3136:	89 c3                	mov    ebx,eax
    3138:	bf 01 00 00 00       	mov    edi,0x1
    313d:	e8 ee bf 00 00       	call   f130 <_Z7tracebrPv>
    3142:	e9 ae 00 00 00       	jmp    31f5 <sgxsd_enclave_remove_pending_request+0x115>
    3147:	31 db                	xor    ebx,ebx
    3149:	31 ff                	xor    edi,edi
    314b:	e8 e0 bf 00 00       	call   f130 <_Z7tracebrPv>
    3150:	8a 05 8e 0c 24 00    	mov    al,BYTE PTR [rip+0x240c8e]        # 243de4 <g_sgxsd_enclave_pending_requests_table_order>
    3156:	4c 8b 3d f3 0b 24 00 	mov    r15,QWORD PTR [rip+0x240bf3]        # 243d50 <g_sgxsd_enclave_pending_requests>
    315d:	c4 e2 f8 f5 04 24    	bzhi   rax,QWORD PTR [rsp],rax
    3163:	4c 8d 24 80          	lea    r12,[rax+rax*4]
    3167:	48 8d 3d 62 27 01 00 	lea    rdi,[rip+0x12762]        # 158d0 <sgx_spin_lock>
    316e:	e8 4d bc 00 00       	call   edc0 <_Z10traceedgecPv>
    3173:	48 8d 3d 76 1c 24 00 	lea    rdi,[rip+0x241c76]        # 244df0 <g_sgxsd_enclave_pending_requests_lock>
    317a:	e8 51 27 01 00       	call   158d0 <sgx_spin_lock>
    317f:	0f ae e8             	lfence 
    3182:	4b 8b 04 e7          	mov    rax,QWORD PTR [r15+r12*8]
    3186:	48 3b 04 24          	cmp    rax,QWORD PTR [rsp]
    318a:	75 45                	jne    31d1 <sgxsd_enclave_remove_pending_request+0xf1>
    318c:	4f 8d 3c e7          	lea    r15,[r15+r12*8]
    3190:	bf 01 00 00 00       	mov    edi,0x1
    3195:	e8 96 bf 00 00       	call   f130 <_Z7tracebrPv>
    319a:	49 8b 47 20          	mov    rax,QWORD PTR [r15+0x20]
    319e:	49 89 46 20          	mov    QWORD PTR [r14+0x20],rax
    31a2:	c4 c1 7c 10 07       	vmovups ymm0,YMMWORD PTR [r15]
    31a7:	c4 c1 7c 11 06       	vmovups YMMWORD PTR [r14],ymm0
    31ac:	48 8d 3d bd 23 01 00 	lea    rdi,[rip+0x123bd]        # 15570 <memset_s>
    31b3:	c5 f8 77             	vzeroupper 
    31b6:	e8 05 bc 00 00       	call   edc0 <_Z10traceedgecPv>
    31bb:	be 28 00 00 00       	mov    esi,0x28
    31c0:	b9 28 00 00 00       	mov    ecx,0x28
    31c5:	4c 89 ff             	mov    rdi,r15
    31c8:	31 d2                	xor    edx,edx
    31ca:	e8 a1 23 01 00       	call   15570 <memset_s>
    31cf:	eb 0c                	jmp    31dd <sgxsd_enclave_remove_pending_request+0xfd>
    31d1:	31 ff                	xor    edi,edi
    31d3:	e8 58 bf 00 00       	call   f130 <_Z7tracebrPv>
    31d8:	bb 01 00 01 00       	mov    ebx,0x10001
    31dd:	48 8d 3d 4c 27 01 00 	lea    rdi,[rip+0x1274c]        # 15930 <sgx_spin_unlock>
    31e4:	e8 d7 bb 00 00       	call   edc0 <_Z10traceedgecPv>
    31e9:	48 8d 3d 00 1c 24 00 	lea    rdi,[rip+0x241c00]        # 244df0 <g_sgxsd_enclave_pending_requests_lock>
    31f0:	e8 3b 27 01 00       	call   15930 <sgx_spin_unlock>
    31f5:	48 8b 7c 24 28       	mov    rdi,QWORD PTR [rsp+0x28]
    31fa:	e8 c1 bb 00 00       	call   edc0 <_Z10traceedgecPv>
    31ff:	89 d8                	mov    eax,ebx
    3201:	48 83 c4 08          	add    rsp,0x8
    3205:	5b                   	pop    rbx
    3206:	41 5c                	pop    r12
    3208:	41 5e                	pop    r14
    320a:	41 5f                	pop    r15
    320c:	c3                   	ret    
    320d:	0f 1f 00             	nop    DWORD PTR [rax]

0000000000003210 <sgxsd_enclave_derive_request_keys>:
    3210:	55                   	push   rbp
    3211:	48 89 e5             	mov    rbp,rsp
    3214:	41 57                	push   r15
    3216:	41 56                	push   r14
    3218:	41 55                	push   r13
    321a:	41 54                	push   r12
    321c:	53                   	push   rbx
    321d:	48 83 e4 e0          	and    rsp,0xffffffffffffffe0
    3221:	48 81 ec a0 00 00 00 	sub    rsp,0xa0
    3228:	48 89 54 24 38       	mov    QWORD PTR [rsp+0x38],rdx
    322d:	49 89 f4             	mov    r12,rsi
    3230:	49 89 fd             	mov    r13,rdi
    3233:	64 48 8b 04 25 28 00 	mov    rax,QWORD PTR fs:0x28
    323a:	00 00 
    323c:	48 89 84 24 80 00 00 	mov    QWORD PTR [rsp+0x80],rax
    3243:	00 
    3244:	c5 f8 57 c0          	vxorps xmm0,xmm0,xmm0
    3248:	c5 fc 29 44 24 40    	vmovaps YMMWORD PTR [rsp+0x40],ymm0
    324e:	4c 8d 74 24 60       	lea    r14,[rsp+0x60]
    3253:	c6 44 24 60 01       	mov    BYTE PTR [rsp+0x60],0x1
    3258:	bf 01 00 00 00       	mov    edi,0x1
    325d:	c5 f8 77             	vzeroupper 
    3260:	e8 cb be 00 00       	call   f130 <_Z7tracebrPv>
    3265:	49 83 c5 08          	add    r13,0x8
    3269:	4c 89 6c 24 18       	mov    QWORD PTR [rsp+0x18],r13
    326e:	c7 44 24 20 20 00 00 	mov    DWORD PTR [rsp+0x20],0x20
    3275:	00 
    3276:	4c 89 74 24 28       	mov    QWORD PTR [rsp+0x28],r14
    327b:	c7 44 24 30 01 00 00 	mov    DWORD PTR [rsp+0x30],0x1
    3282:	00 
    3283:	48 8d 3d c6 f6 ff ff 	lea    rdi,[rip+0xfffffffffffff6c6]        # 2950 <sgxsd_enclave_hmac_sha256>
    328a:	e8 31 bb 00 00       	call   edc0 <_Z10traceedgecPv>
    328f:	4c 8d 7c 24 40       	lea    r15,[rsp+0x40]
    3294:	48 8d 54 24 18       	lea    rdx,[rsp+0x18]
    3299:	4c 89 ff             	mov    rdi,r15
    329c:	be 02 00 00 00       	mov    esi,0x2
    32a1:	e8 aa f6 ff ff       	call   2950 <sgxsd_enclave_hmac_sha256>
    32a6:	4d 85 e4             	test   r12,r12
    32a9:	74 16                	je     32c1 <sgxsd_enclave_derive_request_keys+0xb1>
    32ab:	bf 01 00 00 00       	mov    edi,0x1
    32b0:	e8 7b be 00 00       	call   f130 <_Z7tracebrPv>
    32b5:	c5 fc 28 44 24 40    	vmovaps ymm0,YMMWORD PTR [rsp+0x40]
    32bb:	c4 c1 7c 11 04 24    	vmovups YMMWORD PTR [r12],ymm0
    32c1:	31 ff                	xor    edi,edi
    32c3:	c5 f8 77             	vzeroupper 
    32c6:	e8 65 be 00 00       	call   f130 <_Z7tracebrPv>
    32cb:	8a 44 24 60          	mov    al,BYTE PTR [rsp+0x60]
    32cf:	8d 48 01             	lea    ecx,[rax+0x1]
    32d2:	88 4c 24 60          	mov    BYTE PTR [rsp+0x60],cl
    32d6:	31 ff                	xor    edi,edi
    32d8:	31 db                	xor    ebx,ebx
    32da:	84 c0                	test   al,al
    32dc:	40 0f 94 c7          	sete   dil
    32e0:	0f 95 c3             	setne  bl
    32e3:	4d 0f 45 f7          	cmovne r14,r15
    32e7:	c1 e3 05             	shl    ebx,0x5
    32ea:	83 cb 01             	or     ebx,0x1
    32ed:	e8 3e be 00 00       	call   f130 <_Z7tracebrPv>
    32f2:	4c 89 6c 24 18       	mov    QWORD PTR [rsp+0x18],r13
    32f7:	c7 44 24 20 20 00 00 	mov    DWORD PTR [rsp+0x20],0x20
    32fe:	00 
    32ff:	4c 89 74 24 28       	mov    QWORD PTR [rsp+0x28],r14
    3304:	89 5c 24 30          	mov    DWORD PTR [rsp+0x30],ebx
    3308:	48 8d 3d 41 f6 ff ff 	lea    rdi,[rip+0xfffffffffffff641]        # 2950 <sgxsd_enclave_hmac_sha256>
    330f:	e8 ac ba 00 00       	call   edc0 <_Z10traceedgecPv>
    3314:	48 8d 54 24 18       	lea    rdx,[rsp+0x18]
    3319:	4c 89 ff             	mov    rdi,r15
    331c:	be 02 00 00 00       	mov    esi,0x2
    3321:	e8 2a f6 ff ff       	call   2950 <sgxsd_enclave_hmac_sha256>
    3326:	48 8b 5c 24 38       	mov    rbx,QWORD PTR [rsp+0x38]
    332b:	48 85 db             	test   rbx,rbx
    332e:	74 14                	je     3344 <sgxsd_enclave_derive_request_keys+0x134>
    3330:	bf 01 00 00 00       	mov    edi,0x1
    3335:	e8 f6 bd 00 00       	call   f130 <_Z7tracebrPv>
    333a:	c5 fc 28 44 24 40    	vmovaps ymm0,YMMWORD PTR [rsp+0x40]
    3340:	c5 fc 11 03          	vmovups YMMWORD PTR [rbx],ymm0
    3344:	31 ff                	xor    edi,edi
    3346:	c5 f8 77             	vzeroupper 
    3349:	e8 e2 bd 00 00       	call   f130 <_Z7tracebrPv>
    334e:	48 8d 3d 1b 22 01 00 	lea    rdi,[rip+0x1221b]        # 15570 <memset_s>
    3355:	e8 66 ba 00 00       	call   edc0 <_Z10traceedgecPv>
    335a:	48 8d 7c 24 40       	lea    rdi,[rsp+0x40]
    335f:	be 21 00 00 00       	mov    esi,0x21
    3364:	b9 21 00 00 00       	mov    ecx,0x21
    3369:	31 d2                	xor    edx,edx
    336b:	e8 00 22 01 00       	call   15570 <memset_s>
    3370:	48 8b 7d 08          	mov    rdi,QWORD PTR [rbp+0x8]
    3374:	e8 47 ba 00 00       	call   edc0 <_Z10traceedgecPv>
    3379:	64 48 8b 04 25 28 00 	mov    rax,QWORD PTR fs:0x28
    3380:	00 00 
    3382:	48 3b 84 24 80 00 00 	cmp    rax,QWORD PTR [rsp+0x80]
    3389:	00 
    338a:	75 0f                	jne    339b <sgxsd_enclave_derive_request_keys+0x18b>
    338c:	48 8d 65 d8          	lea    rsp,[rbp-0x28]
    3390:	5b                   	pop    rbx
    3391:	41 5c                	pop    r12
    3393:	41 5d                	pop    r13
    3395:	41 5e                	pop    r14
    3397:	41 5f                	pop    r15
    3399:	5d                   	pop    rbp
    339a:	c3                   	ret    
    339b:	e8 40 ea 00 00       	call   11de0 <__stack_chk_fail>

00000000000033a0 <sgxsd_enclave_negotiate_request>:
    33a0:	55                   	push   rbp
    33a1:	41 57                	push   r15
    33a3:	41 56                	push   r14
    33a5:	41 55                	push   r13
    33a7:	41 54                	push   r12
    33a9:	53                   	push   rbx
    33aa:	48 81 ec b8 01 00 00 	sub    rsp,0x1b8
    33b1:	64 48 8b 04 25 28 00 	mov    rax,QWORD PTR fs:0x28
    33b8:	00 00 
    33ba:	48 89 84 24 b0 01 00 	mov    QWORD PTR [rsp+0x1b0],rax
    33c1:	00 
    33c2:	80 3d d7 f8 23 00 00 	cmp    BYTE PTR [rip+0x23f8d7],0x0        # 242ca0 <g_sgxsd_enclave_node_initialized>
    33c9:	0f 84 be 02 00 00    	je     368d <sgxsd_enclave_negotiate_request+0x2ed>
    33cf:	49 89 f6             	mov    r14,rsi
    33d2:	48 89 fb             	mov    rbx,rdi
    33d5:	bf 01 00 00 00       	mov    edi,0x1
    33da:	e8 51 bd 00 00       	call   f130 <_Z7tracebrPv>
    33df:	48 85 db             	test   rbx,rbx
    33e2:	0f 84 94 02 00 00    	je     367c <sgxsd_enclave_negotiate_request+0x2dc>
    33e8:	31 ff                	xor    edi,edi
    33ea:	e8 41 bd 00 00       	call   f130 <_Z7tracebrPv>
    33ef:	4d 85 f6             	test   r14,r14
    33f2:	0f 84 84 02 00 00    	je     367c <sgxsd_enclave_negotiate_request+0x2dc>
    33f8:	31 ff                	xor    edi,edi
    33fa:	e8 31 bd 00 00       	call   f130 <_Z7tracebrPv>
    33ff:	48 8d 3d 5a f0 ff ff 	lea    rdi,[rip+0xfffffffffffff05a]        # 2460 <sgxsd_enclave_generate_curve25519_keypair>
    3406:	e8 b5 b9 00 00       	call   edc0 <_Z10traceedgecPv>
    340b:	48 8d bc 24 70 01 00 	lea    rdi,[rsp+0x170]
    3412:	00 
    3413:	e8 48 f0 ff ff       	call   2460 <sgxsd_enclave_generate_curve25519_keypair>
    3418:	85 c0                	test   eax,eax
    341a:	0f 85 4e 02 00 00    	jne    366e <sgxsd_enclave_negotiate_request+0x2ce>
    3420:	31 ff                	xor    edi,edi
    3422:	e8 09 bd 00 00       	call   f130 <_Z7tracebrPv>
    3427:	48 8d 3d a2 24 01 00 	lea    rdi,[rip+0x124a2]        # 158d0 <sgx_spin_lock>
    342e:	e8 8d b9 00 00       	call   edc0 <_Z10traceedgecPv>
    3433:	48 8d 2d be 19 24 00 	lea    rbp,[rip+0x2419be]        # 244df8 <g_sgxsd_enclave_dh_keypair_lock>
    343a:	48 89 ef             	mov    rdi,rbp
    343d:	e8 8e 24 01 00       	call   158d0 <sgx_spin_lock>
    3442:	0f ae e8             	lfence 
    3445:	c5 fc 10 05 e3 08 24 	vmovups ymm0,YMMWORD PTR [rip+0x2408e3]        # 243d30 <g_sgxsd_enclave_dh_keypair+0x20>
    344c:	00 
    344d:	c5 fc 11 84 24 50 01 	vmovups YMMWORD PTR [rsp+0x150],ymm0
    3454:	00 00 
    3456:	c5 fc 10 05 b2 08 24 	vmovups ymm0,YMMWORD PTR [rip+0x2408b2]        # 243d10 <g_sgxsd_enclave_dh_keypair>
    345d:	00 
    345e:	c5 fc 11 84 24 30 01 	vmovups YMMWORD PTR [rsp+0x130],ymm0
    3465:	00 00 
    3467:	48 8d 3d c2 24 01 00 	lea    rdi,[rip+0x124c2]        # 15930 <sgx_spin_unlock>
    346e:	c5 f8 77             	vzeroupper 
    3471:	e8 4a b9 00 00       	call   edc0 <_Z10traceedgecPv>
    3476:	48 89 ef             	mov    rdi,rbp
    3479:	e8 b2 24 01 00       	call   15930 <sgx_spin_unlock>
    347e:	4c 8d 25 3b 34 00 00 	lea    r12,[rip+0x343b]        # 68c0 <curve25519_donna>
    3485:	4c 89 e7             	mov    rdi,r12
    3488:	e8 33 b9 00 00       	call   edc0 <_Z10traceedgecPv>
    348d:	4c 8d ac 24 10 01 00 	lea    r13,[rsp+0x110]
    3494:	00 
    3495:	48 8d ac 24 70 01 00 	lea    rbp,[rsp+0x170]
    349c:	00 
    349d:	4c 89 ef             	mov    rdi,r13
    34a0:	48 89 ee             	mov    rsi,rbp
    34a3:	48 89 da             	mov    rdx,rbx
    34a6:	e8 15 34 00 00       	call   68c0 <curve25519_donna>
    34ab:	4c 8d 3d be 20 01 00 	lea    r15,[rip+0x120be]        # 15570 <memset_s>
    34b2:	4c 89 ff             	mov    rdi,r15
    34b5:	e8 06 b9 00 00       	call   edc0 <_Z10traceedgecPv>
    34ba:	be 20 00 00 00       	mov    esi,0x20
    34bf:	b9 20 00 00 00       	mov    ecx,0x20
    34c4:	48 89 ef             	mov    rdi,rbp
    34c7:	31 d2                	xor    edx,edx
    34c9:	e8 a2 20 01 00       	call   15570 <memset_s>
    34ce:	4c 89 e7             	mov    rdi,r12
    34d1:	e8 ea b8 00 00       	call   edc0 <_Z10traceedgecPv>
    34d6:	4c 8d a4 24 f0 00 00 	lea    r12,[rsp+0xf0]
    34dd:	00 
    34de:	48 8d ac 24 30 01 00 	lea    rbp,[rsp+0x130]
    34e5:	00 
    34e6:	4c 89 e7             	mov    rdi,r12
    34e9:	48 89 ee             	mov    rsi,rbp
    34ec:	48 89 da             	mov    rdx,rbx
    34ef:	e8 cc 33 00 00       	call   68c0 <curve25519_donna>
    34f4:	4c 89 ff             	mov    rdi,r15
    34f7:	e8 c4 b8 00 00       	call   edc0 <_Z10traceedgecPv>
    34fc:	be 20 00 00 00       	mov    esi,0x20
    3501:	b9 20 00 00 00       	mov    ecx,0x20
    3506:	48 89 ef             	mov    rdi,rbp
    3509:	31 d2                	xor    edx,edx
    350b:	e8 60 20 01 00       	call   15570 <memset_s>
    3510:	48 89 5c 24 30       	mov    QWORD PTR [rsp+0x30],rbx
    3515:	c7 44 24 38 20 00 00 	mov    DWORD PTR [rsp+0x38],0x20
    351c:	00 
    351d:	48 8d 84 24 90 01 00 	lea    rax,[rsp+0x190]
    3524:	00 
    3525:	48 89 44 24 40       	mov    QWORD PTR [rsp+0x40],rax
    352a:	c7 44 24 48 20 00 00 	mov    DWORD PTR [rsp+0x48],0x20
    3531:	00 
    3532:	48 8d 84 24 50 01 00 	lea    rax,[rsp+0x150]
    3539:	00 
    353a:	48 89 44 24 50       	mov    QWORD PTR [rsp+0x50],rax
    353f:	c7 44 24 58 20 00 00 	mov    DWORD PTR [rsp+0x58],0x20
    3546:	00 
    3547:	48 8d 3d e2 f2 ff ff 	lea    rdi,[rip+0xfffffffffffff2e2]        # 2830 <sgxsd_enclave_sha256>
    354e:	e8 6d b8 00 00       	call   edc0 <_Z10traceedgecPv>
    3553:	48 8d 9c 24 d0 00 00 	lea    rbx,[rsp+0xd0]
    355a:	00 
    355b:	48 8d 54 24 30       	lea    rdx,[rsp+0x30]
    3560:	48 89 df             	mov    rdi,rbx
    3563:	be 03 00 00 00       	mov    esi,0x3
    3568:	e8 c3 f2 ff ff       	call   2830 <sgxsd_enclave_sha256>
    356d:	48 8d ac 24 b0 00 00 	lea    rbp,[rsp+0xb0]
    3574:	00 
    3575:	48 89 1c 24          	mov    QWORD PTR [rsp],rbx
    3579:	c7 44 24 08 20 00 00 	mov    DWORD PTR [rsp+0x8],0x20
    3580:	00 
    3581:	4c 89 6c 24 10       	mov    QWORD PTR [rsp+0x10],r13
    3586:	c7 44 24 18 20 00 00 	mov    DWORD PTR [rsp+0x18],0x20
    358d:	00 
    358e:	4c 89 64 24 20       	mov    QWORD PTR [rsp+0x20],r12
    3593:	c7 44 24 28 20 00 00 	mov    DWORD PTR [rsp+0x28],0x20
    359a:	00 
    359b:	48 8d 3d ae f3 ff ff 	lea    rdi,[rip+0xfffffffffffff3ae]        # 2950 <sgxsd_enclave_hmac_sha256>
    35a2:	e8 19 b8 00 00       	call   edc0 <_Z10traceedgecPv>
    35a7:	48 89 e2             	mov    rdx,rsp
    35aa:	48 89 ef             	mov    rdi,rbp
    35ad:	be 03 00 00 00       	mov    esi,0x3
    35b2:	e8 99 f3 ff ff       	call   2950 <sgxsd_enclave_hmac_sha256>
    35b7:	4c 89 ff             	mov    rdi,r15
    35ba:	e8 01 b8 00 00       	call   edc0 <_Z10traceedgecPv>
    35bf:	be 20 00 00 00       	mov    esi,0x20
    35c4:	b9 20 00 00 00       	mov    ecx,0x20
    35c9:	4c 89 ef             	mov    rdi,r13
    35cc:	31 d2                	xor    edx,edx
    35ce:	e8 9d 1f 01 00       	call   15570 <memset_s>
    35d3:	4c 89 ff             	mov    rdi,r15
    35d6:	e8 e5 b7 00 00       	call   edc0 <_Z10traceedgecPv>
    35db:	be 20 00 00 00       	mov    esi,0x20
    35e0:	b9 20 00 00 00       	mov    ecx,0x20
    35e5:	4c 89 e7             	mov    rdi,r12
    35e8:	31 d2                	xor    edx,edx
    35ea:	e8 81 1f 01 00       	call   15570 <memset_s>
    35ef:	4c 89 ff             	mov    rdi,r15
    35f2:	e8 c9 b7 00 00       	call   edc0 <_Z10traceedgecPv>
    35f7:	be 20 00 00 00       	mov    esi,0x20
    35fc:	b9 20 00 00 00       	mov    ecx,0x20
    3601:	48 89 df             	mov    rdi,rbx
    3604:	31 d2                	xor    edx,edx
    3606:	e8 65 1f 01 00       	call   15570 <memset_s>
    360b:	49 8d 5e 64          	lea    rbx,[r14+0x64]
    360f:	4c 89 ff             	mov    rdi,r15
    3612:	e8 a9 b7 00 00       	call   edc0 <_Z10traceedgecPv>
    3617:	be 0c 00 00 00       	mov    esi,0xc
    361c:	b9 0c 00 00 00       	mov    ecx,0xc
    3621:	48 89 df             	mov    rdi,rbx
    3624:	31 d2                	xor    edx,edx
    3626:	e8 45 1f 01 00       	call   15570 <memset_s>
    362b:	48 8d 3d de fb ff ff 	lea    rdi,[rip+0xfffffffffffffbde]        # 3210 <sgxsd_enclave_derive_request_keys>
    3632:	e8 89 b7 00 00       	call   edc0 <_Z10traceedgecPv>
    3637:	48 8d ac 24 a8 00 00 	lea    rbp,[rsp+0xa8]
    363e:	00 
    363f:	48 8d 94 24 88 00 00 	lea    rdx,[rsp+0x88]
    3646:	00 
    3647:	48 89 ef             	mov    rdi,rbp
    364a:	31 f6                	xor    esi,esi
    364c:	e8 bf fb ff ff       	call   3210 <sgxsd_enclave_derive_request_keys>
    3651:	48 8d 3d 38 f9 ff ff 	lea    rdi,[rip+0xfffffffffffff938]        # 2f90 <sgxsd_enclave_add_pending_request>
    3658:	e8 63 b7 00 00       	call   edc0 <_Z10traceedgecPv>
    365d:	48 8d 7c 24 60       	lea    rdi,[rsp+0x60]
    3662:	48 89 ee             	mov    rsi,rbp
    3665:	e8 26 f9 ff ff       	call   2f90 <sgxsd_enclave_add_pending_request>
    366a:	85 c0                	test   eax,eax
    366c:	74 66                	je     36d4 <sgxsd_enclave_negotiate_request+0x334>
    366e:	89 c5                	mov    ebp,eax
    3670:	bf 01 00 00 00       	mov    edi,0x1
    3675:	e8 b6 ba 00 00       	call   f130 <_Z7tracebrPv>
    367a:	eb 1d                	jmp    3699 <sgxsd_enclave_negotiate_request+0x2f9>
    367c:	bf 01 00 00 00       	mov    edi,0x1
    3681:	e8 aa ba 00 00       	call   f130 <_Z7tracebrPv>
    3686:	bd 02 00 00 00       	mov    ebp,0x2
    368b:	eb 0c                	jmp    3699 <sgxsd_enclave_negotiate_request+0x2f9>
    368d:	31 ff                	xor    edi,edi
    368f:	e8 9c ba 00 00       	call   f130 <_Z7tracebrPv>
    3694:	bd 05 00 00 00       	mov    ebp,0x5
    3699:	48 8b bc 24 e8 01 00 	mov    rdi,QWORD PTR [rsp+0x1e8]
    36a0:	00 
    36a1:	c5 f8 77             	vzeroupper 
    36a4:	e8 17 b7 00 00       	call   edc0 <_Z10traceedgecPv>
    36a9:	64 48 8b 04 25 28 00 	mov    rax,QWORD PTR fs:0x28
    36b0:	00 00 
    36b2:	48 3b 84 24 b0 01 00 	cmp    rax,QWORD PTR [rsp+0x1b0]
    36b9:	00 
    36ba:	0f 85 e7 00 00 00    	jne    37a7 <sgxsd_enclave_negotiate_request+0x407>
    36c0:	89 e8                	mov    eax,ebp
    36c2:	48 81 c4 b8 01 00 00 	add    rsp,0x1b8
    36c9:	5b                   	pop    rbx
    36ca:	41 5c                	pop    r12
    36cc:	41 5d                	pop    r13
    36ce:	41 5e                	pop    r14
    36d0:	41 5f                	pop    r15
    36d2:	5d                   	pop    rbp
    36d3:	c3                   	ret    
    36d4:	31 ff                	xor    edi,edi
    36d6:	e8 55 ba 00 00       	call   f130 <_Z7tracebrPv>
    36db:	48 8d 3d 8e 1e 01 00 	lea    rdi,[rip+0x11e8e]        # 15570 <memset_s>
    36e2:	e8 d9 b6 00 00       	call   edc0 <_Z10traceedgecPv>
    36e7:	be 20 00 00 00       	mov    esi,0x20
    36ec:	b9 20 00 00 00       	mov    ecx,0x20
    36f1:	48 8d bc 24 b0 00 00 	lea    rdi,[rsp+0xb0]
    36f8:	00 
    36f9:	31 d2                	xor    edx,edx
    36fb:	e8 70 1e 01 00       	call   15570 <memset_s>
    3700:	4d 8d 66 40          	lea    r12,[r14+0x40]
    3704:	4d 8d 7e 70          	lea    r15,[r14+0x70]
    3708:	48 8d 3d d1 ed ff ff 	lea    rdi,[rip+0xffffffffffffedd1]        # 24e0 <sgxsd_aes_gcm_run>
    370f:	e8 ac b6 00 00       	call   edc0 <_Z10traceedgecPv>
    3714:	48 83 ec 08          	sub    rsp,0x8
    3718:	bd 01 00 00 00       	mov    ebp,0x1
    371d:	4c 8d ac 24 90 00 00 	lea    r13,[rsp+0x90]
    3724:	00 
    3725:	48 8d 54 24 68       	lea    rdx,[rsp+0x68]
    372a:	bf 01 00 00 00       	mov    edi,0x1
    372f:	4c 89 ee             	mov    rsi,r13
    3732:	b9 24 00 00 00       	mov    ecx,0x24
    3737:	4d 89 e0             	mov    r8,r12
    373a:	49 89 d9             	mov    r9,rbx
    373d:	41 57                	push   r15
    373f:	6a 00                	push   0x0
    3741:	6a 00                	push   0x0
    3743:	e8 98 ed ff ff       	call   24e0 <sgxsd_aes_gcm_run>
    3748:	48 83 c4 20          	add    rsp,0x20
    374c:	89 c3                	mov    ebx,eax
    374e:	48 8d 3d 1b 1e 01 00 	lea    rdi,[rip+0x11e1b]        # 15570 <memset_s>
    3755:	e8 66 b6 00 00       	call   edc0 <_Z10traceedgecPv>
    375a:	be 20 00 00 00       	mov    esi,0x20
    375f:	b9 20 00 00 00       	mov    ecx,0x20
    3764:	4c 89 ef             	mov    rdi,r13
    3767:	31 d2                	xor    edx,edx
    3769:	e8 02 1e 01 00       	call   15570 <memset_s>
    376e:	85 db                	test   ebx,ebx
    3770:	0f 85 fa fe ff ff    	jne    3670 <sgxsd_enclave_negotiate_request+0x2d0>
    3776:	31 ff                	xor    edi,edi
    3778:	e8 b3 b9 00 00       	call   f130 <_Z7tracebrPv>
    377d:	48 8d 84 24 50 01 00 	lea    rax,[rsp+0x150]
    3784:	00 
    3785:	c5 fc 10 00          	vmovups ymm0,YMMWORD PTR [rax]
    3789:	c4 c1 7c 11 06       	vmovups YMMWORD PTR [r14],ymm0
    378e:	48 8d 84 24 90 01 00 	lea    rax,[rsp+0x190]
    3795:	00 
    3796:	c5 fc 10 00          	vmovups ymm0,YMMWORD PTR [rax]
    379a:	c4 c1 7c 11 46 20    	vmovups YMMWORD PTR [r14+0x20],ymm0
    37a0:	31 ed                	xor    ebp,ebp
    37a2:	e9 f2 fe ff ff       	jmp    3699 <sgxsd_enclave_negotiate_request+0x2f9>
    37a7:	e8 34 e6 00 00       	call   11de0 <__stack_chk_fail>
    37ac:	0f 1f 40 00          	nop    DWORD PTR [rax+0x0]

00000000000037b0 <sgxsd_enclave_server_reply>:
    37b0:	55                   	push   rbp
    37b1:	41 57                	push   r15
    37b3:	41 56                	push   r14
    37b5:	53                   	push   rbx
    37b6:	50                   	push   rax
    37b7:	89 f5                	mov    ebp,esi
    37b9:	48 89 fb             	mov    rbx,rdi
    37bc:	4c 8d 74 24 30       	lea    r14,[rsp+0x30]
    37c1:	48 8d 3d 88 00 00 00 	lea    rdi,[rip+0x88]        # 3850 <sgxsd_enclave_server_reply_noerase>
    37c8:	e8 f3 b5 00 00       	call   edc0 <_Z10traceedgecPv>
    37cd:	48 89 df             	mov    rdi,rbx
    37d0:	89 ee                	mov    esi,ebp
    37d2:	4c 89 f2             	mov    rdx,r14
    37d5:	e8 76 00 00 00       	call   3850 <sgxsd_enclave_server_reply_noerase>
    37da:	41 89 c7             	mov    r15d,eax
    37dd:	48 85 db             	test   rbx,rbx
    37e0:	74 28                	je     380a <sgxsd_enclave_server_reply+0x5a>
    37e2:	bf 01 00 00 00       	mov    edi,0x1
    37e7:	e8 44 b9 00 00       	call   f130 <_Z7tracebrPv>
    37ec:	89 ed                	mov    ebp,ebp
    37ee:	48 8d 3d 7b 1d 01 00 	lea    rdi,[rip+0x11d7b]        # 15570 <memset_s>
    37f5:	e8 c6 b5 00 00       	call   edc0 <_Z10traceedgecPv>
    37fa:	48 89 df             	mov    rdi,rbx
    37fd:	48 89 ee             	mov    rsi,rbp
    3800:	31 d2                	xor    edx,edx
    3802:	48 89 e9             	mov    rcx,rbp
    3805:	e8 66 1d 01 00       	call   15570 <memset_s>
    380a:	31 ff                	xor    edi,edi
    380c:	e8 1f b9 00 00       	call   f130 <_Z7tracebrPv>
    3811:	48 8d 3d 58 1d 01 00 	lea    rdi,[rip+0x11d58]        # 15570 <memset_s>
    3818:	e8 a3 b5 00 00       	call   edc0 <_Z10traceedgecPv>
    381d:	be 28 00 00 00       	mov    esi,0x28
    3822:	b9 28 00 00 00       	mov    ecx,0x28
    3827:	4c 89 f7             	mov    rdi,r14
    382a:	31 d2                	xor    edx,edx
    382c:	e8 3f 1d 01 00       	call   15570 <memset_s>
    3831:	48 8b 7c 24 28       	mov    rdi,QWORD PTR [rsp+0x28]
    3836:	e8 85 b5 00 00       	call   edc0 <_Z10traceedgecPv>
    383b:	44 89 f8             	mov    eax,r15d
    383e:	48 83 c4 08          	add    rsp,0x8
    3842:	5b                   	pop    rbx
    3843:	41 5e                	pop    r14
    3845:	41 5f                	pop    r15
    3847:	5d                   	pop    rbp
    3848:	c3                   	ret    
    3849:	0f 1f 80 00 00 00 00 	nop    DWORD PTR [rax+0x0]

0000000000003850 <sgxsd_enclave_server_reply_noerase>:
    3850:	55                   	push   rbp
    3851:	41 57                	push   r15
    3853:	41 56                	push   r14
    3855:	41 55                	push   r13
    3857:	41 54                	push   r12
    3859:	53                   	push   rbx
    385a:	48 83 ec 58          	sub    rsp,0x58
    385e:	49 89 d6             	mov    r14,rdx
    3861:	41 89 f7             	mov    r15d,esi
    3864:	48 89 fb             	mov    rbx,rdi
    3867:	64 48 8b 04 25 28 00 	mov    rax,QWORD PTR fs:0x28
    386e:	00 00 
    3870:	48 89 44 24 50       	mov    QWORD PTR [rsp+0x50],rax
    3875:	48 85 ff             	test   rdi,rdi
    3878:	74 32                	je     38ac <sgxsd_enclave_server_reply_noerase+0x5c>
    387a:	31 ff                	xor    edi,edi
    387c:	e8 af b8 00 00       	call   f130 <_Z7tracebrPv>
    3881:	48 8d 3d b8 bc 00 00 	lea    rdi,[rip+0xbcb8]        # f540 <sgx_read_rand>
    3888:	e8 33 b5 00 00       	call   edc0 <_Z10traceedgecPv>
    388d:	48 8d 7c 24 10       	lea    rdi,[rsp+0x10]
    3892:	be 0c 00 00 00       	mov    esi,0xc
    3897:	e8 a4 bc 00 00       	call   f540 <sgx_read_rand>
    389c:	85 c0                	test   eax,eax
    389e:	74 2f                	je     38cf <sgxsd_enclave_server_reply_noerase+0x7f>
    38a0:	89 c5                	mov    ebp,eax
    38a2:	bf 01 00 00 00       	mov    edi,0x1
    38a7:	e9 b6 00 00 00       	jmp    3962 <sgxsd_enclave_server_reply_noerase+0x112>
    38ac:	bf 01 00 00 00       	mov    edi,0x1
    38b1:	e8 7a b8 00 00       	call   f130 <_Z7tracebrPv>
    38b6:	45 85 ff             	test   r15d,r15d
    38b9:	74 bf                	je     387a <sgxsd_enclave_server_reply_noerase+0x2a>
    38bb:	bf 01 00 00 00       	mov    edi,0x1
    38c0:	e8 6b b8 00 00       	call   f130 <_Z7tracebrPv>
    38c5:	bd 02 00 00 00       	mov    ebp,0x2
    38ca:	e9 98 00 00 00       	jmp    3967 <sgxsd_enclave_server_reply_noerase+0x117>
    38cf:	31 ff                	xor    edi,edi
    38d1:	e8 5a b8 00 00       	call   f130 <_Z7tracebrPv>
    38d6:	80 4c 24 10 01       	or     BYTE PTR [rsp+0x10],0x1
    38db:	4d 8d 66 08          	lea    r12,[r14+0x8]
    38df:	4c 8d 6c 24 1c       	lea    r13,[rsp+0x1c]
    38e4:	48 8d 3d f5 eb ff ff 	lea    rdi,[rip+0xffffffffffffebf5]        # 24e0 <sgxsd_aes_gcm_run>
    38eb:	e8 d0 b4 00 00       	call   edc0 <_Z10traceedgecPv>
    38f0:	48 83 ec 08          	sub    rsp,0x8
    38f4:	bd 01 00 00 00       	mov    ebp,0x1
    38f9:	4c 8d 4c 24 18       	lea    r9,[rsp+0x18]
    38fe:	bf 01 00 00 00       	mov    edi,0x1
    3903:	4c 89 e6             	mov    rsi,r12
    3906:	48 89 da             	mov    rdx,rbx
    3909:	44 89 f9             	mov    ecx,r15d
    390c:	49 89 d8             	mov    r8,rbx
    390f:	41 55                	push   r13
    3911:	6a 00                	push   0x0
    3913:	6a 00                	push   0x0
    3915:	e8 c6 eb ff ff       	call   24e0 <sgxsd_aes_gcm_run>
    391a:	48 83 c4 20          	add    rsp,0x20
    391e:	85 c0                	test   eax,eax
    3920:	74 07                	je     3929 <sgxsd_enclave_server_reply_noerase+0xd9>
    3922:	bf 01 00 00 00       	mov    edi,0x1
    3927:	eb 39                	jmp    3962 <sgxsd_enclave_server_reply_noerase+0x112>
    3929:	31 ff                	xor    edi,edi
    392b:	e8 00 b8 00 00       	call   f130 <_Z7tracebrPv>
    3930:	45 89 ff             	mov    r15d,r15d
    3933:	49 8b 2e             	mov    rbp,QWORD PTR [r14]
    3936:	48 8d 3d 43 e3 ff ff 	lea    rdi,[rip+0xffffffffffffe343]        # 1c80 <sgxsd_ocall_reply>
    393d:	e8 7e b4 00 00       	call   edc0 <_Z10traceedgecPv>
    3942:	48 8d 7c 24 0c       	lea    rdi,[rsp+0xc]
    3947:	48 8d 74 24 10       	lea    rsi,[rsp+0x10]
    394c:	48 89 da             	mov    rdx,rbx
    394f:	4c 89 f9             	mov    rcx,r15
    3952:	49 89 e8             	mov    r8,rbp
    3955:	e8 26 e3 ff ff       	call   1c80 <sgxsd_ocall_reply>
    395a:	85 c0                	test   eax,eax
    395c:	74 37                	je     3995 <sgxsd_enclave_server_reply_noerase+0x145>
    395e:	89 c5                	mov    ebp,eax
    3960:	31 ff                	xor    edi,edi
    3962:	e8 c9 b7 00 00       	call   f130 <_Z7tracebrPv>
    3967:	48 8b bc 24 88 00 00 	mov    rdi,QWORD PTR [rsp+0x88]
    396e:	00 
    396f:	e8 4c b4 00 00       	call   edc0 <_Z10traceedgecPv>
    3974:	64 48 8b 04 25 28 00 	mov    rax,QWORD PTR fs:0x28
    397b:	00 00 
    397d:	48 3b 44 24 50       	cmp    rax,QWORD PTR [rsp+0x50]
    3982:	75 21                	jne    39a5 <sgxsd_enclave_server_reply_noerase+0x155>
    3984:	89 e8                	mov    eax,ebp
    3986:	48 83 c4 58          	add    rsp,0x58
    398a:	5b                   	pop    rbx
    398b:	41 5c                	pop    r12
    398d:	41 5d                	pop    r13
    398f:	41 5e                	pop    r14
    3991:	41 5f                	pop    r15
    3993:	5d                   	pop    rbp
    3994:	c3                   	ret    
    3995:	bf 01 00 00 00       	mov    edi,0x1
    399a:	e8 91 b7 00 00       	call   f130 <_Z7tracebrPv>
    399f:	8b 6c 24 0c          	mov    ebp,DWORD PTR [rsp+0xc]
    39a3:	eb c2                	jmp    3967 <sgxsd_enclave_server_reply_noerase+0x117>
    39a5:	e8 36 e4 00 00       	call   11de0 <__stack_chk_fail>
    39aa:	66 0f 1f 44 00 00    	nop    WORD PTR [rax+rax*1+0x0]

00000000000039b0 <sgxsd_enclave_server_start>:
    39b0:	41 57                	push   r15
    39b2:	41 56                	push   r14
    39b4:	41 54                	push   r12
    39b6:	53                   	push   rbx
    39b7:	50                   	push   rax
    39b8:	80 3d e1 f2 23 00 00 	cmp    BYTE PTR [rip+0x23f2e1],0x0        # 242ca0 <g_sgxsd_enclave_node_initialized>
    39bf:	74 2a                	je     39eb <sgxsd_enclave_server_start+0x3b>
    39c1:	48 89 f3             	mov    rbx,rsi
    39c4:	49 89 fe             	mov    r14,rdi
    39c7:	bf 01 00 00 00       	mov    edi,0x1
    39cc:	e8 5f b7 00 00       	call   f130 <_Z7tracebrPv>
    39d1:	48 81 fb 00 01 00 00 	cmp    rbx,0x100
    39d8:	72 1f                	jb     39f9 <sgxsd_enclave_server_start+0x49>
    39da:	bf 01 00 00 00       	mov    edi,0x1
    39df:	e8 4c b7 00 00       	call   f130 <_Z7tracebrPv>
    39e4:	bb 02 00 00 00       	mov    ebx,0x2
    39e9:	eb 70                	jmp    3a5b <sgxsd_enclave_server_start+0xab>
    39eb:	31 ff                	xor    edi,edi
    39ed:	e8 3e b7 00 00       	call   f130 <_Z7tracebrPv>
    39f2:	bb 05 00 00 00       	mov    ebx,0x5
    39f7:	eb 62                	jmp    3a5b <sgxsd_enclave_server_start+0xab>
    39f9:	31 ff                	xor    edi,edi
    39fb:	e8 30 b7 00 00       	call   f130 <_Z7tracebrPv>
    3a00:	48 c1 e3 04          	shl    rbx,0x4
    3a04:	48 8d 05 e5 03 24 00 	lea    rax,[rip+0x2403e5]        # 243df0 <g_sgxsd_enclave_server_states>
    3a0b:	4c 8d 3c 18          	lea    r15,[rax+rbx*1]
    3a0f:	4c 8d 24 03          	lea    r12,[rbx+rax*1]
    3a13:	49 83 c4 04          	add    r12,0x4
    3a17:	48 8d 3d b2 1e 01 00 	lea    rdi,[rip+0x11eb2]        # 158d0 <sgx_spin_lock>
    3a1e:	e8 9d b3 00 00       	call   edc0 <_Z10traceedgecPv>
    3a23:	4c 89 e7             	mov    rdi,r12
    3a26:	e8 a5 1e 01 00       	call   158d0 <sgx_spin_lock>
    3a2b:	0f ae e8             	lfence 
    3a2e:	48 8d 3d 4b 00 00 00 	lea    rdi,[rip+0x4b]        # 3a80 <sgxsd_enclave_server_start_locked>
    3a35:	e8 86 b3 00 00       	call   edc0 <_Z10traceedgecPv>
    3a3a:	4c 89 f7             	mov    rdi,r14
    3a3d:	4c 89 fe             	mov    rsi,r15
    3a40:	e8 3b 00 00 00       	call   3a80 <sgxsd_enclave_server_start_locked>
    3a45:	89 c3                	mov    ebx,eax
    3a47:	48 8d 3d e2 1e 01 00 	lea    rdi,[rip+0x11ee2]        # 15930 <sgx_spin_unlock>
    3a4e:	e8 6d b3 00 00       	call   edc0 <_Z10traceedgecPv>
    3a53:	4c 89 e7             	mov    rdi,r12
    3a56:	e8 d5 1e 01 00       	call   15930 <sgx_spin_unlock>
    3a5b:	48 8b 7c 24 28       	mov    rdi,QWORD PTR [rsp+0x28]
    3a60:	e8 5b b3 00 00       	call   edc0 <_Z10traceedgecPv>
    3a65:	89 d8                	mov    eax,ebx
    3a67:	48 83 c4 08          	add    rsp,0x8
    3a6b:	5b                   	pop    rbx
    3a6c:	41 5c                	pop    r12
    3a6e:	41 5e                	pop    r14
    3a70:	41 5f                	pop    r15
    3a72:	c3                   	ret    
    3a73:	66 2e 0f 1f 84 00 00 	nop    WORD PTR cs:[rax+rax*1+0x0]
    3a7a:	00 00 00 
    3a7d:	0f 1f 00             	nop    DWORD PTR [rax]

0000000000003a80 <sgxsd_enclave_server_start_locked>:
    3a80:	55                   	push   rbp
    3a81:	41 57                	push   r15
    3a83:	41 56                	push   r14
    3a85:	53                   	push   rbx
    3a86:	50                   	push   rax
    3a87:	80 3e 00             	cmp    BYTE PTR [rsi],0x0
    3a8a:	74 11                	je     3a9d <sgxsd_enclave_server_start_locked+0x1d>
    3a8c:	bf 01 00 00 00       	mov    edi,0x1
    3a91:	e8 9a b6 00 00       	call   f130 <_Z7tracebrPv>
    3a96:	bd 05 00 00 00       	mov    ebp,0x5
    3a9b:	eb 4a                	jmp    3ae7 <sgxsd_enclave_server_start_locked+0x67>
    3a9d:	48 89 f3             	mov    rbx,rsi
    3aa0:	49 89 fe             	mov    r14,rdi
    3aa3:	31 ed                	xor    ebp,ebp
    3aa5:	31 ff                	xor    edi,edi
    3aa7:	e8 84 b6 00 00       	call   f130 <_Z7tracebrPv>
    3aac:	4c 8d 7b 08          	lea    r15,[rbx+0x8]
    3ab0:	48 8d 3d 29 a8 00 00 	lea    rdi,[rip+0xa829]        # e2e0 <sgxsd_enclave_server_init>
    3ab7:	e8 04 b3 00 00       	call   edc0 <_Z10traceedgecPv>
    3abc:	4c 89 f7             	mov    rdi,r14
    3abf:	4c 89 fe             	mov    rsi,r15
    3ac2:	e8 19 a8 00 00       	call   e2e0 <sgxsd_enclave_server_init>
    3ac7:	85 c0                	test   eax,eax
    3ac9:	74 0f                	je     3ada <sgxsd_enclave_server_start_locked+0x5a>
    3acb:	41 89 c6             	mov    r14d,eax
    3ace:	31 ff                	xor    edi,edi
    3ad0:	e8 5b b6 00 00       	call   f130 <_Z7tracebrPv>
    3ad5:	44 89 f5             	mov    ebp,r14d
    3ad8:	eb 0d                	jmp    3ae7 <sgxsd_enclave_server_start_locked+0x67>
    3ada:	bf 01 00 00 00       	mov    edi,0x1
    3adf:	e8 4c b6 00 00       	call   f130 <_Z7tracebrPv>
    3ae4:	c6 03 01             	mov    BYTE PTR [rbx],0x1
    3ae7:	48 8b 7c 24 28       	mov    rdi,QWORD PTR [rsp+0x28]
    3aec:	e8 cf b2 00 00       	call   edc0 <_Z10traceedgecPv>
    3af1:	89 e8                	mov    eax,ebp
    3af3:	48 83 c4 08          	add    rsp,0x8
    3af7:	5b                   	pop    rbx
    3af8:	41 5e                	pop    r14
    3afa:	41 5f                	pop    r15
    3afc:	5d                   	pop    rbp
    3afd:	c3                   	ret    
    3afe:	66 90                	xchg   ax,ax

0000000000003b00 <sgxsd_enclave_server_call>:
    3b00:	55                   	push   rbp
    3b01:	41 57                	push   r15
    3b03:	41 56                	push   r14
    3b05:	41 55                	push   r13
    3b07:	41 54                	push   r12
    3b09:	53                   	push   rbx
    3b0a:	50                   	push   rax
    3b0b:	80 3d 8e f1 23 00 00 	cmp    BYTE PTR [rip+0x23f18e],0x0        # 242ca0 <g_sgxsd_enclave_node_initialized>
    3b12:	74 39                	je     3b4d <sgxsd_enclave_server_call+0x4d>
    3b14:	4c 89 cd             	mov    rbp,r9
    3b17:	4d 89 c6             	mov    r14,r8
    3b1a:	49 89 cf             	mov    r15,rcx
    3b1d:	49 89 d4             	mov    r12,rdx
    3b20:	49 89 f5             	mov    r13,rsi
    3b23:	48 89 fb             	mov    rbx,rdi
    3b26:	bf 01 00 00 00       	mov    edi,0x1
    3b2b:	e8 00 b6 00 00       	call   f130 <_Z7tracebrPv>
    3b30:	48 81 fd 00 01 00 00 	cmp    rbp,0x100
    3b37:	72 22                	jb     3b5b <sgxsd_enclave_server_call+0x5b>
    3b39:	bf 01 00 00 00       	mov    edi,0x1
    3b3e:	e8 ed b5 00 00       	call   f130 <_Z7tracebrPv>
    3b43:	bb 02 00 00 00       	mov    ebx,0x2
    3b48:	e9 80 00 00 00       	jmp    3bcd <sgxsd_enclave_server_call+0xcd>
    3b4d:	31 ff                	xor    edi,edi
    3b4f:	e8 dc b5 00 00       	call   f130 <_Z7tracebrPv>
    3b54:	bb 05 00 00 00       	mov    ebx,0x5
    3b59:	eb 72                	jmp    3bcd <sgxsd_enclave_server_call+0xcd>
    3b5b:	31 ff                	xor    edi,edi
    3b5d:	e8 ce b5 00 00       	call   f130 <_Z7tracebrPv>
    3b62:	48 c1 e5 04          	shl    rbp,0x4
    3b66:	48 8d 05 83 02 24 00 	lea    rax,[rip+0x240283]        # 243df0 <g_sgxsd_enclave_server_states>
    3b6d:	48 8d 0c 28          	lea    rcx,[rax+rbp*1]
    3b71:	48 89 0c 24          	mov    QWORD PTR [rsp],rcx
    3b75:	48 01 c5             	add    rbp,rax
    3b78:	48 83 c5 04          	add    rbp,0x4
    3b7c:	48 8d 3d 4d 1d 01 00 	lea    rdi,[rip+0x11d4d]        # 158d0 <sgx_spin_lock>
    3b83:	e8 38 b2 00 00       	call   edc0 <_Z10traceedgecPv>
    3b88:	48 89 ef             	mov    rdi,rbp
    3b8b:	e8 40 1d 01 00       	call   158d0 <sgx_spin_lock>
    3b90:	0f ae e8             	lfence 
    3b93:	48 8d 3d 56 00 00 00 	lea    rdi,[rip+0x56]        # 3bf0 <sgxsd_enclave_server_call_locked>
    3b9a:	e8 21 b2 00 00       	call   edc0 <_Z10traceedgecPv>
    3b9f:	48 89 df             	mov    rdi,rbx
    3ba2:	4c 89 ee             	mov    rsi,r13
    3ba5:	4c 89 e2             	mov    rdx,r12
    3ba8:	4c 89 f9             	mov    rcx,r15
    3bab:	4d 89 f0             	mov    r8,r14
    3bae:	4c 8b 0c 24          	mov    r9,QWORD PTR [rsp]
    3bb2:	e8 39 00 00 00       	call   3bf0 <sgxsd_enclave_server_call_locked>
    3bb7:	89 c3                	mov    ebx,eax
    3bb9:	48 8d 3d 70 1d 01 00 	lea    rdi,[rip+0x11d70]        # 15930 <sgx_spin_unlock>
    3bc0:	e8 fb b1 00 00       	call   edc0 <_Z10traceedgecPv>
    3bc5:	48 89 ef             	mov    rdi,rbp
    3bc8:	e8 63 1d 01 00       	call   15930 <sgx_spin_unlock>
    3bcd:	48 8b 7c 24 38       	mov    rdi,QWORD PTR [rsp+0x38]
    3bd2:	e8 e9 b1 00 00       	call   edc0 <_Z10traceedgecPv>
    3bd7:	89 d8                	mov    eax,ebx
    3bd9:	48 83 c4 08          	add    rsp,0x8
    3bdd:	5b                   	pop    rbx
    3bde:	41 5c                	pop    r12
    3be0:	41 5d                	pop    r13
    3be2:	41 5e                	pop    r14
    3be4:	41 5f                	pop    r15
    3be6:	5d                   	pop    rbp
    3be7:	c3                   	ret    
    3be8:	0f 1f 84 00 00 00 00 	nop    DWORD PTR [rax+rax*1+0x0]
    3bef:	00 

0000000000003bf0 <sgxsd_enclave_server_call_locked>:
    3bf0:	55                   	push   rbp
    3bf1:	41 57                	push   r15
    3bf3:	41 56                	push   r14
    3bf5:	41 55                	push   r13
    3bf7:	41 54                	push   r12
    3bf9:	53                   	push   rbx
    3bfa:	48 81 ec b8 00 00 00 	sub    rsp,0xb8
    3c01:	64 48 8b 04 25 28 00 	mov    rax,QWORD PTR fs:0x28
    3c08:	00 00 
    3c0a:	48 89 84 24 b0 00 00 	mov    QWORD PTR [rsp+0xb0],rax
    3c11:	00 
    3c12:	41 80 39 00          	cmp    BYTE PTR [r9],0x0
    3c16:	0f 84 8d 00 00 00    	je     3ca9 <sgxsd_enclave_server_call_locked+0xb9>
    3c1c:	4d 89 cd             	mov    r13,r9
    3c1f:	4d 89 c4             	mov    r12,r8
    3c22:	49 89 ce             	mov    r14,rcx
    3c25:	49 89 d7             	mov    r15,rdx
    3c28:	48 89 f3             	mov    rbx,rsi
    3c2b:	48 89 fd             	mov    rbp,rdi
    3c2e:	bf 01 00 00 00       	mov    edi,0x1
    3c33:	e8 f8 b4 00 00       	call   f130 <_Z7tracebrPv>
    3c38:	48 85 db             	test   rbx,rbx
    3c3b:	74 5b                	je     3c98 <sgxsd_enclave_server_call_locked+0xa8>
    3c3d:	31 ff                	xor    edi,edi
    3c3f:	e8 ec b4 00 00       	call   f130 <_Z7tracebrPv>
    3c44:	4d 85 ff             	test   r15,r15
    3c47:	74 4f                	je     3c98 <sgxsd_enclave_server_call_locked+0xa8>
    3c49:	31 ff                	xor    edi,edi
    3c4b:	e8 e0 b4 00 00       	call   f130 <_Z7tracebrPv>
    3c50:	4d 85 f6             	test   r14,r14
    3c53:	74 43                	je     3c98 <sgxsd_enclave_server_call_locked+0xa8>
    3c55:	48 89 6c 24 30       	mov    QWORD PTR [rsp+0x30],rbp
    3c5a:	31 ff                	xor    edi,edi
    3c5c:	e8 cf b4 00 00       	call   f130 <_Z7tracebrPv>
    3c61:	48 8d 6b 1c          	lea    rbp,[rbx+0x1c]
    3c65:	48 8d 3d 74 f4 ff ff 	lea    rdi,[rip+0xfffffffffffff474]        # 30e0 <sgxsd_enclave_remove_pending_request>
    3c6c:	e8 4f b1 00 00       	call   edc0 <_Z10traceedgecPv>
    3c71:	48 8d b4 24 88 00 00 	lea    rsi,[rsp+0x88]
    3c78:	00 
    3c79:	48 89 6c 24 38       	mov    QWORD PTR [rsp+0x38],rbp
    3c7e:	48 89 ef             	mov    rdi,rbp
    3c81:	e8 5a f4 ff ff       	call   30e0 <sgxsd_enclave_remove_pending_request>
    3c86:	85 c0                	test   eax,eax
    3c88:	74 63                	je     3ced <sgxsd_enclave_server_call_locked+0xfd>
    3c8a:	89 c5                	mov    ebp,eax
    3c8c:	bf 01 00 00 00       	mov    edi,0x1
    3c91:	e8 9a b4 00 00       	call   f130 <_Z7tracebrPv>
    3c96:	eb 1d                	jmp    3cb5 <sgxsd_enclave_server_call_locked+0xc5>
    3c98:	bf 01 00 00 00       	mov    edi,0x1
    3c9d:	e8 8e b4 00 00       	call   f130 <_Z7tracebrPv>
    3ca2:	bd 02 00 00 00       	mov    ebp,0x2
    3ca7:	eb 0c                	jmp    3cb5 <sgxsd_enclave_server_call_locked+0xc5>
    3ca9:	31 ff                	xor    edi,edi
    3cab:	e8 80 b4 00 00       	call   f130 <_Z7tracebrPv>
    3cb0:	bd 05 00 00 00       	mov    ebp,0x5
    3cb5:	48 8b bc 24 e8 00 00 	mov    rdi,QWORD PTR [rsp+0xe8]
    3cbc:	00 
    3cbd:	e8 fe b0 00 00       	call   edc0 <_Z10traceedgecPv>
    3cc2:	64 48 8b 04 25 28 00 	mov    rax,QWORD PTR fs:0x28
    3cc9:	00 00 
    3ccb:	48 3b 84 24 b0 00 00 	cmp    rax,QWORD PTR [rsp+0xb0]
    3cd2:	00 
    3cd3:	0f 85 8a 01 00 00    	jne    3e63 <sgxsd_enclave_server_call_locked+0x273>
    3cd9:	89 e8                	mov    eax,ebp
    3cdb:	48 81 c4 b8 00 00 00 	add    rsp,0xb8
    3ce2:	5b                   	pop    rbx
    3ce3:	41 5c                	pop    r12
    3ce5:	41 5d                	pop    r13
    3ce7:	41 5e                	pop    r14
    3ce9:	41 5f                	pop    r15
    3ceb:	5d                   	pop    rbp
    3cec:	c3                   	ret    
    3ced:	31 ff                	xor    edi,edi
    3cef:	e8 3c b4 00 00       	call   f130 <_Z7tracebrPv>
    3cf4:	c5 f8 57 c0          	vxorps xmm0,xmm0,xmm0
    3cf8:	c5 fc 11 44 24 48    	vmovups YMMWORD PTR [rsp+0x48],ymm0
    3cfe:	4c 89 64 24 40       	mov    QWORD PTR [rsp+0x40],r12
    3d03:	48 8d 3d 06 f5 ff ff 	lea    rdi,[rip+0xfffffffffffff506]        # 3210 <sgxsd_enclave_derive_request_keys>
    3d0a:	c5 f8 77             	vzeroupper 
    3d0d:	e8 ae b0 00 00       	call   edc0 <_Z10traceedgecPv>
    3d12:	48 8d ac 24 88 00 00 	lea    rbp,[rsp+0x88]
    3d19:	00 
    3d1a:	4c 8d 64 24 68       	lea    r12,[rsp+0x68]
    3d1f:	48 89 ef             	mov    rdi,rbp
    3d22:	4c 89 e6             	mov    rsi,r12
    3d25:	48 8d 54 24 48       	lea    rdx,[rsp+0x48]
    3d2a:	e8 e1 f4 ff ff       	call   3210 <sgxsd_enclave_derive_request_keys>
    3d2f:	48 8d 3d 3a 18 01 00 	lea    rdi,[rip+0x1183a]        # 15570 <memset_s>
    3d36:	e8 85 b0 00 00       	call   edc0 <_Z10traceedgecPv>
    3d3b:	be 28 00 00 00       	mov    esi,0x28
    3d40:	b9 28 00 00 00       	mov    ecx,0x28
    3d45:	48 89 ef             	mov    rdi,rbp
    3d48:	31 d2                	xor    edx,edx
    3d4a:	e8 21 18 01 00       	call   15570 <memset_s>
    3d4f:	48 8d 6b 0c          	lea    rbp,[rbx+0xc]
    3d53:	48 8d 3d 86 e7 ff ff 	lea    rdi,[rip+0xffffffffffffe786]        # 24e0 <sgxsd_aes_gcm_run>
    3d5a:	e8 61 b0 00 00       	call   edc0 <_Z10traceedgecPv>
    3d5f:	48 89 6c 24 10       	mov    QWORD PTR [rsp+0x10],rbp
    3d64:	48 8b 44 24 38       	mov    rax,QWORD PTR [rsp+0x38]
    3d69:	48 89 04 24          	mov    QWORD PTR [rsp],rax
    3d6d:	c7 44 24 08 24 00 00 	mov    DWORD PTR [rsp+0x8],0x24
    3d74:	00 
    3d75:	bf 00 00 00 00       	mov    edi,0x0
    3d7a:	4c 89 e6             	mov    rsi,r12
    3d7d:	4c 89 fa             	mov    rdx,r15
    3d80:	44 89 f1             	mov    ecx,r14d
    3d83:	4d 89 f8             	mov    r8,r15
    3d86:	49 89 d9             	mov    r9,rbx
    3d89:	e8 52 e7 ff ff       	call   24e0 <sgxsd_aes_gcm_run>
    3d8e:	89 c3                	mov    ebx,eax
    3d90:	48 8d 3d d9 17 01 00 	lea    rdi,[rip+0x117d9]        # 15570 <memset_s>
    3d97:	e8 24 b0 00 00       	call   edc0 <_Z10traceedgecPv>
    3d9c:	be 20 00 00 00       	mov    esi,0x20
    3da1:	b9 20 00 00 00       	mov    ecx,0x20
    3da6:	4c 89 e7             	mov    rdi,r12
    3da9:	31 d2                	xor    edx,edx
    3dab:	e8 c0 17 01 00       	call   15570 <memset_s>
    3db0:	85 db                	test   ebx,ebx
    3db2:	74 26                	je     3dda <sgxsd_enclave_server_call_locked+0x1ea>
    3db4:	bd 01 00 00 00       	mov    ebp,0x1
    3db9:	bf 01 00 00 00       	mov    edi,0x1
    3dbe:	e8 6d b3 00 00       	call   f130 <_Z7tracebrPv>
    3dc3:	83 fb 02             	cmp    ebx,0x2
    3dc6:	0f 84 c0 fe ff ff    	je     3c8c <sgxsd_enclave_server_call_locked+0x9c>
    3dcc:	31 ff                	xor    edi,edi
    3dce:	e8 5d b3 00 00       	call   f130 <_Z7tracebrPv>
    3dd3:	89 dd                	mov    ebp,ebx
    3dd5:	e9 db fe ff ff       	jmp    3cb5 <sgxsd_enclave_server_call_locked+0xc5>
    3dda:	31 ff                	xor    edi,edi
    3ddc:	e8 4f b3 00 00       	call   f130 <_Z7tracebrPv>
    3de1:	49 83 c5 08          	add    r13,0x8
    3de5:	48 8d 3d d4 a5 00 00 	lea    rdi,[rip+0xa5d4]        # e3c0 <sgxsd_enclave_server_handle_call>
    3dec:	e8 cf af 00 00       	call   edc0 <_Z10traceedgecPv>
    3df1:	48 8b 44 24 60       	mov    rax,QWORD PTR [rsp+0x60]
    3df6:	48 89 44 24 20       	mov    QWORD PTR [rsp+0x20],rax
    3dfb:	c5 fc 10 44 24 40    	vmovups ymm0,YMMWORD PTR [rsp+0x40]
    3e01:	c5 fc 11 04 24       	vmovups YMMWORD PTR [rsp],ymm0
    3e06:	48 8b 7c 24 30       	mov    rdi,QWORD PTR [rsp+0x30]
    3e0b:	4c 89 fe             	mov    rsi,r15
    3e0e:	44 89 f2             	mov    edx,r14d
    3e11:	4c 89 e9             	mov    rcx,r13
    3e14:	c5 f8 77             	vzeroupper 
    3e17:	e8 a4 a5 00 00       	call   e3c0 <sgxsd_enclave_server_handle_call>
    3e1c:	89 c5                	mov    ebp,eax
    3e1e:	44 89 f3             	mov    ebx,r14d
    3e21:	4c 8d 35 48 17 01 00 	lea    r14,[rip+0x11748]        # 15570 <memset_s>
    3e28:	4c 89 f7             	mov    rdi,r14
    3e2b:	e8 90 af 00 00       	call   edc0 <_Z10traceedgecPv>
    3e30:	4c 89 ff             	mov    rdi,r15
    3e33:	48 89 de             	mov    rsi,rbx
    3e36:	31 d2                	xor    edx,edx
    3e38:	48 89 d9             	mov    rcx,rbx
    3e3b:	e8 30 17 01 00       	call   15570 <memset_s>
    3e40:	4c 89 f7             	mov    rdi,r14
    3e43:	e8 78 af 00 00       	call   edc0 <_Z10traceedgecPv>
    3e48:	48 8d 7c 24 40       	lea    rdi,[rsp+0x40]
    3e4d:	be 28 00 00 00       	mov    esi,0x28
    3e52:	b9 28 00 00 00       	mov    ecx,0x28
    3e57:	31 d2                	xor    edx,edx
    3e59:	e8 12 17 01 00       	call   15570 <memset_s>
    3e5e:	e9 52 fe ff ff       	jmp    3cb5 <sgxsd_enclave_server_call_locked+0xc5>
    3e63:	e8 78 df 00 00       	call   11de0 <__stack_chk_fail>
    3e68:	0f 1f 84 00 00 00 00 	nop    DWORD PTR [rax+rax*1+0x0]
    3e6f:	00 

0000000000003e70 <sgxsd_enclave_server_stop>:
    3e70:	41 57                	push   r15
    3e72:	41 56                	push   r14
    3e74:	41 54                	push   r12
    3e76:	53                   	push   rbx
    3e77:	50                   	push   rax
    3e78:	80 3d 21 ee 23 00 00 	cmp    BYTE PTR [rip+0x23ee21],0x0        # 242ca0 <g_sgxsd_enclave_node_initialized>
    3e7f:	74 2a                	je     3eab <sgxsd_enclave_server_stop+0x3b>
    3e81:	48 89 f3             	mov    rbx,rsi
    3e84:	49 89 fe             	mov    r14,rdi
    3e87:	bf 01 00 00 00       	mov    edi,0x1
    3e8c:	e8 9f b2 00 00       	call   f130 <_Z7tracebrPv>
    3e91:	48 81 fb 00 01 00 00 	cmp    rbx,0x100
    3e98:	72 1f                	jb     3eb9 <sgxsd_enclave_server_stop+0x49>
    3e9a:	bf 01 00 00 00       	mov    edi,0x1
    3e9f:	e8 8c b2 00 00       	call   f130 <_Z7tracebrPv>
    3ea4:	bb 02 00 00 00       	mov    ebx,0x2
    3ea9:	eb 70                	jmp    3f1b <sgxsd_enclave_server_stop+0xab>
    3eab:	31 ff                	xor    edi,edi
    3ead:	e8 7e b2 00 00       	call   f130 <_Z7tracebrPv>
    3eb2:	bb 05 00 00 00       	mov    ebx,0x5
    3eb7:	eb 62                	jmp    3f1b <sgxsd_enclave_server_stop+0xab>
    3eb9:	31 ff                	xor    edi,edi
    3ebb:	e8 70 b2 00 00       	call   f130 <_Z7tracebrPv>
    3ec0:	48 c1 e3 04          	shl    rbx,0x4
    3ec4:	48 8d 05 25 ff 23 00 	lea    rax,[rip+0x23ff25]        # 243df0 <g_sgxsd_enclave_server_states>
    3ecb:	4c 8d 3c 18          	lea    r15,[rax+rbx*1]
    3ecf:	4c 8d 24 03          	lea    r12,[rbx+rax*1]
    3ed3:	49 83 c4 04          	add    r12,0x4
    3ed7:	48 8d 3d f2 19 01 00 	lea    rdi,[rip+0x119f2]        # 158d0 <sgx_spin_lock>
    3ede:	e8 dd ae 00 00       	call   edc0 <_Z10traceedgecPv>
    3ee3:	4c 89 e7             	mov    rdi,r12
    3ee6:	e8 e5 19 01 00       	call   158d0 <sgx_spin_lock>
    3eeb:	0f ae e8             	lfence 
    3eee:	48 8d 3d 4b 00 00 00 	lea    rdi,[rip+0x4b]        # 3f40 <sgxsd_enclave_server_stop_locked>
    3ef5:	e8 c6 ae 00 00       	call   edc0 <_Z10traceedgecPv>
    3efa:	4c 89 f7             	mov    rdi,r14
    3efd:	4c 89 fe             	mov    rsi,r15
    3f00:	e8 3b 00 00 00       	call   3f40 <sgxsd_enclave_server_stop_locked>
    3f05:	89 c3                	mov    ebx,eax
    3f07:	48 8d 3d 22 1a 01 00 	lea    rdi,[rip+0x11a22]        # 15930 <sgx_spin_unlock>
    3f0e:	e8 ad ae 00 00       	call   edc0 <_Z10traceedgecPv>
    3f13:	4c 89 e7             	mov    rdi,r12
    3f16:	e8 15 1a 01 00       	call   15930 <sgx_spin_unlock>
    3f1b:	48 8b 7c 24 28       	mov    rdi,QWORD PTR [rsp+0x28]
    3f20:	e8 9b ae 00 00       	call   edc0 <_Z10traceedgecPv>
    3f25:	89 d8                	mov    eax,ebx
    3f27:	48 83 c4 08          	add    rsp,0x8
    3f2b:	5b                   	pop    rbx
    3f2c:	41 5c                	pop    r12
    3f2e:	41 5e                	pop    r14
    3f30:	41 5f                	pop    r15
    3f32:	c3                   	ret    
    3f33:	66 2e 0f 1f 84 00 00 	nop    WORD PTR cs:[rax+rax*1+0x0]
    3f3a:	00 00 00 
    3f3d:	0f 1f 00             	nop    DWORD PTR [rax]

0000000000003f40 <sgxsd_enclave_server_stop_locked>:
    3f40:	41 57                	push   r15
    3f42:	41 56                	push   r14
    3f44:	53                   	push   rbx
    3f45:	80 3e 00             	cmp    BYTE PTR [rsi],0x0
    3f48:	74 4f                	je     3f99 <sgxsd_enclave_server_stop_locked+0x59>
    3f4a:	48 89 f3             	mov    rbx,rsi
    3f4d:	49 89 fe             	mov    r14,rdi
    3f50:	bf 01 00 00 00       	mov    edi,0x1
    3f55:	e8 d6 b1 00 00       	call   f130 <_Z7tracebrPv>
    3f5a:	4c 8b 7b 08          	mov    r15,QWORD PTR [rbx+0x8]
    3f5e:	48 8d 3d 0b 16 01 00 	lea    rdi,[rip+0x1160b]        # 15570 <memset_s>
    3f65:	e8 56 ae 00 00       	call   edc0 <_Z10traceedgecPv>
    3f6a:	be 10 00 00 00       	mov    esi,0x10
    3f6f:	b9 10 00 00 00       	mov    ecx,0x10
    3f74:	48 89 df             	mov    rdi,rbx
    3f77:	31 d2                	xor    edx,edx
    3f79:	e8 f2 15 01 00       	call   15570 <memset_s>
    3f7e:	48 8d 3d eb a5 00 00 	lea    rdi,[rip+0xa5eb]        # e570 <sgxsd_enclave_server_terminate>
    3f85:	e8 36 ae 00 00       	call   edc0 <_Z10traceedgecPv>
    3f8a:	4c 89 f7             	mov    rdi,r14
    3f8d:	4c 89 fe             	mov    rsi,r15
    3f90:	e8 db a5 00 00       	call   e570 <sgxsd_enclave_server_terminate>
    3f95:	89 c3                	mov    ebx,eax
    3f97:	eb 0c                	jmp    3fa5 <sgxsd_enclave_server_stop_locked+0x65>
    3f99:	31 ff                	xor    edi,edi
    3f9b:	e8 90 b1 00 00       	call   f130 <_Z7tracebrPv>
    3fa0:	bb 05 00 00 00       	mov    ebx,0x5
    3fa5:	48 8b 7c 24 18       	mov    rdi,QWORD PTR [rsp+0x18]
    3faa:	e8 11 ae 00 00       	call   edc0 <_Z10traceedgecPv>
    3faf:	89 d8                	mov    eax,ebx
    3fb1:	5b                   	pop    rbx
    3fb2:	41 5e                	pop    r14
    3fb4:	41 5f                	pop    r15
    3fb6:	c3                   	ret    
    3fb7:	66 0f 1f 84 00 00 00 	nop    WORD PTR [rax+rax*1+0x0]
    3fbe:	00 00 

0000000000003fc0 <my_printf>:
    3fc0:	41 56                	push   r14
    3fc2:	53                   	push   rbx
    3fc3:	48 81 ec d8 20 00 00 	sub    rsp,0x20d8
    3fca:	49 89 fe             	mov    r14,rdi
    3fcd:	84 c0                	test   al,al
    3fcf:	74 3f                	je     4010 <my_printf+0x50>
    3fd1:	c5 f8 29 44 24 50    	vmovaps XMMWORD PTR [rsp+0x50],xmm0
    3fd7:	c5 f8 29 4c 24 60    	vmovaps XMMWORD PTR [rsp+0x60],xmm1
    3fdd:	c5 f8 29 54 24 70    	vmovaps XMMWORD PTR [rsp+0x70],xmm2
    3fe3:	c5 f8 29 9c 24 80 00 	vmovaps XMMWORD PTR [rsp+0x80],xmm3
    3fea:	00 00 
    3fec:	c5 f8 29 a4 24 90 00 	vmovaps XMMWORD PTR [rsp+0x90],xmm4
    3ff3:	00 00 
    3ff5:	c5 f8 29 ac 24 a0 00 	vmovaps XMMWORD PTR [rsp+0xa0],xmm5
    3ffc:	00 00 
    3ffe:	c5 f8 29 b4 24 b0 00 	vmovaps XMMWORD PTR [rsp+0xb0],xmm6
    4005:	00 00 
    4007:	c5 f8 29 bc 24 c0 00 	vmovaps XMMWORD PTR [rsp+0xc0],xmm7
    400e:	00 00 
    4010:	48 89 74 24 28       	mov    QWORD PTR [rsp+0x28],rsi
    4015:	48 89 54 24 30       	mov    QWORD PTR [rsp+0x30],rdx
    401a:	48 89 4c 24 38       	mov    QWORD PTR [rsp+0x38],rcx
    401f:	4c 89 44 24 40       	mov    QWORD PTR [rsp+0x40],r8
    4024:	4c 89 4c 24 48       	mov    QWORD PTR [rsp+0x48],r9
    4029:	64 48 8b 04 25 28 00 	mov    rax,QWORD PTR fs:0x28
    4030:	00 00 
    4032:	48 89 84 24 d0 20 00 	mov    QWORD PTR [rsp+0x20d0],rax
    4039:	00 
    403a:	48 8d 9c 24 d0 00 00 	lea    rbx,[rsp+0xd0]
    4041:	00 
    4042:	ba 00 20 00 00       	mov    edx,0x2000
    4047:	48 89 df             	mov    rdi,rbx
    404a:	31 f6                	xor    esi,esi
    404c:	e8 0f 15 01 00       	call   15560 <memset>
    4051:	48 8d 44 24 20       	lea    rax,[rsp+0x20]
    4056:	48 89 44 24 10       	mov    QWORD PTR [rsp+0x10],rax
    405b:	48 8d 84 24 f0 20 00 	lea    rax,[rsp+0x20f0]
    4062:	00 
    4063:	48 89 44 24 08       	mov    QWORD PTR [rsp+0x8],rax
    4068:	48 b8 08 00 00 00 30 	movabs rax,0x3000000008
    406f:	00 00 00 
    4072:	48 89 04 24          	mov    QWORD PTR [rsp],rax
    4076:	48 8d 3d d3 18 01 00 	lea    rdi,[rip+0x118d3]        # 15950 <vsnprintf>
    407d:	e8 3e ad 00 00       	call   edc0 <_Z10traceedgecPv>
    4082:	48 89 e1             	mov    rcx,rsp
    4085:	be 00 20 00 00       	mov    esi,0x2000
    408a:	48 89 df             	mov    rdi,rbx
    408d:	4c 89 f2             	mov    rdx,r14
    4090:	e8 bb 18 01 00       	call   15950 <vsnprintf>
    4095:	48 8d 3d 94 de ff ff 	lea    rdi,[rip+0xffffffffffffde94]        # 1f30 <ocall_print_string>
    409c:	e8 1f ad 00 00       	call   edc0 <_Z10traceedgecPv>
    40a1:	48 89 df             	mov    rdi,rbx
    40a4:	e8 87 de ff ff       	call   1f30 <ocall_print_string>
    40a9:	48 8b bc 24 e8 20 00 	mov    rdi,QWORD PTR [rsp+0x20e8]
    40b0:	00 
    40b1:	e8 0a ad 00 00       	call   edc0 <_Z10traceedgecPv>
    40b6:	64 48 8b 04 25 28 00 	mov    rax,QWORD PTR fs:0x28
    40bd:	00 00 
    40bf:	48 3b 84 24 d0 20 00 	cmp    rax,QWORD PTR [rsp+0x20d0]
    40c6:	00 
    40c7:	75 0b                	jne    40d4 <my_printf+0x114>
    40c9:	48 81 c4 d8 20 00 00 	add    rsp,0x20d8
    40d0:	5b                   	pop    rbx
    40d1:	41 5e                	pop    r14
    40d3:	c3                   	ret    
    40d4:	e8 07 dd 00 00       	call   11de0 <__stack_chk_fail>
    40d9:	0f 1f 80 00 00 00 00 	nop    DWORD PTR [rax+0x0]

00000000000040e0 <hello>:
    40e0:	50                   	push   rax
    40e1:	48 8d 3d d8 fe ff ff 	lea    rdi,[rip+0xfffffffffffffed8]        # 3fc0 <my_printf>
    40e8:	e8 d3 ac 00 00       	call   edc0 <_Z10traceedgecPv>
    40ed:	48 8d 3d 0c 63 03 00 	lea    rdi,[rip+0x3630c]        # 3a400 <sgxsd_enclave_generate_curve25519_keypair.BASEPOINT+0x20>
    40f4:	31 c0                	xor    eax,eax
    40f6:	e8 c5 fe ff ff       	call   3fc0 <my_printf>
    40fb:	48 8b 7c 24 08       	mov    rdi,QWORD PTR [rsp+0x8]
    4100:	58                   	pop    rax
    4101:	e9 ba ac 00 00       	jmp    edc0 <_Z10traceedgecPv>
    4106:	66 2e 0f 1f 84 00 00 	nop    WORD PTR cs:[rax+rax*1+0x0]
    410d:	00 00 00 

0000000000004110 <br_range_dec32be>:
    4110:	41 57                	push   r15
    4112:	41 56                	push   r14
    4114:	41 54                	push   r12
    4116:	53                   	push   rbx
    4117:	50                   	push   rax
    4118:	48 85 f6             	test   rsi,rsi
    411b:	74 2f                	je     414c <br_range_dec32be+0x3c>
    411d:	49 89 d6             	mov    r14,rdx
    4120:	49 89 f4             	mov    r12,rsi
    4123:	49 89 ff             	mov    r15,rdi
    4126:	31 db                	xor    ebx,ebx
    4128:	0f 1f 84 00 00 00 00 	nop    DWORD PTR [rax+rax*1+0x0]
    412f:	00 
    4130:	bf 01 00 00 00       	mov    edi,0x1
    4135:	e8 f6 af 00 00       	call   f130 <_Z7tracebrPv>
    413a:	41 8b 04 9e          	mov    eax,DWORD PTR [r14+rbx*4]
    413e:	41 0f 38 f1 04 9f    	movbe  DWORD PTR [r15+rbx*4],eax
    4144:	48 ff c3             	inc    rbx
    4147:	49 39 dc             	cmp    r12,rbx
    414a:	75 e4                	jne    4130 <br_range_dec32be+0x20>
    414c:	31 ff                	xor    edi,edi
    414e:	e8 dd af 00 00       	call   f130 <_Z7tracebrPv>
    4153:	48 8b 7c 24 28       	mov    rdi,QWORD PTR [rsp+0x28]
    4158:	48 83 c4 08          	add    rsp,0x8
    415c:	5b                   	pop    rbx
    415d:	41 5c                	pop    r12
    415f:	41 5e                	pop    r14
    4161:	41 5f                	pop    r15
    4163:	e9 58 ac 00 00       	jmp    edc0 <_Z10traceedgecPv>
    4168:	0f 1f 84 00 00 00 00 	nop    DWORD PTR [rax+rax*1+0x0]
    416f:	00 

0000000000004170 <br_sha2small_round>:
    4170:	55                   	push   rbp
    4171:	41 57                	push   r15
    4173:	41 56                	push   r14
    4175:	41 55                	push   r13
    4177:	41 54                	push   r12
    4179:	53                   	push   rbx
    417a:	48 81 ec 28 01 00 00 	sub    rsp,0x128
    4181:	49 89 f7             	mov    r15,rsi
    4184:	48 89 fb             	mov    rbx,rdi
    4187:	48 8d 3d 82 ff ff ff 	lea    rdi,[rip+0xffffffffffffff82]        # 4110 <br_range_dec32be>
    418e:	e8 2d ac 00 00       	call   edc0 <_Z10traceedgecPv>
    4193:	48 8d 7c 24 20       	lea    rdi,[rsp+0x20]
    4198:	bd 10 00 00 00       	mov    ebp,0x10
    419d:	be 10 00 00 00       	mov    esi,0x10
    41a2:	48 89 da             	mov    rdx,rbx
    41a5:	e8 66 ff ff ff       	call   4110 <br_range_dec32be>
    41aa:	66 0f 1f 44 00 00    	nop    WORD PTR [rax+rax*1+0x0]
    41b0:	bf 01 00 00 00       	mov    edi,0x1
    41b5:	e8 76 af 00 00       	call   f130 <_Z7tracebrPv>
    41ba:	8b 44 ac 18          	mov    eax,DWORD PTR [rsp+rbp*4+0x18]
    41be:	c4 e3 7b f0 c8 11    	rorx   ecx,eax,0x11
    41c4:	c4 e3 7b f0 d0 13    	rorx   edx,eax,0x13
    41ca:	c1 e8 0a             	shr    eax,0xa
    41cd:	31 d0                	xor    eax,edx
    41cf:	31 c8                	xor    eax,ecx
    41d1:	8b 4c ac e0          	mov    ecx,DWORD PTR [rsp+rbp*4-0x20]
    41d5:	8b 54 ac e4          	mov    edx,DWORD PTR [rsp+rbp*4-0x1c]
    41d9:	c4 e3 7b f0 f2 07    	rorx   esi,edx,0x7
    41df:	c4 e3 7b f0 fa 12    	rorx   edi,edx,0x12
    41e5:	c1 ea 03             	shr    edx,0x3
    41e8:	31 fa                	xor    edx,edi
    41ea:	03 4c ac 04          	add    ecx,DWORD PTR [rsp+rbp*4+0x4]
    41ee:	31 f2                	xor    edx,esi
    41f0:	01 c1                	add    ecx,eax
    41f2:	01 d1                	add    ecx,edx
    41f4:	89 4c ac 20          	mov    DWORD PTR [rsp+rbp*4+0x20],ecx
    41f8:	48 ff c5             	inc    rbp
    41fb:	48 83 fd 40          	cmp    rbp,0x40
    41ff:	75 af                	jne    41b0 <br_sha2small_round+0x40>
    4201:	31 c0                	xor    eax,eax
    4203:	48 89 44 24 10       	mov    QWORD PTR [rsp+0x10],rax
    4208:	31 ff                	xor    edi,edi
    420a:	e8 21 af 00 00       	call   f130 <_Z7tracebrPv>
    420f:	45 8b 37             	mov    r14d,DWORD PTR [r15]
    4212:	45 8b 67 04          	mov    r12d,DWORD PTR [r15+0x4]
    4216:	41 8b 6f 08          	mov    ebp,DWORD PTR [r15+0x8]
    421a:	41 8b 5f 0c          	mov    ebx,DWORD PTR [r15+0xc]
    421e:	41 8b 47 10          	mov    eax,DWORD PTR [r15+0x10]
    4222:	89 44 24 0c          	mov    DWORD PTR [rsp+0xc],eax
    4226:	45 8b 6f 14          	mov    r13d,DWORD PTR [r15+0x14]
    422a:	41 8b 47 18          	mov    eax,DWORD PTR [r15+0x18]
    422e:	89 44 24 08          	mov    DWORD PTR [rsp+0x8],eax
    4232:	4c 89 7c 24 18       	mov    QWORD PTR [rsp+0x18],r15
    4237:	45 8b 7f 1c          	mov    r15d,DWORD PTR [r15+0x1c]
    423b:	0f 1f 44 00 00       	nop    DWORD PTR [rax+rax*1+0x0]
    4240:	bf 01 00 00 00       	mov    edi,0x1
    4245:	e8 e6 ae 00 00       	call   f130 <_Z7tracebrPv>
    424a:	44 8b 4c 24 0c       	mov    r9d,DWORD PTR [rsp+0xc]
    424f:	c4 c3 7b f0 c1 06    	rorx   eax,r9d,0x6
    4255:	c4 c3 7b f0 c9 0b    	rorx   ecx,r9d,0xb
    425b:	31 c1                	xor    ecx,eax
    425d:	c4 c3 7b f0 c1 19    	rorx   eax,r9d,0x19
    4263:	31 c8                	xor    eax,ecx
    4265:	8b 7c 24 08          	mov    edi,DWORD PTR [rsp+0x8]
    4269:	c4 e2 30 f2 cf       	andn   ecx,r9d,edi
    426e:	44 89 ea             	mov    edx,r13d
    4271:	44 21 ca             	and    edx,r9d
    4274:	09 ca                	or     edx,ecx
    4276:	44 01 fa             	add    edx,r15d
    4279:	01 c2                	add    edx,eax
    427b:	4c 8b 44 24 10       	mov    r8,QWORD PTR [rsp+0x10]
    4280:	4c 8d 15 a9 61 03 00 	lea    r10,[rip+0x361a9]        # 3a430 <K>
    4287:	43 03 14 82          	add    edx,DWORD PTR [r10+r8*4]
    428b:	42 03 54 84 20       	add    edx,DWORD PTR [rsp+r8*4+0x20]
    4290:	c4 c3 7b f0 c6 02    	rorx   eax,r14d,0x2
    4296:	c4 c3 7b f0 ce 0d    	rorx   ecx,r14d,0xd
    429c:	31 c1                	xor    ecx,eax
    429e:	c4 c3 7b f0 c6 16    	rorx   eax,r14d,0x16
    42a4:	31 c8                	xor    eax,ecx
    42a6:	44 89 e1             	mov    ecx,r12d
    42a9:	21 e9                	and    ecx,ebp
    42ab:	45 89 e7             	mov    r15d,r12d
    42ae:	41 09 ef             	or     r15d,ebp
    42b1:	45 21 f7             	and    r15d,r14d
    42b4:	41 09 cf             	or     r15d,ecx
    42b7:	41 01 c7             	add    r15d,eax
    42ba:	01 d3                	add    ebx,edx
    42bc:	41 01 d7             	add    r15d,edx
    42bf:	c4 e3 7b f0 c3 06    	rorx   eax,ebx,0x6
    42c5:	c4 e3 7b f0 cb 0b    	rorx   ecx,ebx,0xb
    42cb:	31 c1                	xor    ecx,eax
    42cd:	c4 e3 7b f0 c3 19    	rorx   eax,ebx,0x19
    42d3:	31 c8                	xor    eax,ecx
    42d5:	c4 c2 60 f2 cd       	andn   ecx,ebx,r13d
    42da:	44 89 ca             	mov    edx,r9d
    42dd:	21 da                	and    edx,ebx
    42df:	09 ca                	or     edx,ecx
    42e1:	43 03 7c 82 04       	add    edi,DWORD PTR [r10+r8*4+0x4]
    42e6:	42 03 7c 84 24       	add    edi,DWORD PTR [rsp+r8*4+0x24]
    42eb:	01 d7                	add    edi,edx
    42ed:	01 c7                	add    edi,eax
    42ef:	c4 c3 7b f0 c7 02    	rorx   eax,r15d,0x2
    42f5:	c4 c3 7b f0 cf 0d    	rorx   ecx,r15d,0xd
    42fb:	31 c1                	xor    ecx,eax
    42fd:	c4 c3 7b f0 c7 16    	rorx   eax,r15d,0x16
    4303:	31 c8                	xor    eax,ecx
    4305:	44 89 f1             	mov    ecx,r14d
    4308:	44 21 e1             	and    ecx,r12d
    430b:	44 89 f2             	mov    edx,r14d
    430e:	44 09 e2             	or     edx,r12d
    4311:	44 21 fa             	and    edx,r15d
    4314:	09 ca                	or     edx,ecx
    4316:	01 c2                	add    edx,eax
    4318:	01 fd                	add    ebp,edi
    431a:	01 d7                	add    edi,edx
    431c:	c4 e3 7b f0 c5 06    	rorx   eax,ebp,0x6
    4322:	c4 e3 7b f0 cd 0b    	rorx   ecx,ebp,0xb
    4328:	31 c1                	xor    ecx,eax
    432a:	c4 e3 7b f0 c5 19    	rorx   eax,ebp,0x19
    4330:	31 c8                	xor    eax,ecx
    4332:	c4 c2 50 f2 c9       	andn   ecx,ebp,r9d
    4337:	89 da                	mov    edx,ebx
    4339:	21 ea                	and    edx,ebp
    433b:	09 ca                	or     edx,ecx
    433d:	47 03 6c 82 08       	add    r13d,DWORD PTR [r10+r8*4+0x8]
    4342:	46 03 6c 84 28       	add    r13d,DWORD PTR [rsp+r8*4+0x28]
    4347:	41 01 d5             	add    r13d,edx
    434a:	41 01 c5             	add    r13d,eax
    434d:	c4 e3 7b f0 c7 02    	rorx   eax,edi,0x2
    4353:	c4 e3 7b f0 cf 0d    	rorx   ecx,edi,0xd
    4359:	31 c1                	xor    ecx,eax
    435b:	c4 e3 7b f0 c7 16    	rorx   eax,edi,0x16
    4361:	31 c8                	xor    eax,ecx
    4363:	44 89 f9             	mov    ecx,r15d
    4366:	44 21 f1             	and    ecx,r14d
    4369:	44 89 fa             	mov    edx,r15d
    436c:	44 09 f2             	or     edx,r14d
    436f:	21 fa                	and    edx,edi
    4371:	09 ca                	or     edx,ecx
    4373:	01 c2                	add    edx,eax
    4375:	45 01 ec             	add    r12d,r13d
    4378:	41 01 d5             	add    r13d,edx
    437b:	c4 c3 7b f0 c4 06    	rorx   eax,r12d,0x6
    4381:	c4 c3 7b f0 cc 0b    	rorx   ecx,r12d,0xb
    4387:	31 c1                	xor    ecx,eax
    4389:	c4 c3 7b f0 c4 19    	rorx   eax,r12d,0x19
    438f:	31 c8                	xor    eax,ecx
    4391:	c4 e2 18 f2 cb       	andn   ecx,r12d,ebx
    4396:	89 ea                	mov    edx,ebp
    4398:	44 21 e2             	and    edx,r12d
    439b:	09 ca                	or     edx,ecx
    439d:	47 03 4c 82 0c       	add    r9d,DWORD PTR [r10+r8*4+0xc]
    43a2:	46 03 4c 84 2c       	add    r9d,DWORD PTR [rsp+r8*4+0x2c]
    43a7:	41 01 d1             	add    r9d,edx
    43aa:	41 01 c1             	add    r9d,eax
    43ad:	c4 c3 7b f0 c5 02    	rorx   eax,r13d,0x2
    43b3:	c4 c3 7b f0 cd 0d    	rorx   ecx,r13d,0xd
    43b9:	31 c1                	xor    ecx,eax
    43bb:	c4 c3 7b f0 c5 16    	rorx   eax,r13d,0x16
    43c1:	31 c8                	xor    eax,ecx
    43c3:	89 f9                	mov    ecx,edi
    43c5:	44 21 f9             	and    ecx,r15d
    43c8:	89 fa                	mov    edx,edi
    43ca:	44 09 fa             	or     edx,r15d
    43cd:	44 21 ea             	and    edx,r13d
    43d0:	09 ca                	or     edx,ecx
    43d2:	01 c2                	add    edx,eax
    43d4:	45 01 ce             	add    r14d,r9d
    43d7:	41 01 d1             	add    r9d,edx
    43da:	c4 c3 7b f0 c6 06    	rorx   eax,r14d,0x6
    43e0:	c4 c3 7b f0 ce 0b    	rorx   ecx,r14d,0xb
    43e6:	31 c1                	xor    ecx,eax
    43e8:	c4 c3 7b f0 c6 19    	rorx   eax,r14d,0x19
    43ee:	31 c8                	xor    eax,ecx
    43f0:	c4 e2 08 f2 cd       	andn   ecx,r14d,ebp
    43f5:	44 89 e2             	mov    edx,r12d
    43f8:	44 21 f2             	and    edx,r14d
    43fb:	09 ca                	or     edx,ecx
    43fd:	43 03 5c 82 10       	add    ebx,DWORD PTR [r10+r8*4+0x10]
    4402:	42 03 5c 84 30       	add    ebx,DWORD PTR [rsp+r8*4+0x30]
    4407:	01 d3                	add    ebx,edx
    4409:	89 d9                	mov    ecx,ebx
    440b:	01 c1                	add    ecx,eax
    440d:	c4 c3 7b f0 c1 02    	rorx   eax,r9d,0x2
    4413:	c4 c3 7b f0 d1 0d    	rorx   edx,r9d,0xd
    4419:	31 c2                	xor    edx,eax
    441b:	c4 c3 7b f0 c1 16    	rorx   eax,r9d,0x16
    4421:	31 d0                	xor    eax,edx
    4423:	44 89 ea             	mov    edx,r13d
    4426:	21 fa                	and    edx,edi
    4428:	44 89 eb             	mov    ebx,r13d
    442b:	09 fb                	or     ebx,edi
    442d:	44 21 cb             	and    ebx,r9d
    4430:	09 d3                	or     ebx,edx
    4432:	01 c3                	add    ebx,eax
    4434:	41 01 cf             	add    r15d,ecx
    4437:	01 cb                	add    ebx,ecx
    4439:	c4 c3 7b f0 c7 06    	rorx   eax,r15d,0x6
    443f:	c4 c3 7b f0 cf 0b    	rorx   ecx,r15d,0xb
    4445:	31 c1                	xor    ecx,eax
    4447:	c4 c3 7b f0 d7 19    	rorx   edx,r15d,0x19
    444d:	31 ca                	xor    edx,ecx
    444f:	c4 c2 00 f2 c4       	andn   eax,r15d,r12d
    4454:	44 89 f1             	mov    ecx,r14d
    4457:	44 21 f9             	and    ecx,r15d
    445a:	09 c1                	or     ecx,eax
    445c:	42 8b 74 84 34       	mov    esi,DWORD PTR [rsp+r8*4+0x34]
    4461:	42 8b 44 84 38       	mov    eax,DWORD PTR [rsp+r8*4+0x38]
    4466:	43 03 74 82 14       	add    esi,DWORD PTR [r10+r8*4+0x14]
    446b:	01 ee                	add    esi,ebp
    446d:	01 ce                	add    esi,ecx
    446f:	01 d6                	add    esi,edx
    4471:	c4 e3 7b f0 cb 02    	rorx   ecx,ebx,0x2
    4477:	c4 e3 7b f0 d3 0d    	rorx   edx,ebx,0xd
    447d:	31 ca                	xor    edx,ecx
    447f:	c4 e3 7b f0 cb 16    	rorx   ecx,ebx,0x16
    4485:	31 d1                	xor    ecx,edx
    4487:	44 89 ca             	mov    edx,r9d
    448a:	44 21 ea             	and    edx,r13d
    448d:	44 89 cd             	mov    ebp,r9d
    4490:	44 09 ed             	or     ebp,r13d
    4493:	21 dd                	and    ebp,ebx
    4495:	09 d5                	or     ebp,edx
    4497:	01 cd                	add    ebp,ecx
    4499:	01 f7                	add    edi,esi
    449b:	01 f5                	add    ebp,esi
    449d:	c4 e3 7b f0 cf 06    	rorx   ecx,edi,0x6
    44a3:	c4 e3 7b f0 d7 0b    	rorx   edx,edi,0xb
    44a9:	31 ca                	xor    edx,ecx
    44ab:	c4 e3 7b f0 cf 19    	rorx   ecx,edi,0x19
    44b1:	31 d1                	xor    ecx,edx
    44b3:	c4 c2 40 f2 d6       	andn   edx,edi,r14d
    44b8:	44 89 fe             	mov    esi,r15d
    44bb:	21 fe                	and    esi,edi
    44bd:	09 d6                	or     esi,edx
    44bf:	43 03 44 82 18       	add    eax,DWORD PTR [r10+r8*4+0x18]
    44c4:	44 01 e0             	add    eax,r12d
    44c7:	01 f0                	add    eax,esi
    44c9:	01 c8                	add    eax,ecx
    44cb:	c4 e3 7b f0 cd 02    	rorx   ecx,ebp,0x2
    44d1:	c4 e3 7b f0 d5 0d    	rorx   edx,ebp,0xd
    44d7:	31 ca                	xor    edx,ecx
    44d9:	c4 e3 7b f0 cd 16    	rorx   ecx,ebp,0x16
    44df:	31 d1                	xor    ecx,edx
    44e1:	89 da                	mov    edx,ebx
    44e3:	44 21 ca             	and    edx,r9d
    44e6:	41 89 dc             	mov    r12d,ebx
    44e9:	45 09 cc             	or     r12d,r9d
    44ec:	41 21 ec             	and    r12d,ebp
    44ef:	41 09 d4             	or     r12d,edx
    44f2:	41 01 cc             	add    r12d,ecx
    44f5:	41 01 c5             	add    r13d,eax
    44f8:	41 01 c4             	add    r12d,eax
    44fb:	c4 c3 7b f0 c5 06    	rorx   eax,r13d,0x6
    4501:	c4 c3 7b f0 cd 0b    	rorx   ecx,r13d,0xb
    4507:	31 c1                	xor    ecx,eax
    4509:	c4 c3 7b f0 c5 19    	rorx   eax,r13d,0x19
    450f:	31 c8                	xor    eax,ecx
    4511:	c4 c2 10 f2 cf       	andn   ecx,r13d,r15d
    4516:	89 7c 24 08          	mov    DWORD PTR [rsp+0x8],edi
    451a:	89 fa                	mov    edx,edi
    451c:	44 21 ea             	and    edx,r13d
    451f:	42 8b 74 84 3c       	mov    esi,DWORD PTR [rsp+r8*4+0x3c]
    4524:	43 03 74 82 1c       	add    esi,DWORD PTR [r10+r8*4+0x1c]
    4529:	09 ca                	or     edx,ecx
    452b:	44 01 f6             	add    esi,r14d
    452e:	01 d6                	add    esi,edx
    4530:	01 c6                	add    esi,eax
    4532:	c4 c3 7b f0 c4 02    	rorx   eax,r12d,0x2
    4538:	c4 c3 7b f0 cc 0d    	rorx   ecx,r12d,0xd
    453e:	31 c1                	xor    ecx,eax
    4540:	c4 c3 7b f0 c4 16    	rorx   eax,r12d,0x16
    4546:	31 c8                	xor    eax,ecx
    4548:	89 e9                	mov    ecx,ebp
    454a:	21 d9                	and    ecx,ebx
    454c:	41 89 ee             	mov    r14d,ebp
    454f:	41 09 de             	or     r14d,ebx
    4552:	45 21 e6             	and    r14d,r12d
    4555:	41 09 ce             	or     r14d,ecx
    4558:	41 01 c6             	add    r14d,eax
    455b:	41 01 f1             	add    r9d,esi
    455e:	44 89 4c 24 0c       	mov    DWORD PTR [rsp+0xc],r9d
    4563:	41 01 f6             	add    r14d,esi
    4566:	49 83 c0 08          	add    r8,0x8
    456a:	4c 89 44 24 10       	mov    QWORD PTR [rsp+0x10],r8
    456f:	49 83 f8 40          	cmp    r8,0x40
    4573:	0f 82 c7 fc ff ff    	jb     4240 <br_sha2small_round+0xd0>
    4579:	31 ff                	xor    edi,edi
    457b:	e8 b0 ab 00 00       	call   f130 <_Z7tracebrPv>
    4580:	c5 f9 6e 44 24 0c    	vmovd  xmm0,DWORD PTR [rsp+0xc]
    4586:	c4 c3 79 22 c5 01    	vpinsrd xmm0,xmm0,r13d,0x1
    458c:	c4 e3 79 22 44 24 08 	vpinsrd xmm0,xmm0,DWORD PTR [rsp+0x8],0x2
    4593:	02 
    4594:	c4 c3 79 22 c7 03    	vpinsrd xmm0,xmm0,r15d,0x3
    459a:	c4 c1 79 6e ce       	vmovd  xmm1,r14d
    459f:	c4 c3 71 22 cc 01    	vpinsrd xmm1,xmm1,r12d,0x1
    45a5:	c4 e3 71 22 cd 02    	vpinsrd xmm1,xmm1,ebp,0x2
    45ab:	c4 e3 71 22 cb 03    	vpinsrd xmm1,xmm1,ebx,0x3
    45b1:	c4 e3 75 38 c0 01    	vinserti128 ymm0,ymm1,xmm0,0x1
    45b7:	48 8b 44 24 18       	mov    rax,QWORD PTR [rsp+0x18]
    45bc:	c5 fd fe 00          	vpaddd ymm0,ymm0,YMMWORD PTR [rax]
    45c0:	c5 fe 7f 00          	vmovdqu YMMWORD PTR [rax],ymm0
    45c4:	48 8b bc 24 58 01 00 	mov    rdi,QWORD PTR [rsp+0x158]
    45cb:	00 
    45cc:	c5 f8 77             	vzeroupper 
    45cf:	e8 ec a7 00 00       	call   edc0 <_Z10traceedgecPv>
    45d4:	48 81 c4 28 01 00 00 	add    rsp,0x128
    45db:	5b                   	pop    rbx
    45dc:	41 5c                	pop    r12
    45de:	41 5d                	pop    r13
    45e0:	41 5e                	pop    r14
    45e2:	41 5f                	pop    r15
    45e4:	5d                   	pop    rbp
    45e5:	c3                   	ret    
    45e6:	66 2e 0f 1f 84 00 00 	nop    WORD PTR cs:[rax+rax*1+0x0]
    45ed:	00 00 00 

00000000000045f0 <br_sha224_update>:
    45f0:	41 57                	push   r15
    45f2:	41 56                	push   r14
    45f4:	53                   	push   rbx
    45f5:	49 89 d6             	mov    r14,rdx
    45f8:	49 89 f7             	mov    r15,rsi
    45fb:	48 89 fb             	mov    rbx,rdi
    45fe:	48 8d 3d 2b 00 00 00 	lea    rdi,[rip+0x2b]        # 4630 <sha2small_update>
    4605:	e8 b6 a7 00 00       	call   edc0 <_Z10traceedgecPv>
    460a:	48 89 df             	mov    rdi,rbx
    460d:	4c 89 fe             	mov    rsi,r15
    4610:	4c 89 f2             	mov    rdx,r14
    4613:	e8 18 00 00 00       	call   4630 <sha2small_update>
    4618:	48 8b 7c 24 18       	mov    rdi,QWORD PTR [rsp+0x18]
    461d:	5b                   	pop    rbx
    461e:	41 5e                	pop    r14
    4620:	41 5f                	pop    r15
    4622:	e9 99 a7 00 00       	jmp    edc0 <_Z10traceedgecPv>
    4627:	66 0f 1f 84 00 00 00 	nop    WORD PTR [rax+rax*1+0x0]
    462e:	00 00 

0000000000004630 <sha2small_update>:
    4630:	55                   	push   rbp
    4631:	41 57                	push   r15
    4633:	41 56                	push   r14
    4635:	41 55                	push   r13
    4637:	41 54                	push   r12
    4639:	53                   	push   rbx
    463a:	50                   	push   rax
    463b:	4c 8b 67 48          	mov    r12,QWORD PTR [rdi+0x48]
    463f:	49 8d 04 14          	lea    rax,[r12+rdx*1]
    4643:	48 89 47 48          	mov    QWORD PTR [rdi+0x48],rax
    4647:	48 85 d2             	test   rdx,rdx
    464a:	0f 84 a4 00 00 00    	je     46f4 <sha2small_update+0xc4>
    4650:	48 89 d5             	mov    rbp,rdx
    4653:	48 89 f3             	mov    rbx,rsi
    4656:	49 89 ff             	mov    r15,rdi
    4659:	41 83 e4 3f          	and    r12d,0x3f
    465d:	48 8d 47 08          	lea    rax,[rdi+0x8]
    4661:	48 89 04 24          	mov    QWORD PTR [rsp],rax
    4665:	4c 8d 6f 50          	lea    r13,[rdi+0x50]
    4669:	eb 14                	jmp    467f <sha2small_update+0x4f>
    466b:	0f 1f 44 00 00       	nop    DWORD PTR [rax+rax*1+0x0]
    4670:	4c 01 f3             	add    rbx,r14
    4673:	31 ff                	xor    edi,edi
    4675:	e8 b6 aa 00 00       	call   f130 <_Z7tracebrPv>
    467a:	48 85 ed             	test   rbp,rbp
    467d:	74 75                	je     46f4 <sha2small_update+0xc4>
    467f:	bf 01 00 00 00       	mov    edi,0x1
    4684:	e8 a7 aa 00 00       	call   f130 <_Z7tracebrPv>
    4689:	41 be 40 00 00 00    	mov    r14d,0x40
    468f:	4d 29 e6             	sub    r14,r12
    4692:	49 39 ee             	cmp    r14,rbp
    4695:	76 0d                	jbe    46a4 <sha2small_update+0x74>
    4697:	bf 01 00 00 00       	mov    edi,0x1
    469c:	e8 8f aa 00 00       	call   f130 <_Z7tracebrPv>
    46a1:	49 89 ee             	mov    r14,rbp
    46a4:	31 ff                	xor    edi,edi
    46a6:	e8 85 aa 00 00       	call   f130 <_Z7tracebrPv>
    46ab:	4b 8d 3c 27          	lea    rdi,[r15+r12*1]
    46af:	48 83 c7 08          	add    rdi,0x8
    46b3:	48 89 de             	mov    rsi,rbx
    46b6:	4c 89 f2             	mov    rdx,r14
    46b9:	e8 92 0c 01 00       	call   15350 <memcpy>
    46be:	4d 01 f4             	add    r12,r14
    46c1:	4c 29 f5             	sub    rbp,r14
    46c4:	49 83 fc 40          	cmp    r12,0x40
    46c8:	75 a6                	jne    4670 <sha2small_update+0x40>
    46ca:	bf 01 00 00 00       	mov    edi,0x1
    46cf:	e8 5c aa 00 00       	call   f130 <_Z7tracebrPv>
    46d4:	48 8d 3d 95 fa ff ff 	lea    rdi,[rip+0xfffffffffffffa95]        # 4170 <br_sha2small_round>
    46db:	e8 e0 a6 00 00       	call   edc0 <_Z10traceedgecPv>
    46e0:	48 8b 3c 24          	mov    rdi,QWORD PTR [rsp]
    46e4:	4c 89 ee             	mov    rsi,r13
    46e7:	e8 84 fa ff ff       	call   4170 <br_sha2small_round>
    46ec:	45 31 e4             	xor    r12d,r12d
    46ef:	e9 7c ff ff ff       	jmp    4670 <sha2small_update+0x40>
    46f4:	31 ff                	xor    edi,edi
    46f6:	e8 35 aa 00 00       	call   f130 <_Z7tracebrPv>
    46fb:	48 8b 7c 24 38       	mov    rdi,QWORD PTR [rsp+0x38]
    4700:	48 83 c4 08          	add    rsp,0x8
    4704:	5b                   	pop    rbx
    4705:	41 5c                	pop    r12
    4707:	41 5d                	pop    r13
    4709:	41 5e                	pop    r14
    470b:	41 5f                	pop    r15
    470d:	5d                   	pop    rbp
    470e:	e9 ad a6 00 00       	jmp    edc0 <_Z10traceedgecPv>
    4713:	66 2e 0f 1f 84 00 00 	nop    WORD PTR cs:[rax+rax*1+0x0]
    471a:	00 00 00 
    471d:	0f 1f 00             	nop    DWORD PTR [rax]

0000000000004720 <sha2small_out>:
    4720:	55                   	push   rbp
    4721:	48 89 e5             	mov    rbp,rsp
    4724:	41 57                	push   r15
    4726:	41 56                	push   r14
    4728:	41 55                	push   r13
    472a:	41 54                	push   r12
    472c:	53                   	push   rbx
    472d:	48 83 e4 e0          	and    rsp,0xffffffffffffffe0
    4731:	48 81 ec 80 00 00 00 	sub    rsp,0x80
    4738:	41 89 d7             	mov    r15d,edx
    473b:	49 89 f6             	mov    r14,rsi
    473e:	49 89 fc             	mov    r12,rdi
    4741:	64 48 8b 04 25 28 00 	mov    rax,QWORD PTR fs:0x28
    4748:	00 00 
    474a:	48 89 44 24 60       	mov    QWORD PTR [rsp+0x60],rax
    474f:	48 8b 5f 48          	mov    rbx,QWORD PTR [rdi+0x48]
    4753:	83 e3 3f             	and    ebx,0x3f
    4756:	48 8d 77 08          	lea    rsi,[rdi+0x8]
    475a:	48 8d 7c 24 20       	lea    rdi,[rsp+0x20]
    475f:	48 89 da             	mov    rdx,rbx
    4762:	e8 e9 0b 01 00       	call   15350 <memcpy>
    4767:	c4 c1 7c 10 44 24 50 	vmovups ymm0,YMMWORD PTR [r12+0x50]
    476e:	c5 fc 11 04 24       	vmovups YMMWORD PTR [rsp],ymm0
    4773:	4c 8d 6b 01          	lea    r13,[rbx+0x1]
    4777:	c6 44 1c 20 80       	mov    BYTE PTR [rsp+rbx*1+0x20],0x80
    477c:	48 83 fb 38          	cmp    rbx,0x38
    4780:	72 4e                	jb     47d0 <sha2small_out+0xb0>
    4782:	bf 01 00 00 00       	mov    edi,0x1
    4787:	c5 f8 77             	vzeroupper 
    478a:	e8 a1 a9 00 00       	call   f130 <_Z7tracebrPv>
    478f:	4a 8d 3c 2c          	lea    rdi,[rsp+r13*1]
    4793:	48 83 c7 20          	add    rdi,0x20
    4797:	48 83 f3 3f          	xor    rbx,0x3f
    479b:	31 f6                	xor    esi,esi
    479d:	48 89 da             	mov    rdx,rbx
    47a0:	e8 bb 0d 01 00       	call   15560 <memset>
    47a5:	48 8d 3d c4 f9 ff ff 	lea    rdi,[rip+0xfffffffffffff9c4]        # 4170 <br_sha2small_round>
    47ac:	e8 0f a6 00 00       	call   edc0 <_Z10traceedgecPv>
    47b1:	48 8d 7c 24 20       	lea    rdi,[rsp+0x20]
    47b6:	48 89 e6             	mov    rsi,rsp
    47b9:	e8 b2 f9 ff ff       	call   4170 <br_sha2small_round>
    47be:	c5 f8 57 c0          	vxorps xmm0,xmm0,xmm0
    47c2:	c5 fc 11 44 24 38    	vmovups YMMWORD PTR [rsp+0x38],ymm0
    47c8:	c5 fc 29 44 24 20    	vmovaps YMMWORD PTR [rsp+0x20],ymm0
    47ce:	eb 21                	jmp    47f1 <sha2small_out+0xd1>
    47d0:	31 ff                	xor    edi,edi
    47d2:	c5 f8 77             	vzeroupper 
    47d5:	e8 56 a9 00 00       	call   f130 <_Z7tracebrPv>
    47da:	4a 8d 3c 2c          	lea    rdi,[rsp+r13*1]
    47de:	48 83 c7 20          	add    rdi,0x20
    47e2:	ba 37 00 00 00       	mov    edx,0x37
    47e7:	48 29 da             	sub    rdx,rbx
    47ea:	31 f6                	xor    esi,esi
    47ec:	e8 6f 0d 01 00       	call   15560 <memset>
    47f1:	49 8b 44 24 48       	mov    rax,QWORD PTR [r12+0x48]
    47f6:	48 89 c1             	mov    rcx,rax
    47f9:	48 c1 e9 1d          	shr    rcx,0x1d
    47fd:	48 89 c2             	mov    rdx,rax
    4800:	48 c1 ea 35          	shr    rdx,0x35
    4804:	88 54 24 58          	mov    BYTE PTR [rsp+0x58],dl
    4808:	48 89 c2             	mov    rdx,rax
    480b:	48 c1 ea 2d          	shr    rdx,0x2d
    480f:	88 54 24 59          	mov    BYTE PTR [rsp+0x59],dl
    4813:	48 89 c2             	mov    rdx,rax
    4816:	48 c1 ea 25          	shr    rdx,0x25
    481a:	88 54 24 5a          	mov    BYTE PTR [rsp+0x5a],dl
    481e:	88 4c 24 5b          	mov    BYTE PTR [rsp+0x5b],cl
    4822:	48 89 c1             	mov    rcx,rax
    4825:	48 c1 e9 15          	shr    rcx,0x15
    4829:	88 4c 24 5c          	mov    BYTE PTR [rsp+0x5c],cl
    482d:	48 89 c1             	mov    rcx,rax
    4830:	48 c1 e9 0d          	shr    rcx,0xd
    4834:	88 4c 24 5d          	mov    BYTE PTR [rsp+0x5d],cl
    4838:	48 89 c1             	mov    rcx,rax
    483b:	48 c1 e9 05          	shr    rcx,0x5
    483f:	88 4c 24 5e          	mov    BYTE PTR [rsp+0x5e],cl
    4843:	c0 e0 03             	shl    al,0x3
    4846:	88 44 24 5f          	mov    BYTE PTR [rsp+0x5f],al
    484a:	48 8d 3d 1f f9 ff ff 	lea    rdi,[rip+0xfffffffffffff91f]        # 4170 <br_sha2small_round>
    4851:	c5 f8 77             	vzeroupper 
    4854:	e8 67 a5 00 00       	call   edc0 <_Z10traceedgecPv>
    4859:	48 8d 7c 24 20       	lea    rdi,[rsp+0x20]
    485e:	49 89 e4             	mov    r12,rsp
    4861:	4c 89 e6             	mov    rsi,r12
    4864:	e8 07 f9 ff ff       	call   4170 <br_sha2small_round>
    4869:	49 63 df             	movsxd rbx,r15d
    486c:	48 8d 3d 5d 01 00 00 	lea    rdi,[rip+0x15d]        # 49d0 <br_range_enc32be>
    4873:	e8 48 a5 00 00       	call   edc0 <_Z10traceedgecPv>
    4878:	4c 89 f7             	mov    rdi,r14
    487b:	4c 89 e6             	mov    rsi,r12
    487e:	48 89 da             	mov    rdx,rbx
    4881:	e8 4a 01 00 00       	call   49d0 <br_range_enc32be>
    4886:	48 8b 7d 08          	mov    rdi,QWORD PTR [rbp+0x8]
    488a:	e8 31 a5 00 00       	call   edc0 <_Z10traceedgecPv>
    488f:	64 48 8b 04 25 28 00 	mov    rax,QWORD PTR fs:0x28
    4896:	00 00 
    4898:	48 3b 44 24 60       	cmp    rax,QWORD PTR [rsp+0x60]
    489d:	75 0f                	jne    48ae <sha2small_out+0x18e>
    489f:	48 8d 65 d8          	lea    rsp,[rbp-0x28]
    48a3:	5b                   	pop    rbx
    48a4:	41 5c                	pop    r12
    48a6:	41 5d                	pop    r13
    48a8:	41 5e                	pop    r14
    48aa:	41 5f                	pop    r15
    48ac:	5d                   	pop    rbp
    48ad:	c3                   	ret    
    48ae:	e8 2d d5 00 00       	call   11de0 <__stack_chk_fail>
    48b3:	66 2e 0f 1f 84 00 00 	nop    WORD PTR cs:[rax+rax*1+0x0]
    48ba:	00 00 00 
    48bd:	0f 1f 00             	nop    DWORD PTR [rax]

00000000000048c0 <br_sha224_state>:
    48c0:	41 57                	push   r15
    48c2:	41 56                	push   r14
    48c4:	53                   	push   rbx
    48c5:	49 89 f6             	mov    r14,rsi
    48c8:	48 89 fb             	mov    rbx,rdi
    48cb:	4c 8d 7f 50          	lea    r15,[rdi+0x50]
    48cf:	48 8d 3d fa 00 00 00 	lea    rdi,[rip+0xfa]        # 49d0 <br_range_enc32be>
    48d6:	e8 e5 a4 00 00       	call   edc0 <_Z10traceedgecPv>
    48db:	ba 08 00 00 00       	mov    edx,0x8
    48e0:	4c 89 f7             	mov    rdi,r14
    48e3:	4c 89 fe             	mov    rsi,r15
    48e6:	e8 e5 00 00 00       	call   49d0 <br_range_enc32be>
    48eb:	48 8b 5b 48          	mov    rbx,QWORD PTR [rbx+0x48]
    48ef:	48 8b 7c 24 18       	mov    rdi,QWORD PTR [rsp+0x18]
    48f4:	e8 c7 a4 00 00       	call   edc0 <_Z10traceedgecPv>
    48f9:	48 89 d8             	mov    rax,rbx
    48fc:	5b                   	pop    rbx
    48fd:	41 5e                	pop    r14
    48ff:	41 5f                	pop    r15
    4901:	c3                   	ret    
    4902:	66 2e 0f 1f 84 00 00 	nop    WORD PTR cs:[rax+rax*1+0x0]
    4909:	00 00 00 
    490c:	0f 1f 40 00          	nop    DWORD PTR [rax+0x0]

0000000000004910 <br_sha224_set_state>:
    4910:	41 57                	push   r15
    4912:	41 56                	push   r14
    4914:	41 54                	push   r12
    4916:	53                   	push   rbx
    4917:	50                   	push   rax
    4918:	49 89 d6             	mov    r14,rdx
    491b:	49 89 f7             	mov    r15,rsi
    491e:	48 89 fb             	mov    rbx,rdi
    4921:	4c 8d 67 50          	lea    r12,[rdi+0x50]
    4925:	48 8d 3d e4 f7 ff ff 	lea    rdi,[rip+0xfffffffffffff7e4]        # 4110 <br_range_dec32be>
    492c:	e8 8f a4 00 00       	call   edc0 <_Z10traceedgecPv>
    4931:	be 08 00 00 00       	mov    esi,0x8
    4936:	4c 89 e7             	mov    rdi,r12
    4939:	4c 89 fa             	mov    rdx,r15
    493c:	e8 cf f7 ff ff       	call   4110 <br_range_dec32be>
    4941:	4c 89 73 48          	mov    QWORD PTR [rbx+0x48],r14
    4945:	48 8b 7c 24 28       	mov    rdi,QWORD PTR [rsp+0x28]
    494a:	48 83 c4 08          	add    rsp,0x8
    494e:	5b                   	pop    rbx
    494f:	41 5c                	pop    r12
    4951:	41 5e                	pop    r14
    4953:	41 5f                	pop    r15
    4955:	e9 66 a4 00 00       	jmp    edc0 <_Z10traceedgecPv>
    495a:	66 0f 1f 44 00 00    	nop    WORD PTR [rax+rax*1+0x0]

0000000000004960 <br_sha256_init>:
    4960:	48 8d 05 f1 d3 23 00 	lea    rax,[rip+0x23d3f1]        # 241d58 <br_sha256_vtable>
    4967:	48 89 07             	mov    QWORD PTR [rdi],rax
    496a:	c5 fc 10 05 9e 5a 03 	vmovups ymm0,YMMWORD PTR [rip+0x35a9e]        # 3a410 <br_sha256_IV>
    4971:	00 
    4972:	c5 fc 11 47 50       	vmovups YMMWORD PTR [rdi+0x50],ymm0
    4977:	48 c7 47 48 00 00 00 	mov    QWORD PTR [rdi+0x48],0x0
    497e:	00 
    497f:	48 8b 3c 24          	mov    rdi,QWORD PTR [rsp]
    4983:	c5 f8 77             	vzeroupper 
    4986:	e9 35 a4 00 00       	jmp    edc0 <_Z10traceedgecPv>
    498b:	0f 1f 44 00 00       	nop    DWORD PTR [rax+rax*1+0x0]

0000000000004990 <br_sha256_out>:
    4990:	41 56                	push   r14
    4992:	53                   	push   rbx
    4993:	50                   	push   rax
    4994:	49 89 f6             	mov    r14,rsi
    4997:	48 89 fb             	mov    rbx,rdi
    499a:	48 8d 3d 7f fd ff ff 	lea    rdi,[rip+0xfffffffffffffd7f]        # 4720 <sha2small_out>
    49a1:	e8 1a a4 00 00       	call   edc0 <_Z10traceedgecPv>
    49a6:	48 89 df             	mov    rdi,rbx
    49a9:	4c 89 f6             	mov    rsi,r14
    49ac:	ba 08 00 00 00       	mov    edx,0x8
    49b1:	e8 6a fd ff ff       	call   4720 <sha2small_out>
    49b6:	48 8b 7c 24 18       	mov    rdi,QWORD PTR [rsp+0x18]
    49bb:	48 83 c4 08          	add    rsp,0x8
    49bf:	5b                   	pop    rbx
    49c0:	41 5e                	pop    r14
    49c2:	e9 f9 a3 00 00       	jmp    edc0 <_Z10traceedgecPv>
    49c7:	66 0f 1f 84 00 00 00 	nop    WORD PTR [rax+rax*1+0x0]
    49ce:	00 00 

00000000000049d0 <br_range_enc32be>:
    49d0:	41 57                	push   r15
    49d2:	41 56                	push   r14
    49d4:	41 54                	push   r12
    49d6:	53                   	push   rbx
    49d7:	50                   	push   rax
    49d8:	48 85 d2             	test   rdx,rdx
    49db:	74 2f                	je     4a0c <br_range_enc32be+0x3c>
    49dd:	49 89 d4             	mov    r12,rdx
    49e0:	49 89 f6             	mov    r14,rsi
    49e3:	49 89 ff             	mov    r15,rdi
    49e6:	31 db                	xor    ebx,ebx
    49e8:	0f 1f 84 00 00 00 00 	nop    DWORD PTR [rax+rax*1+0x0]
    49ef:	00 
    49f0:	bf 01 00 00 00       	mov    edi,0x1
    49f5:	e8 36 a7 00 00       	call   f130 <_Z7tracebrPv>
    49fa:	41 8b 04 9e          	mov    eax,DWORD PTR [r14+rbx*4]
    49fe:	41 0f 38 f1 04 9f    	movbe  DWORD PTR [r15+rbx*4],eax
    4a04:	48 ff c3             	inc    rbx
    4a07:	49 39 dc             	cmp    r12,rbx
    4a0a:	75 e4                	jne    49f0 <br_range_enc32be+0x20>
    4a0c:	31 ff                	xor    edi,edi
    4a0e:	e8 1d a7 00 00       	call   f130 <_Z7tracebrPv>
    4a13:	48 8b 7c 24 28       	mov    rdi,QWORD PTR [rsp+0x28]
    4a18:	48 83 c4 08          	add    rsp,0x8
    4a1c:	5b                   	pop    rbx
    4a1d:	41 5c                	pop    r12
    4a1f:	41 5e                	pop    r14
    4a21:	41 5f                	pop    r15
    4a23:	e9 98 a3 00 00       	jmp    edc0 <_Z10traceedgecPv>
    4a28:	0f 1f 84 00 00 00 00 	nop    DWORD PTR [rax+rax*1+0x0]
    4a2f:	00 

0000000000004a30 <br_ghash_pclmul>:
    4a30:	55                   	push   rbp
    4a31:	41 57                	push   r15
    4a33:	41 56                	push   r14
    4a35:	41 55                	push   r13
    4a37:	41 54                	push   r12
    4a39:	53                   	push   rbx
    4a3a:	48 81 ec e8 00 00 00 	sub    rsp,0xe8
    4a41:	48 89 d3             	mov    rbx,rdx
    4a44:	48 89 34 24          	mov    QWORD PTR [rsp],rsi
    4a48:	48 89 7c 24 38       	mov    QWORD PTR [rsp+0x38],rdi
    4a4d:	64 48 8b 04 25 28 00 	mov    rax,QWORD PTR fs:0x28
    4a54:	00 00 
    4a56:	48 89 84 24 e0 00 00 	mov    QWORD PTR [rsp+0xe0],rax
    4a5d:	00 
    4a5e:	48 89 cd             	mov    rbp,rcx
    4a61:	48 c1 ed 06          	shr    rbp,0x6
    4a65:	41 89 cd             	mov    r13d,ecx
    4a68:	41 83 e5 3f          	and    r13d,0x3f
    4a6c:	49 89 cf             	mov    r15,rcx
    4a6f:	49 83 e7 c0          	and    r15,0xffffffffffffffc0
    4a73:	49 01 d7             	add    r15,rdx
    4a76:	4d 8d 75 0f          	lea    r14,[r13+0xf]
    4a7a:	f6 c1 0f             	test   cl,0xf
    4a7d:	74 3e                	je     4abd <br_ghash_pclmul+0x8d>
    4a7f:	4c 8d a4 24 a0 00 00 	lea    r12,[rsp+0xa0]
    4a86:	00 
    4a87:	bf 01 00 00 00       	mov    edi,0x1
    4a8c:	e8 9f a6 00 00       	call   f130 <_Z7tracebrPv>
    4a91:	4c 89 e7             	mov    rdi,r12
    4a94:	4c 89 fe             	mov    rsi,r15
    4a97:	4c 89 ea             	mov    rdx,r13
    4a9a:	e8 b1 08 01 00       	call   15350 <memcpy>
    4a9f:	4a 8d 3c 2c          	lea    rdi,[rsp+r13*1]
    4aa3:	48 81 c7 a0 00 00 00 	add    rdi,0xa0
    4aaa:	44 89 f2             	mov    edx,r14d
    4aad:	83 e2 f0             	and    edx,0xfffffff0
    4ab0:	4c 29 ea             	sub    rdx,r13
    4ab3:	31 f6                	xor    esi,esi
    4ab5:	e8 a6 0a 01 00       	call   15560 <memset>
    4aba:	4d 89 e7             	mov    r15,r12
    4abd:	49 c1 ee 04          	shr    r14,0x4
    4ac1:	31 ff                	xor    edi,edi
    4ac3:	e8 68 a6 00 00       	call   f130 <_Z7tracebrPv>
    4ac8:	4c 8b 64 24 38       	mov    r12,QWORD PTR [rsp+0x38]
    4acd:	c4 c1 7a 6f 04 24    	vmovdqu xmm0,XMMWORD PTR [r12]
    4ad3:	48 8b 04 24          	mov    rax,QWORD PTR [rsp]
    4ad7:	c5 fa 6f 08          	vmovdqu xmm1,XMMWORD PTR [rax]
    4adb:	c5 f9 6f 15 4d 5a 03 	vmovdqa xmm2,XMMWORD PTR [rip+0x35a4d]        # 3a530 <K+0x100>
    4ae2:	00 
    4ae3:	c4 e2 79 00 c2       	vpshufb xmm0,xmm0,xmm2
    4ae8:	c5 f9 7f 04 24       	vmovdqa XMMWORD PTR [rsp],xmm0
    4aed:	c4 e2 71 00 ca       	vpshufb xmm1,xmm1,xmm2
    4af2:	c5 f9 70 c1 0e       	vpshufd xmm0,xmm1,0xe
    4af7:	c5 f9 7f 4c 24 20    	vmovdqa XMMWORD PTR [rsp+0x20],xmm1
    4afd:	c5 f9 ef c1          	vpxor  xmm0,xmm0,xmm1
    4b01:	c5 f9 7f 44 24 10    	vmovdqa XMMWORD PTR [rsp+0x10],xmm0
    4b07:	48 85 ed             	test   rbp,rbp
    4b0a:	0f 84 73 04 00 00    	je     4f83 <br_ghash_pclmul+0x553>
    4b10:	bf 01 00 00 00       	mov    edi,0x1
    4b15:	e8 16 a6 00 00       	call   f130 <_Z7tracebrPv>
    4b1a:	c5 f9 6f 7c 24 20    	vmovdqa xmm7,XMMWORD PTR [rsp+0x20]
    4b20:	c4 e3 41 44 c7 11    	vpclmulhqhqdq xmm0,xmm7,xmm7
    4b26:	c4 e3 41 44 d7 00    	vpclmullqlqdq xmm2,xmm7,xmm7
    4b2c:	c5 f9 70 c8 0e       	vpshufd xmm1,xmm0,0xe
    4b31:	c5 f9 70 da 0e       	vpshufd xmm3,xmm2,0xe
    4b36:	c5 f1 d4 c9          	vpaddq xmm1,xmm1,xmm1
    4b3a:	c5 d9 73 d0 3f       	vpsrlq xmm4,xmm0,0x3f
    4b3f:	c5 71 eb dc          	vpor   xmm11,xmm1,xmm4
    4b43:	c5 f9 d4 c0          	vpaddq xmm0,xmm0,xmm0
    4b47:	c5 f1 73 d3 3f       	vpsrlq xmm1,xmm3,0x3f
    4b4c:	c5 71 eb d0          	vpor   xmm10,xmm1,xmm0
    4b50:	c5 e1 d4 c3          	vpaddq xmm0,xmm3,xmm3
    4b54:	c5 f1 73 d2 3f       	vpsrlq xmm1,xmm2,0x3f
    4b59:	c5 f9 eb d9          	vpor   xmm3,xmm0,xmm1
    4b5d:	c5 69 d4 e2          	vpaddq xmm12,xmm2,xmm2
    4b61:	c5 f1 73 d2 01       	vpsrlq xmm1,xmm2,0x1
    4b66:	c5 79 6f 05 d2 59 03 	vmovdqa xmm8,XMMWORD PTR [rip+0x359d2]        # 3a540 <K+0x110>
    4b6d:	00 
    4b6e:	c4 41 71 db e8       	vpand  xmm13,xmm1,xmm8
    4b73:	c5 f9 73 d2 06       	vpsrlq xmm0,xmm2,0x6
    4b78:	c5 79 6f 0d d0 59 03 	vmovdqa xmm9,XMMWORD PTR [rip+0x359d0]        # 3a550 <K+0x120>
    4b7f:	00 
    4b80:	c4 c1 79 db c1       	vpand  xmm0,xmm0,xmm9
    4b85:	c5 f1 73 f2 3f       	vpsllq xmm1,xmm2,0x3f
    4b8a:	c5 d1 73 f2 3a       	vpsllq xmm5,xmm2,0x3a
    4b8f:	c5 d1 ef c9          	vpxor  xmm1,xmm5,xmm1
    4b93:	c5 f1 ef cb          	vpxor  xmm1,xmm1,xmm3
    4b97:	c5 d1 73 d1 01       	vpsrlq xmm5,xmm1,0x1
    4b9c:	c5 d9 73 d1 02       	vpsrlq xmm4,xmm1,0x2
    4ba1:	c5 c9 73 d1 07       	vpsrlq xmm6,xmm1,0x7
    4ba6:	c5 c9 ef ed          	vpxor  xmm5,xmm6,xmm5
    4baa:	c4 c1 71 ef cb       	vpxor  xmm1,xmm1,xmm11
    4baf:	c5 f1 ef cc          	vpxor  xmm1,xmm1,xmm4
    4bb3:	c5 f1 ef cd          	vpxor  xmm1,xmm1,xmm5
    4bb7:	c5 d9 73 f3 3e       	vpsllq xmm4,xmm3,0x3e
    4bbc:	c5 e1 73 f3 39       	vpsllq xmm3,xmm3,0x39
    4bc1:	c5 d9 ef db          	vpxor  xmm3,xmm4,xmm3
    4bc5:	c5 99 ef d2          	vpxor  xmm2,xmm12,xmm2
    4bc9:	c4 c1 69 ef d5       	vpxor  xmm2,xmm2,xmm13
    4bce:	c5 e9 ef c0          	vpxor  xmm0,xmm2,xmm0
    4bd2:	c4 c1 79 ef c2       	vpxor  xmm0,xmm0,xmm10
    4bd7:	c5 f9 ef c3          	vpxor  xmm0,xmm0,xmm3
    4bdb:	c5 79 6c d9          	vpunpcklqdq xmm11,xmm0,xmm1
    4bdf:	c5 f1 ef c8          	vpxor  xmm1,xmm1,xmm0
    4be3:	c4 c3 41 44 c3 11    	vpclmulhqhqdq xmm0,xmm7,xmm11
    4be9:	c4 c3 41 44 d3 00    	vpclmullqlqdq xmm2,xmm7,xmm11
    4bef:	c5 f9 7f 8c 24 80 00 	vmovdqa XMMWORD PTR [rsp+0x80],xmm1
    4bf6:	00 00 
    4bf8:	c4 e3 71 44 4c 24 10 	vpclmullqlqdq xmm1,xmm1,XMMWORD PTR [rsp+0x10]
    4bff:	00 
    4c00:	c5 e9 ef d8          	vpxor  xmm3,xmm2,xmm0
    4c04:	c5 e1 ef c9          	vpxor  xmm1,xmm3,xmm1
    4c08:	c5 f9 70 d8 0e       	vpshufd xmm3,xmm0,0xe
    4c0d:	c5 f9 70 e1 0e       	vpshufd xmm4,xmm1,0xe
    4c12:	c5 f9 ef c4          	vpxor  xmm0,xmm0,xmm4
    4c16:	c5 f9 70 e2 0e       	vpshufd xmm4,xmm2,0xe
    4c1b:	c5 f1 ef cc          	vpxor  xmm1,xmm1,xmm4
    4c1f:	c5 e1 d4 db          	vpaddq xmm3,xmm3,xmm3
    4c23:	c5 d9 73 d0 3f       	vpsrlq xmm4,xmm0,0x3f
    4c28:	c5 d9 eb db          	vpor   xmm3,xmm4,xmm3
    4c2c:	c5 f9 d4 c0          	vpaddq xmm0,xmm0,xmm0
    4c30:	c5 d9 73 d1 3f       	vpsrlq xmm4,xmm1,0x3f
    4c35:	c5 79 eb d4          	vpor   xmm10,xmm0,xmm4
    4c39:	c5 f1 d4 c9          	vpaddq xmm1,xmm1,xmm1
    4c3d:	c5 d9 73 d2 3f       	vpsrlq xmm4,xmm2,0x3f
    4c42:	c5 f1 eb cc          	vpor   xmm1,xmm1,xmm4
    4c46:	c5 e9 d4 e2          	vpaddq xmm4,xmm2,xmm2
    4c4a:	c5 d1 73 d2 01       	vpsrlq xmm5,xmm2,0x1
    4c4f:	c4 c1 51 db e8       	vpand  xmm5,xmm5,xmm8
    4c54:	c5 c9 73 f2 3f       	vpsllq xmm6,xmm2,0x3f
    4c59:	c5 c1 73 f2 3a       	vpsllq xmm7,xmm2,0x3a
    4c5e:	c5 c1 ef f6          	vpxor  xmm6,xmm7,xmm6
    4c62:	c5 c9 ef f1          	vpxor  xmm6,xmm6,xmm1
    4c66:	c5 c1 73 d6 01       	vpsrlq xmm7,xmm6,0x1
    4c6b:	c5 f9 73 d6 07       	vpsrlq xmm0,xmm6,0x7
    4c70:	c5 f9 ef c7          	vpxor  xmm0,xmm0,xmm7
    4c74:	c5 c1 73 d6 02       	vpsrlq xmm7,xmm6,0x2
    4c79:	c5 c1 ef f6          	vpxor  xmm6,xmm7,xmm6
    4c7d:	c5 c1 73 d2 06       	vpsrlq xmm7,xmm2,0x6
    4c82:	c4 c1 41 db f9       	vpand  xmm7,xmm7,xmm9
    4c87:	c5 c9 ef c0          	vpxor  xmm0,xmm6,xmm0
    4c8b:	c5 f9 ef c3          	vpxor  xmm0,xmm0,xmm3
    4c8f:	c5 e1 73 f1 3e       	vpsllq xmm3,xmm1,0x3e
    4c94:	c5 f1 73 f1 39       	vpsllq xmm1,xmm1,0x39
    4c99:	c4 c1 71 ef ca       	vpxor  xmm1,xmm1,xmm10
    4c9e:	c5 d9 ef d2          	vpxor  xmm2,xmm4,xmm2
    4ca2:	c5 e9 ef d5          	vpxor  xmm2,xmm2,xmm5
    4ca6:	c5 e9 ef d7          	vpxor  xmm2,xmm2,xmm7
    4caa:	c5 e9 ef d3          	vpxor  xmm2,xmm2,xmm3
    4cae:	c5 e9 ef c9          	vpxor  xmm1,xmm2,xmm1
    4cb2:	c5 f1 6c d0          	vpunpcklqdq xmm2,xmm1,xmm0
    4cb6:	c5 f9 7f 54 24 70    	vmovdqa XMMWORD PTR [rsp+0x70],xmm2
    4cbc:	c5 f9 ef c1          	vpxor  xmm0,xmm0,xmm1
    4cc0:	c5 f9 7f 44 24 60    	vmovdqa XMMWORD PTR [rsp+0x60],xmm0
    4cc6:	c4 c3 21 44 c3 11    	vpclmulhqhqdq xmm0,xmm11,xmm11
    4ccc:	c5 79 7f 9c 24 90 00 	vmovdqa XMMWORD PTR [rsp+0x90],xmm11
    4cd3:	00 00 
    4cd5:	c4 c3 21 44 cb 00    	vpclmullqlqdq xmm1,xmm11,xmm11
    4cdb:	c5 f9 70 d0 0e       	vpshufd xmm2,xmm0,0xe
    4ce0:	c5 f9 70 d9 0e       	vpshufd xmm3,xmm1,0xe
    4ce5:	c5 e9 d4 d2          	vpaddq xmm2,xmm2,xmm2
    4ce9:	c5 d9 73 d0 3f       	vpsrlq xmm4,xmm0,0x3f
    4cee:	c5 e9 eb d4          	vpor   xmm2,xmm2,xmm4
    4cf2:	c5 f9 d4 c0          	vpaddq xmm0,xmm0,xmm0
    4cf6:	c5 d9 73 d3 3f       	vpsrlq xmm4,xmm3,0x3f
    4cfb:	c5 59 eb d0          	vpor   xmm10,xmm4,xmm0
    4cff:	c5 e1 d4 db          	vpaddq xmm3,xmm3,xmm3
    4d03:	c5 d9 73 d1 3f       	vpsrlq xmm4,xmm1,0x3f
    4d08:	c5 e1 eb dc          	vpor   xmm3,xmm3,xmm4
    4d0c:	c5 d9 73 d1 01       	vpsrlq xmm4,xmm1,0x1
    4d11:	c4 c1 59 db e0       	vpand  xmm4,xmm4,xmm8
    4d16:	c5 d1 73 d1 06       	vpsrlq xmm5,xmm1,0x6
    4d1b:	c4 c1 51 db e9       	vpand  xmm5,xmm5,xmm9
    4d20:	c5 c9 73 f1 3f       	vpsllq xmm6,xmm1,0x3f
    4d25:	c5 c1 73 f1 3a       	vpsllq xmm7,xmm1,0x3a
    4d2a:	c5 c1 ef f6          	vpxor  xmm6,xmm7,xmm6
    4d2e:	c5 c9 ef f3          	vpxor  xmm6,xmm6,xmm3
    4d32:	c5 c1 73 d6 01       	vpsrlq xmm7,xmm6,0x1
    4d37:	c5 f9 73 d6 07       	vpsrlq xmm0,xmm6,0x7
    4d3c:	c5 f9 ef c7          	vpxor  xmm0,xmm0,xmm7
    4d40:	c5 c9 ef d2          	vpxor  xmm2,xmm6,xmm2
    4d44:	c5 c9 73 d6 02       	vpsrlq xmm6,xmm6,0x2
    4d49:	c5 e9 ef d6          	vpxor  xmm2,xmm2,xmm6
    4d4d:	c5 e9 ef c0          	vpxor  xmm0,xmm2,xmm0
    4d51:	c5 e9 73 f3 3e       	vpsllq xmm2,xmm3,0x3e
    4d56:	c5 e1 73 f3 39       	vpsllq xmm3,xmm3,0x39
    4d5b:	c5 e9 ef d3          	vpxor  xmm2,xmm2,xmm3
    4d5f:	c5 f1 d4 d9          	vpaddq xmm3,xmm1,xmm1
    4d63:	c5 e1 ef c9          	vpxor  xmm1,xmm3,xmm1
    4d67:	c5 f1 ef cc          	vpxor  xmm1,xmm1,xmm4
    4d6b:	c5 f1 ef cd          	vpxor  xmm1,xmm1,xmm5
    4d6f:	c4 c1 71 ef ca       	vpxor  xmm1,xmm1,xmm10
    4d74:	c5 f1 ef ca          	vpxor  xmm1,xmm1,xmm2
    4d78:	c5 f1 6c d0          	vpunpcklqdq xmm2,xmm1,xmm0
    4d7c:	c5 f9 7f 54 24 50    	vmovdqa XMMWORD PTR [rsp+0x50],xmm2
    4d82:	c5 f9 ef c1          	vpxor  xmm0,xmm0,xmm1
    4d86:	c5 f9 7f 44 24 40    	vmovdqa XMMWORD PTR [rsp+0x40],xmm0
    4d8c:	c5 f9 6f 04 24       	vmovdqa xmm0,XMMWORD PTR [rsp]
    4d91:	66 2e 0f 1f 84 00 00 	nop    WORD PTR cs:[rax+rax*1+0x0]
    4d98:	00 00 00 
    4d9b:	0f 1f 44 00 00       	nop    DWORD PTR [rax+rax*1+0x0]
    4da0:	c5 f9 7f 04 24       	vmovdqa XMMWORD PTR [rsp],xmm0
    4da5:	bf 01 00 00 00       	mov    edi,0x1
    4daa:	e8 81 a3 00 00       	call   f130 <_Z7tracebrPv>
    4daf:	c5 fa 6f 03          	vmovdqu xmm0,XMMWORD PTR [rbx]
    4db3:	c5 fa 6f 4b 10       	vmovdqu xmm1,XMMWORD PTR [rbx+0x10]
    4db8:	c5 fa 6f 53 20       	vmovdqu xmm2,XMMWORD PTR [rbx+0x20]
    4dbd:	c5 fa 6f 5b 30       	vmovdqu xmm3,XMMWORD PTR [rbx+0x30]
    4dc2:	c5 f9 6f 25 66 57 03 	vmovdqa xmm4,XMMWORD PTR [rip+0x35766]        # 3a530 <K+0x100>
    4dc9:	00 
    4dca:	c4 e2 79 00 c4       	vpshufb xmm0,xmm0,xmm4
    4dcf:	c5 f9 ef 04 24       	vpxor  xmm0,xmm0,XMMWORD PTR [rsp]
    4dd4:	c4 e2 71 00 cc       	vpshufb xmm1,xmm1,xmm4
    4dd9:	c4 e2 69 00 d4       	vpshufb xmm2,xmm2,xmm4
    4dde:	c4 e2 61 00 dc       	vpshufb xmm3,xmm3,xmm4
    4de3:	c5 f9 70 e1 4e       	vpshufd xmm4,xmm1,0x4e
    4de8:	c5 d9 ef e1          	vpxor  xmm4,xmm4,xmm1
    4dec:	c4 e3 59 44 64 24 60 	vpclmullqlqdq xmm4,xmm4,XMMWORD PTR [rsp+0x60]
    4df3:	00 
    4df4:	c5 f9 70 ea 4e       	vpshufd xmm5,xmm2,0x4e
    4df9:	c5 51 ef c2          	vpxor  xmm8,xmm5,xmm2
    4dfd:	c5 f9 70 f3 4e       	vpshufd xmm6,xmm3,0x4e
    4e02:	c5 49 ef cb          	vpxor  xmm9,xmm6,xmm3
    4e06:	c5 f9 70 f8 4e       	vpshufd xmm7,xmm0,0x4e
    4e0b:	c5 f9 ef ff          	vpxor  xmm7,xmm0,xmm7
    4e0f:	c4 e3 41 44 7c 24 40 	vpclmullqlqdq xmm7,xmm7,XMMWORD PTR [rsp+0x40]
    4e16:	00 
    4e17:	c5 41 ef d4          	vpxor  xmm10,xmm7,xmm4
    4e1b:	c5 79 6f 5c 24 70    	vmovdqa xmm11,XMMWORD PTR [rsp+0x70]
    4e21:	c4 c3 71 44 fb 11    	vpclmulhqhqdq xmm7,xmm1,xmm11
    4e27:	c5 79 6f a4 24 90 00 	vmovdqa xmm12,XMMWORD PTR [rsp+0x90]
    4e2e:	00 00 
    4e30:	c4 c3 69 44 ec 11    	vpclmulhqhqdq xmm5,xmm2,xmm12
    4e36:	c5 c1 ef ed          	vpxor  xmm5,xmm7,xmm5
    4e3a:	c5 f9 6f 64 24 50    	vmovdqa xmm4,XMMWORD PTR [rsp+0x50]
    4e40:	c4 e3 79 44 fc 11    	vpclmulhqhqdq xmm7,xmm0,xmm4
    4e46:	c5 c1 ef ed          	vpxor  xmm5,xmm7,xmm5
    4e4a:	c5 f9 6f 74 24 20    	vmovdqa xmm6,XMMWORD PTR [rsp+0x20]
    4e50:	c4 e3 61 44 fe 11    	vpclmulhqhqdq xmm7,xmm3,xmm6
    4e56:	c5 d1 ef ef          	vpxor  xmm5,xmm5,xmm7
    4e5a:	c4 e3 79 44 c4 00    	vpclmullqlqdq xmm0,xmm0,xmm4
    4e60:	c4 c3 71 44 cb 00    	vpclmullqlqdq xmm1,xmm1,xmm11
    4e66:	c4 c3 69 44 d4 00    	vpclmullqlqdq xmm2,xmm2,xmm12
    4e6c:	c5 f1 ef ca          	vpxor  xmm1,xmm1,xmm2
    4e70:	c5 f9 ef c1          	vpxor  xmm0,xmm0,xmm1
    4e74:	c4 e3 61 44 ce 00    	vpclmullqlqdq xmm1,xmm3,xmm6
    4e7a:	c5 f9 ef c1          	vpxor  xmm0,xmm0,xmm1
    4e7e:	c4 e3 39 44 8c 24 80 	vpclmullqlqdq xmm1,xmm8,XMMWORD PTR [rsp+0x80]
    4e85:	00 00 00 00 
    4e89:	c4 e3 31 44 54 24 10 	vpclmullqlqdq xmm2,xmm9,XMMWORD PTR [rsp+0x10]
    4e90:	00 
    4e91:	c5 f1 ef ca          	vpxor  xmm1,xmm1,xmm2
    4e95:	c5 f9 ef d5          	vpxor  xmm2,xmm0,xmm5
    4e99:	c4 c1 69 ef d2       	vpxor  xmm2,xmm2,xmm10
    4e9e:	c5 e9 ef c9          	vpxor  xmm1,xmm2,xmm1
    4ea2:	c5 f9 70 d5 4e       	vpshufd xmm2,xmm5,0x4e
    4ea7:	c5 f9 70 d9 0e       	vpshufd xmm3,xmm1,0xe
    4eac:	c5 d1 ef db          	vpxor  xmm3,xmm5,xmm3
    4eb0:	c5 f9 70 e0 0e       	vpshufd xmm4,xmm0,0xe
    4eb5:	c5 f1 ef cc          	vpxor  xmm1,xmm1,xmm4
    4eb9:	c5 e9 d4 d2          	vpaddq xmm2,xmm2,xmm2
    4ebd:	c5 d9 73 d3 3f       	vpsrlq xmm4,xmm3,0x3f
    4ec2:	c5 d9 eb d2          	vpor   xmm2,xmm4,xmm2
    4ec6:	c5 e1 d4 db          	vpaddq xmm3,xmm3,xmm3
    4eca:	c5 d9 73 d1 3f       	vpsrlq xmm4,xmm1,0x3f
    4ecf:	c5 61 eb c4          	vpor   xmm8,xmm3,xmm4
    4ed3:	c5 f1 d4 c9          	vpaddq xmm1,xmm1,xmm1
    4ed7:	c5 d9 73 d0 3f       	vpsrlq xmm4,xmm0,0x3f
    4edc:	c5 f1 eb cc          	vpor   xmm1,xmm1,xmm4
    4ee0:	c5 f9 d4 e0          	vpaddq xmm4,xmm0,xmm0
    4ee4:	c5 f9 db 2d 74 56 03 	vpand  xmm5,xmm0,XMMWORD PTR [rip+0x35674]        # 3a560 <K+0x130>
    4eeb:	00 
    4eec:	c5 d1 ef e4          	vpxor  xmm4,xmm5,xmm4
    4ef0:	c5 d1 73 d0 01       	vpsrlq xmm5,xmm0,0x1
    4ef5:	c5 d1 db 2d 43 56 03 	vpand  xmm5,xmm5,XMMWORD PTR [rip+0x35643]        # 3a540 <K+0x110>
    4efc:	00 
    4efd:	c5 c9 73 d0 06       	vpsrlq xmm6,xmm0,0x6
    4f02:	c5 c9 db 35 46 56 03 	vpand  xmm6,xmm6,XMMWORD PTR [rip+0x35646]        # 3a550 <K+0x120>
    4f09:	00 
    4f0a:	c5 d1 ef ee          	vpxor  xmm5,xmm5,xmm6
    4f0e:	c5 c9 73 f0 3f       	vpsllq xmm6,xmm0,0x3f
    4f13:	c5 c1 73 f0 3a       	vpsllq xmm7,xmm0,0x3a
    4f18:	c5 c1 ef f6          	vpxor  xmm6,xmm7,xmm6
    4f1c:	c5 c9 ef f1          	vpxor  xmm6,xmm6,xmm1
    4f20:	c5 c1 73 d6 01       	vpsrlq xmm7,xmm6,0x1
    4f25:	c5 e1 73 d6 07       	vpsrlq xmm3,xmm6,0x7
    4f2a:	c5 e1 ef df          	vpxor  xmm3,xmm3,xmm7
    4f2e:	c5 c1 73 d6 02       	vpsrlq xmm7,xmm6,0x2
    4f33:	c5 c1 ef f6          	vpxor  xmm6,xmm7,xmm6
    4f37:	c5 c9 ef db          	vpxor  xmm3,xmm6,xmm3
    4f3b:	c5 e1 ef d2          	vpxor  xmm2,xmm3,xmm2
    4f3f:	c5 f9 db 05 29 56 03 	vpand  xmm0,xmm0,XMMWORD PTR [rip+0x35629]        # 3a570 <K+0x140>
    4f46:	00 
    4f47:	c5 d9 ef c0          	vpxor  xmm0,xmm4,xmm0
    4f4b:	c5 f9 ef c5          	vpxor  xmm0,xmm0,xmm5
    4f4f:	c5 e1 73 f1 3e       	vpsllq xmm3,xmm1,0x3e
    4f54:	c5 f1 73 f1 39       	vpsllq xmm1,xmm1,0x39
    4f59:	c5 e1 ef c9          	vpxor  xmm1,xmm3,xmm1
    4f5d:	c4 c1 71 ef c8       	vpxor  xmm1,xmm1,xmm8
    4f62:	c5 f9 ef c1          	vpxor  xmm0,xmm0,xmm1
    4f66:	c5 f9 6c c2          	vpunpcklqdq xmm0,xmm0,xmm2
    4f6a:	48 83 c3 40          	add    rbx,0x40
    4f6e:	48 ff cd             	dec    rbp
    4f71:	0f 85 29 fe ff ff    	jne    4da0 <br_ghash_pclmul+0x370>
    4f77:	c5 f9 7f 04 24       	vmovdqa XMMWORD PTR [rsp],xmm0
    4f7c:	31 ff                	xor    edi,edi
    4f7e:	e8 ad a1 00 00       	call   f130 <_Z7tracebrPv>
    4f83:	31 ff                	xor    edi,edi
    4f85:	e8 a6 a1 00 00       	call   f130 <_Z7tracebrPv>
    4f8a:	4d 85 f6             	test   r14,r14
    4f8d:	0f 84 2e 01 00 00    	je     50c1 <br_ghash_pclmul+0x691>
    4f93:	66 2e 0f 1f 84 00 00 	nop    WORD PTR cs:[rax+rax*1+0x0]
    4f9a:	00 00 00 
    4f9d:	0f 1f 00             	nop    DWORD PTR [rax]
    4fa0:	bf 01 00 00 00       	mov    edi,0x1
    4fa5:	e8 86 a1 00 00       	call   f130 <_Z7tracebrPv>
    4faa:	c4 c1 7a 6f 07       	vmovdqu xmm0,XMMWORD PTR [r15]
    4faf:	c4 e2 79 00 05 78 55 	vpshufb xmm0,xmm0,XMMWORD PTR [rip+0x35578]        # 3a530 <K+0x100>
    4fb6:	03 00 
    4fb8:	c5 f9 ef 04 24       	vpxor  xmm0,xmm0,XMMWORD PTR [rsp]
    4fbd:	c5 f9 70 c8 4e       	vpshufd xmm1,xmm0,0x4e
    4fc2:	c5 f9 ef c9          	vpxor  xmm1,xmm0,xmm1
    4fc6:	c5 f9 6f 5c 24 20    	vmovdqa xmm3,XMMWORD PTR [rsp+0x20]
    4fcc:	c4 e3 79 44 d3 11    	vpclmulhqhqdq xmm2,xmm0,xmm3
    4fd2:	c4 e3 79 44 c3 00    	vpclmullqlqdq xmm0,xmm0,xmm3
    4fd8:	c4 e3 71 44 4c 24 10 	vpclmullqlqdq xmm1,xmm1,XMMWORD PTR [rsp+0x10]
    4fdf:	00 
    4fe0:	c5 f9 ef da          	vpxor  xmm3,xmm0,xmm2
    4fe4:	c5 e1 ef c9          	vpxor  xmm1,xmm3,xmm1
    4fe8:	c5 f9 70 da 4e       	vpshufd xmm3,xmm2,0x4e
    4fed:	c5 f9 70 e1 0e       	vpshufd xmm4,xmm1,0xe
    4ff2:	c5 e9 ef d4          	vpxor  xmm2,xmm2,xmm4
    4ff6:	c5 f9 70 e0 0e       	vpshufd xmm4,xmm0,0xe
    4ffb:	c5 f1 ef cc          	vpxor  xmm1,xmm1,xmm4
    4fff:	c5 e1 d4 db          	vpaddq xmm3,xmm3,xmm3
    5003:	c5 d9 73 d2 3f       	vpsrlq xmm4,xmm2,0x3f
    5008:	c5 d9 eb db          	vpor   xmm3,xmm4,xmm3
    500c:	c5 e9 d4 d2          	vpaddq xmm2,xmm2,xmm2
    5010:	c5 d9 73 d1 3f       	vpsrlq xmm4,xmm1,0x3f
    5015:	c5 e9 eb d4          	vpor   xmm2,xmm2,xmm4
    5019:	c5 f1 d4 c9          	vpaddq xmm1,xmm1,xmm1
    501d:	c5 d9 73 d0 3f       	vpsrlq xmm4,xmm0,0x3f
    5022:	c5 f1 eb cc          	vpor   xmm1,xmm1,xmm4
    5026:	c5 f9 d4 e0          	vpaddq xmm4,xmm0,xmm0
    502a:	c5 f9 db 2d 2e 55 03 	vpand  xmm5,xmm0,XMMWORD PTR [rip+0x3552e]        # 3a560 <K+0x130>
    5031:	00 
    5032:	c5 d1 ef e4          	vpxor  xmm4,xmm5,xmm4
    5036:	c5 d1 73 f0 3f       	vpsllq xmm5,xmm0,0x3f
    503b:	c5 c9 73 f0 3a       	vpsllq xmm6,xmm0,0x3a
    5040:	c5 c9 ef ed          	vpxor  xmm5,xmm6,xmm5
    5044:	c5 d1 ef e9          	vpxor  xmm5,xmm5,xmm1
    5048:	c5 c9 73 d5 01       	vpsrlq xmm6,xmm5,0x1
    504d:	c5 c1 73 d5 07       	vpsrlq xmm7,xmm5,0x7
    5052:	c5 c1 ef f6          	vpxor  xmm6,xmm7,xmm6
    5056:	c5 c1 73 d5 02       	vpsrlq xmm7,xmm5,0x2
    505b:	c5 c1 ef ed          	vpxor  xmm5,xmm7,xmm5
    505f:	c5 d1 ef ee          	vpxor  xmm5,xmm5,xmm6
    5063:	c5 d1 ef db          	vpxor  xmm3,xmm5,xmm3
    5067:	c5 f9 db 2d 01 55 03 	vpand  xmm5,xmm0,XMMWORD PTR [rip+0x35501]        # 3a570 <K+0x140>
    506e:	00 
    506f:	c5 d9 ef e5          	vpxor  xmm4,xmm4,xmm5
    5073:	c5 d1 73 d0 01       	vpsrlq xmm5,xmm0,0x1
    5078:	c5 d1 db 2d c0 54 03 	vpand  xmm5,xmm5,XMMWORD PTR [rip+0x354c0]        # 3a540 <K+0x110>
    507f:	00 
    5080:	c5 f9 73 d0 06       	vpsrlq xmm0,xmm0,0x6
    5085:	c5 f9 db 05 c3 54 03 	vpand  xmm0,xmm0,XMMWORD PTR [rip+0x354c3]        # 3a550 <K+0x120>
    508c:	00 
    508d:	c5 d9 ef e5          	vpxor  xmm4,xmm4,xmm5
    5091:	c5 d1 73 f1 3e       	vpsllq xmm5,xmm1,0x3e
    5096:	c5 f9 ef c5          	vpxor  xmm0,xmm0,xmm5
    509a:	c5 d9 ef c0          	vpxor  xmm0,xmm4,xmm0
    509e:	c5 f1 73 f1 39       	vpsllq xmm1,xmm1,0x39
    50a3:	c5 f1 ef ca          	vpxor  xmm1,xmm1,xmm2
    50a7:	c5 f9 ef c1          	vpxor  xmm0,xmm0,xmm1
