
../../newloop_enclave.signed.so:     file format elf64-x86-64


Disassembly of section .plt:

0000000000000b40 <.plt>:
 b40:	ff 35 32 34 23 00    	push   QWORD PTR [rip+0x233432]        # 233f78 <_GLOBAL_OFFSET_TABLE_+0x8>
 b46:	ff 25 34 34 23 00    	jmp    QWORD PTR [rip+0x233434]        # 233f80 <_GLOBAL_OFFSET_TABLE_+0x10>
 b4c:	0f 1f 40 00          	nop    DWORD PTR [rax+0x0]

Disassembly of section .plt.got:

0000000000000b50 <_Z9pcl_entryPvS_@plt>:
 b50:	ff 25 62 34 23 00    	jmp    QWORD PTR [rip+0x233462]        # 233fb8 <_Z9pcl_entryPvS_>
 b56:	66 90                	xchg   ax,ax

Disassembly of section .text:

0000000000000b80 <trts_access_version_dummy1>:
     b80:	48 8d 05 89 34 23 00 	lea    rax,[rip+0x233489]        # 234010 <sgx_trts_version>
     b87:	c6 00 73             	mov    BYTE PTR [rax],0x73
     b8a:	c3                   	ret    
     b8b:	0f 1f 44 00 00       	nop    DWORD PTR [rax+rax*1+0x0]

0000000000000b90 <tstdc_access_version_dummy1>:
     b90:	c6 05 a9 34 23 00 73 	mov    BYTE PTR [rip+0x2334a9],0x73        # 234040 <sgx_tstdc_version>
     b97:	48 8d 05 a2 34 23 00 	lea    rax,[rip+0x2334a2]        # 234040 <sgx_tstdc_version>
     b9e:	c3                   	ret    
     b9f:	90                   	nop

0000000000000ba0 <tcrypto_access_version_dummy1>:
     ba0:	c6 05 19 3d 23 00 73 	mov    BYTE PTR [rip+0x233d19],0x73        # 2348c0 <sgx_tcrypto_version>
     ba7:	48 8d 05 12 3d 23 00 	lea    rax,[rip+0x233d12]        # 2348c0 <sgx_tcrypto_version>
     bae:	c3                   	ret    
     baf:	90                   	nop

0000000000000bb0 <tservice_access_version_dummy1>:
     bb0:	c6 05 89 40 23 00 73 	mov    BYTE PTR [rip+0x234089],0x73        # 234c40 <sgx_tservice_version>
     bb7:	48 8d 05 82 40 23 00 	lea    rax,[rip+0x234082]        # 234c40 <sgx_tservice_version>
     bbe:	c3                   	ret    
     bbf:	90                   	nop

0000000000000bc0 <sgx_hello1>:
     bc0:	55                   	push   rbp
     bc1:	48 89 e5             	mov    rbp,rsp
     bc4:	48 83 ec 30          	sub    rsp,0x30
     bc8:	48 89 7d f0          	mov    QWORD PTR [rbp-0x10],rdi
     bcc:	48 83 7d f0 00       	cmp    QWORD PTR [rbp-0x10],0x0
     bd1:	0f 84 38 00 00 00    	je     c0f <sgx_hello1+0x4f>
     bd7:	bf 01 00 00 00       	mov    edi,0x1
     bdc:	e8 3f 17 00 00       	call   2320 <_Z7tracebrPv>
     be1:	48 8d 05 b8 19 00 00 	lea    rax,[rip+0x19b8]        # 25a0 <sgx_is_outside_enclave>
     be8:	48 8b 7d f0          	mov    rdi,QWORD PTR [rbp-0x10]
     bec:	48 89 7d d8          	mov    QWORD PTR [rbp-0x28],rdi
     bf0:	48 89 c7             	mov    rdi,rax
     bf3:	e8 b8 13 00 00       	call   1fb0 <_Z10traceedgecPv>
     bf8:	48 8b 7d d8          	mov    rdi,QWORD PTR [rbp-0x28]
     bfc:	be 04 00 00 00       	mov    esi,0x4
     c01:	e8 9a 19 00 00       	call   25a0 <sgx_is_outside_enclave>
     c06:	83 f8 00             	cmp    eax,0x0
     c09:	0f 85 13 00 00 00    	jne    c22 <sgx_hello1+0x62>
     c0f:	31 ff                	xor    edi,edi
     c11:	e8 0a 17 00 00       	call   2320 <_Z7tracebrPv>
     c16:	c7 45 fc 02 00 00 00 	mov    DWORD PTR [rbp-0x4],0x2
     c1d:	e9 42 00 00 00       	jmp    c64 <sgx_hello1+0xa4>
     c22:	bf 01 00 00 00       	mov    edi,0x1
     c27:	e8 f4 16 00 00       	call   2320 <_Z7tracebrPv>
     c2c:	48 8d 05 0d 0d 00 00 	lea    rax,[rip+0xd0d]        # 1940 <hello1>
     c33:	0f ae e8             	lfence 
     c36:	48 8b 4d f0          	mov    rcx,QWORD PTR [rbp-0x10]
     c3a:	48 89 4d e8          	mov    QWORD PTR [rbp-0x18],rcx
     c3e:	c7 45 e4 00 00 00 00 	mov    DWORD PTR [rbp-0x1c],0x0
     c45:	48 8b 4d e8          	mov    rcx,QWORD PTR [rbp-0x18]
     c49:	8b 39                	mov    edi,DWORD PTR [rcx]
     c4b:	89 7d d4             	mov    DWORD PTR [rbp-0x2c],edi
     c4e:	48 89 c7             	mov    rdi,rax
     c51:	e8 5a 13 00 00       	call   1fb0 <_Z10traceedgecPv>
     c56:	8b 7d d4             	mov    edi,DWORD PTR [rbp-0x2c]
     c59:	e8 e2 0c 00 00       	call   1940 <hello1>
     c5e:	8b 55 e4             	mov    edx,DWORD PTR [rbp-0x1c]
     c61:	89 55 fc             	mov    DWORD PTR [rbp-0x4],edx
     c64:	8b 45 fc             	mov    eax,DWORD PTR [rbp-0x4]
     c67:	48 8b 7d 08          	mov    rdi,QWORD PTR [rbp+0x8]
     c6b:	89 45 d0             	mov    DWORD PTR [rbp-0x30],eax
     c6e:	e8 3d 13 00 00       	call   1fb0 <_Z10traceedgecPv>
     c73:	8b 45 d0             	mov    eax,DWORD PTR [rbp-0x30]
     c76:	48 83 c4 30          	add    rsp,0x30
     c7a:	5d                   	pop    rbp
     c7b:	c3                   	ret    
     c7c:	0f 1f 40 00          	nop    DWORD PTR [rax+0x0]

0000000000000c80 <sgx_hello2>:
     c80:	55                   	push   rbp
     c81:	48 89 e5             	mov    rbp,rsp
     c84:	48 83 ec 20          	sub    rsp,0x20
     c88:	48 89 7d f0          	mov    QWORD PTR [rbp-0x10],rdi
     c8c:	c7 45 ec 00 00 00 00 	mov    DWORD PTR [rbp-0x14],0x0
     c93:	48 83 7d f0 00       	cmp    QWORD PTR [rbp-0x10],0x0
     c98:	0f 84 16 00 00 00    	je     cb4 <sgx_hello2+0x34>
     c9e:	bf 01 00 00 00       	mov    edi,0x1
     ca3:	e8 78 16 00 00       	call   2320 <_Z7tracebrPv>
     ca8:	c7 45 fc 02 00 00 00 	mov    DWORD PTR [rbp-0x4],0x2
     caf:	e9 21 00 00 00       	jmp    cd5 <sgx_hello2+0x55>
     cb4:	31 ff                	xor    edi,edi
     cb6:	e8 65 16 00 00       	call   2320 <_Z7tracebrPv>
     cbb:	48 8d 05 de 0c 00 00 	lea    rax,[rip+0xcde]        # 19a0 <hello2>
     cc2:	48 89 c7             	mov    rdi,rax
     cc5:	e8 e6 12 00 00       	call   1fb0 <_Z10traceedgecPv>
     cca:	e8 d1 0c 00 00       	call   19a0 <hello2>
     ccf:	8b 4d ec             	mov    ecx,DWORD PTR [rbp-0x14]
     cd2:	89 4d fc             	mov    DWORD PTR [rbp-0x4],ecx
     cd5:	8b 45 fc             	mov    eax,DWORD PTR [rbp-0x4]
     cd8:	48 8b 7d 08          	mov    rdi,QWORD PTR [rbp+0x8]
     cdc:	89 45 e8             	mov    DWORD PTR [rbp-0x18],eax
     cdf:	e8 cc 12 00 00       	call   1fb0 <_Z10traceedgecPv>
     ce4:	8b 45 e8             	mov    eax,DWORD PTR [rbp-0x18]
     ce7:	48 83 c4 20          	add    rsp,0x20
     ceb:	5d                   	pop    rbp
     cec:	c3                   	ret    
     ced:	0f 1f 00             	nop    DWORD PTR [rax]

0000000000000cf0 <sgx_test_exception>:
     cf0:	55                   	push   rbp
     cf1:	48 89 e5             	mov    rbp,rsp
     cf4:	48 83 ec 40          	sub    rsp,0x40
     cf8:	48 89 7d f0          	mov    QWORD PTR [rbp-0x10],rdi
     cfc:	48 83 7d f0 00       	cmp    QWORD PTR [rbp-0x10],0x0
     d01:	0f 84 38 00 00 00    	je     d3f <sgx_test_exception+0x4f>
     d07:	bf 01 00 00 00       	mov    edi,0x1
     d0c:	e8 0f 16 00 00       	call   2320 <_Z7tracebrPv>
     d11:	48 8d 05 88 18 00 00 	lea    rax,[rip+0x1888]        # 25a0 <sgx_is_outside_enclave>
     d18:	48 8b 7d f0          	mov    rdi,QWORD PTR [rbp-0x10]
     d1c:	48 89 7d d8          	mov    QWORD PTR [rbp-0x28],rdi
     d20:	48 89 c7             	mov    rdi,rax
     d23:	e8 88 12 00 00       	call   1fb0 <_Z10traceedgecPv>
     d28:	48 8b 7d d8          	mov    rdi,QWORD PTR [rbp-0x28]
     d2c:	be 0c 00 00 00       	mov    esi,0xc
     d31:	e8 6a 18 00 00       	call   25a0 <sgx_is_outside_enclave>
     d36:	83 f8 00             	cmp    eax,0x0
     d39:	0f 85 13 00 00 00    	jne    d52 <sgx_test_exception+0x62>
     d3f:	31 ff                	xor    edi,edi
     d41:	e8 da 15 00 00       	call   2320 <_Z7tracebrPv>
     d46:	c7 45 fc 02 00 00 00 	mov    DWORD PTR [rbp-0x4],0x2
     d4d:	e9 56 00 00 00       	jmp    da8 <sgx_test_exception+0xb8>
     d52:	bf 01 00 00 00       	mov    edi,0x1
     d57:	e8 c4 15 00 00       	call   2320 <_Z7tracebrPv>
     d5c:	48 8d 05 ad 0c 00 00 	lea    rax,[rip+0xcad]        # 1a10 <test_exception>
     d63:	0f ae e8             	lfence 
     d66:	48 8b 4d f0          	mov    rcx,QWORD PTR [rbp-0x10]
     d6a:	48 89 4d e8          	mov    QWORD PTR [rbp-0x18],rcx
     d6e:	c7 45 e4 00 00 00 00 	mov    DWORD PTR [rbp-0x1c],0x0
     d75:	48 8b 4d e8          	mov    rcx,QWORD PTR [rbp-0x18]
     d79:	8b 79 04             	mov    edi,DWORD PTR [rcx+0x4]
     d7c:	48 8b 4d e8          	mov    rcx,QWORD PTR [rbp-0x18]
     d80:	8b 71 08             	mov    esi,DWORD PTR [rcx+0x8]
     d83:	89 7d d4             	mov    DWORD PTR [rbp-0x2c],edi
     d86:	48 89 c7             	mov    rdi,rax
     d89:	89 75 d0             	mov    DWORD PTR [rbp-0x30],esi
     d8c:	e8 1f 12 00 00       	call   1fb0 <_Z10traceedgecPv>
     d91:	8b 7d d4             	mov    edi,DWORD PTR [rbp-0x2c]
     d94:	8b 75 d0             	mov    esi,DWORD PTR [rbp-0x30]
     d97:	e8 74 0c 00 00       	call   1a10 <test_exception>
     d9c:	48 8b 4d e8          	mov    rcx,QWORD PTR [rbp-0x18]
     da0:	89 01                	mov    DWORD PTR [rcx],eax
     da2:	8b 45 e4             	mov    eax,DWORD PTR [rbp-0x1c]
     da5:	89 45 fc             	mov    DWORD PTR [rbp-0x4],eax
     da8:	8b 45 fc             	mov    eax,DWORD PTR [rbp-0x4]
     dab:	48 8b 7d 08          	mov    rdi,QWORD PTR [rbp+0x8]
     daf:	89 45 cc             	mov    DWORD PTR [rbp-0x34],eax
     db2:	e8 f9 11 00 00       	call   1fb0 <_Z10traceedgecPv>
     db7:	8b 45 cc             	mov    eax,DWORD PTR [rbp-0x34]
     dba:	48 83 c4 40          	add    rsp,0x40
     dbe:	5d                   	pop    rbp
     dbf:	c3                   	ret    

0000000000000dc0 <sgx_setBucket>:
     dc0:	55                   	push   rbp
     dc1:	48 89 e5             	mov    rbp,rsp
     dc4:	48 83 ec 30          	sub    rsp,0x30
     dc8:	48 89 7d f0          	mov    QWORD PTR [rbp-0x10],rdi
     dcc:	48 83 7d f0 00       	cmp    QWORD PTR [rbp-0x10],0x0
     dd1:	0f 84 17 00 00 00    	je     dee <sgx_setBucket+0x2e>
     dd7:	48 8b 7d f0          	mov    rdi,QWORD PTR [rbp-0x10]
     ddb:	be 08 00 00 00       	mov    esi,0x8
     de0:	e8 bb 17 00 00       	call   25a0 <sgx_is_outside_enclave>
     de5:	83 f8 00             	cmp    eax,0x0
     de8:	0f 85 0c 00 00 00    	jne    dfa <sgx_setBucket+0x3a>
     dee:	c7 45 fc 02 00 00 00 	mov    DWORD PTR [rbp-0x4],0x2
     df5:	e9 31 00 00 00       	jmp    e2b <sgx_setBucket+0x6b>
     dfa:	e9 00 00 00 00       	jmp    dff <sgx_setBucket+0x3f>
     dff:	0f ae e8             	lfence 
     e02:	48 8b 45 f0          	mov    rax,QWORD PTR [rbp-0x10]
     e06:	48 89 45 e8          	mov    QWORD PTR [rbp-0x18],rax
     e0a:	c7 45 e4 00 00 00 00 	mov    DWORD PTR [rbp-0x1c],0x0
     e11:	48 8b 45 e8          	mov    rax,QWORD PTR [rbp-0x18]
     e15:	48 8b 00             	mov    rax,QWORD PTR [rax]
     e18:	48 89 45 d8          	mov    QWORD PTR [rbp-0x28],rax
     e1c:	48 8b 7d d8          	mov    rdi,QWORD PTR [rbp-0x28]
     e20:	e8 0b 10 00 00       	call   1e30 <setBucket>
     e25:	8b 4d e4             	mov    ecx,DWORD PTR [rbp-0x1c]
     e28:	89 4d fc             	mov    DWORD PTR [rbp-0x4],ecx
     e2b:	8b 45 fc             	mov    eax,DWORD PTR [rbp-0x4]
     e2e:	48 83 c4 30          	add    rsp,0x30
     e32:	5d                   	pop    rbp
     e33:	c3                   	ret    
     e34:	66 2e 0f 1f 84 00 00 	nop    WORD PTR cs:[rax+rax*1+0x0]
     e3b:	00 00 00 
     e3e:	66 90                	xchg   ax,ax

0000000000000e40 <sgx_setActionCounter>:
     e40:	55                   	push   rbp
     e41:	48 89 e5             	mov    rbp,rsp
     e44:	48 83 ec 40          	sub    rsp,0x40
     e48:	48 89 7d f0          	mov    QWORD PTR [rbp-0x10],rdi
     e4c:	48 83 7d f0 00       	cmp    QWORD PTR [rbp-0x10],0x0
     e51:	0f 84 38 00 00 00    	je     e8f <sgx_setActionCounter+0x4f>
     e57:	bf 01 00 00 00       	mov    edi,0x1
     e5c:	e8 bf 14 00 00       	call   2320 <_Z7tracebrPv>
     e61:	48 8d 05 38 17 00 00 	lea    rax,[rip+0x1738]        # 25a0 <sgx_is_outside_enclave>
     e68:	48 8b 7d f0          	mov    rdi,QWORD PTR [rbp-0x10]
     e6c:	48 89 7d d0          	mov    QWORD PTR [rbp-0x30],rdi
     e70:	48 89 c7             	mov    rdi,rax
     e73:	e8 38 11 00 00       	call   1fb0 <_Z10traceedgecPv>
     e78:	48 8b 7d d0          	mov    rdi,QWORD PTR [rbp-0x30]
     e7c:	be 08 00 00 00       	mov    esi,0x8
     e81:	e8 1a 17 00 00       	call   25a0 <sgx_is_outside_enclave>
     e86:	83 f8 00             	cmp    eax,0x0
     e89:	0f 85 13 00 00 00    	jne    ea2 <sgx_setActionCounter+0x62>
     e8f:	31 ff                	xor    edi,edi
     e91:	e8 8a 14 00 00       	call   2320 <_Z7tracebrPv>
     e96:	c7 45 fc 02 00 00 00 	mov    DWORD PTR [rbp-0x4],0x2
     e9d:	e9 4d 00 00 00       	jmp    eef <sgx_setActionCounter+0xaf>
     ea2:	bf 01 00 00 00       	mov    edi,0x1
     ea7:	e8 74 14 00 00       	call   2320 <_Z7tracebrPv>
     eac:	48 8d 05 9d 0f 00 00 	lea    rax,[rip+0xf9d]        # 1e50 <setActionCounter>
     eb3:	0f ae e8             	lfence 
     eb6:	48 8b 4d f0          	mov    rcx,QWORD PTR [rbp-0x10]
     eba:	48 89 4d e8          	mov    QWORD PTR [rbp-0x18],rcx
     ebe:	c7 45 e4 00 00 00 00 	mov    DWORD PTR [rbp-0x1c],0x0
     ec5:	48 8b 4d e8          	mov    rcx,QWORD PTR [rbp-0x18]
     ec9:	48 8b 09             	mov    rcx,QWORD PTR [rcx]
     ecc:	48 89 4d d8          	mov    QWORD PTR [rbp-0x28],rcx
     ed0:	48 8b 7d d8          	mov    rdi,QWORD PTR [rbp-0x28]
     ed4:	48 89 7d c8          	mov    QWORD PTR [rbp-0x38],rdi
     ed8:	48 89 c7             	mov    rdi,rax
     edb:	e8 d0 10 00 00       	call   1fb0 <_Z10traceedgecPv>
     ee0:	48 8b 7d c8          	mov    rdi,QWORD PTR [rbp-0x38]
     ee4:	e8 67 0f 00 00       	call   1e50 <setActionCounter>
     ee9:	8b 55 e4             	mov    edx,DWORD PTR [rbp-0x1c]
     eec:	89 55 fc             	mov    DWORD PTR [rbp-0x4],edx
     eef:	8b 45 fc             	mov    eax,DWORD PTR [rbp-0x4]
     ef2:	48 8b 7d 08          	mov    rdi,QWORD PTR [rbp+0x8]
     ef6:	89 45 c4             	mov    DWORD PTR [rbp-0x3c],eax
     ef9:	e8 b2 10 00 00       	call   1fb0 <_Z10traceedgecPv>
     efe:	8b 45 c4             	mov    eax,DWORD PTR [rbp-0x3c]
     f01:	48 83 c4 40          	add    rsp,0x40
     f05:	5d                   	pop    rbp
     f06:	c3                   	ret    
     f07:	66 0f 1f 84 00 00 00 	nop    WORD PTR [rax+rax*1+0x0]
     f0e:	00 00 

0000000000000f10 <sgx_bootSecureCommunication>:
     f10:	55                   	push   rbp
     f11:	48 89 e5             	mov    rbp,rsp
     f14:	48 83 ec 20          	sub    rsp,0x20
     f18:	48 89 7d f0          	mov    QWORD PTR [rbp-0x10],rdi
     f1c:	c7 45 ec 00 00 00 00 	mov    DWORD PTR [rbp-0x14],0x0
     f23:	48 83 7d f0 00       	cmp    QWORD PTR [rbp-0x10],0x0
     f28:	0f 84 0c 00 00 00    	je     f3a <sgx_bootSecureCommunication+0x2a>
     f2e:	c7 45 fc 02 00 00 00 	mov    DWORD PTR [rbp-0x4],0x2
     f35:	e9 0b 00 00 00       	jmp    f45 <sgx_bootSecureCommunication+0x35>
     f3a:	e8 31 0f 00 00       	call   1e70 <bootSecureCommunication>
     f3f:	8b 45 ec             	mov    eax,DWORD PTR [rbp-0x14]
     f42:	89 45 fc             	mov    DWORD PTR [rbp-0x4],eax
     f45:	8b 45 fc             	mov    eax,DWORD PTR [rbp-0x4]
     f48:	48 83 c4 20          	add    rsp,0x20
     f4c:	5d                   	pop    rbp
     f4d:	c3                   	ret    
     f4e:	66 90                	xchg   ax,ax

0000000000000f50 <sgx_makeEndMsg>:
     f50:	55                   	push   rbp
     f51:	48 89 e5             	mov    rbp,rsp
     f54:	48 83 ec 20          	sub    rsp,0x20
     f58:	48 89 7d f0          	mov    QWORD PTR [rbp-0x10],rdi
     f5c:	c7 45 ec 00 00 00 00 	mov    DWORD PTR [rbp-0x14],0x0
     f63:	48 83 7d f0 00       	cmp    QWORD PTR [rbp-0x10],0x0
     f68:	0f 84 0c 00 00 00    	je     f7a <sgx_makeEndMsg+0x2a>
     f6e:	c7 45 fc 02 00 00 00 	mov    DWORD PTR [rbp-0x4],0x2
     f75:	e9 0b 00 00 00       	jmp    f85 <sgx_makeEndMsg+0x35>
     f7a:	e8 f1 0a 00 00       	call   1a70 <makeEndMsg>
     f7f:	8b 45 ec             	mov    eax,DWORD PTR [rbp-0x14]
     f82:	89 45 fc             	mov    DWORD PTR [rbp-0x4],eax
     f85:	8b 45 fc             	mov    eax,DWORD PTR [rbp-0x4]
     f88:	48 83 c4 20          	add    rsp,0x20
     f8c:	5d                   	pop    rbp
     f8d:	c3                   	ret    
     f8e:	66 90                	xchg   ax,ax

0000000000000f90 <ocall_print_string>:
     f90:	55                   	push   rbp
     f91:	48 89 e5             	mov    rbp,rsp
     f94:	48 81 ec b0 00 00 00 	sub    rsp,0xb0
     f9b:	48 89 7d f0          	mov    QWORD PTR [rbp-0x10],rdi
     f9f:	c7 45 ec 00 00 00 00 	mov    DWORD PTR [rbp-0x14],0x0
     fa6:	48 83 7d f0 00       	cmp    QWORD PTR [rbp-0x10],0x0
     fab:	0f 84 39 00 00 00    	je     fea <ocall_print_string+0x5a>
     fb1:	bf 01 00 00 00       	mov    edi,0x1
     fb6:	e8 65 13 00 00       	call   2320 <_Z7tracebrPv>
     fbb:	48 8d 05 1e 78 00 00 	lea    rax,[rip+0x781e]        # 87e0 <strlen>
     fc2:	48 8b 7d f0          	mov    rdi,QWORD PTR [rbp-0x10]
     fc6:	48 89 7d c0          	mov    QWORD PTR [rbp-0x40],rdi
     fca:	48 89 c7             	mov    rdi,rax
     fcd:	e8 de 0f 00 00       	call   1fb0 <_Z10traceedgecPv>
     fd2:	48 8b 7d c0          	mov    rdi,QWORD PTR [rbp-0x40]
     fd6:	e8 05 78 00 00       	call   87e0 <strlen>
     fdb:	48 05 01 00 00 00    	add    rax,0x1
     fe1:	48 89 45 b8          	mov    QWORD PTR [rbp-0x48],rax
     fe5:	e9 0f 00 00 00       	jmp    ff9 <ocall_print_string+0x69>
     fea:	31 ff                	xor    edi,edi
     fec:	e8 2f 13 00 00       	call   2320 <_Z7tracebrPv>
     ff1:	31 c0                	xor    eax,eax
     ff3:	89 c1                	mov    ecx,eax
     ff5:	48 89 4d b8          	mov    QWORD PTR [rbp-0x48],rcx
     ff9:	48 8b 45 b8          	mov    rax,QWORD PTR [rbp-0x48]
     ffd:	48 89 45 e0          	mov    QWORD PTR [rbp-0x20],rax
    1001:	48 c7 45 d8 00 00 00 	mov    QWORD PTR [rbp-0x28],0x0
    1008:	00 
    1009:	48 c7 45 d0 08 00 00 	mov    QWORD PTR [rbp-0x30],0x8
    1010:	00 
    1011:	48 c7 45 c8 00 00 00 	mov    QWORD PTR [rbp-0x38],0x0
    1018:	00 
    1019:	48 83 7d f0 00       	cmp    QWORD PTR [rbp-0x10],0x0
    101e:	0f 84 52 00 00 00    	je     1076 <ocall_print_string+0xe6>
    1024:	bf 01 00 00 00       	mov    edi,0x1
    1029:	e8 f2 12 00 00       	call   2320 <_Z7tracebrPv>
    102e:	48 8d 05 1b 15 00 00 	lea    rax,[rip+0x151b]        # 2550 <sgx_is_within_enclave>
    1035:	48 8b 7d f0          	mov    rdi,QWORD PTR [rbp-0x10]
    1039:	48 8b 75 e0          	mov    rsi,QWORD PTR [rbp-0x20]
    103d:	48 89 7d b0          	mov    QWORD PTR [rbp-0x50],rdi
    1041:	48 89 c7             	mov    rdi,rax
    1044:	48 89 75 a8          	mov    QWORD PTR [rbp-0x58],rsi
    1048:	e8 63 0f 00 00       	call   1fb0 <_Z10traceedgecPv>
    104d:	48 8b 7d b0          	mov    rdi,QWORD PTR [rbp-0x50]
    1051:	48 8b 75 a8          	mov    rsi,QWORD PTR [rbp-0x58]
    1055:	e8 f6 14 00 00       	call   2550 <sgx_is_within_enclave>
    105a:	83 f8 00             	cmp    eax,0x0
    105d:	0f 85 13 00 00 00    	jne    1076 <ocall_print_string+0xe6>
    1063:	31 ff                	xor    edi,edi
    1065:	e8 b6 12 00 00       	call   2320 <_Z7tracebrPv>
    106a:	c7 45 fc 02 00 00 00 	mov    DWORD PTR [rbp-0x4],0x2
    1071:	e9 b2 02 00 00       	jmp    1328 <ocall_print_string+0x398>
    1076:	31 ff                	xor    edi,edi
    1078:	e8 a3 12 00 00       	call   2320 <_Z7tracebrPv>
    107d:	48 83 7d f0 00       	cmp    QWORD PTR [rbp-0x10],0x0
    1082:	0f 84 17 00 00 00    	je     109f <ocall_print_string+0x10f>
    1088:	bf 01 00 00 00       	mov    edi,0x1
    108d:	e8 8e 12 00 00       	call   2320 <_Z7tracebrPv>
    1092:	48 8b 45 e0          	mov    rax,QWORD PTR [rbp-0x20]
    1096:	48 89 45 a0          	mov    QWORD PTR [rbp-0x60],rax
    109a:	e9 0f 00 00 00       	jmp    10ae <ocall_print_string+0x11e>
    109f:	31 ff                	xor    edi,edi
    10a1:	e8 7a 12 00 00       	call   2320 <_Z7tracebrPv>
    10a6:	31 c0                	xor    eax,eax
    10a8:	89 c1                	mov    ecx,eax
    10aa:	48 89 4d a0          	mov    QWORD PTR [rbp-0x60],rcx
    10ae:	48 8b 45 a0          	mov    rax,QWORD PTR [rbp-0x60]
    10b2:	48 03 45 d0          	add    rax,QWORD PTR [rbp-0x30]
    10b6:	48 89 45 d0          	mov    QWORD PTR [rbp-0x30],rax
    10ba:	48 83 7d f0 00       	cmp    QWORD PTR [rbp-0x10],0x0
    10bf:	48 89 45 98          	mov    QWORD PTR [rbp-0x68],rax
    10c3:	0f 84 17 00 00 00    	je     10e0 <ocall_print_string+0x150>
    10c9:	bf 01 00 00 00       	mov    edi,0x1
    10ce:	e8 4d 12 00 00       	call   2320 <_Z7tracebrPv>
    10d3:	48 8b 45 e0          	mov    rax,QWORD PTR [rbp-0x20]
    10d7:	48 89 45 90          	mov    QWORD PTR [rbp-0x70],rax
    10db:	e9 0f 00 00 00       	jmp    10ef <ocall_print_string+0x15f>
    10e0:	31 ff                	xor    edi,edi
    10e2:	e8 39 12 00 00       	call   2320 <_Z7tracebrPv>
    10e7:	31 c0                	xor    eax,eax
    10e9:	89 c1                	mov    ecx,eax
    10eb:	48 89 4d 90          	mov    QWORD PTR [rbp-0x70],rcx
    10ef:	48 8b 45 90          	mov    rax,QWORD PTR [rbp-0x70]
    10f3:	48 8b 4d 98          	mov    rcx,QWORD PTR [rbp-0x68]
    10f7:	48 39 c1             	cmp    rcx,rax
    10fa:	0f 83 16 00 00 00    	jae    1116 <ocall_print_string+0x186>
    1100:	bf 01 00 00 00       	mov    edi,0x1
    1105:	e8 16 12 00 00       	call   2320 <_Z7tracebrPv>
    110a:	c7 45 fc 02 00 00 00 	mov    DWORD PTR [rbp-0x4],0x2
    1111:	e9 12 02 00 00       	jmp    1328 <ocall_print_string+0x398>
    1116:	31 ff                	xor    edi,edi
    1118:	e8 03 12 00 00       	call   2320 <_Z7tracebrPv>
    111d:	48 8d 05 cc 14 00 00 	lea    rax,[rip+0x14cc]        # 25f0 <sgx_ocalloc>
    1124:	48 8b 7d d0          	mov    rdi,QWORD PTR [rbp-0x30]
    1128:	48 89 7d 88          	mov    QWORD PTR [rbp-0x78],rdi
    112c:	48 89 c7             	mov    rdi,rax
    112f:	e8 7c 0e 00 00       	call   1fb0 <_Z10traceedgecPv>
    1134:	48 8b 7d 88          	mov    rdi,QWORD PTR [rbp-0x78]
    1138:	e8 b3 14 00 00       	call   25f0 <sgx_ocalloc>
    113d:	48 89 45 c8          	mov    QWORD PTR [rbp-0x38],rax
    1141:	48 83 7d c8 00       	cmp    QWORD PTR [rbp-0x38],0x0
    1146:	0f 85 2a 00 00 00    	jne    1176 <ocall_print_string+0x1e6>
    114c:	bf 01 00 00 00       	mov    edi,0x1
    1151:	e8 ca 11 00 00       	call   2320 <_Z7tracebrPv>
    1156:	48 8d 05 83 15 00 00 	lea    rax,[rip+0x1583]        # 26e0 <sgx_ocfree>
    115d:	48 89 c7             	mov    rdi,rax
    1160:	e8 4b 0e 00 00       	call   1fb0 <_Z10traceedgecPv>
    1165:	e8 76 15 00 00       	call   26e0 <sgx_ocfree>
    116a:	c7 45 fc 01 00 00 00 	mov    DWORD PTR [rbp-0x4],0x1
    1171:	e9 b2 01 00 00       	jmp    1328 <ocall_print_string+0x398>
    1176:	31 ff                	xor    edi,edi
    1178:	e8 a3 11 00 00       	call   2320 <_Z7tracebrPv>
    117d:	48 8b 45 c8          	mov    rax,QWORD PTR [rbp-0x38]
    1181:	48 89 45 d8          	mov    QWORD PTR [rbp-0x28],rax
    1185:	48 8b 45 c8          	mov    rax,QWORD PTR [rbp-0x38]
    1189:	48 05 08 00 00 00    	add    rax,0x8
    118f:	48 89 45 c8          	mov    QWORD PTR [rbp-0x38],rax
    1193:	48 8b 45 d0          	mov    rax,QWORD PTR [rbp-0x30]
    1197:	48 2d 08 00 00 00    	sub    rax,0x8
    119d:	48 89 45 d0          	mov    QWORD PTR [rbp-0x30],rax
    11a1:	48 83 7d f0 00       	cmp    QWORD PTR [rbp-0x10],0x0
    11a6:	0f 84 0a 01 00 00    	je     12b6 <ocall_print_string+0x326>
    11ac:	bf 01 00 00 00       	mov    edi,0x1
    11b1:	e8 6a 11 00 00       	call   2320 <_Z7tracebrPv>
    11b6:	48 8b 45 c8          	mov    rax,QWORD PTR [rbp-0x38]
    11ba:	48 8b 4d d8          	mov    rcx,QWORD PTR [rbp-0x28]
    11be:	48 89 01             	mov    QWORD PTR [rcx],rax
    11c1:	48 8b 45 e0          	mov    rax,QWORD PTR [rbp-0x20]
    11c5:	48 25 00 00 00 00    	and    rax,0x0
    11cb:	48 83 f8 00          	cmp    rax,0x0
    11cf:	0f 84 2a 00 00 00    	je     11ff <ocall_print_string+0x26f>
    11d5:	bf 01 00 00 00       	mov    edi,0x1
    11da:	e8 41 11 00 00       	call   2320 <_Z7tracebrPv>
    11df:	48 8d 05 fa 14 00 00 	lea    rax,[rip+0x14fa]        # 26e0 <sgx_ocfree>
    11e6:	48 89 c7             	mov    rdi,rax
    11e9:	e8 c2 0d 00 00       	call   1fb0 <_Z10traceedgecPv>
    11ee:	e8 ed 14 00 00       	call   26e0 <sgx_ocfree>
    11f3:	c7 45 fc 02 00 00 00 	mov    DWORD PTR [rbp-0x4],0x2
    11fa:	e9 29 01 00 00       	jmp    1328 <ocall_print_string+0x398>
    11ff:	31 ff                	xor    edi,edi
    1201:	e8 1a 11 00 00       	call   2320 <_Z7tracebrPv>
    1206:	48 8d 05 f3 76 00 00 	lea    rax,[rip+0x76f3]        # 8900 <memcpy_s>
    120d:	48 8b 7d c8          	mov    rdi,QWORD PTR [rbp-0x38]
    1211:	48 8b 75 d0          	mov    rsi,QWORD PTR [rbp-0x30]
    1215:	48 8b 55 f0          	mov    rdx,QWORD PTR [rbp-0x10]
    1219:	48 8b 4d e0          	mov    rcx,QWORD PTR [rbp-0x20]
    121d:	48 89 7d 80          	mov    QWORD PTR [rbp-0x80],rdi
    1221:	48 89 c7             	mov    rdi,rax
    1224:	48 89 b5 78 ff ff ff 	mov    QWORD PTR [rbp-0x88],rsi
    122b:	48 89 95 70 ff ff ff 	mov    QWORD PTR [rbp-0x90],rdx
    1232:	48 89 8d 68 ff ff ff 	mov    QWORD PTR [rbp-0x98],rcx
    1239:	e8 72 0d 00 00       	call   1fb0 <_Z10traceedgecPv>
    123e:	48 8b 7d 80          	mov    rdi,QWORD PTR [rbp-0x80]
    1242:	48 8b b5 78 ff ff ff 	mov    rsi,QWORD PTR [rbp-0x88]
    1249:	48 8b 95 70 ff ff ff 	mov    rdx,QWORD PTR [rbp-0x90]
    1250:	48 8b 8d 68 ff ff ff 	mov    rcx,QWORD PTR [rbp-0x98]
    1257:	e8 a4 76 00 00       	call   8900 <memcpy_s>
    125c:	83 f8 00             	cmp    eax,0x0
    125f:	0f 84 2a 00 00 00    	je     128f <ocall_print_string+0x2ff>
    1265:	bf 01 00 00 00       	mov    edi,0x1
    126a:	e8 b1 10 00 00       	call   2320 <_Z7tracebrPv>
    126f:	48 8d 05 6a 14 00 00 	lea    rax,[rip+0x146a]        # 26e0 <sgx_ocfree>
    1276:	48 89 c7             	mov    rdi,rax
    1279:	e8 32 0d 00 00       	call   1fb0 <_Z10traceedgecPv>
    127e:	e8 5d 14 00 00       	call   26e0 <sgx_ocfree>
    1283:	c7 45 fc 01 00 00 00 	mov    DWORD PTR [rbp-0x4],0x1
    128a:	e9 99 00 00 00       	jmp    1328 <ocall_print_string+0x398>
    128f:	31 ff                	xor    edi,edi
    1291:	e8 8a 10 00 00       	call   2320 <_Z7tracebrPv>
    1296:	48 8b 45 c8          	mov    rax,QWORD PTR [rbp-0x38]
    129a:	48 03 45 e0          	add    rax,QWORD PTR [rbp-0x20]
    129e:	48 89 45 c8          	mov    QWORD PTR [rbp-0x38],rax
    12a2:	48 8b 45 e0          	mov    rax,QWORD PTR [rbp-0x20]
    12a6:	48 8b 4d d0          	mov    rcx,QWORD PTR [rbp-0x30]
    12aa:	48 29 c1             	sub    rcx,rax
    12ad:	48 89 4d d0          	mov    QWORD PTR [rbp-0x30],rcx
    12b1:	e9 12 00 00 00       	jmp    12c8 <ocall_print_string+0x338>
    12b6:	31 ff                	xor    edi,edi
    12b8:	e8 63 10 00 00       	call   2320 <_Z7tracebrPv>
    12bd:	48 8b 45 d8          	mov    rax,QWORD PTR [rbp-0x28]
    12c1:	48 c7 00 00 00 00 00 	mov    QWORD PTR [rax],0x0
    12c8:	48 8d 05 61 29 00 00 	lea    rax,[rip+0x2961]        # 3c30 <sgx_ocall>
    12cf:	48 8b 4d d8          	mov    rcx,QWORD PTR [rbp-0x28]
    12d3:	48 89 c7             	mov    rdi,rax
    12d6:	48 89 8d 60 ff ff ff 	mov    QWORD PTR [rbp-0xa0],rcx
    12dd:	e8 ce 0c 00 00       	call   1fb0 <_Z10traceedgecPv>
    12e2:	31 ff                	xor    edi,edi
    12e4:	48 8b b5 60 ff ff ff 	mov    rsi,QWORD PTR [rbp-0xa0]
    12eb:	e8 40 29 00 00       	call   3c30 <sgx_ocall>
    12f0:	89 45 ec             	mov    DWORD PTR [rbp-0x14],eax
    12f3:	83 7d ec 00          	cmp    DWORD PTR [rbp-0x14],0x0
    12f7:	0f 85 0a 00 00 00    	jne    1307 <ocall_print_string+0x377>
    12fd:	bf 01 00 00 00       	mov    edi,0x1
    1302:	e8 19 10 00 00       	call   2320 <_Z7tracebrPv>
    1307:	31 ff                	xor    edi,edi
    1309:	e8 12 10 00 00       	call   2320 <_Z7tracebrPv>
    130e:	48 8d 05 cb 13 00 00 	lea    rax,[rip+0x13cb]        # 26e0 <sgx_ocfree>
    1315:	48 89 c7             	mov    rdi,rax
    1318:	e8 93 0c 00 00       	call   1fb0 <_Z10traceedgecPv>
    131d:	e8 be 13 00 00       	call   26e0 <sgx_ocfree>
    1322:	8b 4d ec             	mov    ecx,DWORD PTR [rbp-0x14]
    1325:	89 4d fc             	mov    DWORD PTR [rbp-0x4],ecx
    1328:	8b 45 fc             	mov    eax,DWORD PTR [rbp-0x4]
    132b:	48 8b 7d 08          	mov    rdi,QWORD PTR [rbp+0x8]
    132f:	89 85 5c ff ff ff    	mov    DWORD PTR [rbp-0xa4],eax
    1335:	e8 76 0c 00 00       	call   1fb0 <_Z10traceedgecPv>
    133a:	8b 85 5c ff ff ff    	mov    eax,DWORD PTR [rbp-0xa4]
    1340:	48 81 c4 b0 00 00 00 	add    rsp,0xb0
    1347:	5d                   	pop    rbp
    1348:	c3                   	ret    
    1349:	0f 1f 80 00 00 00 00 	nop    DWORD PTR [rax+0x0]

0000000000001350 <ocall_monitorgatewayu>:
    1350:	55                   	push   rbp
    1351:	48 89 e5             	mov    rbp,rsp
    1354:	48 81 ec 90 00 00 00 	sub    rsp,0x90
    135b:	48 89 7d f0          	mov    QWORD PTR [rbp-0x10],rdi
    135f:	48 89 75 e8          	mov    QWORD PTR [rbp-0x18],rsi
    1363:	48 89 55 e0          	mov    QWORD PTR [rbp-0x20],rdx
    1367:	48 89 4d d8          	mov    QWORD PTR [rbp-0x28],rcx
    136b:	c7 45 d4 00 00 00 00 	mov    DWORD PTR [rbp-0x2c],0x0
    1372:	48 8b 45 e8          	mov    rax,QWORD PTR [rbp-0x18]
    1376:	48 c1 e0 00          	shl    rax,0x0
    137a:	48 89 45 c8          	mov    QWORD PTR [rbp-0x38],rax
    137e:	48 8b 45 d8          	mov    rax,QWORD PTR [rbp-0x28]
    1382:	48 c1 e0 00          	shl    rax,0x0
    1386:	48 89 45 c0          	mov    QWORD PTR [rbp-0x40],rax
    138a:	48 c7 45 b8 00 00 00 	mov    QWORD PTR [rbp-0x48],0x0
    1391:	00 
    1392:	48 c7 45 b0 20 00 00 	mov    QWORD PTR [rbp-0x50],0x20
    1399:	00 
    139a:	48 c7 45 a8 00 00 00 	mov    QWORD PTR [rbp-0x58],0x0
    13a1:	00 
    13a2:	48 c7 45 a0 00 00 00 	mov    QWORD PTR [rbp-0x60],0x0
    13a9:	00 
    13aa:	48 83 7d f0 00       	cmp    QWORD PTR [rbp-0x10],0x0
    13af:	0f 84 22 00 00 00    	je     13d7 <ocall_monitorgatewayu+0x87>
    13b5:	48 8b 7d f0          	mov    rdi,QWORD PTR [rbp-0x10]
    13b9:	48 8b 75 c8          	mov    rsi,QWORD PTR [rbp-0x38]
    13bd:	e8 8e 11 00 00       	call   2550 <sgx_is_within_enclave>
    13c2:	83 f8 00             	cmp    eax,0x0
    13c5:	0f 85 0c 00 00 00    	jne    13d7 <ocall_monitorgatewayu+0x87>
    13cb:	c7 45 fc 02 00 00 00 	mov    DWORD PTR [rbp-0x4],0x2
    13d2:	e9 1f 03 00 00       	jmp    16f6 <ocall_monitorgatewayu+0x3a6>
    13d7:	e9 00 00 00 00       	jmp    13dc <ocall_monitorgatewayu+0x8c>
    13dc:	e9 00 00 00 00       	jmp    13e1 <ocall_monitorgatewayu+0x91>
    13e1:	48 83 7d e0 00       	cmp    QWORD PTR [rbp-0x20],0x0
    13e6:	0f 84 22 00 00 00    	je     140e <ocall_monitorgatewayu+0xbe>
    13ec:	48 8b 7d e0          	mov    rdi,QWORD PTR [rbp-0x20]
    13f0:	48 8b 75 c0          	mov    rsi,QWORD PTR [rbp-0x40]
    13f4:	e8 57 11 00 00       	call   2550 <sgx_is_within_enclave>
    13f9:	83 f8 00             	cmp    eax,0x0
    13fc:	0f 85 0c 00 00 00    	jne    140e <ocall_monitorgatewayu+0xbe>
    1402:	c7 45 fc 02 00 00 00 	mov    DWORD PTR [rbp-0x4],0x2
    1409:	e9 e8 02 00 00       	jmp    16f6 <ocall_monitorgatewayu+0x3a6>
    140e:	e9 00 00 00 00       	jmp    1413 <ocall_monitorgatewayu+0xc3>
    1413:	48 83 7d f0 00       	cmp    QWORD PTR [rbp-0x10],0x0
    1418:	0f 84 0d 00 00 00    	je     142b <ocall_monitorgatewayu+0xdb>
    141e:	48 8b 45 c8          	mov    rax,QWORD PTR [rbp-0x38]
    1422:	48 89 45 98          	mov    QWORD PTR [rbp-0x68],rax
    1426:	e9 0d 00 00 00       	jmp    1438 <ocall_monitorgatewayu+0xe8>
    142b:	31 c0                	xor    eax,eax
    142d:	89 c1                	mov    ecx,eax
    142f:	48 89 4d 98          	mov    QWORD PTR [rbp-0x68],rcx
    1433:	e9 00 00 00 00       	jmp    1438 <ocall_monitorgatewayu+0xe8>
    1438:	48 8b 45 98          	mov    rax,QWORD PTR [rbp-0x68]
    143c:	48 03 45 b0          	add    rax,QWORD PTR [rbp-0x50]
    1440:	48 89 45 b0          	mov    QWORD PTR [rbp-0x50],rax
    1444:	48 83 7d f0 00       	cmp    QWORD PTR [rbp-0x10],0x0
    1449:	48 89 45 90          	mov    QWORD PTR [rbp-0x70],rax
    144d:	0f 84 0d 00 00 00    	je     1460 <ocall_monitorgatewayu+0x110>
    1453:	48 8b 45 c8          	mov    rax,QWORD PTR [rbp-0x38]
    1457:	48 89 45 88          	mov    QWORD PTR [rbp-0x78],rax
    145b:	e9 0d 00 00 00       	jmp    146d <ocall_monitorgatewayu+0x11d>
    1460:	31 c0                	xor    eax,eax
    1462:	89 c1                	mov    ecx,eax
    1464:	48 89 4d 88          	mov    QWORD PTR [rbp-0x78],rcx
    1468:	e9 00 00 00 00       	jmp    146d <ocall_monitorgatewayu+0x11d>
    146d:	48 8b 45 88          	mov    rax,QWORD PTR [rbp-0x78]
    1471:	48 8b 4d 90          	mov    rcx,QWORD PTR [rbp-0x70]
    1475:	48 39 c1             	cmp    rcx,rax
    1478:	0f 83 0c 00 00 00    	jae    148a <ocall_monitorgatewayu+0x13a>
    147e:	c7 45 fc 02 00 00 00 	mov    DWORD PTR [rbp-0x4],0x2
    1485:	e9 6c 02 00 00       	jmp    16f6 <ocall_monitorgatewayu+0x3a6>
    148a:	48 83 7d e0 00       	cmp    QWORD PTR [rbp-0x20],0x0
    148f:	0f 84 0d 00 00 00    	je     14a2 <ocall_monitorgatewayu+0x152>
    1495:	48 8b 45 c0          	mov    rax,QWORD PTR [rbp-0x40]
    1499:	48 89 45 80          	mov    QWORD PTR [rbp-0x80],rax
    149d:	e9 0d 00 00 00       	jmp    14af <ocall_monitorgatewayu+0x15f>
    14a2:	31 c0                	xor    eax,eax
    14a4:	89 c1                	mov    ecx,eax
    14a6:	48 89 4d 80          	mov    QWORD PTR [rbp-0x80],rcx
    14aa:	e9 00 00 00 00       	jmp    14af <ocall_monitorgatewayu+0x15f>
    14af:	48 8b 45 80          	mov    rax,QWORD PTR [rbp-0x80]
    14b3:	48 03 45 b0          	add    rax,QWORD PTR [rbp-0x50]
    14b7:	48 89 45 b0          	mov    QWORD PTR [rbp-0x50],rax
    14bb:	48 83 7d e0 00       	cmp    QWORD PTR [rbp-0x20],0x0
    14c0:	48 89 85 78 ff ff ff 	mov    QWORD PTR [rbp-0x88],rax
    14c7:	0f 84 10 00 00 00    	je     14dd <ocall_monitorgatewayu+0x18d>
    14cd:	48 8b 45 c0          	mov    rax,QWORD PTR [rbp-0x40]
    14d1:	48 89 85 70 ff ff ff 	mov    QWORD PTR [rbp-0x90],rax
    14d8:	e9 10 00 00 00       	jmp    14ed <ocall_monitorgatewayu+0x19d>
    14dd:	31 c0                	xor    eax,eax
    14df:	89 c1                	mov    ecx,eax
    14e1:	48 89 8d 70 ff ff ff 	mov    QWORD PTR [rbp-0x90],rcx
    14e8:	e9 00 00 00 00       	jmp    14ed <ocall_monitorgatewayu+0x19d>
    14ed:	48 8b 85 70 ff ff ff 	mov    rax,QWORD PTR [rbp-0x90]
    14f4:	48 8b 8d 78 ff ff ff 	mov    rcx,QWORD PTR [rbp-0x88]
    14fb:	48 39 c1             	cmp    rcx,rax
    14fe:	0f 83 0c 00 00 00    	jae    1510 <ocall_monitorgatewayu+0x1c0>
    1504:	c7 45 fc 02 00 00 00 	mov    DWORD PTR [rbp-0x4],0x2
    150b:	e9 e6 01 00 00       	jmp    16f6 <ocall_monitorgatewayu+0x3a6>
    1510:	48 8b 7d b0          	mov    rdi,QWORD PTR [rbp-0x50]
    1514:	e8 d7 10 00 00       	call   25f0 <sgx_ocalloc>
    1519:	48 89 45 a8          	mov    QWORD PTR [rbp-0x58],rax
    151d:	48 83 7d a8 00       	cmp    QWORD PTR [rbp-0x58],0x0
    1522:	0f 85 11 00 00 00    	jne    1539 <ocall_monitorgatewayu+0x1e9>
    1528:	e8 b3 11 00 00       	call   26e0 <sgx_ocfree>
    152d:	c7 45 fc 01 00 00 00 	mov    DWORD PTR [rbp-0x4],0x1
    1534:	e9 bd 01 00 00       	jmp    16f6 <ocall_monitorgatewayu+0x3a6>
    1539:	48 8b 45 a8          	mov    rax,QWORD PTR [rbp-0x58]
    153d:	48 89 45 b8          	mov    QWORD PTR [rbp-0x48],rax
    1541:	48 8b 45 a8          	mov    rax,QWORD PTR [rbp-0x58]
    1545:	48 05 20 00 00 00    	add    rax,0x20
    154b:	48 89 45 a8          	mov    QWORD PTR [rbp-0x58],rax
    154f:	48 8b 45 b0          	mov    rax,QWORD PTR [rbp-0x50]
    1553:	48 2d 20 00 00 00    	sub    rax,0x20
    1559:	48 89 45 b0          	mov    QWORD PTR [rbp-0x50],rax
    155d:	48 83 7d f0 00       	cmp    QWORD PTR [rbp-0x10],0x0
    1562:	0f 84 7f 00 00 00    	je     15e7 <ocall_monitorgatewayu+0x297>
    1568:	48 8b 45 a8          	mov    rax,QWORD PTR [rbp-0x58]
    156c:	48 8b 4d b8          	mov    rcx,QWORD PTR [rbp-0x48]
    1570:	48 89 01             	mov    QWORD PTR [rcx],rax
    1573:	48 8b 45 c8          	mov    rax,QWORD PTR [rbp-0x38]
    1577:	48 25 00 00 00 00    	and    rax,0x0
    157d:	48 83 f8 00          	cmp    rax,0x0
    1581:	0f 84 11 00 00 00    	je     1598 <ocall_monitorgatewayu+0x248>
    1587:	e8 54 11 00 00       	call   26e0 <sgx_ocfree>
    158c:	c7 45 fc 02 00 00 00 	mov    DWORD PTR [rbp-0x4],0x2
    1593:	e9 5e 01 00 00       	jmp    16f6 <ocall_monitorgatewayu+0x3a6>
    1598:	48 8b 7d a8          	mov    rdi,QWORD PTR [rbp-0x58]
    159c:	48 8b 75 b0          	mov    rsi,QWORD PTR [rbp-0x50]
    15a0:	48 8b 55 f0          	mov    rdx,QWORD PTR [rbp-0x10]
    15a4:	48 8b 4d c8          	mov    rcx,QWORD PTR [rbp-0x38]
    15a8:	e8 53 73 00 00       	call   8900 <memcpy_s>
    15ad:	83 f8 00             	cmp    eax,0x0
    15b0:	0f 84 11 00 00 00    	je     15c7 <ocall_monitorgatewayu+0x277>
    15b6:	e8 25 11 00 00       	call   26e0 <sgx_ocfree>
    15bb:	c7 45 fc 01 00 00 00 	mov    DWORD PTR [rbp-0x4],0x1
    15c2:	e9 2f 01 00 00       	jmp    16f6 <ocall_monitorgatewayu+0x3a6>
    15c7:	48 8b 45 a8          	mov    rax,QWORD PTR [rbp-0x58]
    15cb:	48 03 45 c8          	add    rax,QWORD PTR [rbp-0x38]
    15cf:	48 89 45 a8          	mov    QWORD PTR [rbp-0x58],rax
    15d3:	48 8b 45 c8          	mov    rax,QWORD PTR [rbp-0x38]
    15d7:	48 8b 4d b0          	mov    rcx,QWORD PTR [rbp-0x50]
    15db:	48 29 c1             	sub    rcx,rax
    15de:	48 89 4d b0          	mov    QWORD PTR [rbp-0x50],rcx
    15e2:	e9 0b 00 00 00       	jmp    15f2 <ocall_monitorgatewayu+0x2a2>
    15e7:	48 8b 45 b8          	mov    rax,QWORD PTR [rbp-0x48]
    15eb:	48 c7 00 00 00 00 00 	mov    QWORD PTR [rax],0x0
    15f2:	48 8b 45 e8          	mov    rax,QWORD PTR [rbp-0x18]
    15f6:	48 8b 4d b8          	mov    rcx,QWORD PTR [rbp-0x48]
    15fa:	48 89 41 08          	mov    QWORD PTR [rcx+0x8],rax
    15fe:	48 83 7d e0 00       	cmp    QWORD PTR [rbp-0x20],0x0
    1603:	0f 84 68 00 00 00    	je     1671 <ocall_monitorgatewayu+0x321>
    1609:	48 8b 45 a8          	mov    rax,QWORD PTR [rbp-0x58]
    160d:	48 8b 4d b8          	mov    rcx,QWORD PTR [rbp-0x48]
    1611:	48 89 41 10          	mov    QWORD PTR [rcx+0x10],rax
    1615:	48 8b 45 a8          	mov    rax,QWORD PTR [rbp-0x58]
    1619:	48 89 45 a0          	mov    QWORD PTR [rbp-0x60],rax
    161d:	48 8b 45 c0          	mov    rax,QWORD PTR [rbp-0x40]
    1621:	48 25 00 00 00 00    	and    rax,0x0
    1627:	48 83 f8 00          	cmp    rax,0x0
    162b:	0f 84 11 00 00 00    	je     1642 <ocall_monitorgatewayu+0x2f2>
    1631:	e8 aa 10 00 00       	call   26e0 <sgx_ocfree>
    1636:	c7 45 fc 02 00 00 00 	mov    DWORD PTR [rbp-0x4],0x2
    163d:	e9 b4 00 00 00       	jmp    16f6 <ocall_monitorgatewayu+0x3a6>
    1642:	31 f6                	xor    esi,esi
    1644:	48 8b 7d a0          	mov    rdi,QWORD PTR [rbp-0x60]
    1648:	48 8b 55 c0          	mov    rdx,QWORD PTR [rbp-0x40]
    164c:	e8 af 6d 00 00       	call   8400 <memset>
    1651:	48 8b 45 a8          	mov    rax,QWORD PTR [rbp-0x58]
    1655:	48 03 45 c0          	add    rax,QWORD PTR [rbp-0x40]
    1659:	48 89 45 a8          	mov    QWORD PTR [rbp-0x58],rax
    165d:	48 8b 45 c0          	mov    rax,QWORD PTR [rbp-0x40]
    1661:	48 8b 4d b0          	mov    rcx,QWORD PTR [rbp-0x50]
    1665:	48 29 c1             	sub    rcx,rax
    1668:	48 89 4d b0          	mov    QWORD PTR [rbp-0x50],rcx
    166c:	e9 0c 00 00 00       	jmp    167d <ocall_monitorgatewayu+0x32d>
    1671:	48 8b 45 b8          	mov    rax,QWORD PTR [rbp-0x48]
    1675:	48 c7 40 10 00 00 00 	mov    QWORD PTR [rax+0x10],0x0
    167c:	00 
    167d:	48 8b 45 d8          	mov    rax,QWORD PTR [rbp-0x28]
    1681:	48 8b 4d b8          	mov    rcx,QWORD PTR [rbp-0x48]
    1685:	48 89 41 18          	mov    QWORD PTR [rcx+0x18],rax
    1689:	48 8b 45 b8          	mov    rax,QWORD PTR [rbp-0x48]
    168d:	bf 01 00 00 00       	mov    edi,0x1
    1692:	48 89 c6             	mov    rsi,rax
    1695:	e8 96 25 00 00       	call   3c30 <sgx_ocall>
    169a:	89 45 d4             	mov    DWORD PTR [rbp-0x2c],eax
    169d:	83 7d d4 00          	cmp    DWORD PTR [rbp-0x2c],0x0
    16a1:	0f 85 44 00 00 00    	jne    16eb <ocall_monitorgatewayu+0x39b>
    16a7:	48 83 7d e0 00       	cmp    QWORD PTR [rbp-0x20],0x0
    16ac:	0f 84 34 00 00 00    	je     16e6 <ocall_monitorgatewayu+0x396>
    16b2:	48 8b 7d e0          	mov    rdi,QWORD PTR [rbp-0x20]
    16b6:	48 8b 75 c0          	mov    rsi,QWORD PTR [rbp-0x40]
    16ba:	48 8b 55 a0          	mov    rdx,QWORD PTR [rbp-0x60]
    16be:	48 8b 4d c0          	mov    rcx,QWORD PTR [rbp-0x40]
    16c2:	e8 39 72 00 00       	call   8900 <memcpy_s>
    16c7:	83 f8 00             	cmp    eax,0x0
    16ca:	0f 84 11 00 00 00    	je     16e1 <ocall_monitorgatewayu+0x391>
    16d0:	e8 0b 10 00 00       	call   26e0 <sgx_ocfree>
    16d5:	c7 45 fc 01 00 00 00 	mov    DWORD PTR [rbp-0x4],0x1
    16dc:	e9 15 00 00 00       	jmp    16f6 <ocall_monitorgatewayu+0x3a6>
    16e1:	e9 00 00 00 00       	jmp    16e6 <ocall_monitorgatewayu+0x396>
    16e6:	e9 00 00 00 00       	jmp    16eb <ocall_monitorgatewayu+0x39b>
    16eb:	e8 f0 0f 00 00       	call   26e0 <sgx_ocfree>
    16f0:	8b 45 d4             	mov    eax,DWORD PTR [rbp-0x2c]
    16f3:	89 45 fc             	mov    DWORD PTR [rbp-0x4],eax
    16f6:	8b 45 fc             	mov    eax,DWORD PTR [rbp-0x4]
    16f9:	48 81 c4 90 00 00 00 	add    rsp,0x90
    1700:	5d                   	pop    rbp
    1701:	c3                   	ret    
    1702:	66 2e 0f 1f 84 00 00 	nop    WORD PTR cs:[rax+rax*1+0x0]
    1709:	00 00 00 
    170c:	0f 1f 40 00          	nop    DWORD PTR [rax+0x0]

0000000000001710 <printf>:
    1710:	55                   	push   rbp
    1711:	48 89 e5             	mov    rbp,rsp
    1714:	48 81 ec c0 21 00 00 	sub    rsp,0x21c0
    171b:	84 c0                	test   al,al
    171d:	0f 29 bd 10 df ff ff 	movaps XMMWORD PTR [rbp-0x20f0],xmm7
    1724:	0f 29 b5 00 df ff ff 	movaps XMMWORD PTR [rbp-0x2100],xmm6
    172b:	0f 29 ad f0 de ff ff 	movaps XMMWORD PTR [rbp-0x2110],xmm5
    1732:	0f 29 a5 e0 de ff ff 	movaps XMMWORD PTR [rbp-0x2120],xmm4
    1739:	0f 29 9d d0 de ff ff 	movaps XMMWORD PTR [rbp-0x2130],xmm3
    1740:	0f 29 95 c0 de ff ff 	movaps XMMWORD PTR [rbp-0x2140],xmm2
    1747:	0f 29 8d b0 de ff ff 	movaps XMMWORD PTR [rbp-0x2150],xmm1
    174e:	0f 29 85 a0 de ff ff 	movaps XMMWORD PTR [rbp-0x2160],xmm0
    1755:	4c 89 8d 98 de ff ff 	mov    QWORD PTR [rbp-0x2168],r9
    175c:	4c 89 85 90 de ff ff 	mov    QWORD PTR [rbp-0x2170],r8
    1763:	48 89 8d 88 de ff ff 	mov    QWORD PTR [rbp-0x2178],rcx
    176a:	48 89 95 80 de ff ff 	mov    QWORD PTR [rbp-0x2180],rdx
    1771:	48 89 b5 78 de ff ff 	mov    QWORD PTR [rbp-0x2188],rsi
    1778:	48 89 bd 70 de ff ff 	mov    QWORD PTR [rbp-0x2190],rdi
    177f:	0f 84 70 00 00 00    	je     17f5 <printf+0xe5>
    1785:	0f 28 85 a0 de ff ff 	movaps xmm0,XMMWORD PTR [rbp-0x2160]
    178c:	0f 29 85 50 df ff ff 	movaps XMMWORD PTR [rbp-0x20b0],xmm0
    1793:	0f 28 8d b0 de ff ff 	movaps xmm1,XMMWORD PTR [rbp-0x2150]
    179a:	0f 29 8d 60 df ff ff 	movaps XMMWORD PTR [rbp-0x20a0],xmm1
    17a1:	0f 28 95 c0 de ff ff 	movaps xmm2,XMMWORD PTR [rbp-0x2140]
    17a8:	0f 29 95 70 df ff ff 	movaps XMMWORD PTR [rbp-0x2090],xmm2
    17af:	0f 28 9d d0 de ff ff 	movaps xmm3,XMMWORD PTR [rbp-0x2130]
    17b6:	0f 29 9d 80 df ff ff 	movaps XMMWORD PTR [rbp-0x2080],xmm3
    17bd:	0f 28 a5 e0 de ff ff 	movaps xmm4,XMMWORD PTR [rbp-0x2120]
    17c4:	0f 29 a5 90 df ff ff 	movaps XMMWORD PTR [rbp-0x2070],xmm4
    17cb:	0f 28 ad f0 de ff ff 	movaps xmm5,XMMWORD PTR [rbp-0x2110]
    17d2:	0f 29 ad a0 df ff ff 	movaps XMMWORD PTR [rbp-0x2060],xmm5
    17d9:	0f 28 b5 00 df ff ff 	movaps xmm6,XMMWORD PTR [rbp-0x2100]
    17e0:	0f 29 b5 b0 df ff ff 	movaps XMMWORD PTR [rbp-0x2050],xmm6
    17e7:	0f 28 bd 10 df ff ff 	movaps xmm7,XMMWORD PTR [rbp-0x20f0]
    17ee:	0f 29 bd c0 df ff ff 	movaps XMMWORD PTR [rbp-0x2040],xmm7
    17f5:	48 8b 85 98 de ff ff 	mov    rax,QWORD PTR [rbp-0x2168]
    17fc:	48 89 85 48 df ff ff 	mov    QWORD PTR [rbp-0x20b8],rax
    1803:	48 8b 8d 90 de ff ff 	mov    rcx,QWORD PTR [rbp-0x2170]
    180a:	48 89 8d 40 df ff ff 	mov    QWORD PTR [rbp-0x20c0],rcx
    1811:	48 8b 95 88 de ff ff 	mov    rdx,QWORD PTR [rbp-0x2178]
    1818:	48 89 95 38 df ff ff 	mov    QWORD PTR [rbp-0x20c8],rdx
    181f:	48 8b b5 80 de ff ff 	mov    rsi,QWORD PTR [rbp-0x2180]
    1826:	48 89 b5 30 df ff ff 	mov    QWORD PTR [rbp-0x20d0],rsi
    182d:	48 8b bd 78 de ff ff 	mov    rdi,QWORD PTR [rbp-0x2188]
    1834:	48 89 bd 28 df ff ff 	mov    QWORD PTR [rbp-0x20d8],rdi
    183b:	4c 8b 85 70 de ff ff 	mov    r8,QWORD PTR [rbp-0x2190]
    1842:	4c 89 45 f8          	mov    QWORD PTR [rbp-0x8],r8
    1846:	4c 8d 8d f0 df ff ff 	lea    r9,[rbp-0x2010]
    184d:	45 31 d2             	xor    r10d,r10d
    1850:	41 bb 00 20 00 00    	mov    r11d,0x2000
    1856:	4c 89 cf             	mov    rdi,r9
    1859:	44 89 d6             	mov    esi,r10d
    185c:	4c 89 da             	mov    rdx,r11
    185f:	4c 89 8d 68 de ff ff 	mov    QWORD PTR [rbp-0x2198],r9
    1866:	4c 89 9d 60 de ff ff 	mov    QWORD PTR [rbp-0x21a0],r11
    186d:	e8 8e 6b 00 00       	call   8400 <memset>
    1872:	48 8d 8d 20 df ff ff 	lea    rcx,[rbp-0x20e0]
    1879:	48 89 8d e0 df ff ff 	mov    QWORD PTR [rbp-0x2020],rcx
    1880:	48 8d 4d 10          	lea    rcx,[rbp+0x10]
    1884:	48 89 8d d8 df ff ff 	mov    QWORD PTR [rbp-0x2028],rcx
    188b:	c7 85 d4 df ff ff 30 	mov    DWORD PTR [rbp-0x202c],0x30
    1892:	00 00 00 
    1895:	c7 85 d0 df ff ff 08 	mov    DWORD PTR [rbp-0x2030],0x8
    189c:	00 00 00 
    189f:	48 8b 55 f8          	mov    rdx,QWORD PTR [rbp-0x8]
    18a3:	48 8d 3d 86 6f 00 00 	lea    rdi,[rip+0x6f86]        # 8830 <vsnprintf>
    18aa:	48 89 85 58 de ff ff 	mov    QWORD PTR [rbp-0x21a8],rax
    18b1:	48 89 95 50 de ff ff 	mov    QWORD PTR [rbp-0x21b0],rdx
    18b8:	e8 f3 06 00 00       	call   1fb0 <_Z10traceedgecPv>
    18bd:	48 8d 8d d0 df ff ff 	lea    rcx,[rbp-0x2030]
    18c4:	48 8b bd 68 de ff ff 	mov    rdi,QWORD PTR [rbp-0x2198]
    18cb:	48 8b b5 60 de ff ff 	mov    rsi,QWORD PTR [rbp-0x21a0]
    18d2:	48 8b 95 50 de ff ff 	mov    rdx,QWORD PTR [rbp-0x21b0]
    18d9:	e8 52 6f 00 00       	call   8830 <vsnprintf>
    18de:	48 8d 3d ab f6 ff ff 	lea    rdi,[rip+0xfffffffffffff6ab]        # f90 <ocall_print_string>
    18e5:	89 85 4c de ff ff    	mov    DWORD PTR [rbp-0x21b4],eax
    18eb:	e8 c0 06 00 00       	call   1fb0 <_Z10traceedgecPv>
    18f0:	48 8b bd 68 de ff ff 	mov    rdi,QWORD PTR [rbp-0x2198]
    18f7:	e8 94 f6 ff ff       	call   f90 <ocall_print_string>
    18fc:	48 8d 3d ed 6e 00 00 	lea    rdi,[rip+0x6eed]        # 87f0 <strnlen>
    1903:	89 85 48 de ff ff    	mov    DWORD PTR [rbp-0x21b8],eax
    1909:	e8 a2 06 00 00       	call   1fb0 <_Z10traceedgecPv>
    190e:	be ff 1f 00 00       	mov    esi,0x1fff
    1913:	48 8b bd 68 de ff ff 	mov    rdi,QWORD PTR [rbp-0x2198]
    191a:	e8 d1 6e 00 00       	call   87f0 <strnlen>
    191f:	83 c0 01             	add    eax,0x1
    1922:	48 8b 7d 08          	mov    rdi,QWORD PTR [rbp+0x8]
    1926:	89 85 44 de ff ff    	mov    DWORD PTR [rbp-0x21bc],eax
    192c:	e8 7f 06 00 00       	call   1fb0 <_Z10traceedgecPv>
    1931:	8b 85 44 de ff ff    	mov    eax,DWORD PTR [rbp-0x21bc]
    1937:	48 81 c4 c0 21 00 00 	add    rsp,0x21c0
    193e:	5d                   	pop    rbp
    193f:	c3                   	ret    

0000000000001940 <hello1>:
    1940:	55                   	push   rbp
    1941:	48 89 e5             	mov    rbp,rsp
    1944:	48 83 ec 10          	sub    rsp,0x10
    1948:	89 7d fc             	mov    DWORD PTR [rbp-0x4],edi
    194b:	c7 45 f8 00 00 00 00 	mov    DWORD PTR [rbp-0x8],0x0
    1952:	c7 45 f4 00 00 00 00 	mov    DWORD PTR [rbp-0xc],0x0
    1959:	83 7d f4 0a          	cmp    DWORD PTR [rbp-0xc],0xa
    195d:	0f 8d 21 00 00 00    	jge    1984 <hello1+0x44>
    1963:	bf 01 00 00 00       	mov    edi,0x1
    1968:	e8 b3 09 00 00       	call   2320 <_Z7tracebrPv>
    196d:	8b 45 fc             	mov    eax,DWORD PTR [rbp-0x4]
    1970:	03 45 f8             	add    eax,DWORD PTR [rbp-0x8]
    1973:	89 45 f8             	mov    DWORD PTR [rbp-0x8],eax
    1976:	8b 45 f4             	mov    eax,DWORD PTR [rbp-0xc]
    1979:	83 c0 01             	add    eax,0x1
    197c:	89 45 f4             	mov    DWORD PTR [rbp-0xc],eax
    197f:	e9 d5 ff ff ff       	jmp    1959 <hello1+0x19>
    1984:	31 ff                	xor    edi,edi
    1986:	e8 95 09 00 00       	call   2320 <_Z7tracebrPv>
    198b:	48 8b 7d 08          	mov    rdi,QWORD PTR [rbp+0x8]
    198f:	e8 1c 06 00 00       	call   1fb0 <_Z10traceedgecPv>
    1994:	48 83 c4 10          	add    rsp,0x10
    1998:	5d                   	pop    rbp
    1999:	c3                   	ret    
    199a:	66 0f 1f 44 00 00    	nop    WORD PTR [rax+rax*1+0x0]

00000000000019a0 <hello2>:
    19a0:	55                   	push   rbp
    19a1:	48 89 e5             	mov    rbp,rsp
    19a4:	48 83 ec 10          	sub    rsp,0x10
    19a8:	48 8d 05 61 fd ff ff 	lea    rax,[rip+0xfffffffffffffd61]        # 1710 <printf>
    19af:	48 89 c7             	mov    rdi,rax
    19b2:	e8 f9 05 00 00       	call   1fb0 <_Z10traceedgecPv>
    19b7:	48 8d 3d ba ba 02 00 	lea    rdi,[rip+0x2baba]        # 2d478 <g_dyn_entry_table+0x38>
    19be:	b0 00                	mov    al,0x0
    19c0:	e8 4b fd ff ff       	call   1710 <printf>
    19c5:	48 8b 7d 08          	mov    rdi,QWORD PTR [rbp+0x8]
    19c9:	89 45 fc             	mov    DWORD PTR [rbp-0x4],eax
    19cc:	e8 df 05 00 00       	call   1fb0 <_Z10traceedgecPv>
    19d1:	48 83 c4 10          	add    rsp,0x10
    19d5:	5d                   	pop    rbp
    19d6:	c3                   	ret    
    19d7:	66 0f 1f 84 00 00 00 	nop    WORD PTR [rax+rax*1+0x0]
    19de:	00 00 

00000000000019e0 <_Z22divide_by_zero_handlerP17_exception_info_t>:
    19e0:	55                   	push   rbp
    19e1:	48 89 e5             	mov    rbp,rsp
    19e4:	48 83 ec 10          	sub    rsp,0x10
    19e8:	48 89 7d f8          	mov    QWORD PTR [rbp-0x8],rdi
    19ec:	c7 05 8e 32 23 00 0a 	mov    DWORD PTR [rip+0x23328e],0xa        # 234c84 <d>
    19f3:	00 00 00 
    19f6:	48 8b 7d 08          	mov    rdi,QWORD PTR [rbp+0x8]
    19fa:	e8 b1 05 00 00       	call   1fb0 <_Z10traceedgecPv>
    19ff:	b8 ff ff ff ff       	mov    eax,0xffffffff
    1a04:	48 83 c4 10          	add    rsp,0x10
    1a08:	5d                   	pop    rbp
    1a09:	c3                   	ret    
    1a0a:	66 0f 1f 44 00 00    	nop    WORD PTR [rax+rax*1+0x0]

0000000000001a10 <test_exception>:
    1a10:	55                   	push   rbp
    1a11:	48 89 e5             	mov    rbp,rsp
    1a14:	48 83 ec 20          	sub    rsp,0x20
    1a18:	48 8d 05 81 26 00 00 	lea    rax,[rip+0x2681]        # 40a0 <sgx_register_exception_handler>
    1a1f:	89 7d fc             	mov    DWORD PTR [rbp-0x4],edi
    1a22:	89 75 f8             	mov    DWORD PTR [rbp-0x8],esi
    1a25:	48 89 c7             	mov    rdi,rax
    1a28:	e8 83 05 00 00       	call   1fb0 <_Z10traceedgecPv>
    1a2d:	bf 01 00 00 00       	mov    edi,0x1
    1a32:	48 8d 35 a7 ff ff ff 	lea    rsi,[rip+0xffffffffffffffa7]        # 19e0 <_Z22divide_by_zero_handlerP17_exception_info_t>
    1a39:	e8 62 26 00 00       	call   40a0 <sgx_register_exception_handler>
    1a3e:	8b 4d f8             	mov    ecx,DWORD PTR [rbp-0x8]
    1a41:	89 0d 3d 32 23 00    	mov    DWORD PTR [rip+0x23323d],ecx        # 234c84 <d>
    1a47:	8b 0d 33 32 23 00    	mov    ecx,DWORD PTR [rip+0x233233]        # 234c80 <n>
    1a4d:	48 89 45 f0          	mov    QWORD PTR [rbp-0x10],rax
    1a51:	89 c8                	mov    eax,ecx
    1a53:	99                   	cdq    
    1a54:	f7 3d 2a 32 23 00    	idiv   DWORD PTR [rip+0x23322a]        # 234c84 <d>
    1a5a:	48 8b 7d 08          	mov    rdi,QWORD PTR [rbp+0x8]
    1a5e:	89 45 ec             	mov    DWORD PTR [rbp-0x14],eax
    1a61:	e8 4a 05 00 00       	call   1fb0 <_Z10traceedgecPv>
    1a66:	8b 45 ec             	mov    eax,DWORD PTR [rbp-0x14]
    1a69:	48 83 c4 20          	add    rsp,0x20
    1a6d:	5d                   	pop    rbp
    1a6e:	c3                   	ret    
    1a6f:	90                   	nop

0000000000001a70 <makeEndMsg>:
    1a70:	55                   	push   rbp
    1a71:	48 89 e5             	mov    rbp,rsp
    1a74:	48 81 ec b0 00 00 00 	sub    rsp,0xb0
    1a7b:	64 48 8b 04 25 28 00 	mov    rax,QWORD PTR fs:0x28
    1a82:	00 00 
    1a84:	48 89 45 f8          	mov    QWORD PTR [rbp-0x8],rax
    1a88:	66 83 3d f8 31 23 00 	cmp    WORD PTR [rip+0x2331f8],0x0        # 234c88 <TRACER_ON>
    1a8f:	00 
    1a90:	0f 85 05 00 00 00    	jne    1a9b <makeEndMsg+0x2b>
    1a96:	e9 39 02 00 00       	jmp    1cd4 <makeEndMsg+0x264>
    1a9b:	48 8d 45 a0          	lea    rax,[rbp-0x60]
    1a9f:	31 c9                	xor    ecx,ecx
    1aa1:	8b 15 dd b9 02 00    	mov    edx,DWORD PTR [rip+0x2b9dd]        # 2d484 <g_dyn_entry_table+0x44>
    1aa7:	89 95 6c ff ff ff    	mov    DWORD PTR [rbp-0x94],edx
    1aad:	48 89 c6             	mov    rsi,rax
    1ab0:	48 89 f7             	mov    rdi,rsi
    1ab3:	89 ce                	mov    esi,ecx
    1ab5:	ba 2f 00 00 00       	mov    edx,0x2f
    1aba:	48 89 85 60 ff ff ff 	mov    QWORD PTR [rbp-0xa0],rax
    1ac1:	89 8d 5c ff ff ff    	mov    DWORD PTR [rbp-0xa4],ecx
    1ac7:	e8 34 69 00 00       	call   8400 <memset>
    1acc:	8b 8d 6c ff ff ff    	mov    ecx,DWORD PTR [rbp-0x94]
    1ad2:	89 4d a0             	mov    DWORD PTR [rbp-0x60],ecx
    1ad5:	48 8b 05 b4 31 23 00 	mov    rax,QWORD PTR [rip+0x2331b4]        # 234c90 <opt_key>
    1adc:	48 89 45 a4          	mov    QWORD PTR [rbp-0x5c],rax
    1ae0:	48 8b 05 b1 31 23 00 	mov    rax,QWORD PTR [rip+0x2331b1]        # 234c98 <opt_key+0x8>
    1ae7:	48 89 45 ac          	mov    QWORD PTR [rbp-0x54],rax
    1aeb:	48 8b 05 ae 31 23 00 	mov    rax,QWORD PTR [rip+0x2331ae]        # 234ca0 <opt_key+0x10>
    1af2:	48 89 45 b4          	mov    QWORD PTR [rbp-0x4c],rax
    1af6:	8b 0d ac 31 23 00    	mov    ecx,DWORD PTR [rip+0x2331ac]        # 234ca8 <opt_key+0x18>
    1afc:	89 4d bc             	mov    DWORD PTR [rbp-0x44],ecx
    1aff:	66 44 8b 05 a5 31 23 	mov    r8w,WORD PTR [rip+0x2331a5]        # 234cac <opt_key+0x1c>
    1b06:	00 
    1b07:	66 44 89 45 c0       	mov    WORD PTR [rbp-0x40],r8w
    1b0c:	48 8d 45 96          	lea    rax,[rbp-0x6a]
    1b10:	48 89 c7             	mov    rdi,rax
    1b13:	8b b5 5c ff ff ff    	mov    esi,DWORD PTR [rbp-0xa4]
    1b19:	ba 0a 00 00 00       	mov    edx,0xa
    1b1e:	e8 dd 68 00 00       	call   8400 <memset>
    1b23:	48 8b bd 60 ff ff ff 	mov    rdi,QWORD PTR [rbp-0xa0]
    1b2a:	be 2f 00 00 00       	mov    esi,0x2f
    1b2f:	48 8d 55 d0          	lea    rdx,[rbp-0x30]
    1b33:	e8 28 31 02 00       	call   24c60 <sgx_sha256_msg>
    1b38:	31 f6                	xor    esi,esi
    1b3a:	48 8b 55 d0          	mov    rdx,QWORD PTR [rbp-0x30]
    1b3e:	48 89 55 96          	mov    QWORD PTR [rbp-0x6a],rdx
    1b42:	66 44 8b 45 d8       	mov    r8w,WORD PTR [rbp-0x28]
    1b47:	66 44 89 45 9e       	mov    WORD PTR [rbp-0x62],r8w
    1b4c:	48 8d 95 70 ff ff ff 	lea    rdx,[rbp-0x90]
    1b53:	48 89 d7             	mov    rdi,rdx
    1b56:	ba 1e 00 00 00       	mov    edx,0x1e
    1b5b:	89 85 58 ff ff ff    	mov    DWORD PTR [rbp-0xa8],eax
    1b61:	e8 9a 68 00 00       	call   8400 <memset>
    1b66:	c7 85 68 ff ff ff 00 	mov    DWORD PTR [rbp-0x98],0x0
    1b6d:	00 00 00 
    1b70:	83 bd 68 ff ff ff 1e 	cmp    DWORD PTR [rbp-0x98],0x1e
    1b77:	0f 83 ef 00 00 00    	jae    1c6c <makeEndMsg+0x1fc>
    1b7d:	8b 85 68 ff ff ff    	mov    eax,DWORD PTR [rbp-0x98]
    1b83:	89 c1                	mov    ecx,eax
    1b85:	48 83 f9 04          	cmp    rcx,0x4
    1b89:	0f 83 39 00 00 00    	jae    1bc8 <makeEndMsg+0x158>
    1b8f:	8b 85 68 ff ff ff    	mov    eax,DWORD PTR [rbp-0x98]
    1b95:	89 c1                	mov    ecx,eax
    1b97:	0f b6 84 0d 6c ff ff 	movzx  eax,BYTE PTR [rbp+rcx*1-0x94]
    1b9e:	ff 
    1b9f:	8b 95 68 ff ff ff    	mov    edx,DWORD PTR [rbp-0x98]
    1ba5:	89 d1                	mov    ecx,edx
    1ba7:	48 8d 35 e2 30 23 00 	lea    rsi,[rip+0x2330e2]        # 234c90 <opt_key>
    1bae:	0f b6 14 0e          	movzx  edx,BYTE PTR [rsi+rcx*1]
    1bb2:	31 d0                	xor    eax,edx
    1bb4:	8b 95 68 ff ff ff    	mov    edx,DWORD PTR [rbp-0x98]
    1bba:	89 d1                	mov    ecx,edx
    1bbc:	88 84 0d 70 ff ff ff 	mov    BYTE PTR [rbp+rcx*1-0x90],al
    1bc3:	e9 8b 00 00 00       	jmp    1c53 <makeEndMsg+0x1e3>
    1bc8:	8b 85 68 ff ff ff    	mov    eax,DWORD PTR [rbp-0x98]
    1bce:	89 c1                	mov    ecx,eax
    1bd0:	48 83 f9 04          	cmp    rcx,0x4
    1bd4:	0f 82 4f 00 00 00    	jb     1c29 <makeEndMsg+0x1b9>
    1bda:	8b 85 68 ff ff ff    	mov    eax,DWORD PTR [rbp-0x98]
    1be0:	89 c1                	mov    ecx,eax
    1be2:	48 83 f9 22          	cmp    rcx,0x22
    1be6:	0f 83 3d 00 00 00    	jae    1c29 <makeEndMsg+0x1b9>
    1bec:	8b 85 68 ff ff ff    	mov    eax,DWORD PTR [rbp-0x98]
    1bf2:	89 c1                	mov    ecx,eax
    1bf4:	48 81 e9 04 00 00 00 	sub    rcx,0x4
    1bfb:	0f b6 44 0d 96       	movzx  eax,BYTE PTR [rbp+rcx*1-0x6a]
    1c00:	8b 95 68 ff ff ff    	mov    edx,DWORD PTR [rbp-0x98]
    1c06:	89 d1                	mov    ecx,edx
    1c08:	48 8d 35 81 30 23 00 	lea    rsi,[rip+0x233081]        # 234c90 <opt_key>
    1c0f:	0f b6 14 0e          	movzx  edx,BYTE PTR [rsi+rcx*1]
    1c13:	31 d0                	xor    eax,edx
    1c15:	8b 95 68 ff ff ff    	mov    edx,DWORD PTR [rbp-0x98]
    1c1b:	89 d1                	mov    ecx,edx
    1c1d:	88 84 0d 70 ff ff ff 	mov    BYTE PTR [rbp+rcx*1-0x90],al
    1c24:	e9 25 00 00 00       	jmp    1c4e <makeEndMsg+0x1de>
    1c29:	8b 85 68 ff ff ff    	mov    eax,DWORD PTR [rbp-0x98]
    1c2f:	89 c1                	mov    ecx,eax
    1c31:	48 8d 15 58 30 23 00 	lea    rdx,[rip+0x233058]        # 234c90 <opt_key>
    1c38:	0f b6 04 0a          	movzx  eax,BYTE PTR [rdx+rcx*1]
    1c3c:	83 f0 00             	xor    eax,0x0
    1c3f:	8b b5 68 ff ff ff    	mov    esi,DWORD PTR [rbp-0x98]
    1c45:	89 f1                	mov    ecx,esi
    1c47:	88 84 0d 70 ff ff ff 	mov    BYTE PTR [rbp+rcx*1-0x90],al
    1c4e:	e9 00 00 00 00       	jmp    1c53 <makeEndMsg+0x1e3>
    1c53:	e9 00 00 00 00       	jmp    1c58 <makeEndMsg+0x1e8>
    1c58:	8b 85 68 ff ff ff    	mov    eax,DWORD PTR [rbp-0x98]
    1c5e:	83 c0 01             	add    eax,0x1
    1c61:	89 85 68 ff ff ff    	mov    DWORD PTR [rbp-0x98],eax
    1c67:	e9 04 ff ff ff       	jmp    1b70 <makeEndMsg+0x100>
    1c6c:	48 8d 3d 1d 30 23 00 	lea    rdi,[rip+0x23301d]        # 234c90 <opt_key>
    1c73:	be 1e 00 00 00       	mov    esi,0x1e
    1c78:	48 8d 55 d0          	lea    rdx,[rbp-0x30]
    1c7c:	e8 df 2f 02 00       	call   24c60 <sgx_sha256_msg>
    1c81:	48 8d bd 70 ff ff ff 	lea    rdi,[rbp-0x90]
    1c88:	48 8b 4d d0          	mov    rcx,QWORD PTR [rbp-0x30]
    1c8c:	48 89 0d fd 2f 23 00 	mov    QWORD PTR [rip+0x232ffd],rcx        # 234c90 <opt_key>
    1c93:	48 8b 4d d8          	mov    rcx,QWORD PTR [rbp-0x28]
    1c97:	48 89 0d fa 2f 23 00 	mov    QWORD PTR [rip+0x232ffa],rcx        # 234c98 <opt_key+0x8>
    1c9e:	48 8b 4d e0          	mov    rcx,QWORD PTR [rbp-0x20]
    1ca2:	48 89 0d f7 2f 23 00 	mov    QWORD PTR [rip+0x232ff7],rcx        # 234ca0 <opt_key+0x10>
    1ca9:	8b 75 e8             	mov    esi,DWORD PTR [rbp-0x18]
    1cac:	89 35 f6 2f 23 00    	mov    DWORD PTR [rip+0x232ff6],esi        # 234ca8 <opt_key+0x18>
    1cb2:	66 44 8b 45 ec       	mov    r8w,WORD PTR [rbp-0x14]
    1cb7:	66 44 89 05 ed 2f 23 	mov    WORD PTR [rip+0x232fed],r8w        # 234cac <opt_key+0x1c>
    1cbe:	00 
    1cbf:	be 1e 00 00 00       	mov    esi,0x1e
    1cc4:	ba 03 00 00 00       	mov    edx,0x3
    1cc9:	89 85 54 ff ff ff    	mov    DWORD PTR [rbp-0xac],eax
    1ccf:	e8 2c 00 00 00       	call   1d00 <_Z14writeToBuffer2Phm13_entry_status>
    1cd4:	64 48 8b 04 25 28 00 	mov    rax,QWORD PTR fs:0x28
    1cdb:	00 00 
    1cdd:	48 8b 4d f8          	mov    rcx,QWORD PTR [rbp-0x8]
    1ce1:	48 39 c8             	cmp    rax,rcx
    1ce4:	0f 85 09 00 00 00    	jne    1cf3 <makeEndMsg+0x283>
    1cea:	48 81 c4 b0 00 00 00 	add    rsp,0xb0
    1cf1:	5d                   	pop    rbp
    1cf2:	c3                   	ret    
    1cf3:	e8 18 34 00 00       	call   5110 <__stack_chk_fail>
    1cf8:	0f 1f 84 00 00 00 00 	nop    DWORD PTR [rax+rax*1+0x0]
    1cff:	00 

0000000000001d00 <_Z14writeToBuffer2Phm13_entry_status>:
    1d00:	55                   	push   rbp
    1d01:	48 89 e5             	mov    rbp,rsp
    1d04:	48 83 ec 20          	sub    rsp,0x20
    1d08:	48 89 7d f8          	mov    QWORD PTR [rbp-0x8],rdi
    1d0c:	48 89 75 f0          	mov    QWORD PTR [rbp-0x10],rsi
    1d10:	89 55 ec             	mov    DWORD PTR [rbp-0x14],edx
    1d13:	48 8b 05 96 2f 23 00 	mov    rax,QWORD PTR [rip+0x232f96]        # 234cb0 <_ZL10pub_bucket>
    1d1a:	48 05 10 00 00 00    	add    rax,0x10
    1d20:	48 8b 0d 89 2f 23 00 	mov    rcx,QWORD PTR [rip+0x232f89]        # 234cb0 <_ZL10pub_bucket>
    1d27:	48 69 09 24 00 00 00 	imul   rcx,QWORD PTR [rcx],0x24
    1d2e:	48 01 c8             	add    rax,rcx
    1d31:	83 38 00             	cmp    DWORD PTR [rax],0x0
    1d34:	0f 85 ce 00 00 00    	jne    1e08 <_Z14writeToBuffer2Phm13_entry_status+0x108>
    1d3a:	48 8b 05 6f 2f 23 00 	mov    rax,QWORD PTR [rip+0x232f6f]        # 234cb0 <_ZL10pub_bucket>
    1d41:	48 05 10 00 00 00    	add    rax,0x10
    1d47:	48 8b 0d 62 2f 23 00 	mov    rcx,QWORD PTR [rip+0x232f62]        # 234cb0 <_ZL10pub_bucket>
    1d4e:	48 69 09 24 00 00 00 	imul   rcx,QWORD PTR [rcx],0x24
    1d55:	48 01 c8             	add    rax,rcx
    1d58:	83 38 00             	cmp    DWORD PTR [rax],0x0
    1d5b:	0f 84 05 00 00 00    	je     1d66 <_Z14writeToBuffer2Phm13_entry_status+0x66>
    1d61:	e9 a7 00 00 00       	jmp    1e0d <_Z14writeToBuffer2Phm13_entry_status+0x10d>
    1d66:	48 8b 05 43 2f 23 00 	mov    rax,QWORD PTR [rip+0x232f43]        # 234cb0 <_ZL10pub_bucket>
    1d6d:	48 05 10 00 00 00    	add    rax,0x10
    1d73:	48 8b 0d 36 2f 23 00 	mov    rcx,QWORD PTR [rip+0x232f36]        # 234cb0 <_ZL10pub_bucket>
    1d7a:	48 69 09 24 00 00 00 	imul   rcx,QWORD PTR [rcx],0x24
    1d81:	48 01 c8             	add    rax,rcx
    1d84:	c7 00 01 00 00 00    	mov    DWORD PTR [rax],0x1
    1d8a:	48 8b 05 1f 2f 23 00 	mov    rax,QWORD PTR [rip+0x232f1f]        # 234cb0 <_ZL10pub_bucket>
    1d91:	48 05 10 00 00 00    	add    rax,0x10
    1d97:	48 8b 0d 12 2f 23 00 	mov    rcx,QWORD PTR [rip+0x232f12]        # 234cb0 <_ZL10pub_bucket>
    1d9e:	48 69 09 24 00 00 00 	imul   rcx,QWORD PTR [rcx],0x24
    1da5:	48 01 c8             	add    rax,rcx
    1da8:	48 05 04 00 00 00    	add    rax,0x4
    1dae:	48 8b 75 f8          	mov    rsi,QWORD PTR [rbp-0x8]
    1db2:	48 8b 55 f0          	mov    rdx,QWORD PTR [rbp-0x10]
    1db6:	48 89 c7             	mov    rdi,rax
    1db9:	e8 12 66 00 00       	call   83d0 <memcpy>
    1dbe:	44 8b 45 ec          	mov    r8d,DWORD PTR [rbp-0x14]
    1dc2:	48 8b 05 e7 2e 23 00 	mov    rax,QWORD PTR [rip+0x232ee7]        # 234cb0 <_ZL10pub_bucket>
    1dc9:	48 05 10 00 00 00    	add    rax,0x10
    1dcf:	48 8b 0d da 2e 23 00 	mov    rcx,QWORD PTR [rip+0x232eda]        # 234cb0 <_ZL10pub_bucket>
    1dd6:	48 69 09 24 00 00 00 	imul   rcx,QWORD PTR [rcx],0x24
    1ddd:	48 01 c8             	add    rax,rcx
    1de0:	44 89 00             	mov    DWORD PTR [rax],r8d
    1de3:	48 8b 05 c6 2e 23 00 	mov    rax,QWORD PTR [rip+0x232ec6]        # 234cb0 <_ZL10pub_bucket>
    1dea:	48 8b 00             	mov    rax,QWORD PTR [rax]
    1ded:	48 05 01 00 00 00    	add    rax,0x1
    1df3:	48 25 ff 0f 00 00    	and    rax,0xfff
    1df9:	48 8b 0d b0 2e 23 00 	mov    rcx,QWORD PTR [rip+0x232eb0]        # 234cb0 <_ZL10pub_bucket>
    1e00:	48 89 01             	mov    QWORD PTR [rcx],rax
    1e03:	e9 14 00 00 00       	jmp    1e1c <_Z14writeToBuffer2Phm13_entry_status+0x11c>
    1e08:	e9 00 00 00 00       	jmp    1e0d <_Z14writeToBuffer2Phm13_entry_status+0x10d>
    1e0d:	b0 01                	mov    al,0x1
    1e0f:	a8 01                	test   al,0x1
    1e11:	0f 85 fc fe ff ff    	jne    1d13 <_Z14writeToBuffer2Phm13_entry_status+0x13>
    1e17:	e9 00 00 00 00       	jmp    1e1c <_Z14writeToBuffer2Phm13_entry_status+0x11c>
    1e1c:	48 83 c4 20          	add    rsp,0x20
    1e20:	5d                   	pop    rbp
    1e21:	c3                   	ret    
    1e22:	66 2e 0f 1f 84 00 00 	nop    WORD PTR cs:[rax+rax*1+0x0]
    1e29:	00 00 00 
    1e2c:	0f 1f 40 00          	nop    DWORD PTR [rax+0x0]

0000000000001e30 <setBucket>:
    1e30:	55                   	push   rbp
    1e31:	48 89 e5             	mov    rbp,rsp
    1e34:	48 89 7d f8          	mov    QWORD PTR [rbp-0x8],rdi
    1e38:	48 8b 45 f8          	mov    rax,QWORD PTR [rbp-0x8]
    1e3c:	48 89 05 6d 2e 23 00 	mov    QWORD PTR [rip+0x232e6d],rax        # 234cb0 <_ZL10pub_bucket>
    1e43:	5d                   	pop    rbp
    1e44:	c3                   	ret    
    1e45:	66 2e 0f 1f 84 00 00 	nop    WORD PTR cs:[rax+rax*1+0x0]
    1e4c:	00 00 00 
    1e4f:	90                   	nop

0000000000001e50 <setActionCounter>:
    1e50:	55                   	push   rbp
    1e51:	48 89 e5             	mov    rbp,rsp
    1e54:	48 89 7d f8          	mov    QWORD PTR [rbp-0x8],rdi
    1e58:	48 8b 45 f8          	mov    rax,QWORD PTR [rbp-0x8]
    1e5c:	48 89 05 55 2e 23 00 	mov    QWORD PTR [rip+0x232e55],rax        # 234cb8 <_ZL13actionCounter>
    1e63:	5d                   	pop    rbp
    1e64:	c3                   	ret    
    1e65:	66 2e 0f 1f 84 00 00 	nop    WORD PTR cs:[rax+rax*1+0x0]
    1e6c:	00 00 00 
    1e6f:	90                   	nop

0000000000001e70 <bootSecureCommunication>:
    1e70:	55                   	push   rbp
    1e71:	48 89 e5             	mov    rbp,rsp
    1e74:	48 81 ec 40 10 00 00 	sub    rsp,0x1040
    1e7b:	64 48 8b 04 25 28 00 	mov    rax,QWORD PTR fs:0x28
    1e82:	00 00 
    1e84:	48 89 45 f8          	mov    QWORD PTR [rbp-0x8],rax
    1e88:	66 83 3d f8 2d 23 00 	cmp    WORD PTR [rip+0x232df8],0x0        # 234c88 <TRACER_ON>
    1e8f:	00 
    1e90:	0f 84 05 00 00 00    	je     1e9b <bootSecureCommunication+0x2b>
    1e96:	e9 ec 00 00 00       	jmp    1f87 <bootSecureCommunication+0x117>
    1e9b:	48 8d 85 f0 ef ff ff 	lea    rax,[rbp-0x1010]
    1ea2:	31 f6                	xor    esi,esi
    1ea4:	48 89 c1             	mov    rcx,rax
    1ea7:	48 89 cf             	mov    rdi,rcx
    1eaa:	b9 00 10 00 00       	mov    ecx,0x1000
    1eaf:	48 89 ca             	mov    rdx,rcx
    1eb2:	48 89 85 d0 ef ff ff 	mov    QWORD PTR [rbp-0x1030],rax
    1eb9:	48 89 8d c8 ef ff ff 	mov    QWORD PTR [rbp-0x1038],rcx
    1ec0:	e8 3b 65 00 00       	call   8400 <memset>
    1ec5:	48 8d 05 bc b5 02 00 	lea    rax,[rip+0x2b5bc]        # 2d488 <g_dyn_entry_table+0x48>
    1ecc:	48 89 85 e8 ef ff ff 	mov    QWORD PTR [rbp-0x1018],rax
    1ed3:	48 8b bd e8 ef ff ff 	mov    rdi,QWORD PTR [rbp-0x1018]
    1eda:	48 8b 85 e8 ef ff ff 	mov    rax,QWORD PTR [rbp-0x1018]
    1ee1:	48 89 bd c0 ef ff ff 	mov    QWORD PTR [rbp-0x1040],rdi
    1ee8:	48 89 c7             	mov    rdi,rax
    1eeb:	e8 f0 68 00 00       	call   87e0 <strlen>
    1ef0:	48 8b bd c0 ef ff ff 	mov    rdi,QWORD PTR [rbp-0x1040]
    1ef7:	48 89 c6             	mov    rsi,rax
    1efa:	48 8b 95 d0 ef ff ff 	mov    rdx,QWORD PTR [rbp-0x1030]
    1f01:	48 8b 8d c8 ef ff ff 	mov    rcx,QWORD PTR [rbp-0x1038]
    1f08:	e8 43 f4 ff ff       	call   1350 <ocall_monitorgatewayu>
    1f0d:	c7 85 e4 ef ff ff 00 	mov    DWORD PTR [rbp-0x101c],0x0
    1f14:	00 00 00 
    1f17:	c6 85 e3 ef ff ff 00 	mov    BYTE PTR [rbp-0x101d],0x0
    1f1e:	c7 85 dc ef ff ff 00 	mov    DWORD PTR [rbp-0x1024],0x0
    1f25:	00 00 00 
    1f28:	48 8b 8d f0 ef ff ff 	mov    rcx,QWORD PTR [rbp-0x1010]
    1f2f:	48 89 0d 5a 2d 23 00 	mov    QWORD PTR [rip+0x232d5a],rcx        # 234c90 <opt_key>
    1f36:	48 8b 8d f8 ef ff ff 	mov    rcx,QWORD PTR [rbp-0x1008]
    1f3d:	48 89 0d 54 2d 23 00 	mov    QWORD PTR [rip+0x232d54],rcx        # 234c98 <opt_key+0x8>
    1f44:	48 8b 8d 00 f0 ff ff 	mov    rcx,QWORD PTR [rbp-0x1000]
    1f4b:	48 89 0d 4e 2d 23 00 	mov    QWORD PTR [rip+0x232d4e],rcx        # 234ca0 <opt_key+0x10>
    1f52:	44 8b 85 08 f0 ff ff 	mov    r8d,DWORD PTR [rbp-0xff8]
    1f59:	44 89 05 48 2d 23 00 	mov    DWORD PTR [rip+0x232d48],r8d        # 234ca8 <opt_key+0x18>
    1f60:	66 44 8b 8d 0c f0 ff 	mov    r9w,WORD PTR [rbp-0xff4]
    1f67:	ff 
    1f68:	66 44 89 0d 3c 2d 23 	mov    WORD PTR [rip+0x232d3c],r9w        # 234cac <opt_key+0x1c>
    1f6f:	00 
    1f70:	44 8b 85 0e f0 ff ff 	mov    r8d,DWORD PTR [rbp-0xff2]
    1f77:	44 89 05 42 2d 23 00 	mov    DWORD PTR [rip+0x232d42],r8d        # 234cc0 <_ZL5nonce>
    1f7e:	66 c7 05 01 2d 23 00 	mov    WORD PTR [rip+0x232d01],0x1        # 234c88 <TRACER_ON>
    1f85:	01 00 
    1f87:	64 48 8b 04 25 28 00 	mov    rax,QWORD PTR fs:0x28
    1f8e:	00 00 
    1f90:	48 8b 4d f8          	mov    rcx,QWORD PTR [rbp-0x8]
    1f94:	48 39 c8             	cmp    rax,rcx
    1f97:	0f 85 09 00 00 00    	jne    1fa6 <bootSecureCommunication+0x136>
    1f9d:	48 81 c4 40 10 00 00 	add    rsp,0x1040
    1fa4:	5d                   	pop    rbp
    1fa5:	c3                   	ret    
    1fa6:	e8 65 31 00 00       	call   5110 <__stack_chk_fail>
    1fab:	0f 1f 44 00 00       	nop    DWORD PTR [rax+rax*1+0x0]

0000000000001fb0 <_Z10traceedgecPv>:
    1fb0:	55                   	push   rbp
    1fb1:	48 89 e5             	mov    rbp,rsp
    1fb4:	48 83 ec 10          	sub    rsp,0x10
    1fb8:	48 89 7d f8          	mov    QWORD PTR [rbp-0x8],rdi
    1fbc:	48 8b 45 08          	mov    rax,QWORD PTR [rbp+0x8]
    1fc0:	48 89 45 f0          	mov    QWORD PTR [rbp-0x10],rax
    1fc4:	48 8b 75 f0          	mov    rsi,QWORD PTR [rbp-0x10]
    1fc8:	48 8b 55 f8          	mov    rdx,QWORD PTR [rbp-0x8]
    1fcc:	bf 45 00 00 00       	mov    edi,0x45
    1fd1:	e8 0a 00 00 00       	call   1fe0 <_Z9elaboratecPvS_>
    1fd6:	48 83 c4 10          	add    rsp,0x10
    1fda:	5d                   	pop    rbp
    1fdb:	c3                   	ret    
    1fdc:	0f 1f 40 00          	nop    DWORD PTR [rax+0x0]

0000000000001fe0 <_Z9elaboratecPvS_>:
    1fe0:	55                   	push   rbp
    1fe1:	48 89 e5             	mov    rbp,rsp
    1fe4:	48 81 ec 00 01 00 00 	sub    rsp,0x100
    1feb:	64 48 8b 04 25 28 00 	mov    rax,QWORD PTR fs:0x28
    1ff2:	00 00 
    1ff4:	48 89 45 f8          	mov    QWORD PTR [rbp-0x8],rax
    1ff8:	40 88 bd 4f ff ff ff 	mov    BYTE PTR [rbp-0xb1],dil
    1fff:	48 89 b5 40 ff ff ff 	mov    QWORD PTR [rbp-0xc0],rsi
    2006:	48 89 95 38 ff ff ff 	mov    QWORD PTR [rbp-0xc8],rdx
    200d:	66 83 3d 73 2c 23 00 	cmp    WORD PTR [rip+0x232c73],0x0        # 234c88 <TRACER_ON>
    2014:	00 
    2015:	0f 85 05 00 00 00    	jne    2020 <_Z9elaboratecPvS_+0x40>
    201b:	e9 cf 02 00 00       	jmp    22ef <_Z9elaboratecPvS_+0x30f>
    2020:	48 83 3d 88 2c 23 00 	cmp    QWORD PTR [rip+0x232c88],0x0        # 234cb0 <_ZL10pub_bucket>
    2027:	00 
    2028:	0f 85 05 00 00 00    	jne    2033 <_Z9elaboratecPvS_+0x53>
    202e:	e9 bc 02 00 00       	jmp    22ef <_Z9elaboratecPvS_+0x30f>
    2033:	48 83 3d 7d 2c 23 00 	cmp    QWORD PTR [rip+0x232c7d],0x0        # 234cb8 <_ZL13actionCounter>
    203a:	00 
    203b:	0f 84 0e 00 00 00    	je     204f <_Z9elaboratecPvS_+0x6f>
    2041:	48 8b 05 70 2c 23 00 	mov    rax,QWORD PTR [rip+0x232c70]        # 234cb8 <_ZL13actionCounter>
    2048:	8b 08                	mov    ecx,DWORD PTR [rax]
    204a:	83 c1 01             	add    ecx,0x1
    204d:	89 08                	mov    DWORD PTR [rax],ecx
    204f:	48 8d 45 80          	lea    rax,[rbp-0x80]
    2053:	31 c9                	xor    ecx,ecx
    2055:	48 8d 55 d0          	lea    rdx,[rbp-0x30]
    2059:	48 89 d7             	mov    rdi,rdx
    205c:	89 ce                	mov    esi,ecx
    205e:	ba 1e 00 00 00       	mov    edx,0x1e
    2063:	48 89 85 18 ff ff ff 	mov    QWORD PTR [rbp-0xe8],rax
    206a:	89 8d 14 ff ff ff    	mov    DWORD PTR [rbp-0xec],ecx
    2070:	e8 8b 63 00 00       	call   8400 <memset>
    2075:	48 8b 85 40 ff ff ff 	mov    rax,QWORD PTR [rbp-0xc0]
    207c:	48 8b 15 7d 1f 23 00 	mov    rdx,QWORD PTR [rip+0x231f7d]        # 234000 <ba>
    2083:	48 29 d0             	sub    rax,rdx
    2086:	48 89 85 30 ff ff ff 	mov    QWORD PTR [rbp-0xd0],rax
    208d:	48 8b 85 38 ff ff ff 	mov    rax,QWORD PTR [rbp-0xc8]
    2094:	48 8b 15 65 1f 23 00 	mov    rdx,QWORD PTR [rip+0x231f65]        # 234000 <ba>
    209b:	48 29 d0             	sub    rax,rdx
    209e:	48 89 85 28 ff ff ff 	mov    QWORD PTR [rbp-0xd8],rax
    20a5:	44 8a 85 4f ff ff ff 	mov    r8b,BYTE PTR [rbp-0xb1]
    20ac:	44 88 45 d0          	mov    BYTE PTR [rbp-0x30],r8b
    20b0:	48 8b 85 30 ff ff ff 	mov    rax,QWORD PTR [rbp-0xd0]
    20b7:	48 89 45 d1          	mov    QWORD PTR [rbp-0x2f],rax
    20bb:	48 8b 85 28 ff ff ff 	mov    rax,QWORD PTR [rbp-0xd8]
    20c2:	48 89 45 d9          	mov    QWORD PTR [rbp-0x27],rax
    20c6:	48 8b 85 18 ff ff ff 	mov    rax,QWORD PTR [rbp-0xe8]
    20cd:	48 89 c7             	mov    rdi,rax
    20d0:	8b b5 14 ff ff ff    	mov    esi,DWORD PTR [rbp-0xec]
    20d6:	ba 2f 00 00 00       	mov    edx,0x2f
    20db:	e8 20 63 00 00       	call   8400 <memset>
    20e0:	48 8b 45 d0          	mov    rax,QWORD PTR [rbp-0x30]
    20e4:	48 89 45 80          	mov    QWORD PTR [rbp-0x80],rax
    20e8:	48 8b 45 d8          	mov    rax,QWORD PTR [rbp-0x28]
    20ec:	48 89 45 88          	mov    QWORD PTR [rbp-0x78],rax
    20f0:	44 8a 45 e0          	mov    r8b,BYTE PTR [rbp-0x20]
    20f4:	44 88 45 90          	mov    BYTE PTR [rbp-0x70],r8b
    20f8:	48 8b 05 91 2b 23 00 	mov    rax,QWORD PTR [rip+0x232b91]        # 234c90 <opt_key>
    20ff:	48 89 45 91          	mov    QWORD PTR [rbp-0x6f],rax
    2103:	48 8b 05 8e 2b 23 00 	mov    rax,QWORD PTR [rip+0x232b8e]        # 234c98 <opt_key+0x8>
    210a:	48 89 45 99          	mov    QWORD PTR [rbp-0x67],rax
    210e:	48 8b 05 8b 2b 23 00 	mov    rax,QWORD PTR [rip+0x232b8b]        # 234ca0 <opt_key+0x10>
    2115:	48 89 45 a1          	mov    QWORD PTR [rbp-0x5f],rax
    2119:	8b 0d 89 2b 23 00    	mov    ecx,DWORD PTR [rip+0x232b89]        # 234ca8 <opt_key+0x18>
    211f:	89 4d a9             	mov    DWORD PTR [rbp-0x57],ecx
    2122:	66 44 8b 0d 82 2b 23 	mov    r9w,WORD PTR [rip+0x232b82]        # 234cac <opt_key+0x1c>
    2129:	00 
    212a:	66 44 89 4d ad       	mov    WORD PTR [rbp-0x53],r9w
    212f:	48 8d 85 76 ff ff ff 	lea    rax,[rbp-0x8a]
    2136:	48 89 c7             	mov    rdi,rax
    2139:	8b b5 14 ff ff ff    	mov    esi,DWORD PTR [rbp-0xec]
    213f:	ba 0a 00 00 00       	mov    edx,0xa
    2144:	e8 b7 62 00 00       	call   8400 <memset>
    2149:	48 8b bd 18 ff ff ff 	mov    rdi,QWORD PTR [rbp-0xe8]
    2150:	be 2f 00 00 00       	mov    esi,0x2f
    2155:	48 8d 55 b0          	lea    rdx,[rbp-0x50]
    2159:	e8 02 2b 02 00       	call   24c60 <sgx_sha256_msg>
    215e:	31 f6                	xor    esi,esi
    2160:	48 8b 55 b0          	mov    rdx,QWORD PTR [rbp-0x50]
    2164:	48 89 95 76 ff ff ff 	mov    QWORD PTR [rbp-0x8a],rdx
    216b:	66 44 8b 4d b8       	mov    r9w,WORD PTR [rbp-0x48]
    2170:	66 44 89 8d 7e ff ff 	mov    WORD PTR [rbp-0x82],r9w
    2177:	ff 
    2178:	48 8d 95 50 ff ff ff 	lea    rdx,[rbp-0xb0]
    217f:	48 89 d7             	mov    rdi,rdx
    2182:	ba 1e 00 00 00       	mov    edx,0x1e
    2187:	89 85 10 ff ff ff    	mov    DWORD PTR [rbp-0xf0],eax
    218d:	e8 6e 62 00 00       	call   8400 <memset>
    2192:	c7 85 24 ff ff ff 00 	mov    DWORD PTR [rbp-0xdc],0x0
    2199:	00 00 00 
    219c:	83 bd 24 ff ff ff 1e 	cmp    DWORD PTR [rbp-0xdc],0x1e
    21a3:	0f 83 de 00 00 00    	jae    2287 <_Z9elaboratecPvS_+0x2a7>
    21a9:	83 bd 24 ff ff ff 11 	cmp    DWORD PTR [rbp-0xdc],0x11
    21b0:	0f 83 36 00 00 00    	jae    21ec <_Z9elaboratecPvS_+0x20c>
    21b6:	8b 85 24 ff ff ff    	mov    eax,DWORD PTR [rbp-0xdc]
    21bc:	89 c1                	mov    ecx,eax
    21be:	0f be 44 0d d0       	movsx  eax,BYTE PTR [rbp+rcx*1-0x30]
    21c3:	8b 95 24 ff ff ff    	mov    edx,DWORD PTR [rbp-0xdc]
    21c9:	89 d1                	mov    ecx,edx
    21cb:	48 8d 35 be 2a 23 00 	lea    rsi,[rip+0x232abe]        # 234c90 <opt_key>
    21d2:	0f b6 14 0e          	movzx  edx,BYTE PTR [rsi+rcx*1]
    21d6:	31 d0                	xor    eax,edx
    21d8:	8b 95 24 ff ff ff    	mov    edx,DWORD PTR [rbp-0xdc]
    21de:	89 d1                	mov    ecx,edx
    21e0:	88 84 0d 50 ff ff ff 	mov    BYTE PTR [rbp+rcx*1-0xb0],al
    21e7:	e9 82 00 00 00       	jmp    226e <_Z9elaboratecPvS_+0x28e>
    21ec:	83 bd 24 ff ff ff 11 	cmp    DWORD PTR [rbp-0xdc],0x11
    21f3:	0f 82 4b 00 00 00    	jb     2244 <_Z9elaboratecPvS_+0x264>
    21f9:	83 bd 24 ff ff ff 2f 	cmp    DWORD PTR [rbp-0xdc],0x2f
    2200:	0f 83 3e 00 00 00    	jae    2244 <_Z9elaboratecPvS_+0x264>
    2206:	8b 85 24 ff ff ff    	mov    eax,DWORD PTR [rbp-0xdc]
    220c:	83 e8 11             	sub    eax,0x11
    220f:	89 c0                	mov    eax,eax
    2211:	89 c1                	mov    ecx,eax
    2213:	0f b6 84 0d 76 ff ff 	movzx  eax,BYTE PTR [rbp+rcx*1-0x8a]
    221a:	ff 
    221b:	8b 95 24 ff ff ff    	mov    edx,DWORD PTR [rbp-0xdc]
    2221:	89 d1                	mov    ecx,edx
    2223:	48 8d 35 66 2a 23 00 	lea    rsi,[rip+0x232a66]        # 234c90 <opt_key>
    222a:	0f b6 14 0e          	movzx  edx,BYTE PTR [rsi+rcx*1]
    222e:	31 d0                	xor    eax,edx
    2230:	8b 95 24 ff ff ff    	mov    edx,DWORD PTR [rbp-0xdc]
    2236:	89 d1                	mov    ecx,edx
    2238:	88 84 0d 50 ff ff ff 	mov    BYTE PTR [rbp+rcx*1-0xb0],al
    223f:	e9 25 00 00 00       	jmp    2269 <_Z9elaboratecPvS_+0x289>
    2244:	8b 85 24 ff ff ff    	mov    eax,DWORD PTR [rbp-0xdc]
    224a:	89 c1                	mov    ecx,eax
    224c:	48 8d 15 3d 2a 23 00 	lea    rdx,[rip+0x232a3d]        # 234c90 <opt_key>
    2253:	0f b6 04 0a          	movzx  eax,BYTE PTR [rdx+rcx*1]
    2257:	83 f0 00             	xor    eax,0x0
    225a:	8b b5 24 ff ff ff    	mov    esi,DWORD PTR [rbp-0xdc]
    2260:	89 f1                	mov    ecx,esi
    2262:	88 84 0d 50 ff ff ff 	mov    BYTE PTR [rbp+rcx*1-0xb0],al
    2269:	e9 00 00 00 00       	jmp    226e <_Z9elaboratecPvS_+0x28e>
    226e:	e9 00 00 00 00       	jmp    2273 <_Z9elaboratecPvS_+0x293>
    2273:	8b 85 24 ff ff ff    	mov    eax,DWORD PTR [rbp-0xdc]
    2279:	83 c0 01             	add    eax,0x1
    227c:	89 85 24 ff ff ff    	mov    DWORD PTR [rbp-0xdc],eax
    2282:	e9 15 ff ff ff       	jmp    219c <_Z9elaboratecPvS_+0x1bc>
    2287:	48 8d 3d 02 2a 23 00 	lea    rdi,[rip+0x232a02]        # 234c90 <opt_key>
    228e:	be 1e 00 00 00       	mov    esi,0x1e
    2293:	48 8d 55 b0          	lea    rdx,[rbp-0x50]
    2297:	e8 c4 29 02 00       	call   24c60 <sgx_sha256_msg>
    229c:	48 8d bd 50 ff ff ff 	lea    rdi,[rbp-0xb0]
    22a3:	48 8b 4d b0          	mov    rcx,QWORD PTR [rbp-0x50]
    22a7:	48 89 0d e2 29 23 00 	mov    QWORD PTR [rip+0x2329e2],rcx        # 234c90 <opt_key>
    22ae:	48 8b 4d b8          	mov    rcx,QWORD PTR [rbp-0x48]
    22b2:	48 89 0d df 29 23 00 	mov    QWORD PTR [rip+0x2329df],rcx        # 234c98 <opt_key+0x8>
    22b9:	48 8b 4d c0          	mov    rcx,QWORD PTR [rbp-0x40]
    22bd:	48 89 0d dc 29 23 00 	mov    QWORD PTR [rip+0x2329dc],rcx        # 234ca0 <opt_key+0x10>
    22c4:	8b 75 c8             	mov    esi,DWORD PTR [rbp-0x38]
    22c7:	89 35 db 29 23 00    	mov    DWORD PTR [rip+0x2329db],esi        # 234ca8 <opt_key+0x18>
    22cd:	66 44 8b 45 cc       	mov    r8w,WORD PTR [rbp-0x34]
    22d2:	66 44 89 05 d2 29 23 	mov    WORD PTR [rip+0x2329d2],r8w        # 234cac <opt_key+0x1c>
    22d9:	00 
    22da:	be 1e 00 00 00       	mov    esi,0x1e
    22df:	89 85 0c ff ff ff    	mov    DWORD PTR [rbp-0xf4],eax
    22e5:	e8 66 00 00 00       	call   2350 <_Z13writeToBufferPhm>
    22ea:	e8 91 00 00 00       	call   2380 <_Z9nextNoncev>
    22ef:	64 48 8b 04 25 28 00 	mov    rax,QWORD PTR fs:0x28
    22f6:	00 00 
    22f8:	48 8b 4d f8          	mov    rcx,QWORD PTR [rbp-0x8]
    22fc:	48 39 c8             	cmp    rax,rcx
    22ff:	0f 85 09 00 00 00    	jne    230e <_Z9elaboratecPvS_+0x32e>
    2305:	48 81 c4 00 01 00 00 	add    rsp,0x100
    230c:	5d                   	pop    rbp
    230d:	c3                   	ret    
    230e:	e8 fd 2d 00 00       	call   5110 <__stack_chk_fail>
    2313:	66 2e 0f 1f 84 00 00 	nop    WORD PTR cs:[rax+rax*1+0x0]
    231a:	00 00 00 
    231d:	0f 1f 00             	nop    DWORD PTR [rax]

0000000000002320 <_Z7tracebrPv>:
    2320:	55                   	push   rbp
    2321:	48 89 e5             	mov    rbp,rsp
    2324:	48 83 ec 10          	sub    rsp,0x10
    2328:	48 89 7d f8          	mov    QWORD PTR [rbp-0x8],rdi
    232c:	48 8b 45 08          	mov    rax,QWORD PTR [rbp+0x8]
    2330:	48 89 45 f0          	mov    QWORD PTR [rbp-0x10],rax
    2334:	48 8b 75 f0          	mov    rsi,QWORD PTR [rbp-0x10]
    2338:	48 8b 55 f8          	mov    rdx,QWORD PTR [rbp-0x8]
    233c:	bf 42 00 00 00       	mov    edi,0x42
    2341:	e8 9a fc ff ff       	call   1fe0 <_Z9elaboratecPvS_>
    2346:	48 83 c4 10          	add    rsp,0x10
    234a:	5d                   	pop    rbp
    234b:	c3                   	ret    
    234c:	0f 1f 40 00          	nop    DWORD PTR [rax+0x0]

0000000000002350 <_Z13writeToBufferPhm>:
    2350:	55                   	push   rbp
    2351:	48 89 e5             	mov    rbp,rsp
    2354:	48 83 ec 10          	sub    rsp,0x10
    2358:	48 89 7d f8          	mov    QWORD PTR [rbp-0x8],rdi
    235c:	48 89 75 f0          	mov    QWORD PTR [rbp-0x10],rsi
    2360:	48 8b 7d f8          	mov    rdi,QWORD PTR [rbp-0x8]
    2364:	48 8b 75 f0          	mov    rsi,QWORD PTR [rbp-0x10]
    2368:	ba 02 00 00 00       	mov    edx,0x2
    236d:	e8 8e f9 ff ff       	call   1d00 <_Z14writeToBuffer2Phm13_entry_status>
    2372:	48 83 c4 10          	add    rsp,0x10
    2376:	5d                   	pop    rbp
    2377:	c3                   	ret    
    2378:	0f 1f 84 00 00 00 00 	nop    DWORD PTR [rax+rax*1+0x0]
    237f:	00 

0000000000002380 <_Z9nextNoncev>:
    2380:	55                   	push   rbp
    2381:	48 89 e5             	mov    rbp,rsp
    2384:	48 83 ec 40          	sub    rsp,0x40
    2388:	64 48 8b 04 25 28 00 	mov    rax,QWORD PTR fs:0x28
    238f:	00 00 
    2391:	48 89 45 f8          	mov    QWORD PTR [rbp-0x8],rax
    2395:	48 8d 3d 24 29 23 00 	lea    rdi,[rip+0x232924]        # 234cc0 <_ZL5nonce>
    239c:	be 04 00 00 00       	mov    esi,0x4
    23a1:	48 8d 55 d0          	lea    rdx,[rbp-0x30]
    23a5:	e8 b6 28 02 00       	call   24c60 <sgx_sha256_msg>
    23aa:	89 45 cc             	mov    DWORD PTR [rbp-0x34],eax
    23ad:	8b 45 d0             	mov    eax,DWORD PTR [rbp-0x30]
    23b0:	89 05 0a 29 23 00    	mov    DWORD PTR [rip+0x23290a],eax        # 234cc0 <_ZL5nonce>
    23b6:	64 48 8b 0c 25 28 00 	mov    rcx,QWORD PTR fs:0x28
    23bd:	00 00 
    23bf:	48 8b 55 f8          	mov    rdx,QWORD PTR [rbp-0x8]
    23c3:	48 39 d1             	cmp    rcx,rdx
    23c6:	0f 85 06 00 00 00    	jne    23d2 <_Z9nextNoncev+0x52>
    23cc:	48 83 c4 40          	add    rsp,0x40
    23d0:	5d                   	pop    rbp
    23d1:	c3                   	ret    
    23d2:	e8 39 2d 00 00       	call   5110 <__stack_chk_fail>
    23d7:	66 0f 1f 84 00 00 00 	nop    WORD PTR [rax+rax*1+0x0]
    23de:	00 00 

00000000000023e0 <init_optimized_libs>:
    23e0:	48 8d 05 7d 28 23 00 	lea    rax,[rip+0x23287d]        # 234c64 <g_enclave_state>
    23e7:	83 38 01             	cmp    DWORD PTR [rax],0x1
    23ea:	0f 85 50 01 00 00    	jne    2540 <init_optimized_libs+0x160>
    23f0:	55                   	push   rbp
    23f1:	53                   	push   rbx
    23f2:	48 b8 00 00 00 00 00 	movabs rax,0xff00000000000000
    23f9:	00 00 ff 
    23fc:	48 89 f5             	mov    rbp,rsi
    23ff:	48 83 ec 08          	sub    rsp,0x8
    2403:	48 85 c7             	test   rdi,rax
    2406:	0f 85 d4 00 00 00    	jne    24e0 <init_optimized_libs+0x100>
    240c:	48 f7 c7 00 fe ff ff 	test   rdi,0xfffffffffffffe00
    2413:	0f 84 ef 00 00 00    	je     2508 <init_optimized_libs+0x128>
    2419:	40 f6 c7 20          	test   dil,0x20
    241d:	74 10                	je     242f <init_optimized_libs+0x4f>
    241f:	48 89 f8             	mov    rax,rdi
    2422:	83 e0 1f             	and    eax,0x1f
    2425:	48 83 f8 1f          	cmp    rax,0x1f
    2429:	0f 85 d9 00 00 00    	jne    2508 <init_optimized_libs+0x128>
    242f:	40 f6 c7 40          	test   dil,0x40
    2433:	74 10                	je     2445 <init_optimized_libs+0x65>
    2435:	48 89 f8             	mov    rax,rdi
    2438:	83 e0 3f             	and    eax,0x3f
    243b:	48 83 f8 3f          	cmp    rax,0x3f
    243f:	0f 85 c3 00 00 00    	jne    2508 <init_optimized_libs+0x128>
    2445:	40 f6 c7 80          	test   dil,0x80
    2449:	74 10                	je     245b <init_optimized_libs+0x7b>
    244b:	48 89 f8             	mov    rax,rdi
    244e:	83 e0 7f             	and    eax,0x7f
    2451:	48 83 f8 7f          	cmp    rax,0x7f
    2455:	0f 85 ad 00 00 00    	jne    2508 <init_optimized_libs+0x128>
    245b:	f7 c7 00 01 00 00    	test   edi,0x100
    2461:	74 10                	je     2473 <init_optimized_libs+0x93>
    2463:	40 0f b6 c7          	movzx  eax,dil
    2467:	48 3d ff 00 00 00    	cmp    rax,0xff
    246d:	0f 85 95 00 00 00    	jne    2508 <init_optimized_libs+0x128>
    2473:	f7 c7 00 02 00 00    	test   edi,0x200
    2479:	74 10                	je     248b <init_optimized_libs+0xab>
    247b:	48 89 f8             	mov    rax,rdi
    247e:	25 ff 01 00 00       	and    eax,0x1ff
    2483:	48 3d ff 01 00 00    	cmp    rax,0x1ff
    2489:	75 7d                	jne    2508 <init_optimized_libs+0x128>
    248b:	f7 c7 00 04 00 00    	test   edi,0x400
    2491:	75 65                	jne    24f8 <init_optimized_libs+0x118>
    2493:	48 89 d0             	mov    rax,rdx
    2496:	83 e0 06             	and    eax,0x6
    2499:	48 83 f8 06          	cmp    rax,0x6
    249d:	74 79                	je     2518 <init_optimized_libs+0x138>
    249f:	48 b8 ff 7f 12 86 08 	movabs rax,0xfffe200886127fff
    24a6:	20 fe ff 
    24a9:	48 21 c7             	and    rdi,rax
    24ac:	48 8d 1d f5 18 23 00 	lea    rbx,[rip+0x2318f5]        # 233da8 <g_cpu_feature_indicator>
    24b3:	48 89 3b             	mov    QWORD PTR [rbx],rdi
    24b6:	e8 15 61 00 00       	call   85d0 <sgx_init_string_lib>
    24bb:	85 c0                	test   eax,eax
    24bd:	75 49                	jne    2508 <init_optimized_libs+0x128>
    24bf:	48 8b 3b             	mov    rdi,QWORD PTR [rbx]
    24c2:	48 89 ee             	mov    rsi,rbp
    24c5:	e8 86 27 02 00       	call   24c50 <sgx_init_crypto_lib>
    24ca:	85 c0                	test   eax,eax
    24cc:	0f 95 c0             	setne  al
    24cf:	48 83 c4 08          	add    rsp,0x8
    24d3:	0f b6 c0             	movzx  eax,al
    24d6:	f7 d8                	neg    eax
    24d8:	5b                   	pop    rbx
    24d9:	5d                   	pop    rbp
    24da:	c3                   	ret    
    24db:	0f 1f 44 00 00       	nop    DWORD PTR [rax+rax*1+0x0]
    24e0:	48 b8 ff ff ff ff ff 	movabs rax,0xffffffffffffff
    24e7:	ff ff 00 
    24ea:	48 21 c7             	and    rdi,rax
    24ed:	e9 1a ff ff ff       	jmp    240c <init_optimized_libs+0x2c>
    24f2:	66 0f 1f 44 00 00    	nop    WORD PTR [rax+rax*1+0x0]
    24f8:	48 89 f8             	mov    rax,rdi
    24fb:	25 ff 03 00 00       	and    eax,0x3ff
    2500:	48 3d ff 03 00 00    	cmp    rax,0x3ff
    2506:	74 8b                	je     2493 <init_optimized_libs+0xb3>
    2508:	48 83 c4 08          	add    rsp,0x8
    250c:	b8 ff ff ff ff       	mov    eax,0xffffffff
    2511:	5b                   	pop    rbx
    2512:	5d                   	pop    rbp
    2513:	c3                   	ret    
    2514:	0f 1f 40 00          	nop    DWORD PTR [rax+0x0]
    2518:	81 e2 e0 00 00 00    	and    edx,0xe0
    251e:	48 81 fa e0 00 00 00 	cmp    rdx,0xe0
    2525:	74 85                	je     24ac <init_optimized_libs+0xcc>
    2527:	48 b8 ff ff ff b6 18 	movabs rax,0xfffee018b6ffffff
    252e:	e0 fe ff 
    2531:	48 21 c7             	and    rdi,rax
    2534:	e9 73 ff ff ff       	jmp    24ac <init_optimized_libs+0xcc>
    2539:	0f 1f 80 00 00 00 00 	nop    DWORD PTR [rax+0x0]
    2540:	b8 ff ff ff ff       	mov    eax,0xffffffff
    2545:	c3                   	ret    
    2546:	66 2e 0f 1f 84 00 00 	nop    WORD PTR cs:[rax+rax*1+0x0]
    254d:	00 00 00 

0000000000002550 <sgx_is_within_enclave>:
    2550:	48 8d 05 29 cc 02 00 	lea    rax,[rip+0x2cc29]        # 2f180 <g_global_data>
    2557:	48 8d 0d a2 da ff ff 	lea    rcx,[rip+0xffffffffffffdaa2]        # 0 <enclave.so>
    255e:	48 85 f6             	test   rsi,rsi
    2561:	48 8b 00             	mov    rax,QWORD PTR [rax]
    2564:	4c 8d 44 08 ff       	lea    r8,[rax+rcx*1-0x1]
    2569:	74 25                	je     2590 <sgx_is_within_enclave+0x40>
    256b:	48 83 ee 01          	sub    rsi,0x1
    256f:	48 01 fe             	add    rsi,rdi
    2572:	0f 93 c2             	setae  dl
    2575:	48 39 cf             	cmp    rdi,rcx
    2578:	0f 93 c0             	setae  al
    257b:	21 c2                	and    edx,eax
    257d:	31 c0                	xor    eax,eax
    257f:	4c 39 c6             	cmp    rsi,r8
    2582:	0f 96 c0             	setbe  al
    2585:	21 d0                	and    eax,edx
    2587:	c3                   	ret    
    2588:	0f 1f 84 00 00 00 00 	nop    DWORD PTR [rax+rax*1+0x0]
    258f:	00 
    2590:	48 89 fe             	mov    rsi,rdi
    2593:	ba 01 00 00 00       	mov    edx,0x1
    2598:	eb db                	jmp    2575 <sgx_is_within_enclave+0x25>
    259a:	66 0f 1f 44 00 00    	nop    WORD PTR [rax+rax*1+0x0]

00000000000025a0 <sgx_is_outside_enclave>:
    25a0:	48 8d 05 d9 cb 02 00 	lea    rax,[rip+0x2cbd9]        # 2f180 <g_global_data>
    25a7:	48 85 f6             	test   rsi,rsi
    25aa:	48 8b 00             	mov    rax,QWORD PTR [rax]
    25ad:	74 11                	je     25c0 <sgx_is_outside_enclave+0x20>
    25af:	48 83 ee 01          	sub    rsi,0x1
    25b3:	48 01 fe             	add    rsi,rdi
    25b6:	73 0b                	jae    25c3 <sgx_is_outside_enclave+0x23>
    25b8:	31 c0                	xor    eax,eax
    25ba:	c3                   	ret    
    25bb:	0f 1f 44 00 00       	nop    DWORD PTR [rax+rax*1+0x0]
    25c0:	48 89 fe             	mov    rsi,rdi
    25c3:	48 8d 15 36 da ff ff 	lea    rdx,[rip+0xffffffffffffda36]        # 0 <enclave.so>
    25ca:	48 8d 44 10 ff       	lea    rax,[rax+rdx*1-0x1]
    25cf:	48 39 c7             	cmp    rdi,rax
    25d2:	0f 97 c0             	seta   al
    25d5:	48 39 f2             	cmp    rdx,rsi
    25d8:	0f 97 c2             	seta   dl
    25db:	09 d0                	or     eax,edx
    25dd:	0f b6 c0             	movzx  eax,al
    25e0:	c3                   	ret    
    25e1:	66 2e 0f 1f 84 00 00 	nop    WORD PTR cs:[rax+rax*1+0x0]
    25e8:	00 00 00 
    25eb:	0f 1f 44 00 00       	nop    DWORD PTR [rax+rax*1+0x0]

00000000000025f0 <sgx_ocalloc>:
    25f0:	53                   	push   rbx
    25f1:	48 89 fb             	mov    rbx,rdi
    25f4:	48 83 ec 10          	sub    rsp,0x10
    25f8:	e8 9b aa 02 00       	call   2d098 <get_thread_data>
    25fd:	4c 8d 05 7c cb 02 00 	lea    r8,[rip+0x2cb7c]        # 2f180 <g_global_data>
    2604:	48 8b 70 20          	mov    rsi,QWORD PTR [rax+0x20]
    2608:	48 8d 3d f1 d9 ff ff 	lea    rdi,[rip+0xffffffffffffd9f1]        # 0 <enclave.so>
    260f:	49 8b 00             	mov    rax,QWORD PTR [r8]
    2612:	48 8b 96 90 00 00 00 	mov    rdx,QWORD PTR [rsi+0x90]
    2619:	48 8d 4c 07 ff       	lea    rcx,[rdi+rax*1-0x1]
    261e:	48 89 d0             	mov    rax,rdx
    2621:	48 83 c0 07          	add    rax,0x7
    2625:	0f 82 ae 00 00 00    	jb     26d9 <sgx_ocalloc+0xe9>
    262b:	48 39 c7             	cmp    rdi,rax
    262e:	77 09                	ja     2639 <sgx_ocalloc+0x49>
    2630:	48 39 ca             	cmp    rdx,rcx
    2633:	0f 86 a0 00 00 00    	jbe    26d9 <sgx_ocalloc+0xe9>
    2639:	48 39 da             	cmp    rdx,rbx
    263c:	0f 82 97 00 00 00    	jb     26d9 <sgx_ocalloc+0xe9>
    2642:	48 89 d1             	mov    rcx,rdx
    2645:	4d 8b 00             	mov    r8,QWORD PTR [r8]
    2648:	48 29 d9             	sub    rcx,rbx
    264b:	48 89 c8             	mov    rax,rcx
    264e:	48 83 e0 f0          	and    rax,0xfffffffffffffff0
    2652:	48 85 db             	test   rbx,rbx
    2655:	4e 8d 44 07 ff       	lea    r8,[rdi+r8*1-0x1]
    265a:	75 74                	jne    26d0 <sgx_ocalloc+0xe0>
    265c:	48 89 c3             	mov    rbx,rax
    265f:	48 39 df             	cmp    rdi,rbx
    2662:	77 05                	ja     2669 <sgx_ocalloc+0x79>
    2664:	4c 39 c0             	cmp    rax,r8
    2667:	76 70                	jbe    26d9 <sgx_ocalloc+0xe9>
    2669:	48 83 ea 01          	sub    rdx,0x1
    266d:	48 81 e2 00 f0 ff ff 	and    rdx,0xfffffffffffff000
    2674:	48 81 e1 00 f0 ff ff 	and    rcx,0xfffffffffffff000
    267b:	74 5c                	je     26d9 <sgx_ocalloc+0xe9>
    267d:	48 89 54 24 08       	mov    QWORD PTR [rsp+0x8],rdx
    2682:	48 8b 54 24 08       	mov    rdx,QWORD PTR [rsp+0x8]
    2687:	48 39 d1             	cmp    rcx,rdx
    268a:	77 33                	ja     26bf <sgx_ocalloc+0xcf>
    268c:	0f 1f 40 00          	nop    DWORD PTR [rax+0x0]
    2690:	48 8b 54 24 08       	mov    rdx,QWORD PTR [rsp+0x8]
    2695:	48 89 96 90 00 00 00 	mov    QWORD PTR [rsi+0x90],rdx
    269c:	48 8b 54 24 08       	mov    rdx,QWORD PTR [rsp+0x8]
    26a1:	c6 02 00             	mov    BYTE PTR [rdx],0x0
    26a4:	48 8b 54 24 08       	mov    rdx,QWORD PTR [rsp+0x8]
    26a9:	48 81 ea 00 10 00 00 	sub    rdx,0x1000
    26b0:	48 89 54 24 08       	mov    QWORD PTR [rsp+0x8],rdx
    26b5:	48 8b 54 24 08       	mov    rdx,QWORD PTR [rsp+0x8]
    26ba:	48 39 ca             	cmp    rdx,rcx
    26bd:	73 d1                	jae    2690 <sgx_ocalloc+0xa0>
    26bf:	48 89 86 90 00 00 00 	mov    QWORD PTR [rsi+0x90],rax
    26c6:	48 83 c4 10          	add    rsp,0x10
    26ca:	5b                   	pop    rbx
    26cb:	c3                   	ret    
    26cc:	0f 1f 40 00          	nop    DWORD PTR [rax+0x0]
    26d0:	48 83 eb 01          	sub    rbx,0x1
    26d4:	48 01 c3             	add    rbx,rax
    26d7:	73 86                	jae    265f <sgx_ocalloc+0x6f>
    26d9:	e8 d3 ac 02 00       	call   2d3b1 <abort>
    26de:	66 90                	xchg   ax,ax

00000000000026e0 <sgx_ocfree>:
    26e0:	48 83 ec 08          	sub    rsp,0x8
    26e4:	e8 af a9 02 00       	call   2d098 <get_thread_data>
    26e9:	48 8d 0d 90 ca 02 00 	lea    rcx,[rip+0x2ca90]        # 2f180 <g_global_data>
    26f0:	48 8b 70 20          	mov    rsi,QWORD PTR [rax+0x20]
    26f4:	48 8b 40 08          	mov    rax,QWORD PTR [rax+0x8]
    26f8:	48 8d 15 01 d9 ff ff 	lea    rdx,[rip+0xffffffffffffd901]        # 0 <enclave.so>
    26ff:	48 8b 09             	mov    rcx,QWORD PTR [rcx]
    2702:	48 8b 40 e8          	mov    rax,QWORD PTR [rax-0x18]
    2706:	48 8d 7c 0a ff       	lea    rdi,[rdx+rcx*1-0x1]
    270b:	48 89 c1             	mov    rcx,rax
    270e:	48 83 c1 07          	add    rcx,0x7
    2712:	72 16                	jb     272a <sgx_ocfree+0x4a>
    2714:	48 39 ca             	cmp    rdx,rcx
    2717:	77 05                	ja     271e <sgx_ocfree+0x3e>
    2719:	48 39 f8             	cmp    rax,rdi
    271c:	76 0c                	jbe    272a <sgx_ocfree+0x4a>
    271e:	48 89 86 90 00 00 00 	mov    QWORD PTR [rsi+0x90],rax
    2725:	48 83 c4 08          	add    rsp,0x8
    2729:	c3                   	ret    
    272a:	e8 82 ac 02 00       	call   2d3b1 <abort>
    272f:	90                   	nop

0000000000002730 <sgx_read_rand>:
    2730:	41 56                	push   r14
    2732:	41 55                	push   r13
    2734:	41 54                	push   r12
    2736:	55                   	push   rbp
    2737:	53                   	push   rbx
    2738:	48 83 ec 10          	sub    rsp,0x10
    273c:	64 48 8b 04 25 28 00 	mov    rax,QWORD PTR fs:0x28
    2743:	00 00 
    2745:	48 89 44 24 08       	mov    QWORD PTR [rsp+0x8],rax
    274a:	31 c0                	xor    eax,eax
    274c:	48 85 ff             	test   rdi,rdi
    274f:	0f 84 cb 00 00 00    	je     2820 <sgx_read_rand+0xf0>
    2755:	48 85 f6             	test   rsi,rsi
    2758:	48 89 f3             	mov    rbx,rsi
    275b:	0f 84 bf 00 00 00    	je     2820 <sgx_read_rand+0xf0>
    2761:	48 8d 43 ff          	lea    rax,[rbx-0x1]
    2765:	49 89 fc             	mov    r12,rdi
    2768:	48 8d 35 11 ca 02 00 	lea    rsi,[rip+0x2ca11]        # 2f180 <g_global_data>
    276f:	48 8d 0d 8a d8 ff ff 	lea    rcx,[rip+0xffffffffffffd88a]        # 0 <enclave.so>
    2776:	4c 01 e0             	add    rax,r12
    2779:	41 0f 92 c0          	setb   r8b
    277d:	48 8b 3e             	mov    rdi,QWORD PTR [rsi]
    2780:	48 89 c2             	mov    rdx,rax
    2783:	45 0f b6 c0          	movzx  r8d,r8b
    2787:	0f 82 db 00 00 00    	jb     2868 <sgx_read_rand+0x138>
    278d:	49 39 cc             	cmp    r12,rcx
    2790:	0f 82 d2 00 00 00    	jb     2868 <sgx_read_rand+0x138>
    2796:	48 8d 44 39 ff       	lea    rax,[rcx+rdi*1-0x1]
    279b:	48 39 d0             	cmp    rax,rdx
    279e:	0f 82 9c 00 00 00    	jb     2840 <sgx_read_rand+0x110>
    27a4:	4c 8d 6c 24 04       	lea    r13,[rsp+0x4]
    27a9:	c7 44 24 04 00 00 00 	mov    DWORD PTR [rsp+0x4],0x0
    27b0:	00 
    27b1:	41 be 04 00 00 00    	mov    r14d,0x4
    27b7:	66 0f 1f 84 00 00 00 	nop    WORD PTR [rax+rax*1+0x0]
    27be:	00 00 
    27c0:	4c 89 ef             	mov    rdi,r13
    27c3:	e8 ca ab 02 00       	call   2d392 <do_rdrand>
    27c8:	85 c0                	test   eax,eax
    27ca:	74 64                	je     2830 <sgx_read_rand+0x100>
    27cc:	48 83 fb 04          	cmp    rbx,0x4
    27d0:	4c 89 f5             	mov    rbp,r14
    27d3:	4c 89 e7             	mov    rdi,r12
    27d6:	48 0f 46 eb          	cmovbe rbp,rbx
    27da:	4c 89 ee             	mov    rsi,r13
    27dd:	48 89 ea             	mov    rdx,rbp
    27e0:	49 01 ec             	add    r12,rbp
    27e3:	e8 e8 5b 00 00       	call   83d0 <memcpy>
    27e8:	48 29 eb             	sub    rbx,rbp
    27eb:	75 d3                	jne    27c0 <sgx_read_rand+0x90>
    27ed:	b9 04 00 00 00       	mov    ecx,0x4
    27f2:	31 d2                	xor    edx,edx
    27f4:	be 04 00 00 00       	mov    esi,0x4
    27f9:	4c 89 ef             	mov    rdi,r13
    27fc:	e8 0f 5c 00 00       	call   8410 <memset_s>
    2801:	31 c0                	xor    eax,eax
    2803:	48 8b 4c 24 08       	mov    rcx,QWORD PTR [rsp+0x8]
    2808:	64 48 33 0c 25 28 00 	xor    rcx,QWORD PTR fs:0x28
    280f:	00 00 
    2811:	75 69                	jne    287c <sgx_read_rand+0x14c>
    2813:	48 83 c4 10          	add    rsp,0x10
    2817:	5b                   	pop    rbx
    2818:	5d                   	pop    rbp
    2819:	41 5c                	pop    r12
    281b:	41 5d                	pop    r13
    281d:	41 5e                	pop    r14
    281f:	c3                   	ret    
    2820:	b8 02 00 00 00       	mov    eax,0x2
    2825:	eb dc                	jmp    2803 <sgx_read_rand+0xd3>
    2827:	66 0f 1f 84 00 00 00 	nop    WORD PTR [rax+rax*1+0x0]
    282e:	00 00 
    2830:	b8 01 00 00 00       	mov    eax,0x1
    2835:	eb cc                	jmp    2803 <sgx_read_rand+0xd3>
    2837:	66 0f 1f 84 00 00 00 	nop    WORD PTR [rax+rax*1+0x0]
    283e:	00 00 
    2840:	48 8b 06             	mov    rax,QWORD PTR [rsi]
    2843:	48 8d 74 01 ff       	lea    rsi,[rcx+rax*1-0x1]
    2848:	48 39 d1             	cmp    rcx,rdx
    284b:	0f 87 53 ff ff ff    	ja     27a4 <sgx_read_rand+0x74>
    2851:	49 39 f4             	cmp    r12,rsi
    2854:	b8 02 00 00 00       	mov    eax,0x2
    2859:	0f 87 45 ff ff ff    	ja     27a4 <sgx_read_rand+0x74>
    285f:	eb a2                	jmp    2803 <sgx_read_rand+0xd3>
    2861:	0f 1f 80 00 00 00 00 	nop    DWORD PTR [rax+0x0]
    2868:	4d 85 c0             	test   r8,r8
    286b:	48 8b 36             	mov    rsi,QWORD PTR [rsi]
    286e:	b8 02 00 00 00       	mov    eax,0x2
    2873:	75 8e                	jne    2803 <sgx_read_rand+0xd3>
    2875:	48 8d 74 31 ff       	lea    rsi,[rcx+rsi*1-0x1]
    287a:	eb cc                	jmp    2848 <sgx_read_rand+0x118>
    287c:	e8 8f 28 00 00       	call   5110 <__stack_chk_fail>
    2881:	66 2e 0f 1f 84 00 00 	nop    WORD PTR cs:[rax+rax*1+0x0]
    2888:	00 00 00 
    288b:	0f 1f 44 00 00       	nop    DWORD PTR [rax+rax*1+0x0]

0000000000002890 <check_static_stack_canary>:
    2890:	48 8d 05 01 15 23 00 	lea    rax,[rip+0x231501]        # 233d98 <__intel_security_cookie>
    2897:	48 8b 00             	mov    rax,QWORD PTR [rax]
    289a:	48 39 87 38 f8 fe ff 	cmp    QWORD PTR [rdi-0x107c8],rax
    28a1:	0f 95 c0             	setne  al
    28a4:	0f b6 c0             	movzx  eax,al
    28a7:	f7 d8                	neg    eax
    28a9:	c3                   	ret    
    28aa:	66 0f 1f 44 00 00    	nop    WORD PTR [rax+rax*1+0x0]

00000000000028b0 <random_stack_notify_gdb>:
    28b0:	f3 c3                	repz ret 
    28b2:	66 2e 0f 1f 84 00 00 	nop    WORD PTR cs:[rax+rax*1+0x0]
    28b9:	00 00 00 
    28bc:	0f 1f 40 00          	nop    DWORD PTR [rax+0x0]

00000000000028c0 <_ZL19sgx_accept_backwardmmm>:
    28c0:	4c 8d 54 24 08       	lea    r10,[rsp+0x8]
    28c5:	48 83 e4 c0          	and    rsp,0xffffffffffffffc0
    28c9:	41 ff 72 f8          	push   QWORD PTR [r10-0x8]
    28cd:	55                   	push   rbp
    28ce:	48 89 e5             	mov    rbp,rsp
    28d1:	41 55                	push   r13
    28d3:	41 54                	push   r12
    28d5:	41 52                	push   r10
    28d7:	53                   	push   rbx
    28d8:	48 81 ec 90 00 00 00 	sub    rsp,0x90
    28df:	48 89 bd 50 ff ff ff 	mov    QWORD PTR [rbp-0xb0],rdi
    28e6:	48 c7 85 58 ff ff ff 	mov    QWORD PTR [rbp-0xa8],0x0
    28ed:	00 00 00 00 
    28f1:	64 48 8b 04 25 28 00 	mov    rax,QWORD PTR fs:0x28
    28f8:	00 00 
    28fa:	48 89 45 c8          	mov    QWORD PTR [rbp-0x38],rax
    28fe:	31 c0                	xor    eax,eax
    2900:	48 39 f2             	cmp    rdx,rsi
    2903:	48 c7 85 60 ff ff ff 	mov    QWORD PTR [rbp-0xa0],0x0
    290a:	00 00 00 00 
    290e:	48 c7 85 68 ff ff ff 	mov    QWORD PTR [rbp-0x98],0x0
    2915:	00 00 00 00 
    2919:	48 c7 85 70 ff ff ff 	mov    QWORD PTR [rbp-0x90],0x0
    2920:	00 00 00 00 
    2924:	48 c7 85 78 ff ff ff 	mov    QWORD PTR [rbp-0x88],0x0
    292b:	00 00 00 00 
    292f:	48 c7 45 80 00 00 00 	mov    QWORD PTR [rbp-0x80],0x0
    2936:	00 
    2937:	48 c7 45 88 00 00 00 	mov    QWORD PTR [rbp-0x78],0x0
    293e:	00 
    293f:	76 2a                	jbe    296b <_ZL19sgx_accept_backwardmmm+0xab>
    2941:	4c 8d ad 50 ff ff ff 	lea    r13,[rbp-0xb0]
    2948:	49 89 f4             	mov    r12,rsi
    294b:	48 89 d3             	mov    rbx,rdx
    294e:	66 90                	xchg   ax,ax
    2950:	48 81 eb 00 10 00 00 	sub    rbx,0x1000
    2957:	4c 89 ef             	mov    rdi,r13
    295a:	48 89 de             	mov    rsi,rbx
    295d:	e8 01 aa 02 00       	call   2d363 <do_eaccept>
    2962:	85 c0                	test   eax,eax
    2964:	75 2a                	jne    2990 <_ZL19sgx_accept_backwardmmm+0xd0>
    2966:	49 39 dc             	cmp    r12,rbx
    2969:	72 e5                	jb     2950 <_ZL19sgx_accept_backwardmmm+0x90>
    296b:	31 c0                	xor    eax,eax
    296d:	48 8b 4d c8          	mov    rcx,QWORD PTR [rbp-0x38]
    2971:	64 48 33 0c 25 28 00 	xor    rcx,QWORD PTR fs:0x28
    2978:	00 00 
    297a:	75 19                	jne    2995 <_ZL19sgx_accept_backwardmmm+0xd5>
    297c:	48 81 c4 90 00 00 00 	add    rsp,0x90
    2983:	5b                   	pop    rbx
    2984:	41 5a                	pop    r10
    2986:	41 5c                	pop    r12
    2988:	41 5d                	pop    r13
    298a:	5d                   	pop    rbp
    298b:	49 8d 62 f8          	lea    rsp,[r10-0x8]
    298f:	c3                   	ret    
    2990:	e8 1c aa 02 00       	call   2d3b1 <abort>
    2995:	e8 76 27 00 00       	call   5110 <__stack_chk_fail>
    299a:	66 0f 1f 44 00 00    	nop    WORD PTR [rax+rax*1+0x0]

00000000000029a0 <_ZL25check_dynamic_entry_rangePvmtmP24dynamic_flags_attributes.part.0>:
    29a0:	41 57                	push   r15
    29a2:	41 56                	push   r14
    29a4:	41 55                	push   r13
    29a6:	41 54                	push   r12
    29a8:	55                   	push   rbp
    29a9:	53                   	push   rbx
    29aa:	48 83 ec 08          	sub    rsp,0x8
    29ae:	48 8d 1d cb c7 02 00 	lea    rbx,[rip+0x2c7cb]        # 2f180 <g_global_data>
    29b5:	8b 83 18 01 00 00    	mov    eax,DWORD PTR [rbx+0x118]
    29bb:	85 c0                	test   eax,eax
    29bd:	74 3c                	je     29fb <_ZL25check_dynamic_entry_rangePvmtmP24dynamic_flags_attributes.part.0+0x5b>
    29bf:	0f b7 83 20 01 00 00 	movzx  eax,WORD PTR [rbx+0x120]
    29c6:	66 39 c2             	cmp    dx,ax
    29c9:	74 45                	je     2a10 <_ZL25check_dynamic_entry_rangePvmtmP24dynamic_flags_attributes.part.0+0x70>
    29cb:	41 89 d1             	mov    r9d,edx
    29ce:	31 d2                	xor    edx,edx
    29d0:	eb 1c                	jmp    29ee <_ZL25check_dynamic_entry_rangePvmtmP24dynamic_flags_attributes.part.0+0x4e>
    29d2:	66 0f 1f 44 00 00    	nop    WORD PTR [rax+rax*1+0x0]
    29d8:	89 d5                	mov    ebp,edx
    29da:	48 8d 45 09          	lea    rax,[rbp+0x9]
    29de:	48 c1 e0 05          	shl    rax,0x5
    29e2:	48 01 d8             	add    rax,rbx
    29e5:	0f b7 00             	movzx  eax,WORD PTR [rax]
    29e8:	66 44 39 c8          	cmp    ax,r9w
    29ec:	74 2a                	je     2a18 <_ZL25check_dynamic_entry_rangePvmtmP24dynamic_flags_attributes.part.0+0x78>
    29ee:	8b 83 18 01 00 00    	mov    eax,DWORD PTR [rbx+0x118]
    29f4:	83 c2 01             	add    edx,0x1
    29f7:	39 d0                	cmp    eax,edx
    29f9:	77 dd                	ja     29d8 <_ZL25check_dynamic_entry_rangePvmtmP24dynamic_flags_attributes.part.0+0x38>
    29fb:	b8 ff ff ff ff       	mov    eax,0xffffffff
    2a00:	48 83 c4 08          	add    rsp,0x8
    2a04:	5b                   	pop    rbx
    2a05:	5d                   	pop    rbp
    2a06:	41 5c                	pop    r12
    2a08:	41 5d                	pop    r13
    2a0a:	41 5e                	pop    r14
    2a0c:	41 5f                	pop    r15
    2a0e:	c3                   	ret    
    2a0f:	90                   	nop
    2a10:	31 ed                	xor    ebp,ebp
    2a12:	66 0f 1f 44 00 00    	nop    WORD PTR [rax+rax*1+0x0]
    2a18:	49 89 cd             	mov    r13,rcx
    2a1b:	49 89 ff             	mov    r15,rdi
    2a1e:	4d 89 c6             	mov    r14,r8
    2a21:	49 89 f4             	mov    r12,rsi
    2a24:	e8 34 a6 02 00       	call   2d05d <get_enclave_base>
    2a29:	48 8d 55 09          	lea    rdx,[rbp+0x9]
    2a2d:	48 c1 e2 05          	shl    rdx,0x5
    2a31:	48 01 da             	add    rdx,rbx
    2a34:	48 8b 4a 08          	mov    rcx,QWORD PTR [rdx+0x8]
    2a38:	48 01 c8             	add    rax,rcx
    2a3b:	4a 8d 0c 28          	lea    rcx,[rax+r13*1]
    2a3f:	8b 42 04             	mov    eax,DWORD PTR [rdx+0x4]
    2a42:	4c 39 f9             	cmp    rcx,r15
    2a45:	77 b4                	ja     29fb <_ZL25check_dynamic_entry_rangePvmtmP24dynamic_flags_attributes.part.0+0x5b>
    2a47:	49 c1 e4 0c          	shl    r12,0xc
    2a4b:	48 c1 e0 0c          	shl    rax,0xc
    2a4f:	4b 8d 3c 3c          	lea    rdi,[r12+r15*1]
    2a53:	48 01 c8             	add    rax,rcx
    2a56:	48 39 c7             	cmp    rdi,rax
    2a59:	77 a0                	ja     29fb <_ZL25check_dynamic_entry_rangePvmtmP24dynamic_flags_attributes.part.0+0x5b>
    2a5b:	31 c0                	xor    eax,eax
    2a5d:	4d 85 f6             	test   r14,r14
    2a60:	74 9e                	je     2a00 <_ZL25check_dynamic_entry_rangePvmtmP24dynamic_flags_attributes.part.0+0x60>
    2a62:	48 c1 e5 05          	shl    rbp,0x5
    2a66:	48 01 eb             	add    rbx,rbp
    2a69:	48 8b 8b 38 01 00 00 	mov    rcx,QWORD PTR [rbx+0x138]
    2a70:	0f b7 52 02          	movzx  edx,WORD PTR [rdx+0x2]
    2a74:	49 89 0e             	mov    QWORD PTR [r14],rcx
    2a77:	66 41 89 56 08       	mov    WORD PTR [r14+0x8],dx
    2a7c:	48 83 c4 08          	add    rsp,0x8
    2a80:	5b                   	pop    rbx
    2a81:	5d                   	pop    rbp
    2a82:	41 5c                	pop    r12
    2a84:	41 5d                	pop    r13
    2a86:	41 5e                	pop    r14
    2a88:	41 5f                	pop    r15
    2a8a:	c3                   	ret    
    2a8b:	0f 1f 44 00 00       	nop    DWORD PTR [rax+rax*1+0x0]

0000000000002a90 <_ZL19check_dynamic_rangePvmPmP24dynamic_flags_attributes>:
    2a90:	41 57                	push   r15
    2a92:	49 89 f7             	mov    r15,rsi
    2a95:	41 56                	push   r14
    2a97:	49 c1 e7 0c          	shl    r15,0xc
    2a9b:	41 55                	push   r13
    2a9d:	41 54                	push   r12
    2a9f:	4c 89 f8             	mov    rax,r15
    2aa2:	55                   	push   rbp
    2aa3:	53                   	push   rbx
    2aa4:	48 f7 d0             	not    rax
    2aa7:	48 83 ec 28          	sub    rsp,0x28
    2aab:	48 39 f8             	cmp    rax,rdi
    2aae:	0f 82 fb 00 00 00    	jb     2baf <_ZL19check_dynamic_rangePvmPmP24dynamic_flags_attributes+0x11f>
    2ab4:	48 89 fb             	mov    rbx,rdi
    2ab7:	48 89 cd             	mov    rbp,rcx
    2aba:	48 89 54 24 18       	mov    QWORD PTR [rsp+0x18],rdx
    2abf:	49 89 f4             	mov    r12,rsi
    2ac2:	e8 09 14 00 00       	call   3ed0 <get_heap_base>
    2ac7:	49 89 c5             	mov    r13,rax
    2aca:	e8 81 14 00 00       	call   3f50 <get_heap_min_size>
    2acf:	49 01 c5             	add    r13,rax
    2ad2:	e8 19 14 00 00       	call   3ef0 <get_heap_size>
    2ad7:	49 89 c6             	mov    r14,rax
    2ada:	e8 71 14 00 00       	call   3f50 <get_heap_min_size>
    2adf:	49 29 c6             	sub    r14,rax
    2ae2:	4c 39 eb             	cmp    rbx,r13
    2ae5:	72 39                	jb     2b20 <_ZL19check_dynamic_rangePvmPmP24dynamic_flags_attributes+0x90>
    2ae7:	49 01 df             	add    r15,rbx
    2aea:	4d 01 f5             	add    r13,r14
    2aed:	4d 39 ef             	cmp    r15,r13
    2af0:	77 2e                	ja     2b20 <_ZL19check_dynamic_rangePvmPmP24dynamic_flags_attributes+0x90>
    2af2:	48 85 ed             	test   rbp,rbp
    2af5:	74 11                	je     2b08 <_ZL19check_dynamic_rangePvmPmP24dynamic_flags_attributes+0x78>
    2af7:	b8 08 00 00 00       	mov    eax,0x8
    2afc:	48 c7 45 00 03 02 00 	mov    QWORD PTR [rbp+0x0],0x203
    2b03:	00 
    2b04:	66 89 45 08          	mov    WORD PTR [rbp+0x8],ax
    2b08:	31 c0                	xor    eax,eax
    2b0a:	48 83 c4 28          	add    rsp,0x28
    2b0e:	5b                   	pop    rbx
    2b0f:	5d                   	pop    rbp
    2b10:	41 5c                	pop    r12
    2b12:	41 5d                	pop    r13
    2b14:	41 5e                	pop    r14
    2b16:	41 5f                	pop    r15
    2b18:	c3                   	ret    
    2b19:	0f 1f 80 00 00 00 00 	nop    DWORD PTR [rax+0x0]
    2b20:	31 c9                	xor    ecx,ecx
    2b22:	49 89 e8             	mov    r8,rbp
    2b25:	ba 07 00 00 00       	mov    edx,0x7
    2b2a:	4c 89 e6             	mov    rsi,r12
    2b2d:	48 89 df             	mov    rdi,rbx
    2b30:	e8 6b fe ff ff       	call   29a0 <_ZL25check_dynamic_entry_rangePvmtmP24dynamic_flags_attributes.part.0>
    2b35:	85 c0                	test   eax,eax
    2b37:	74 cf                	je     2b08 <_ZL19check_dynamic_rangePvmPmP24dynamic_flags_attributes+0x78>
    2b39:	48 8d 0d 40 c6 02 00 	lea    rcx,[rip+0x2c640]        # 2f180 <g_global_data>
    2b40:	8b 81 18 01 00 00    	mov    eax,DWORD PTR [rcx+0x118]
    2b46:	85 c0                	test   eax,eax
    2b48:	74 3a                	je     2b84 <_ZL19check_dynamic_rangePvmPmP24dynamic_flags_attributes+0xf4>
    2b4a:	0f b7 81 20 01 00 00 	movzx  eax,WORD PTR [rcx+0x120]
    2b51:	66 3d 13 10          	cmp    ax,0x1013
    2b55:	74 71                	je     2bc8 <_ZL19check_dynamic_rangePvmPmP24dynamic_flags_attributes+0x138>
    2b57:	31 d2                	xor    edx,edx
    2b59:	eb 1c                	jmp    2b77 <_ZL19check_dynamic_rangePvmPmP24dynamic_flags_attributes+0xe7>
    2b5b:	0f 1f 44 00 00       	nop    DWORD PTR [rax+rax*1+0x0]
    2b60:	41 89 d1             	mov    r9d,edx
    2b63:	49 8d 41 09          	lea    rax,[r9+0x9]
    2b67:	48 c1 e0 05          	shl    rax,0x5
    2b6b:	48 01 c8             	add    rax,rcx
    2b6e:	0f b7 00             	movzx  eax,WORD PTR [rax]
    2b71:	66 3d 13 10          	cmp    ax,0x1013
    2b75:	74 59                	je     2bd0 <_ZL19check_dynamic_rangePvmPmP24dynamic_flags_attributes+0x140>
    2b77:	8b 81 18 01 00 00    	mov    eax,DWORD PTR [rcx+0x118]
    2b7d:	83 c2 01             	add    edx,0x1
    2b80:	39 d0                	cmp    eax,edx
    2b82:	77 dc                	ja     2b60 <_ZL19check_dynamic_rangePvmPmP24dynamic_flags_attributes+0xd0>
    2b84:	41 bd 0e 00 00 00    	mov    r13d,0xe
    2b8a:	31 c9                	xor    ecx,ecx
    2b8c:	49 89 e8             	mov    r8,rbp
    2b8f:	44 89 ea             	mov    edx,r13d
    2b92:	4c 89 e6             	mov    rsi,r12
    2b95:	48 89 df             	mov    rdi,rbx
    2b98:	e8 03 fe ff ff       	call   29a0 <_ZL25check_dynamic_entry_rangePvmtmP24dynamic_flags_attributes.part.0>
    2b9d:	85 c0                	test   eax,eax
    2b9f:	0f 84 cb 00 00 00    	je     2c70 <_ZL19check_dynamic_rangePvmPmP24dynamic_flags_attributes+0x1e0>
    2ba5:	41 83 c5 01          	add    r13d,0x1
    2ba9:	41 83 fd 13          	cmp    r13d,0x13
    2bad:	75 db                	jne    2b8a <_ZL19check_dynamic_rangePvmPmP24dynamic_flags_attributes+0xfa>
    2baf:	48 83 c4 28          	add    rsp,0x28
    2bb3:	b8 ff ff ff ff       	mov    eax,0xffffffff
    2bb8:	5b                   	pop    rbx
    2bb9:	5d                   	pop    rbp
    2bba:	41 5c                	pop    r12
    2bbc:	41 5d                	pop    r13
    2bbe:	41 5e                	pop    r14
    2bc0:	41 5f                	pop    r15
    2bc2:	c3                   	ret    
    2bc3:	0f 1f 44 00 00       	nop    DWORD PTR [rax+rax*1+0x0]
    2bc8:	45 31 c9             	xor    r9d,r9d
    2bcb:	0f 1f 44 00 00       	nop    DWORD PTR [rax+rax*1+0x0]
    2bd0:	49 83 c1 09          	add    r9,0x9
    2bd4:	c7 44 24 0c 0e 00 00 	mov    DWORD PTR [rsp+0xc],0xe
    2bdb:	00 
    2bdc:	49 c1 e1 05          	shl    r9,0x5
    2be0:	4e 8d 34 09          	lea    r14,[rcx+r9*1]
    2be4:	41 8b 46 04          	mov    eax,DWORD PTR [r14+0x4]
    2be8:	83 f8 ff             	cmp    eax,0xffffffff
    2beb:	74 6b                	je     2c58 <_ZL19check_dynamic_rangePvmPmP24dynamic_flags_attributes+0x1c8>
    2bed:	45 31 ff             	xor    r15d,r15d
    2bf0:	eb 16                	jmp    2c08 <_ZL19check_dynamic_rangePvmPmP24dynamic_flags_attributes+0x178>
    2bf2:	66 0f 1f 44 00 00    	nop    WORD PTR [rax+rax*1+0x0]
    2bf8:	41 8b 46 04          	mov    eax,DWORD PTR [r14+0x4]
    2bfc:	41 83 c7 01          	add    r15d,0x1
    2c00:	83 c0 01             	add    eax,0x1
    2c03:	44 39 f8             	cmp    eax,r15d
    2c06:	76 50                	jbe    2c58 <_ZL19check_dynamic_rangePvmPmP24dynamic_flags_attributes+0x1c8>
    2c08:	49 8b 4e 08          	mov    rcx,QWORD PTR [r14+0x8]
    2c0c:	45 89 fd             	mov    r13d,r15d
    2c0f:	8b 54 24 0c          	mov    edx,DWORD PTR [rsp+0xc]
    2c13:	49 8d 46 08          	lea    rax,[r14+0x8]
    2c17:	49 89 e8             	mov    r8,rbp
    2c1a:	4c 89 e6             	mov    rsi,r12
    2c1d:	48 89 df             	mov    rdi,rbx
    2c20:	49 0f af cd          	imul   rcx,r13
    2c24:	48 89 44 24 10       	mov    QWORD PTR [rsp+0x10],rax
    2c29:	e8 72 fd ff ff       	call   29a0 <_ZL25check_dynamic_entry_rangePvmtmP24dynamic_flags_attributes.part.0>
    2c2e:	85 c0                	test   eax,eax
    2c30:	75 c6                	jne    2bf8 <_ZL19check_dynamic_rangePvmPmP24dynamic_flags_attributes+0x168>
    2c32:	48 8b 5c 24 18       	mov    rbx,QWORD PTR [rsp+0x18]
    2c37:	48 85 db             	test   rbx,rbx
    2c3a:	0f 84 c8 fe ff ff    	je     2b08 <_ZL19check_dynamic_rangePvmPmP24dynamic_flags_attributes+0x78>
    2c40:	48 8b 74 24 10       	mov    rsi,QWORD PTR [rsp+0x10]
    2c45:	48 8b 16             	mov    rdx,QWORD PTR [rsi]
    2c48:	4c 0f af ea          	imul   r13,rdx
    2c4c:	4c 89 2b             	mov    QWORD PTR [rbx],r13
    2c4f:	e9 b6 fe ff ff       	jmp    2b0a <_ZL19check_dynamic_rangePvmPmP24dynamic_flags_attributes+0x7a>
    2c54:	0f 1f 40 00          	nop    DWORD PTR [rax+0x0]
    2c58:	83 44 24 0c 01       	add    DWORD PTR [rsp+0xc],0x1
    2c5d:	8b 44 24 0c          	mov    eax,DWORD PTR [rsp+0xc]
    2c61:	83 f8 13             	cmp    eax,0x13
    2c64:	0f 85 7a ff ff ff    	jne    2be4 <_ZL19check_dynamic_rangePvmPmP24dynamic_flags_attributes+0x154>
    2c6a:	e9 40 ff ff ff       	jmp    2baf <_ZL19check_dynamic_rangePvmPmP24dynamic_flags_attributes+0x11f>
    2c6f:	90                   	nop
    2c70:	48 8b 5c 24 18       	mov    rbx,QWORD PTR [rsp+0x18]
    2c75:	48 85 db             	test   rbx,rbx
    2c78:	0f 84 8a fe ff ff    	je     2b08 <_ZL19check_dynamic_rangePvmPmP24dynamic_flags_attributes+0x78>
    2c7e:	48 c7 03 00 00 00 00 	mov    QWORD PTR [rbx],0x0
    2c85:	e9 80 fe ff ff       	jmp    2b0a <_ZL19check_dynamic_rangePvmPmP24dynamic_flags_attributes+0x7a>
    2c8a:	66 0f 1f 44 00 00    	nop    WORD PTR [rax+rax*1+0x0]

0000000000002c90 <is_dynamic_thread>:
    2c90:	48 83 ec 28          	sub    rsp,0x28
    2c94:	64 48 8b 04 25 28 00 	mov    rax,QWORD PTR fs:0x28
    2c9b:	00 00 
    2c9d:	48 89 44 24 18       	mov    QWORD PTR [rsp+0x18],rax
    2ca2:	31 c0                	xor    eax,eax
    2ca4:	48 85 ff             	test   rdi,rdi
    2ca7:	74 27                	je     2cd0 <is_dynamic_thread+0x40>
    2ca9:	31 d2                	xor    edx,edx
    2cab:	48 89 e1             	mov    rcx,rsp
    2cae:	be 01 00 00 00       	mov    esi,0x1
    2cb3:	e8 d8 fd ff ff       	call   2a90 <_ZL19check_dynamic_rangePvmPmP24dynamic_flags_attributes>
    2cb8:	85 c0                	test   eax,eax
    2cba:	75 14                	jne    2cd0 <is_dynamic_thread+0x40>
    2cbc:	31 c0                	xor    eax,eax
    2cbe:	48 81 3c 24 00 01 00 	cmp    QWORD PTR [rsp],0x100
    2cc5:	00 
    2cc6:	0f 94 c0             	sete   al
    2cc9:	eb 07                	jmp    2cd2 <is_dynamic_thread+0x42>
    2ccb:	0f 1f 44 00 00       	nop    DWORD PTR [rax+rax*1+0x0]
    2cd0:	31 c0                	xor    eax,eax
    2cd2:	48 8b 54 24 18       	mov    rdx,QWORD PTR [rsp+0x18]
    2cd7:	64 48 33 14 25 28 00 	xor    rdx,QWORD PTR fs:0x28
    2cde:	00 00 
    2ce0:	75 05                	jne    2ce7 <is_dynamic_thread+0x57>
    2ce2:	48 83 c4 28          	add    rsp,0x28
    2ce6:	c3                   	ret    
    2ce7:	e8 24 24 00 00       	call   5110 <__stack_chk_fail>
    2cec:	0f 1f 40 00          	nop    DWORD PTR [rax+0x0]

0000000000002cf0 <get_dynamic_stack_max_page>:
    2cf0:	48 8d 0d 89 c4 02 00 	lea    rcx,[rip+0x2c489]        # 2f180 <g_global_data>
    2cf7:	8b 81 18 01 00 00    	mov    eax,DWORD PTR [rcx+0x118]
    2cfd:	85 c0                	test   eax,eax
    2cff:	74 3c                	je     2d3d <get_dynamic_stack_max_page+0x4d>
    2d01:	0f b7 81 20 01 00 00 	movzx  eax,WORD PTR [rcx+0x120]
    2d08:	66 83 f8 07          	cmp    ax,0x7
    2d0c:	74 32                	je     2d40 <get_dynamic_stack_max_page+0x50>
    2d0e:	31 d2                	xor    edx,edx
    2d10:	eb 1c                	jmp    2d2e <get_dynamic_stack_max_page+0x3e>
    2d12:	66 0f 1f 44 00 00    	nop    WORD PTR [rax+rax*1+0x0]
    2d18:	89 d6                	mov    esi,edx
    2d1a:	48 8d 46 09          	lea    rax,[rsi+0x9]
    2d1e:	48 c1 e0 05          	shl    rax,0x5
    2d22:	48 01 c8             	add    rax,rcx
    2d25:	0f b7 00             	movzx  eax,WORD PTR [rax]
    2d28:	66 83 f8 07          	cmp    ax,0x7
    2d2c:	74 14                	je     2d42 <get_dynamic_stack_max_page+0x52>
    2d2e:	8b 81 18 01 00 00    	mov    eax,DWORD PTR [rcx+0x118]
    2d34:	83 c2 01             	add    edx,0x1
    2d37:	39 d0                	cmp    eax,edx
    2d39:	77 dd                	ja     2d18 <get_dynamic_stack_max_page+0x28>
    2d3b:	31 c0                	xor    eax,eax
    2d3d:	f3 c3                	repz ret 
    2d3f:	90                   	nop
    2d40:	31 f6                	xor    esi,esi
    2d42:	48 83 c6 09          	add    rsi,0x9
    2d46:	48 c1 e6 05          	shl    rsi,0x5
    2d4a:	48 01 f1             	add    rcx,rsi
    2d4d:	8b 41 04             	mov    eax,DWORD PTR [rcx+0x4]
    2d50:	c3                   	ret    
    2d51:	66 2e 0f 1f 84 00 00 	nop    WORD PTR cs:[rax+rax*1+0x0]
    2d58:	00 00 00 
    2d5b:	0f 1f 44 00 00       	nop    DWORD PTR [rax+rax*1+0x0]

0000000000002d60 <sgx_accept_forward>:
    2d60:	4c 8d 54 24 08       	lea    r10,[rsp+0x8]
    2d65:	48 83 e4 c0          	and    rsp,0xffffffffffffffc0
    2d69:	41 ff 72 f8          	push   QWORD PTR [r10-0x8]
    2d6d:	55                   	push   rbp
    2d6e:	48 89 e5             	mov    rbp,rsp
    2d71:	41 55                	push   r13
    2d73:	41 54                	push   r12
    2d75:	41 52                	push   r10
    2d77:	53                   	push   rbx
    2d78:	48 81 ec 90 00 00 00 	sub    rsp,0x90
    2d7f:	48 89 bd 50 ff ff ff 	mov    QWORD PTR [rbp-0xb0],rdi
    2d86:	48 c7 85 58 ff ff ff 	mov    QWORD PTR [rbp-0xa8],0x0
    2d8d:	00 00 00 00 
    2d91:	64 48 8b 04 25 28 00 	mov    rax,QWORD PTR fs:0x28
    2d98:	00 00 
    2d9a:	48 89 45 c8          	mov    QWORD PTR [rbp-0x38],rax
    2d9e:	31 c0                	xor    eax,eax
    2da0:	48 39 d6             	cmp    rsi,rdx
    2da3:	48 c7 85 60 ff ff ff 	mov    QWORD PTR [rbp-0xa0],0x0
    2daa:	00 00 00 00 
    2dae:	48 c7 85 68 ff ff ff 	mov    QWORD PTR [rbp-0x98],0x0
    2db5:	00 00 00 00 
    2db9:	48 c7 85 70 ff ff ff 	mov    QWORD PTR [rbp-0x90],0x0
    2dc0:	00 00 00 00 
    2dc4:	48 c7 85 78 ff ff ff 	mov    QWORD PTR [rbp-0x88],0x0
    2dcb:	00 00 00 00 
    2dcf:	48 c7 45 80 00 00 00 	mov    QWORD PTR [rbp-0x80],0x0
    2dd6:	00 
    2dd7:	48 c7 45 88 00 00 00 	mov    QWORD PTR [rbp-0x78],0x0
    2dde:	00 
    2ddf:	73 2a                	jae    2e0b <sgx_accept_forward+0xab>
    2de1:	4c 8d ad 50 ff ff ff 	lea    r13,[rbp-0xb0]
    2de8:	48 89 f3             	mov    rbx,rsi
    2deb:	49 89 d4             	mov    r12,rdx
    2dee:	66 90                	xchg   ax,ax
    2df0:	48 89 de             	mov    rsi,rbx
    2df3:	4c 89 ef             	mov    rdi,r13
    2df6:	e8 68 a5 02 00       	call   2d363 <do_eaccept>
    2dfb:	85 c0                	test   eax,eax
    2dfd:	75 31                	jne    2e30 <sgx_accept_forward+0xd0>
    2dff:	48 81 c3 00 10 00 00 	add    rbx,0x1000
    2e06:	49 39 dc             	cmp    r12,rbx
    2e09:	77 e5                	ja     2df0 <sgx_accept_forward+0x90>
    2e0b:	31 c0                	xor    eax,eax
    2e0d:	48 8b 4d c8          	mov    rcx,QWORD PTR [rbp-0x38]
    2e11:	64 48 33 0c 25 28 00 	xor    rcx,QWORD PTR fs:0x28
    2e18:	00 00 
    2e1a:	75 19                	jne    2e35 <sgx_accept_forward+0xd5>
    2e1c:	48 81 c4 90 00 00 00 	add    rsp,0x90
    2e23:	5b                   	pop    rbx
    2e24:	41 5a                	pop    r10
    2e26:	41 5c                	pop    r12
    2e28:	41 5d                	pop    r13
    2e2a:	5d                   	pop    rbp
    2e2b:	49 8d 62 f8          	lea    rsp,[r10-0x8]
    2e2f:	c3                   	ret    
    2e30:	e8 7c a5 02 00       	call   2d3b1 <abort>
    2e35:	e8 d6 22 00 00       	call   5110 <__stack_chk_fail>
    2e3a:	66 0f 1f 44 00 00    	nop    WORD PTR [rax+rax*1+0x0]

0000000000002e40 <_Z18accept_post_removePVK9_layout_tS1_m>:
    2e40:	48 39 f7             	cmp    rdi,rsi
    2e43:	0f 83 d7 00 00 00    	jae    2f20 <_Z18accept_post_removePVK9_layout_tS1_m+0xe0>
    2e49:	41 56                	push   r14
    2e4b:	41 55                	push   r13
    2e4d:	41 54                	push   r12
    2e4f:	49 89 d4             	mov    r12,rdx
    2e52:	55                   	push   rbp
    2e53:	48 89 f5             	mov    rbp,rsi
    2e56:	53                   	push   rbx
    2e57:	48 89 fb             	mov    rbx,rdi
    2e5a:	eb 19                	jmp    2e75 <_Z18accept_post_removePVK9_layout_tS1_m+0x35>
    2e5c:	0f 1f 40 00          	nop    DWORD PTR [rax+0x0]
    2e60:	0f b7 03             	movzx  eax,WORD PTR [rbx]
    2e63:	f6 c4 10             	test   ah,0x10
    2e66:	75 58                	jne    2ec0 <_Z18accept_post_removePVK9_layout_tS1_m+0x80>
    2e68:	48 83 c3 20          	add    rbx,0x20
    2e6c:	48 39 dd             	cmp    rbp,rbx
    2e6f:	0f 86 97 00 00 00    	jbe    2f0c <_Z18accept_post_removePVK9_layout_tS1_m+0xcc>
    2e75:	0f b7 03             	movzx  eax,WORD PTR [rbx]
    2e78:	f6 c4 10             	test   ah,0x10
    2e7b:	75 e3                	jne    2e60 <_Z18accept_post_removePVK9_layout_tS1_m+0x20>
    2e7d:	0f b7 43 02          	movzx  eax,WORD PTR [rbx+0x2]
    2e81:	a8 10                	test   al,0x10
    2e83:	74 db                	je     2e60 <_Z18accept_post_removePVK9_layout_tS1_m+0x20>
    2e85:	48 8b 73 08          	mov    rsi,QWORD PTR [rbx+0x8]
    2e89:	4e 8d 2c 26          	lea    r13,[rsi+r12*1]
    2e8d:	e8 cb a1 02 00       	call   2d05d <get_enclave_base>
    2e92:	8b 53 04             	mov    edx,DWORD PTR [rbx+0x4]
    2e95:	4a 8d 34 28          	lea    rsi,[rax+r13*1]
    2e99:	bf 10 04 00 00       	mov    edi,0x410
    2e9e:	48 c1 e2 0c          	shl    rdx,0xc
    2ea2:	48 01 f2             	add    rdx,rsi
    2ea5:	e8 b6 fe ff ff       	call   2d60 <sgx_accept_forward>
    2eaa:	85 c0                	test   eax,eax
    2eac:	74 ba                	je     2e68 <_Z18accept_post_removePVK9_layout_tS1_m+0x28>
    2eae:	5b                   	pop    rbx
    2eaf:	5d                   	pop    rbp
    2eb0:	41 5c                	pop    r12
    2eb2:	41 5d                	pop    r13
    2eb4:	41 5e                	pop    r14
    2eb6:	c3                   	ret    
    2eb7:	66 0f 1f 84 00 00 00 	nop    WORD PTR [rax+rax*1+0x0]
    2ebe:	00 00 
    2ec0:	8b 43 04             	mov    eax,DWORD PTR [rbx+0x4]
    2ec3:	85 c0                	test   eax,eax
    2ec5:	74 a1                	je     2e68 <_Z18accept_post_removePVK9_layout_tS1_m+0x28>
    2ec7:	45 31 f6             	xor    r14d,r14d
    2eca:	45 31 ed             	xor    r13d,r13d
    2ecd:	48 8b 43 08          	mov    rax,QWORD PTR [rbx+0x8]
    2ed1:	0f b7 7b 02          	movzx  edi,WORD PTR [rbx+0x2]
    2ed5:	48 89 de             	mov    rsi,rbx
    2ed8:	49 01 c5             	add    r13,rax
    2edb:	f7 df                	neg    edi
    2edd:	4c 89 ea             	mov    rdx,r13
    2ee0:	48 63 ff             	movsxd rdi,edi
    2ee3:	48 c1 e7 05          	shl    rdi,0x5
    2ee7:	48 01 df             	add    rdi,rbx
    2eea:	e8 51 ff ff ff       	call   2e40 <_Z18accept_post_removePVK9_layout_tS1_m>
    2eef:	85 c0                	test   eax,eax
    2ef1:	75 bb                	jne    2eae <_Z18accept_post_removePVK9_layout_tS1_m+0x6e>
    2ef3:	8b 43 04             	mov    eax,DWORD PTR [rbx+0x4]
    2ef6:	41 83 c6 01          	add    r14d,0x1
    2efa:	44 39 f0             	cmp    eax,r14d
    2efd:	77 ce                	ja     2ecd <_Z18accept_post_removePVK9_layout_tS1_m+0x8d>
    2eff:	48 83 c3 20          	add    rbx,0x20
    2f03:	48 39 dd             	cmp    rbp,rbx
    2f06:	0f 87 69 ff ff ff    	ja     2e75 <_Z18accept_post_removePVK9_layout_tS1_m+0x35>
    2f0c:	5b                   	pop    rbx
    2f0d:	31 c0                	xor    eax,eax
    2f0f:	5d                   	pop    rbp
    2f10:	41 5c                	pop    r12
    2f12:	41 5d                	pop    r13
    2f14:	41 5e                	pop    r14
    2f16:	c3                   	ret    
    2f17:	66 0f 1f 84 00 00 00 	nop    WORD PTR [rax+rax*1+0x0]
    2f1e:	00 00 
    2f20:	31 c0                	xor    eax,eax
    2f22:	c3                   	ret    
    2f23:	66 2e 0f 1f 84 00 00 	nop    WORD PTR cs:[rax+rax*1+0x0]
    2f2a:	00 00 00 
    2f2d:	0f 1f 00             	nop    DWORD PTR [rax]

0000000000002f30 <apply_pages_within_exception>:
    2f30:	4c 8d 54 24 08       	lea    r10,[rsp+0x8]
    2f35:	48 83 e4 c0          	and    rsp,0xffffffffffffffc0
    2f39:	41 ff 72 f8          	push   QWORD PTR [r10-0x8]
    2f3d:	55                   	push   rbp
    2f3e:	48 89 e5             	mov    rbp,rsp
    2f41:	41 56                	push   r14
    2f43:	41 55                	push   r13
    2f45:	41 54                	push   r12
    2f47:	41 52                	push   r10
    2f49:	53                   	push   rbx
    2f4a:	48 81 ec 88 00 00 00 	sub    rsp,0x88
    2f51:	64 48 8b 04 25 28 00 	mov    rax,QWORD PTR fs:0x28
    2f58:	00 00 
    2f5a:	48 89 45 c8          	mov    QWORD PTR [rbp-0x38],rax
    2f5e:	31 c0                	xor    eax,eax
    2f60:	48 85 ff             	test   rdi,rdi
    2f63:	0f 84 ca 00 00 00    	je     3033 <apply_pages_within_exception+0x103>
    2f69:	31 c9                	xor    ecx,ecx
    2f6b:	31 d2                	xor    edx,edx
    2f6d:	48 89 fb             	mov    rbx,rdi
    2f70:	49 89 f4             	mov    r12,rsi
    2f73:	e8 18 fb ff ff       	call   2a90 <_ZL19check_dynamic_rangePvmPmP24dynamic_flags_attributes>
    2f78:	85 c0                	test   eax,eax
    2f7a:	41 89 c5             	mov    r13d,eax
    2f7d:	0f 85 b0 00 00 00    	jne    3033 <apply_pages_within_exception+0x103>
    2f83:	49 c1 e4 0c          	shl    r12,0xc
    2f87:	48 c7 85 50 ff ff ff 	mov    QWORD PTR [rbp-0xb0],0x20b
    2f8e:	0b 02 00 00 
    2f92:	48 c7 85 58 ff ff ff 	mov    QWORD PTR [rbp-0xa8],0x0
    2f99:	00 00 00 00 
    2f9d:	49 01 dc             	add    r12,rbx
    2fa0:	48 c7 85 60 ff ff ff 	mov    QWORD PTR [rbp-0xa0],0x0
    2fa7:	00 00 00 00 
    2fab:	48 c7 85 68 ff ff ff 	mov    QWORD PTR [rbp-0x98],0x0
    2fb2:	00 00 00 00 
    2fb6:	4c 39 e3             	cmp    rbx,r12
    2fb9:	48 c7 85 70 ff ff ff 	mov    QWORD PTR [rbp-0x90],0x0
    2fc0:	00 00 00 00 
    2fc4:	48 c7 85 78 ff ff ff 	mov    QWORD PTR [rbp-0x88],0x0
    2fcb:	00 00 00 00 
    2fcf:	48 c7 45 80 00 00 00 	mov    QWORD PTR [rbp-0x80],0x0
    2fd6:	00 
    2fd7:	48 c7 45 88 00 00 00 	mov    QWORD PTR [rbp-0x78],0x0
    2fde:	00 
    2fdf:	73 2a                	jae    300b <apply_pages_within_exception+0xdb>
    2fe1:	4c 8d b5 50 ff ff ff 	lea    r14,[rbp-0xb0]
    2fe8:	0f 1f 84 00 00 00 00 	nop    DWORD PTR [rax+rax*1+0x0]
    2fef:	00 
    2ff0:	48 89 de             	mov    rsi,rbx
    2ff3:	4c 89 f7             	mov    rdi,r14
    2ff6:	e8 68 a3 02 00       	call   2d363 <do_eaccept>
    2ffb:	85 c0                	test   eax,eax
    2ffd:	75 3c                	jne    303b <apply_pages_within_exception+0x10b>
    2fff:	48 81 c3 00 10 00 00 	add    rbx,0x1000
    3006:	49 39 dc             	cmp    r12,rbx
    3009:	77 e5                	ja     2ff0 <apply_pages_within_exception+0xc0>
    300b:	48 8b 55 c8          	mov    rdx,QWORD PTR [rbp-0x38]
    300f:	64 48 33 14 25 28 00 	xor    rdx,QWORD PTR fs:0x28
    3016:	00 00 
    3018:	44 89 e8             	mov    eax,r13d
    301b:	75 23                	jne    3040 <apply_pages_within_exception+0x110>
    301d:	48 81 c4 88 00 00 00 	add    rsp,0x88
    3024:	5b                   	pop    rbx
    3025:	41 5a                	pop    r10
    3027:	41 5c                	pop    r12
    3029:	41 5d                	pop    r13
    302b:	41 5e                	pop    r14
    302d:	5d                   	pop    rbp
    302e:	49 8d 62 f8          	lea    rsp,[r10-0x8]
    3032:	c3                   	ret    
    3033:	41 bd ff ff ff ff    	mov    r13d,0xffffffff
    3039:	eb d0                	jmp    300b <apply_pages_within_exception+0xdb>
    303b:	e8 71 a3 02 00       	call   2d3b1 <abort>
    3040:	e8 cb 20 00 00       	call   5110 <__stack_chk_fail>
    3045:	66 2e 0f 1f 84 00 00 	nop    WORD PTR cs:[rax+rax*1+0x0]
    304c:	00 00 00 
    304f:	90                   	nop

0000000000003050 <apply_EPC_pages>:
    3050:	55                   	push   rbp
    3051:	53                   	push   rbx
    3052:	48 83 ec 28          	sub    rsp,0x28
    3056:	64 48 8b 04 25 28 00 	mov    rax,QWORD PTR fs:0x28
    305d:	00 00 
    305f:	48 89 44 24 18       	mov    QWORD PTR [rsp+0x18],rax
    3064:	31 c0                	xor    eax,eax
    3066:	48 85 ff             	test   rdi,rdi
    3069:	74 55                	je     30c0 <apply_EPC_pages+0x70>
    306b:	31 d2                	xor    edx,edx
    306d:	48 89 e1             	mov    rcx,rsp
    3070:	48 89 fd             	mov    rbp,rdi
    3073:	48 89 f3             	mov    rbx,rsi
    3076:	e8 15 fa ff ff       	call   2a90 <_ZL19check_dynamic_rangePvmPmP24dynamic_flags_attributes>
    307b:	85 c0                	test   eax,eax
    307d:	75 41                	jne    30c0 <apply_EPC_pages+0x70>
    307f:	48 c1 e3 0c          	shl    rbx,0xc
    3083:	f6 44 24 08 40       	test   BYTE PTR [rsp+0x8],0x40
    3088:	48 89 ee             	mov    rsi,rbp
    308b:	48 8d 14 2b          	lea    rdx,[rbx+rbp*1]
    308f:	bf 0b 02 00 00       	mov    edi,0x20b
    3094:	75 22                	jne    30b8 <apply_EPC_pages+0x68>
    3096:	e8 25 f8 ff ff       	call   28c0 <_ZL19sgx_accept_backwardmmm>
    309b:	48 8b 74 24 18       	mov    rsi,QWORD PTR [rsp+0x18]
    30a0:	64 48 33 34 25 28 00 	xor    rsi,QWORD PTR fs:0x28
    30a7:	00 00 
    30a9:	75 1c                	jne    30c7 <apply_EPC_pages+0x77>
    30ab:	48 83 c4 28          	add    rsp,0x28
    30af:	5b                   	pop    rbx
    30b0:	5d                   	pop    rbp
    30b1:	c3                   	ret    
    30b2:	66 0f 1f 44 00 00    	nop    WORD PTR [rax+rax*1+0x0]
    30b8:	e8 a3 fc ff ff       	call   2d60 <sgx_accept_forward>
    30bd:	eb dc                	jmp    309b <apply_EPC_pages+0x4b>
    30bf:	90                   	nop
    30c0:	b8 ff ff ff ff       	mov    eax,0xffffffff
    30c5:	eb d4                	jmp    309b <apply_EPC_pages+0x4b>
    30c7:	e8 44 20 00 00       	call   5110 <__stack_chk_fail>
    30cc:	0f 1f 40 00          	nop    DWORD PTR [rax+0x0]

00000000000030d0 <trim_EPC_pages>:
    30d0:	48 85 ff             	test   rdi,rdi
    30d3:	74 65                	je     313a <trim_EPC_pages+0x6a>
    30d5:	55                   	push   rbp
    30d6:	53                   	push   rbx
    30d7:	31 c9                	xor    ecx,ecx
    30d9:	31 d2                	xor    edx,edx
    30db:	48 89 f5             	mov    rbp,rsi
    30de:	48 89 fb             	mov    rbx,rdi
    30e1:	48 83 ec 08          	sub    rsp,0x8
    30e5:	e8 a6 f9 ff ff       	call   2a90 <_ZL19check_dynamic_rangePvmPmP24dynamic_flags_attributes>
    30ea:	85 c0                	test   eax,eax
    30ec:	75 45                	jne    3133 <trim_EPC_pages+0x63>
    30ee:	48 c1 e5 0c          	shl    rbp,0xc
    30f2:	48 89 df             	mov    rdi,rbx
    30f5:	48 01 dd             	add    rbp,rbx
    30f8:	48 89 ee             	mov    rsi,rbp
    30fb:	e8 30 0d 00 00       	call   3e30 <trim_range_ocall>
    3100:	48 89 ea             	mov    rdx,rbp
    3103:	48 89 de             	mov    rsi,rbx
    3106:	bf 10 04 00 00       	mov    edi,0x410
    310b:	e8 50 fc ff ff       	call   2d60 <sgx_accept_forward>
    3110:	48 39 eb             	cmp    rbx,rbp
    3113:	73 17                	jae    312c <trim_EPC_pages+0x5c>
    3115:	0f 1f 00             	nop    DWORD PTR [rax]
    3118:	48 89 df             	mov    rdi,rbx
    311b:	48 81 c3 00 10 00 00 	add    rbx,0x1000
    3122:	e8 69 0d 00 00       	call   3e90 <trim_range_commit_ocall>
    3127:	48 39 dd             	cmp    rbp,rbx
    312a:	77 ec                	ja     3118 <trim_EPC_pages+0x48>
    312c:	48 83 c4 08          	add    rsp,0x8
    3130:	5b                   	pop    rbx
    3131:	5d                   	pop    rbp
    3132:	c3                   	ret    
    3133:	b8 ff ff ff ff       	mov    eax,0xffffffff
    3138:	eb f2                	jmp    312c <trim_EPC_pages+0x5c>
    313a:	b8 ff ff ff ff       	mov    eax,0xffffffff
    313f:	c3                   	ret    

0000000000003140 <do_add_thread>:
    3140:	41 56                	push   r14
    3142:	41 55                	push   r13
    3144:	41 54                	push   r12
    3146:	55                   	push   rbp
    3147:	48 89 fd             	mov    rbp,rdi
    314a:	53                   	push   rbx
    314b:	48 83 ec 10          	sub    rsp,0x10
    314f:	64 48 8b 04 25 28 00 	mov    rax,QWORD PTR fs:0x28
    3156:	00 00 
    3158:	48 89 44 24 08       	mov    QWORD PTR [rsp+0x8],rax
    315d:	31 c0                	xor    eax,eax
    315f:	48 c7 04 24 00 00 00 	mov    QWORD PTR [rsp],0x0
    3166:	00 
    3167:	e8 f1 9e 02 00       	call   2d05d <get_enclave_base>
    316c:	31 c9                	xor    ecx,ecx
    316e:	48 89 e2             	mov    rdx,rsp
    3171:	be 01 00 00 00       	mov    esi,0x1
    3176:	48 89 ef             	mov    rdi,rbp
    3179:	49 89 c4             	mov    r12,rax
    317c:	e8 0f f9 ff ff       	call   2a90 <_ZL19check_dynamic_rangePvmPmP24dynamic_flags_attributes>
    3181:	85 c0                	test   eax,eax
    3183:	75 4e                	jne    31d3 <do_add_thread+0x93>
    3185:	48 8d 1d f4 bf 02 00 	lea    rbx,[rip+0x2bff4]        # 2f180 <g_global_data>
    318c:	8b 83 18 01 00 00    	mov    eax,DWORD PTR [rbx+0x118]
    3192:	85 c0                	test   eax,eax
    3194:	74 3d                	je     31d3 <do_add_thread+0x93>
    3196:	0f b7 83 20 01 00 00 	movzx  eax,WORD PTR [rbx+0x120]
    319d:	66 83 f8 0e          	cmp    ax,0xe
    31a1:	74 56                	je     31f9 <do_add_thread+0xb9>
    31a3:	31 d2                	xor    edx,edx
    31a5:	eb 1f                	jmp    31c6 <do_add_thread+0x86>
    31a7:	66 0f 1f 84 00 00 00 	nop    WORD PTR [rax+rax*1+0x0]
    31ae:	00 00 
    31b0:	89 d1                	mov    ecx,edx
    31b2:	48 8d 41 09          	lea    rax,[rcx+0x9]
    31b6:	48 c1 e0 05          	shl    rax,0x5
    31ba:	48 01 d8             	add    rax,rbx
    31bd:	0f b7 00             	movzx  eax,WORD PTR [rax]
    31c0:	66 83 f8 0e          	cmp    ax,0xe
    31c4:	74 3a                	je     3200 <do_add_thread+0xc0>
    31c6:	8b 83 18 01 00 00    	mov    eax,DWORD PTR [rbx+0x118]
    31cc:	83 c2 01             	add    edx,0x1
    31cf:	39 d0                	cmp    eax,edx
    31d1:	77 dd                	ja     31b0 <do_add_thread+0x70>
    31d3:	b8 01 00 00 00       	mov    eax,0x1
    31d8:	48 8b 74 24 08       	mov    rsi,QWORD PTR [rsp+0x8]
    31dd:	64 48 33 34 25 28 00 	xor    rsi,QWORD PTR fs:0x28
    31e4:	00 00 
    31e6:	0f 85 55 01 00 00    	jne    3341 <do_add_thread+0x201>
    31ec:	48 83 c4 10          	add    rsp,0x10
    31f0:	5b                   	pop    rbx
    31f1:	5d                   	pop    rbp
    31f2:	41 5c                	pop    r12
    31f4:	41 5d                	pop    r13
    31f6:	41 5e                	pop    r14
    31f8:	c3                   	ret    
    31f9:	31 c9                	xor    ecx,ecx
    31fb:	0f 1f 44 00 00       	nop    DWORD PTR [rax+rax*1+0x0]
    3200:	48 83 c1 09          	add    rcx,0x9
    3204:	4c 8b 2c 24          	mov    r13,QWORD PTR [rsp]
    3208:	41 be 0e 00 00 00    	mov    r14d,0xe
    320e:	48 c1 e1 05          	shl    rcx,0x5
    3212:	48 01 d9             	add    rcx,rbx
    3215:	48 8b 41 08          	mov    rax,QWORD PTR [rcx+0x8]
    3219:	4d 01 e5             	add    r13,r12
    321c:	49 01 c5             	add    r13,rax
    321f:	4c 39 ed             	cmp    rbp,r13
    3222:	75 af                	jne    31d3 <do_add_thread+0x93>
    3224:	0f 1f 40 00          	nop    DWORD PTR [rax+0x0]
    3228:	8b 83 18 01 00 00    	mov    eax,DWORD PTR [rbx+0x118]
    322e:	85 c0                	test   eax,eax
    3230:	74 45                	je     3277 <do_add_thread+0x137>
    3232:	0f b7 83 20 01 00 00 	movzx  eax,WORD PTR [rbx+0x120]
    3239:	66 44 39 f0          	cmp    ax,r14w
    323d:	0f 84 ad 00 00 00    	je     32f0 <do_add_thread+0x1b0>
    3243:	31 d2                	xor    edx,edx
    3245:	eb 23                	jmp    326a <do_add_thread+0x12a>
    3247:	66 0f 1f 84 00 00 00 	nop    WORD PTR [rax+rax*1+0x0]
    324e:	00 00 
    3250:	89 d1                	mov    ecx,edx
    3252:	48 8d 41 09          	lea    rax,[rcx+0x9]
    3256:	48 c1 e0 05          	shl    rax,0x5
    325a:	48 01 d8             	add    rax,rbx
    325d:	0f b7 00             	movzx  eax,WORD PTR [rax]
    3260:	66 44 39 f0          	cmp    ax,r14w
    3264:	0f 84 8e 00 00 00    	je     32f8 <do_add_thread+0x1b8>
    326a:	8b 83 18 01 00 00    	mov    eax,DWORD PTR [rbx+0x118]
    3270:	83 c2 01             	add    edx,0x1
    3273:	39 d0                	cmp    eax,edx
    3275:	77 d9                	ja     3250 <do_add_thread+0x110>
    3277:	41 83 c6 01          	add    r14d,0x1
    327b:	66 41 83 fe 13       	cmp    r14w,0x13
    3280:	75 a6                	jne    3228 <do_add_thread+0xe8>
    3282:	48 8d b3 d0 00 00 00 	lea    rsi,[rbx+0xd0]
    3289:	ba 48 00 00 00       	mov    edx,0x48
    328e:	48 89 ef             	mov    rdi,rbp
    3291:	e8 3a 51 00 00       	call   83d0 <memcpy>
    3296:	4c 89 e8             	mov    rax,r13
    3299:	31 ff                	xor    edi,edi
    329b:	48 89 ee             	mov    rsi,rbp
    329e:	4c 29 e0             	sub    rax,r12
    32a1:	48 01 45 10          	add    QWORD PTR [rbp+0x10],rax
    32a5:	4c 89 e8             	mov    rax,r13
    32a8:	4c 29 e0             	sub    rax,r12
    32ab:	48 01 45 30          	add    QWORD PTR [rbp+0x30],rax
    32af:	4c 89 e8             	mov    rax,r13
    32b2:	4c 29 e0             	sub    rax,r12
    32b5:	48 01 45 38          	add    QWORD PTR [rbp+0x38],rax
    32b9:	e8 72 09 00 00       	call   3c30 <sgx_ocall>
    32be:	85 c0                	test   eax,eax
    32c0:	0f 85 0d ff ff ff    	jne    31d3 <do_add_thread+0x93>
    32c6:	49 8d 95 00 10 00 00 	lea    rdx,[r13+0x1000]
    32cd:	4c 89 ee             	mov    rsi,r13
    32d0:	bf 10 01 00 00       	mov    edi,0x110
    32d5:	e8 e6 f5 ff ff       	call   28c0 <_ZL19sgx_accept_backwardmmm>
    32da:	85 c0                	test   eax,eax
    32dc:	0f 95 c0             	setne  al
    32df:	0f b6 c0             	movzx  eax,al
    32e2:	e9 f1 fe ff ff       	jmp    31d8 <do_add_thread+0x98>
    32e7:	66 0f 1f 84 00 00 00 	nop    WORD PTR [rax+rax*1+0x0]
    32ee:	00 00 
    32f0:	31 c9                	xor    ecx,ecx
    32f2:	66 0f 1f 44 00 00    	nop    WORD PTR [rax+rax*1+0x0]
    32f8:	48 83 c1 09          	add    rcx,0x9
    32fc:	48 c1 e1 05          	shl    rcx,0x5
    3300:	48 01 d9             	add    rcx,rbx
    3303:	0f b7 41 02          	movzx  eax,WORD PTR [rcx+0x2]
    3307:	a8 20                	test   al,0x20
    3309:	0f 84 68 ff ff ff    	je     3277 <do_add_thread+0x137>
    330f:	48 8b 3c 24          	mov    rdi,QWORD PTR [rsp]
    3313:	8b 71 04             	mov    esi,DWORD PTR [rcx+0x4]
    3316:	48 8b 41 08          	mov    rax,QWORD PTR [rcx+0x8]
    331a:	4c 01 e7             	add    rdi,r12
    331d:	48 01 c7             	add    rdi,rax
    3320:	e8 2b fd ff ff       	call   3050 <apply_EPC_pages>
    3325:	85 c0                	test   eax,eax
    3327:	0f 85 a6 fe ff ff    	jne    31d3 <do_add_thread+0x93>
    332d:	41 83 c6 01          	add    r14d,0x1
    3331:	66 41 83 fe 13       	cmp    r14w,0x13
    3336:	0f 85 ec fe ff ff    	jne    3228 <do_add_thread+0xe8>
    333c:	e9 41 ff ff ff       	jmp    3282 <do_add_thread+0x142>
    3341:	e8 ca 1d 00 00       	call   5110 <__stack_chk_fail>
    3346:	66 2e 0f 1f 84 00 00 	nop    WORD PTR cs:[rax+rax*1+0x0]
    334d:	00 00 00 

0000000000003350 <_Z30_random_stack_noinline_wrapperI9_status_tJjPvEJRiRS1_EET_PFS4_DpT0_EDpOT1_.isra.0>:
    3350:	48 89 f8             	mov    rax,rdi
    3353:	89 f7                	mov    edi,esi
    3355:	48 89 d6             	mov    rsi,rdx
    3358:	ff e0                	jmp    rax
    335a:	66 0f 1f 44 00 00    	nop    WORD PTR [rax+rax*1+0x0]

0000000000003360 <_ZL10trts_ecalljPv>:
    3360:	0f b6 05 a1 0c 23 00 	movzx  eax,BYTE PTR [rip+0x230ca1]        # 234008 <_ZL16g_is_first_ecall>
    3367:	41 54                	push   r12
    3369:	49 89 f4             	mov    r12,rsi
    336c:	55                   	push   rbp
    336d:	53                   	push   rbx
    336e:	89 fb                	mov    ebx,edi
    3370:	84 c0                	test   al,al
    3372:	0f 85 b8 00 00 00    	jne    3430 <_ZL10trts_ecalljPv+0xd0>
    3378:	83 fb fa             	cmp    ebx,0xfffffffa
    337b:	0f 84 8f 00 00 00    	je     3410 <_ZL10trts_ecalljPv+0xb0>
    3381:	83 fb f9             	cmp    ebx,0xfffffff9
    3384:	0f 84 de 00 00 00    	je     3468 <_ZL10trts_ecalljPv+0x108>
    338a:	48 8d 2d 8f 09 23 00 	lea    rbp,[rip+0x23098f]        # 233d20 <g_ecall_table>
    3391:	48 3b 5d 00          	cmp    rbx,QWORD PTR [rbp+0x0]
    3395:	73 69                	jae    3400 <_ZL10trts_ecalljPv+0xa0>
    3397:	e8 fc 9c 02 00       	call   2d098 <get_thread_data>
    339c:	0f ae e8             	lfence 
    339f:	48 8b 50 08          	mov    rdx,QWORD PTR [rax+0x8]
    33a3:	48 3b 50 10          	cmp    rdx,QWORD PTR [rax+0x10]
    33a7:	0f 84 a3 00 00 00    	je     3450 <_ZL10trts_ecalljPv+0xf0>
    33ad:	48 81 7a 20 44 49 43 	cmp    QWORD PTR [rdx+0x20],0x4f434944
    33b4:	4f 
    33b5:	0f 85 42 01 00 00    	jne    34fd <_ZL10trts_ecalljPv+0x19d>
    33bb:	48 8d 05 7e a0 02 00 	lea    rax,[rip+0x2a07e]        # 2d440 <g_dyn_entry_table>
    33c2:	48 8b 52 28          	mov    rdx,QWORD PTR [rdx+0x28]
    33c6:	48 3b 10             	cmp    rdx,QWORD PTR [rax]
    33c9:	73 35                	jae    3400 <_ZL10trts_ecalljPv+0xa0>
    33cb:	48 0f af 55 00       	imul   rdx,QWORD PTR [rbp+0x0]
    33d0:	48 01 d8             	add    rax,rbx
    33d3:	80 7c 02 08 00       	cmp    BYTE PTR [rdx+rax*1+0x8],0x0
    33d8:	74 65                	je     343f <_ZL10trts_ecalljPv+0xdf>
    33da:	48 c1 e3 04          	shl    rbx,0x4
    33de:	31 f6                	xor    esi,esi
    33e0:	48 8b 5c 1d 08       	mov    rbx,QWORD PTR [rbp+rbx*1+0x8]
    33e5:	48 89 df             	mov    rdi,rbx
    33e8:	e8 63 f1 ff ff       	call   2550 <sgx_is_within_enclave>
    33ed:	85 c0                	test   eax,eax
    33ef:	48 89 da             	mov    rdx,rbx
    33f2:	74 2f                	je     3423 <_ZL10trts_ecalljPv+0xc3>
    33f4:	0f ae e8             	lfence 
    33f7:	4c 89 e7             	mov    rdi,r12
    33fa:	5b                   	pop    rbx
    33fb:	5d                   	pop    rbp
    33fc:	41 5c                	pop    r12
    33fe:	ff e2                	jmp    rdx
    3400:	bd 01 10 00 00       	mov    ebp,0x1001
    3405:	89 e8                	mov    eax,ebp
    3407:	5b                   	pop    rbx
    3408:	5d                   	pop    rbp
    3409:	41 5c                	pop    r12
    340b:	c3                   	ret    
    340c:	0f 1f 40 00          	nop    DWORD PTR [rax+0x0]
    3410:	e8 83 9c 02 00       	call   2d098 <get_thread_data>
    3415:	48 8b 48 10          	mov    rcx,QWORD PTR [rax+0x10]
    3419:	48 39 48 08          	cmp    QWORD PTR [rax+0x8],rcx
    341d:	0f 84 bd 00 00 00    	je     34e0 <_ZL10trts_ecalljPv+0x180>
    3423:	bd 01 00 00 00       	mov    ebp,0x1
    3428:	89 e8                	mov    eax,ebp
    342a:	5b                   	pop    rbx
    342b:	5d                   	pop    rbp
    342c:	41 5c                	pop    r12
    342e:	c3                   	ret    
    342f:	90                   	nop
    3430:	e8 63 9c 02 00       	call   2d098 <get_thread_data>
    3435:	48 8b 48 10          	mov    rcx,QWORD PTR [rax+0x10]
    3439:	48 39 48 08          	cmp    QWORD PTR [rax+0x8],rcx
    343d:	74 49                	je     3488 <_ZL10trts_ecalljPv+0x128>
    343f:	bd 07 10 00 00       	mov    ebp,0x1007
    3444:	eb bf                	jmp    3405 <_ZL10trts_ecalljPv+0xa5>
    3446:	66 2e 0f 1f 84 00 00 	nop    WORD PTR cs:[rax+rax*1+0x0]
    344d:	00 00 00 
    3450:	48 89 d8             	mov    rax,rbx
    3453:	48 c1 e0 04          	shl    rax,0x4
    3457:	80 7c 05 10 00       	cmp    BYTE PTR [rbp+rax*1+0x10],0x0
    345c:	0f 84 78 ff ff ff    	je     33da <_ZL10trts_ecalljPv+0x7a>
    3462:	eb db                	jmp    343f <_ZL10trts_ecalljPv+0xdf>
    3464:	0f 1f 40 00          	nop    DWORD PTR [rax+0x0]
    3468:	e8 2b 9c 02 00       	call   2d098 <get_thread_data>
    346d:	48 8b 48 10          	mov    rcx,QWORD PTR [rax+0x10]
    3471:	48 39 48 08          	cmp    QWORD PTR [rax+0x8],rcx
    3475:	75 ac                	jne    3423 <_ZL10trts_ecalljPv+0xc3>
    3477:	48 8d 15 a2 09 00 00 	lea    rdx,[rip+0x9a2]        # 3e20 <do_run_switchless_tworker>
    347e:	e9 71 ff ff ff       	jmp    33f4 <_ZL10trts_ecalljPv+0x94>
    3483:	0f 1f 44 00 00       	nop    DWORD PTR [rax+rax*1+0x0]
    3488:	48 8d 3d 35 18 23 00 	lea    rdi,[rip+0x231835]        # 234cc4 <_ZL10g_ife_lock>
    348f:	e8 dc 52 00 00       	call   8770 <sgx_spin_lock>
    3494:	0f b6 05 6d 0b 23 00 	movzx  eax,BYTE PTR [rip+0x230b6d]        # 234008 <_ZL16g_is_first_ecall>
    349b:	84 c0                	test   al,al
    349d:	74 2b                	je     34ca <_ZL10trts_ecalljPv+0x16a>
    349f:	48 8d 05 fe 08 23 00 	lea    rax,[rip+0x2308fe]        # 233da4 <EDMM_supported>
    34a6:	8b 00                	mov    eax,DWORD PTR [rax]
    34a8:	85 c0                	test   eax,eax
    34aa:	74 12                	je     34be <_ZL10trts_ecalljPv+0x15e>
    34ac:	48 8d 3d 4d cb ff ff 	lea    rdi,[rip+0xffffffffffffcb4d]        # 0 <enclave.so>
    34b3:	e8 d8 18 00 00       	call   4d90 <change_protection>
    34b8:	85 c0                	test   eax,eax
    34ba:	89 c5                	mov    ebp,eax
    34bc:	75 2e                	jne    34ec <_ZL10trts_ecalljPv+0x18c>
    34be:	e8 bd 1a 00 00       	call   4f80 <init_global_object>
    34c3:	c6 05 3e 0b 23 00 00 	mov    BYTE PTR [rip+0x230b3e],0x0        # 234008 <_ZL16g_is_first_ecall>
    34ca:	48 8d 3d f3 17 23 00 	lea    rdi,[rip+0x2317f3]        # 234cc4 <_ZL10g_ife_lock>
    34d1:	e8 fa 52 00 00       	call   87d0 <sgx_spin_unlock>
    34d6:	e9 9d fe ff ff       	jmp    3378 <_ZL10trts_ecalljPv+0x18>
    34db:	0f 1f 44 00 00       	nop    DWORD PTR [rax+rax*1+0x0]
    34e0:	48 8d 15 29 09 00 00 	lea    rdx,[rip+0x929]        # 3e10 <do_init_switchless>
    34e7:	e9 08 ff ff ff       	jmp    33f4 <_ZL10trts_ecalljPv+0x94>
    34ec:	48 8d 3d d1 17 23 00 	lea    rdi,[rip+0x2317d1]        # 234cc4 <_ZL10g_ife_lock>
    34f3:	e8 d8 52 00 00       	call   87d0 <sgx_spin_unlock>
    34f8:	e9 08 ff ff ff       	jmp    3405 <_ZL10trts_ecalljPv+0xa5>
    34fd:	e8 af 9e 02 00       	call   2d3b1 <abort>
    3502:	66 2e 0f 1f 84 00 00 	nop    WORD PTR cs:[rax+rax*1+0x0]
    3509:	00 00 00 
    350c:	0f 1f 40 00          	nop    DWORD PTR [rax+0x0]

0000000000003510 <do_init_thread>:
    3510:	41 57                	push   r15
    3512:	41 56                	push   r14
    3514:	ba a0 00 00 00       	mov    edx,0xa0
    3519:	41 55                	push   r13
    351b:	41 54                	push   r12
    351d:	41 89 f5             	mov    r13d,esi
    3520:	55                   	push   rbp
    3521:	53                   	push   rbx
    3522:	48 89 fd             	mov    rbp,rdi
    3525:	48 83 ec 28          	sub    rsp,0x28
    3529:	64 48 8b 04 25 28 00 	mov    rax,QWORD PTR fs:0x28
    3530:	00 00 
    3532:	48 89 44 24 18       	mov    QWORD PTR [rsp+0x18],rax
    3537:	31 c0                	xor    eax,eax
    3539:	48 8d 05 40 bc 02 00 	lea    rax,[rip+0x2bc40]        # 2f180 <g_global_data>
    3540:	48 8b 58 30          	mov    rbx,QWORD PTR [rax+0x30]
    3544:	48 8d 70 30          	lea    rsi,[rax+0x30]
    3548:	48 01 fb             	add    rbx,rdi
    354b:	48 89 df             	mov    rdi,rbx
    354e:	4c 8b 7b 28          	mov    r15,QWORD PTR [rbx+0x28]
    3552:	4c 8b 73 30          	mov    r14,QWORD PTR [rbx+0x30]
    3556:	4c 8b a3 98 00 00 00 	mov    r12,QWORD PTR [rbx+0x98]
    355d:	e8 6e 4e 00 00       	call   83d0 <memcpy>
    3562:	48 8b 53 18          	mov    rdx,QWORD PTR [rbx+0x18]
    3566:	48 8d 85 30 f8 ff ff 	lea    rax,[rbp-0x7d0]
    356d:	48 01 2b             	add    QWORD PTR [rbx],rbp
    3570:	48 01 6b 20          	add    QWORD PTR [rbx+0x20],rbp
    3574:	4c 89 7b 28          	mov    QWORD PTR [rbx+0x28],r15
    3578:	48 01 6b 58          	add    QWORD PTR [rbx+0x58],rbp
    357c:	4c 89 73 30          	mov    QWORD PTR [rbx+0x30],r14
    3580:	48 01 ea             	add    rdx,rbp
    3583:	48 01 6b 50          	add    QWORD PTR [rbx+0x50],rbp
    3587:	48 89 53 18          	mov    QWORD PTR [rbx+0x18],rdx
    358b:	48 89 93 98 00 00 00 	mov    QWORD PTR [rbx+0x98],rdx
    3592:	48 8b 53 08          	mov    rdx,QWORD PTR [rbx+0x8]
    3596:	48 01 c2             	add    rdx,rax
    3599:	48 03 43 10          	add    rax,QWORD PTR [rbx+0x10]
    359d:	45 84 ed             	test   r13b,r13b
    35a0:	48 89 53 08          	mov    QWORD PTR [rbx+0x8],rdx
    35a4:	48 89 43 10          	mov    QWORD PTR [rbx+0x10],rax
    35a8:	48 8d 05 e9 07 23 00 	lea    rax,[rip+0x2307e9]        # 233d98 <__intel_security_cookie>
    35af:	48 8b 00             	mov    rax,QWORD PTR [rax]
    35b2:	48 89 85 38 f8 fe ff 	mov    QWORD PTR [rbp-0x107c8],rax
    35b9:	74 08                	je     35c3 <do_init_thread+0xb3>
    35bb:	48 c7 43 30 01 00 00 	mov    QWORD PTR [rbx+0x30],0x1
    35c2:	00 
    35c3:	4d 85 e4             	test   r12,r12
    35c6:	75 70                	jne    3638 <do_init_thread+0x128>
    35c8:	48 8d 05 d5 07 23 00 	lea    rax,[rip+0x2307d5]        # 233da4 <EDMM_supported>
    35cf:	8b 00                	mov    eax,DWORD PTR [rax]
    35d1:	85 c0                	test   eax,eax
    35d3:	75 73                	jne    3648 <do_init_thread+0x138>
    35d5:	48 8d 3d 24 ca ff ff 	lea    rdi,[rip+0xffffffffffffca24]        # 0 <enclave.so>
    35dc:	48 8d 54 24 10       	lea    rdx,[rsp+0x10]
    35e1:	48 8d 74 24 08       	lea    rsi,[rsp+0x8]
    35e6:	48 c7 44 24 08 00 00 	mov    QWORD PTR [rsp+0x8],0x0
    35ed:	00 00 
    35ef:	48 c7 44 24 10 00 00 	mov    QWORD PTR [rsp+0x10],0x0
    35f6:	00 00 
    35f8:	e8 33 15 00 00       	call   4b30 <elf_tls_info>
    35fd:	85 c0                	test   eax,eax
    35ff:	ba 01 00 00 00       	mov    edx,0x1
    3604:	75 0a                	jne    3610 <do_init_thread+0x100>
    3606:	48 83 7c 24 08 00    	cmp    QWORD PTR [rsp+0x8],0x0
    360c:	75 5a                	jne    3668 <do_init_thread+0x158>
    360e:	31 d2                	xor    edx,edx
    3610:	48 8b 4c 24 18       	mov    rcx,QWORD PTR [rsp+0x18]
    3615:	64 48 33 0c 25 28 00 	xor    rcx,QWORD PTR fs:0x28
    361c:	00 00 
    361e:	89 d0                	mov    eax,edx
    3620:	0f 85 a3 00 00 00    	jne    36c9 <do_init_thread+0x1b9>
    3626:	48 83 c4 28          	add    rsp,0x28
    362a:	5b                   	pop    rbx
    362b:	5d                   	pop    rbp
    362c:	41 5c                	pop    r12
    362e:	41 5d                	pop    r13
    3630:	41 5e                	pop    r14
    3632:	41 5f                	pop    r15
    3634:	c3                   	ret    
    3635:	0f 1f 00             	nop    DWORD PTR [rax]
    3638:	4c 89 a3 98 00 00 00 	mov    QWORD PTR [rbx+0x98],r12
    363f:	eb 94                	jmp    35d5 <do_init_thread+0xc5>
    3641:	0f 1f 80 00 00 00 00 	nop    DWORD PTR [rax+0x0]
    3648:	45 84 ed             	test   r13b,r13b
    364b:	74 6b                	je     36b8 <do_init_thread+0x1a8>
    364d:	e8 9e f6 ff ff       	call   2cf0 <get_dynamic_stack_max_page>
    3652:	89 c0                	mov    eax,eax
    3654:	48 c1 e0 0c          	shl    rax,0xc
    3658:	48 01 83 98 00 00 00 	add    QWORD PTR [rbx+0x98],rax
    365f:	e9 71 ff ff ff       	jmp    35d5 <do_init_thread+0xc5>
    3664:	0f 1f 40 00          	nop    DWORD PTR [rax+0x0]
    3668:	48 8b 03             	mov    rax,QWORD PTR [rbx]
    366b:	48 8b 7b 50          	mov    rdi,QWORD PTR [rbx+0x50]
    366f:	31 f6                	xor    esi,esi
    3671:	48 8d 90 ff 0f 00 00 	lea    rdx,[rax+0xfff]
    3678:	48 29 fa             	sub    rdx,rdi
    367b:	48 81 e7 00 f0 ff ff 	and    rdi,0xfffffffffffff000
    3682:	48 81 e2 00 f0 ff ff 	and    rdx,0xfffffffffffff000
    3689:	e8 72 4d 00 00       	call   8400 <memset>
    368e:	48 8b 7b 50          	mov    rdi,QWORD PTR [rbx+0x50]
    3692:	48 8b 03             	mov    rax,QWORD PTR [rbx]
    3695:	48 8b 54 24 10       	mov    rdx,QWORD PTR [rsp+0x10]
    369a:	48 29 f8             	sub    rax,rdi
    369d:	48 39 c2             	cmp    rdx,rax
    36a0:	0f 87 68 ff ff ff    	ja     360e <do_init_thread+0xfe>
    36a6:	48 8b 74 24 08       	mov    rsi,QWORD PTR [rsp+0x8]
    36ab:	e8 20 4d 00 00       	call   83d0 <memcpy>
    36b0:	e9 59 ff ff ff       	jmp    360e <do_init_thread+0xfe>
    36b5:	0f 1f 00             	nop    DWORD PTR [rax]
    36b8:	48 89 ef             	mov    rdi,rbp
    36bb:	e8 d0 f5 ff ff       	call   2c90 <is_dynamic_thread>
    36c0:	85 c0                	test   eax,eax
    36c2:	75 89                	jne    364d <do_init_thread+0x13d>
    36c4:	e9 0c ff ff ff       	jmp    35d5 <do_init_thread+0xc5>
    36c9:	e8 42 1a 00 00       	call   5110 <__stack_chk_fail>
    36ce:	66 90                	xchg   ax,ax

00000000000036d0 <do_ecall>:
    36d0:	55                   	push   rbp
    36d1:	48 89 e5             	mov    rbp,rsp
    36d4:	41 55                	push   r13
    36d6:	41 54                	push   r12
    36d8:	53                   	push   rbx
    36d9:	49 89 d5             	mov    r13,rdx
    36dc:	89 fb                	mov    ebx,edi
    36de:	49 89 f4             	mov    r12,rsi
    36e1:	48 83 ec 18          	sub    rsp,0x18
    36e5:	64 48 8b 04 25 28 00 	mov    rax,QWORD PTR fs:0x28
    36ec:	00 00 
    36ee:	48 89 45 d8          	mov    QWORD PTR [rbp-0x28],rax
    36f2:	31 c0                	xor    eax,eax
    36f4:	e8 6c 99 02 00       	call   2d065 <get_enclave_state>
    36f9:	83 f8 02             	cmp    eax,0x2
    36fc:	ba 01 00 00 00       	mov    edx,0x1
    3701:	74 25                	je     3728 <do_ecall+0x58>
    3703:	48 8b 4d d8          	mov    rcx,QWORD PTR [rbp-0x28]
    3707:	64 48 33 0c 25 28 00 	xor    rcx,QWORD PTR fs:0x28
    370e:	00 00 
    3710:	89 d0                	mov    eax,edx
    3712:	0f 85 c2 00 00 00    	jne    37da <do_ecall+0x10a>
    3718:	48 8d 65 e8          	lea    rsp,[rbp-0x18]
    371c:	5b                   	pop    rbx
    371d:	41 5c                	pop    r12
    371f:	41 5d                	pop    r13
    3721:	5d                   	pop    rbp
    3722:	c3                   	ret    
    3723:	0f 1f 44 00 00       	nop    DWORD PTR [rax+rax*1+0x0]
    3728:	e8 6b 99 02 00       	call   2d098 <get_thread_data>
    372d:	48 85 c0             	test   rax,rax
    3730:	74 3e                	je     3770 <do_ecall+0xa0>
    3732:	48 8b 78 08          	mov    rdi,QWORD PTR [rax+0x8]
    3736:	48 39 78 10          	cmp    QWORD PTR [rax+0x10],rdi
    373a:	74 24                	je     3760 <do_ecall+0x90>
    373c:	e8 57 99 02 00       	call   2d098 <get_thread_data>
    3741:	48 8b 48 08          	mov    rcx,QWORD PTR [rax+0x8]
    3745:	48 39 48 10          	cmp    QWORD PTR [rax+0x10],rcx
    3749:	74 3d                	je     3788 <do_ecall+0xb8>
    374b:	4c 89 e6             	mov    rsi,r12
    374e:	89 df                	mov    edi,ebx
    3750:	e8 0b fc ff ff       	call   3360 <_ZL10trts_ecalljPv>
    3755:	89 c2                	mov    edx,eax
    3757:	eb aa                	jmp    3703 <do_ecall+0x33>
    3759:	0f 1f 80 00 00 00 00 	nop    DWORD PTR [rax+0x0]
    3760:	48 8d 05 19 ba 02 00 	lea    rax,[rip+0x2ba19]        # 2f180 <g_global_data>
    3767:	48 8b 40 28          	mov    rax,QWORD PTR [rax+0x28]
    376b:	48 85 c0             	test   rax,rax
    376e:	74 cc                	je     373c <do_ecall+0x6c>
    3770:	31 f6                	xor    esi,esi
    3772:	4c 89 ef             	mov    rdi,r13
    3775:	e8 96 fd ff ff       	call   3510 <do_init_thread>
    377a:	85 c0                	test   eax,eax
    377c:	89 c2                	mov    edx,eax
    377e:	74 bc                	je     373c <do_ecall+0x6c>
    3780:	eb 81                	jmp    3703 <do_ecall+0x33>
    3782:	66 0f 1f 44 00 00    	nop    WORD PTR [rax+rax*1+0x0]
    3788:	49 89 e5             	mov    r13,rsp
    378b:	0f c7 f6             	rdrand esi
    378e:	81 e6 ff 07 00 00    	and    esi,0x7ff
    3794:	83 c6 01             	add    esi,0x1
    3797:	48 8d 46 0f          	lea    rax,[rsi+0xf]
    379b:	25 f0 1f 00 00       	and    eax,0x1ff0
    37a0:	48 29 c4             	sub    rsp,rax
    37a3:	48 8d 05 fa 05 23 00 	lea    rax,[rip+0x2305fa]        # 233da4 <EDMM_supported>
    37aa:	8b 00                	mov    eax,DWORD PTR [rax]
    37ac:	85 c0                	test   eax,eax
    37ae:	74 20                	je     37d0 <do_ecall+0x100>
    37b0:	48 8d 3d a9 fb ff ff 	lea    rdi,[rip+0xfffffffffffffba9]        # 3360 <_ZL10trts_ecalljPv>
    37b7:	4c 89 e2             	mov    rdx,r12
    37ba:	89 de                	mov    esi,ebx
    37bc:	e8 8f fb ff ff       	call   3350 <_Z30_random_stack_noinline_wrapperI9_status_tJjPvEJRiRS1_EET_PFS4_DpT0_EDpOT1_.isra.0>
    37c1:	89 c2                	mov    edx,eax
    37c3:	4c 89 ec             	mov    rsp,r13
    37c6:	e9 38 ff ff ff       	jmp    3703 <do_ecall+0x33>
    37cb:	0f 1f 44 00 00       	nop    DWORD PTR [rax+rax*1+0x0]
    37d0:	48 89 e7             	mov    rdi,rsp
    37d3:	e8 d8 f0 ff ff       	call   28b0 <random_stack_notify_gdb>
    37d8:	eb d6                	jmp    37b0 <do_ecall+0xe0>
    37da:	e8 31 19 00 00       	call   5110 <__stack_chk_fail>
    37df:	90                   	nop

00000000000037e0 <do_ecall_add_thread>:
    37e0:	55                   	push   rbp
    37e1:	53                   	push   rbx
    37e2:	48 89 fb             	mov    rbx,rdi
    37e5:	48 83 ec 18          	sub    rsp,0x18
    37e9:	64 48 8b 04 25 28 00 	mov    rax,QWORD PTR fs:0x28
    37f0:	00 00 
    37f2:	48 89 44 24 08       	mov    QWORD PTR [rsp+0x8],rax
    37f7:	31 c0                	xor    eax,eax
    37f9:	e8 9a 98 02 00       	call   2d098 <get_thread_data>
    37fe:	48 85 c0             	test   rax,rax
    3801:	0f 84 59 01 00 00    	je     3960 <do_ecall_add_thread+0x180>
    3807:	f6 40 30 01          	test   BYTE PTR [rax+0x30],0x1
    380b:	0f 84 4f 01 00 00    	je     3960 <do_ecall_add_thread+0x180>
    3811:	48 85 db             	test   rbx,rbx
    3814:	0f 84 46 01 00 00    	je     3960 <do_ecall_add_thread+0x180>
    381a:	be 08 00 00 00       	mov    esi,0x8
    381f:	48 89 df             	mov    rdi,rbx
    3822:	e8 79 ed ff ff       	call   25a0 <sgx_is_outside_enclave>
    3827:	85 c0                	test   eax,eax
    3829:	0f 84 31 01 00 00    	je     3960 <do_ecall_add_thread+0x180>
    382f:	48 8b 2b             	mov    rbp,QWORD PTR [rbx]
    3832:	48 85 ed             	test   rbp,rbp
    3835:	0f 84 25 01 00 00    	je     3960 <do_ecall_add_thread+0x180>
    383b:	0f ae e8             	lfence 
    383e:	e8 55 98 02 00       	call   2d098 <get_thread_data>
    3843:	48 85 c0             	test   rax,rax
    3846:	0f 84 14 01 00 00    	je     3960 <do_ecall_add_thread+0x180>
    384c:	f6 40 30 01          	test   BYTE PTR [rax+0x30],0x1
    3850:	0f 84 0a 01 00 00    	je     3960 <do_ecall_add_thread+0x180>
    3856:	48 83 3d 6a 14 23 00 	cmp    QWORD PTR [rip+0x23146a],0x0        # 234cc8 <_ZL12g_tcs_cookie>
    385d:	00 
    385e:	0f 84 c5 00 00 00    	je     3929 <do_ecall_add_thread+0x149>
    3864:	bf 10 00 00 00       	mov    edi,0x10
    3869:	e8 02 21 00 00       	call   5970 <dlmalloc>
    386e:	48 85 c0             	test   rax,rax
    3871:	0f 84 e9 00 00 00    	je     3960 <do_ecall_add_thread+0x180>
    3877:	48 8b 15 4a 14 23 00 	mov    rdx,QWORD PTR [rip+0x23144a]        # 234cc8 <_ZL12g_tcs_cookie>
    387e:	48 89 ef             	mov    rdi,rbp
    3881:	48 31 ea             	xor    rdx,rbp
    3884:	48 89 10             	mov    QWORD PTR [rax],rdx
    3887:	48 8b 15 42 14 23 00 	mov    rdx,QWORD PTR [rip+0x231442]        # 234cd0 <_ZL10g_tcs_node>
    388e:	48 89 05 3b 14 23 00 	mov    QWORD PTR [rip+0x23143b],rax        # 234cd0 <_ZL10g_tcs_node>
    3895:	48 89 50 08          	mov    QWORD PTR [rax+0x8],rdx
    3899:	e8 a2 f8 ff ff       	call   3140 <do_add_thread>
    389e:	85 c0                	test   eax,eax
    38a0:	89 c3                	mov    ebx,eax
    38a2:	0f 84 bd 00 00 00    	je     3965 <do_ecall_add_thread+0x185>
    38a8:	e8 eb 97 02 00       	call   2d098 <get_thread_data>
    38ad:	48 85 c0             	test   rax,rax
    38b0:	0f 84 af 00 00 00    	je     3965 <do_ecall_add_thread+0x185>
    38b6:	f6 40 30 01          	test   BYTE PTR [rax+0x30],0x1
    38ba:	0f 84 a5 00 00 00    	je     3965 <do_ecall_add_thread+0x185>
    38c0:	48 8b 3d 09 14 23 00 	mov    rdi,QWORD PTR [rip+0x231409]        # 234cd0 <_ZL10g_tcs_node>
    38c7:	48 85 ff             	test   rdi,rdi
    38ca:	0f 84 95 00 00 00    	je     3965 <do_ecall_add_thread+0x185>
    38d0:	48 8b 35 f1 13 23 00 	mov    rsi,QWORD PTR [rip+0x2313f1]        # 234cc8 <_ZL12g_tcs_cookie>
    38d7:	48 8b 07             	mov    rax,QWORD PTR [rdi]
    38da:	48 8b 57 08          	mov    rdx,QWORD PTR [rdi+0x8]
    38de:	48 31 f0             	xor    rax,rsi
    38e1:	48 39 c5             	cmp    rbp,rax
    38e4:	0f 84 b3 00 00 00    	je     399d <do_ecall_add_thread+0x1bd>
    38ea:	48 85 d2             	test   rdx,rdx
    38ed:	74 76                	je     3965 <do_ecall_add_thread+0x185>
    38ef:	48 8b 02             	mov    rax,QWORD PTR [rdx]
    38f2:	48 31 f0             	xor    rax,rsi
    38f5:	48 39 c5             	cmp    rbp,rax
    38f8:	75 09                	jne    3903 <do_ecall_add_thread+0x123>
    38fa:	e9 ac 00 00 00       	jmp    39ab <do_ecall_add_thread+0x1cb>
    38ff:	90                   	nop
    3900:	48 89 c2             	mov    rdx,rax
    3903:	48 8b 42 08          	mov    rax,QWORD PTR [rdx+0x8]
    3907:	48 85 c0             	test   rax,rax
    390a:	74 59                	je     3965 <do_ecall_add_thread+0x185>
    390c:	48 8b 08             	mov    rcx,QWORD PTR [rax]
    390f:	48 31 f1             	xor    rcx,rsi
    3912:	48 39 cd             	cmp    rbp,rcx
    3915:	75 e9                	jne    3900 <do_ecall_add_thread+0x120>
    3917:	48 8b 48 08          	mov    rcx,QWORD PTR [rax+0x8]
    391b:	48 89 c7             	mov    rdi,rax
    391e:	48 89 4a 08          	mov    QWORD PTR [rdx+0x8],rcx
    3922:	e8 49 3a 00 00       	call   7370 <dlfree>
    3927:	eb 3c                	jmp    3965 <do_ecall_add_thread+0x185>
    3929:	48 c7 04 24 00 00 00 	mov    QWORD PTR [rsp],0x0
    3930:	00 
    3931:	48 89 e3             	mov    rbx,rsp
    3934:	eb 13                	jmp    3949 <do_ecall_add_thread+0x169>
    3936:	66 2e 0f 1f 84 00 00 	nop    WORD PTR cs:[rax+rax*1+0x0]
    393d:	00 00 00 
    3940:	48 8b 04 24          	mov    rax,QWORD PTR [rsp]
    3944:	48 85 c0             	test   rax,rax
    3947:	75 35                	jne    397e <do_ecall_add_thread+0x19e>
    3949:	be 08 00 00 00       	mov    esi,0x8
    394e:	48 89 df             	mov    rdi,rbx
    3951:	e8 da ed ff ff       	call   2730 <sgx_read_rand>
    3956:	85 c0                	test   eax,eax
    3958:	74 e6                	je     3940 <do_ecall_add_thread+0x160>
    395a:	66 0f 1f 44 00 00    	nop    WORD PTR [rax+rax*1+0x0]
    3960:	bb 01 00 00 00       	mov    ebx,0x1
    3965:	48 8b 4c 24 08       	mov    rcx,QWORD PTR [rsp+0x8]
    396a:	64 48 33 0c 25 28 00 	xor    rcx,QWORD PTR fs:0x28
    3971:	00 00 
    3973:	89 d8                	mov    eax,ebx
    3975:	75 21                	jne    3998 <do_ecall_add_thread+0x1b8>
    3977:	48 83 c4 18          	add    rsp,0x18
    397b:	5b                   	pop    rbx
    397c:	5d                   	pop    rbp
    397d:	c3                   	ret    
    397e:	48 83 3d 42 13 23 00 	cmp    QWORD PTR [rip+0x231342],0x0        # 234cc8 <_ZL12g_tcs_cookie>
    3985:	00 
    3986:	0f 85 d8 fe ff ff    	jne    3864 <do_ecall_add_thread+0x84>
    398c:	48 89 05 35 13 23 00 	mov    QWORD PTR [rip+0x231335],rax        # 234cc8 <_ZL12g_tcs_cookie>
    3993:	e9 cc fe ff ff       	jmp    3864 <do_ecall_add_thread+0x84>
    3998:	e8 73 17 00 00       	call   5110 <__stack_chk_fail>
    399d:	48 89 15 2c 13 23 00 	mov    QWORD PTR [rip+0x23132c],rdx        # 234cd0 <_ZL10g_tcs_node>
    39a4:	e8 c7 39 00 00       	call   7370 <dlfree>
    39a9:	eb ba                	jmp    3965 <do_ecall_add_thread+0x185>
    39ab:	48 89 d0             	mov    rax,rdx
    39ae:	48 89 fa             	mov    rdx,rdi
    39b1:	e9 61 ff ff ff       	jmp    3917 <do_ecall_add_thread+0x137>
    39b6:	66 2e 0f 1f 84 00 00 	nop    WORD PTR cs:[rax+rax*1+0x0]
    39bd:	00 00 00 

00000000000039c0 <do_uninit_enclave>:
    39c0:	48 8d 05 dd 03 23 00 	lea    rax,[rip+0x2303dd]        # 233da4 <EDMM_supported>
    39c7:	41 54                	push   r12
    39c9:	55                   	push   rbp
    39ca:	53                   	push   rbx
    39cb:	48 89 fd             	mov    rbp,rdi
    39ce:	8b 00                	mov    eax,DWORD PTR [rax]
    39d0:	85 c0                	test   eax,eax
    39d2:	0f 85 88 00 00 00    	jne    3a60 <do_uninit_enclave+0xa0>
    39d8:	48 8b 1d f1 12 23 00 	mov    rbx,QWORD PTR [rip+0x2312f1]        # 234cd0 <_ZL10g_tcs_node>
    39df:	48 c7 05 e6 12 23 00 	mov    QWORD PTR [rip+0x2312e6],0x0        # 234cd0 <_ZL10g_tcs_node>
    39e6:	00 00 00 00 
    39ea:	48 85 db             	test   rbx,rbx
    39ed:	74 39                	je     3a28 <do_uninit_enclave+0x68>
    39ef:	90                   	nop
    39f0:	48 8b 33             	mov    rsi,QWORD PTR [rbx]
    39f3:	48 33 35 ce 12 23 00 	xor    rsi,QWORD PTR [rip+0x2312ce]        # 234cc8 <_ZL12g_tcs_cookie>
    39fa:	48 39 f5             	cmp    rbp,rsi
    39fd:	74 15                	je     3a14 <do_uninit_enclave+0x54>
    39ff:	48 8d 96 00 10 00 00 	lea    rdx,[rsi+0x1000]
    3a06:	bf 10 04 00 00       	mov    edi,0x410
    3a0b:	e8 50 f3 ff ff       	call   2d60 <sgx_accept_forward>
    3a10:	85 c0                	test   eax,eax
    3a12:	75 60                	jne    3a74 <do_uninit_enclave+0xb4>
    3a14:	4c 8b 63 08          	mov    r12,QWORD PTR [rbx+0x8]
    3a18:	48 89 df             	mov    rdi,rbx
    3a1b:	e8 50 39 00 00       	call   7370 <dlfree>
    3a20:	4c 89 e3             	mov    rbx,r12
    3a23:	48 85 db             	test   rbx,rbx
    3a26:	75 c8                	jne    39f0 <do_uninit_enclave+0x30>
    3a28:	48 8d 3d 95 12 23 00 	lea    rdi,[rip+0x231295]        # 234cc4 <_ZL10g_ife_lock>
    3a2f:	e8 3c 4d 00 00       	call   8770 <sgx_spin_lock>
    3a34:	0f b6 05 cd 05 23 00 	movzx  eax,BYTE PTR [rip+0x2305cd]        # 234008 <_ZL16g_is_first_ecall>
    3a3b:	84 c0                	test   al,al
    3a3d:	74 41                	je     3a80 <do_uninit_enclave+0xc0>
    3a3f:	48 8d 3d 7e 12 23 00 	lea    rdi,[rip+0x23127e]        # 234cc4 <_ZL10g_ife_lock>
    3a46:	e8 85 4d 00 00       	call   87d0 <sgx_spin_unlock>
    3a4b:	bf 03 00 00 00       	mov    edi,0x3
    3a50:	e8 1d 96 02 00       	call   2d072 <set_enclave_state>
    3a55:	5b                   	pop    rbx
    3a56:	31 c0                	xor    eax,eax
    3a58:	5d                   	pop    rbp
    3a59:	41 5c                	pop    r12
    3a5b:	c3                   	ret    
    3a5c:	0f 1f 40 00          	nop    DWORD PTR [rax+0x0]
    3a60:	e8 33 96 02 00       	call   2d098 <get_thread_data>
    3a65:	48 85 c0             	test   rax,rax
    3a68:	74 0a                	je     3a74 <do_uninit_enclave+0xb4>
    3a6a:	f6 40 30 01          	test   BYTE PTR [rax+0x30],0x1
    3a6e:	0f 85 64 ff ff ff    	jne    39d8 <do_uninit_enclave+0x18>
    3a74:	5b                   	pop    rbx
    3a75:	b8 01 00 00 00       	mov    eax,0x1
    3a7a:	5d                   	pop    rbp
    3a7b:	41 5c                	pop    r12
    3a7d:	c3                   	ret    
    3a7e:	66 90                	xchg   ax,ax
    3a80:	e8 ab 15 00 00       	call   5030 <uninit_global_object>
    3a85:	eb b8                	jmp    3a3f <do_uninit_enclave+0x7f>
    3a87:	66 0f 1f 84 00 00 00 	nop    WORD PTR [rax+rax*1+0x0]
    3a8e:	00 00 

0000000000003a90 <trts_mprotect>:
    3a90:	4c 8d 54 24 08       	lea    r10,[rsp+0x8]
    3a95:	48 83 e4 c0          	and    rsp,0xffffffffffffffc0
    3a99:	41 ff 72 f8          	push   QWORD PTR [r10-0x8]
    3a9d:	55                   	push   rbp
    3a9e:	48 89 e5             	mov    rbp,rsp
    3aa1:	41 56                	push   r14
    3aa3:	41 55                	push   r13
    3aa5:	41 54                	push   r12
    3aa7:	41 52                	push   r10
    3aa9:	53                   	push   rbx
    3aaa:	48 81 ec 88 00 00 00 	sub    rsp,0x88
    3ab1:	64 48 8b 04 25 28 00 	mov    rax,QWORD PTR fs:0x28
    3ab8:	00 00 
    3aba:	48 89 45 c8          	mov    QWORD PTR [rbp-0x38],rax
    3abe:	31 c0                	xor    eax,eax
    3ac0:	f7 c7 ff 0f 00 00    	test   edi,0xfff
    3ac6:	b8 02 00 00 00       	mov    eax,0x2
    3acb:	0f 85 8f 00 00 00    	jne    3b60 <trts_mprotect+0xd0>
    3ad1:	48 85 f6             	test   rsi,rsi
    3ad4:	49 89 f4             	mov    r12,rsi
    3ad7:	0f 84 83 00 00 00    	je     3b60 <trts_mprotect+0xd0>
    3add:	f7 c6 ff 0f 00 00    	test   esi,0xfff
    3ae3:	75 7b                	jne    3b60 <trts_mprotect+0xd0>
    3ae5:	48 8d 05 b4 02 23 00 	lea    rax,[rip+0x2302b4]        # 233da0 <g_sdk_version>
    3aec:	48 89 fb             	mov    rbx,rdi
    3aef:	49 89 d5             	mov    r13,rdx
    3af2:	83 38 01             	cmp    DWORD PTR [rax],0x1
    3af5:	0f 84 8d 00 00 00    	je     3b88 <trts_mprotect+0xf8>
    3afb:	4c 8d b5 50 ff ff ff 	lea    r14,[rbp-0xb0]
    3b02:	4c 89 e8             	mov    rax,r13
    3b05:	31 f6                	xor    esi,esi
    3b07:	48 0d 20 02 00 00    	or     rax,0x220
    3b0d:	ba 38 00 00 00       	mov    edx,0x38
    3b12:	49 01 dc             	add    r12,rbx
    3b15:	49 8d 7e 08          	lea    rdi,[r14+0x8]
    3b19:	48 89 85 50 ff ff ff 	mov    QWORD PTR [rbp-0xb0],rax
    3b20:	41 83 e5 06          	and    r13d,0x6
    3b24:	e8 d7 48 00 00       	call   8400 <memset>
    3b29:	4c 39 e3             	cmp    rbx,r12
    3b2c:	73 2e                	jae    3b5c <trts_mprotect+0xcc>
    3b2e:	66 90                	xchg   ax,ax
    3b30:	48 89 de             	mov    rsi,rbx
    3b33:	4c 89 f7             	mov    rdi,r14
    3b36:	e8 42 98 02 00       	call   2d37d <do_emodpe>
    3b3b:	49 83 fd 06          	cmp    r13,0x6
    3b3f:	74 0f                	je     3b50 <trts_mprotect+0xc0>
    3b41:	48 89 de             	mov    rsi,rbx
    3b44:	4c 89 f7             	mov    rdi,r14
    3b47:	e8 17 98 02 00       	call   2d363 <do_eaccept>
    3b4c:	85 c0                	test   eax,eax
    3b4e:	75 10                	jne    3b60 <trts_mprotect+0xd0>
    3b50:	48 81 c3 00 10 00 00 	add    rbx,0x1000
    3b57:	4c 39 e3             	cmp    rbx,r12
    3b5a:	72 d4                	jb     3b30 <trts_mprotect+0xa0>
    3b5c:	31 c0                	xor    eax,eax
    3b5e:	66 90                	xchg   ax,ax
    3b60:	48 8b 4d c8          	mov    rcx,QWORD PTR [rbp-0x38]
    3b64:	64 48 33 0c 25 28 00 	xor    rcx,QWORD PTR fs:0x28
    3b6b:	00 00 
    3b6d:	75 28                	jne    3b97 <trts_mprotect+0x107>
    3b6f:	48 81 c4 88 00 00 00 	add    rsp,0x88
    3b76:	5b                   	pop    rbx
    3b77:	41 5a                	pop    r10
    3b79:	41 5c                	pop    r12
    3b7b:	41 5d                	pop    r13
    3b7d:	41 5e                	pop    r14
    3b7f:	5d                   	pop    rbp
    3b80:	49 8d 62 f8          	lea    rsp,[r10-0x8]
    3b84:	c3                   	ret    
    3b85:	0f 1f 00             	nop    DWORD PTR [rax]
    3b88:	e8 13 00 00 00       	call   3ba0 <change_permissions_ocall>
    3b8d:	85 c0                	test   eax,eax
    3b8f:	0f 84 66 ff ff ff    	je     3afb <trts_mprotect+0x6b>
    3b95:	eb c9                	jmp    3b60 <trts_mprotect+0xd0>
    3b97:	e8 74 15 00 00       	call   5110 <__stack_chk_fail>
    3b9c:	0f 1f 40 00          	nop    DWORD PTR [rax+0x0]

0000000000003ba0 <change_permissions_ocall>:
    3ba0:	41 54                	push   r12
    3ba2:	55                   	push   rbp
    3ba3:	49 89 fc             	mov    r12,rdi
    3ba6:	53                   	push   rbx
    3ba7:	bf 18 00 00 00       	mov    edi,0x18
    3bac:	48 89 f5             	mov    rbp,rsi
    3baf:	48 89 d3             	mov    rbx,rdx
    3bb2:	e8 39 ea ff ff       	call   25f0 <sgx_ocalloc>
    3bb7:	48 85 c0             	test   rax,rax
    3bba:	74 2c                	je     3be8 <change_permissions_ocall+0x48>
    3bbc:	4c 89 20             	mov    QWORD PTR [rax],r12
    3bbf:	48 89 68 08          	mov    QWORD PTR [rax+0x8],rbp
    3bc3:	48 89 c6             	mov    rsi,rax
    3bc6:	48 89 58 10          	mov    QWORD PTR [rax+0x10],rbx
    3bca:	bf fc ff ff ff       	mov    edi,0xfffffffc
    3bcf:	e8 5c 00 00 00       	call   3c30 <sgx_ocall>
    3bd4:	89 c3                	mov    ebx,eax
    3bd6:	e8 05 eb ff ff       	call   26e0 <sgx_ocfree>
    3bdb:	89 d8                	mov    eax,ebx
    3bdd:	5b                   	pop    rbx
    3bde:	5d                   	pop    rbp
    3bdf:	41 5c                	pop    r12
    3be1:	c3                   	ret    
    3be2:	66 0f 1f 44 00 00    	nop    WORD PTR [rax+rax*1+0x0]
    3be8:	bb 01 00 00 00       	mov    ebx,0x1
    3bed:	e8 ee ea ff ff       	call   26e0 <sgx_ocfree>
    3bf2:	89 d8                	mov    eax,ebx
    3bf4:	5b                   	pop    rbx
    3bf5:	5d                   	pop    rbp
    3bf6:	41 5c                	pop    r12
    3bf8:	c3                   	ret    
    3bf9:	0f 1f 80 00 00 00 00 	nop    DWORD PTR [rax+0x0]

0000000000003c00 <_Z12trace_eenteri>:
    3c00:	48 8b 34 24          	mov    rsi,QWORD PTR [rsp]
    3c04:	48 63 d7             	movsxd rdx,edi
    3c07:	bf 4e 00 00 00       	mov    edi,0x4e
    3c0c:	e9 cf e3 ff ff       	jmp    1fe0 <_Z9elaboratecPvS_>
    3c11:	66 2e 0f 1f 84 00 00 	nop    WORD PTR cs:[rax+rax*1+0x0]
    3c18:	00 00 00 
    3c1b:	0f 1f 44 00 00       	nop    DWORD PTR [rax+rax*1+0x0]

0000000000003c20 <_Z12trace_eexit2v>:
    3c20:	48 8b 34 24          	mov    rsi,QWORD PTR [rsp]
    3c24:	31 d2                	xor    edx,edx
    3c26:	bf 54 00 00 00       	mov    edi,0x54
    3c2b:	e9 b0 e3 ff ff       	jmp    1fe0 <_Z9elaboratecPvS_>

0000000000003c30 <sgx_ocall>:
    3c30:	8d 47 05             	lea    eax,[rdi+0x5]
    3c33:	83 f8 03             	cmp    eax,0x3
    3c36:	76 12                	jbe    3c4a <sgx_ocall+0x1a>
    3c38:	85 ff                	test   edi,edi
    3c3a:	74 0e                	je     3c4a <sgx_ocall+0x1a>
    3c3c:	48 8d 15 fd 97 02 00 	lea    rdx,[rip+0x297fd]        # 2d440 <g_dyn_entry_table>
    3c43:	89 f8                	mov    eax,edi
    3c45:	48 3b 02             	cmp    rax,QWORD PTR [rdx]
    3c48:	73 06                	jae    3c50 <sgx_ocall+0x20>
    3c4a:	e9 5f 96 02 00       	jmp    2d2ae <__morestack>
    3c4f:	90                   	nop
    3c50:	b8 01 10 00 00       	mov    eax,0x1001
    3c55:	c3                   	ret    
    3c56:	66 2e 0f 1f 84 00 00 	nop    WORD PTR cs:[rax+rax*1+0x0]
    3c5d:	00 00 00 

0000000000003c60 <update_ocall_lastsp>:
    3c60:	53                   	push   rbx
    3c61:	48 89 fb             	mov    rbx,rdi
    3c64:	e8 2f 94 02 00       	call   2d098 <get_thread_data>
    3c69:	48 8b 50 08          	mov    rdx,QWORD PTR [rax+0x8]
    3c6d:	48 39 50 10          	cmp    QWORD PTR [rax+0x10],rdx
    3c71:	48 89 53 30          	mov    QWORD PTR [rbx+0x30],rdx
    3c75:	74 21                	je     3c98 <update_ocall_lastsp+0x38>
    3c77:	48 8b b2 90 00 00 00 	mov    rsi,QWORD PTR [rdx+0x90]
    3c7e:	48 8d 4e 01          	lea    rcx,[rsi+0x1]
    3c82:	48 89 8b 90 00 00 00 	mov    QWORD PTR [rbx+0x90],rcx
    3c89:	48 89 58 08          	mov    QWORD PTR [rax+0x8],rbx
    3c8d:	48 89 d0             	mov    rax,rdx
    3c90:	5b                   	pop    rbx
    3c91:	c3                   	ret    
    3c92:	66 0f 1f 44 00 00    	nop    WORD PTR [rax+rax*1+0x0]
    3c98:	48 c7 83 90 00 00 00 	mov    QWORD PTR [rbx+0x90],0x1
    3c9f:	01 00 00 00 
    3ca3:	48 89 58 08          	mov    QWORD PTR [rax+0x8],rbx
    3ca7:	48 89 d0             	mov    rax,rdx
    3caa:	5b                   	pop    rbx
    3cab:	c3                   	ret    
    3cac:	0f 1f 40 00          	nop    DWORD PTR [rax+0x0]

0000000000003cb0 <trace_context_generation>:
    3cb0:	48 83 ec 38          	sub    rsp,0x38
    3cb4:	64 48 8b 04 25 28 00 	mov    rax,QWORD PTR fs:0x28
    3cbb:	00 00 
    3cbd:	48 89 44 24 28       	mov    QWORD PTR [rsp+0x28],rax
    3cc2:	31 c0                	xor    eax,eax
    3cc4:	48 85 ff             	test   rdi,rdi
    3cc7:	74 0d                	je     3cd6 <trace_context_generation+0x26>
    3cc9:	48 89 e2             	mov    rdx,rsp
    3ccc:	be 14 00 00 00       	mov    esi,0x14
    3cd1:	e8 8a 0f 02 00       	call   24c60 <sgx_sha256_msg>
    3cd6:	48 8b 14 24          	mov    rdx,QWORD PTR [rsp]
    3cda:	48 8b 74 24 38       	mov    rsi,QWORD PTR [rsp+0x38]
    3cdf:	bf 47 00 00 00       	mov    edi,0x47
    3ce4:	e8 f7 e2 ff ff       	call   1fe0 <_Z9elaboratecPvS_>
    3ce9:	48 8b 44 24 28       	mov    rax,QWORD PTR [rsp+0x28]
    3cee:	64 48 33 04 25 28 00 	xor    rax,QWORD PTR fs:0x28
    3cf5:	00 00 
    3cf7:	75 05                	jne    3cfe <trace_context_generation+0x4e>
    3cf9:	48 83 c4 38          	add    rsp,0x38
    3cfd:	c3                   	ret    
    3cfe:	e8 0d 14 00 00       	call   5110 <__stack_chk_fail>
    3d03:	66 2e 0f 1f 84 00 00 	nop    WORD PTR cs:[rax+rax*1+0x0]
    3d0a:	00 00 00 
    3d0d:	0f 1f 00             	nop    DWORD PTR [rax]

0000000000003d10 <trace_eexit>:
    3d10:	48 8b 34 24          	mov    rsi,QWORD PTR [rsp]
    3d14:	31 d2                	xor    edx,edx
    3d16:	bf 44 00 00 00       	mov    edi,0x44
    3d1b:	e9 c0 e2 ff ff       	jmp    1fe0 <_Z9elaboratecPvS_>

0000000000003d20 <trace_context_consume>:
    3d20:	48 83 ec 38          	sub    rsp,0x38
    3d24:	64 48 8b 04 25 28 00 	mov    rax,QWORD PTR fs:0x28
    3d2b:	00 00 
    3d2d:	48 89 44 24 28       	mov    QWORD PTR [rsp+0x28],rax
    3d32:	31 c0                	xor    eax,eax
    3d34:	48 85 ff             	test   rdi,rdi
    3d37:	74 0d                	je     3d46 <trace_context_consume+0x26>
    3d39:	48 89 e2             	mov    rdx,rsp
    3d3c:	be 14 00 00 00       	mov    esi,0x14
    3d41:	e8 1a 0f 02 00       	call   24c60 <sgx_sha256_msg>
    3d46:	48 8b 14 24          	mov    rdx,QWORD PTR [rsp]
    3d4a:	48 8b 74 24 38       	mov    rsi,QWORD PTR [rsp+0x38]
    3d4f:	bf 43 00 00 00       	mov    edi,0x43
    3d54:	e8 87 e2 ff ff       	call   1fe0 <_Z9elaboratecPvS_>
    3d59:	48 8b 44 24 28       	mov    rax,QWORD PTR [rsp+0x28]
    3d5e:	64 48 33 04 25 28 00 	xor    rax,QWORD PTR fs:0x28
    3d65:	00 00 
    3d67:	75 05                	jne    3d6e <trace_context_consume+0x4e>
    3d69:	48 83 c4 38          	add    rsp,0x38
    3d6d:	c3                   	ret    
    3d6e:	e8 9d 13 00 00       	call   5110 <__stack_chk_fail>
    3d73:	66 2e 0f 1f 84 00 00 	nop    WORD PTR cs:[rax+rax*1+0x0]
    3d7a:	00 00 00 
    3d7d:	0f 1f 00             	nop    DWORD PTR [rax]

0000000000003d80 <do_oret>:
    3d80:	53                   	push   rbx
    3d81:	48 89 fb             	mov    rbx,rdi
    3d84:	48 83 ec 10          	sub    rsp,0x10
    3d88:	64 48 8b 04 25 28 00 	mov    rax,QWORD PTR fs:0x28
    3d8f:	00 00 
    3d91:	48 89 44 24 08       	mov    QWORD PTR [rsp+0x8],rax
    3d96:	31 c0                	xor    eax,eax
    3d98:	e8 fb 92 02 00       	call   2d098 <get_thread_data>
    3d9d:	48 8b 78 08          	mov    rdi,QWORD PTR [rax+0x8]
    3da1:	48 85 ff             	test   rdi,rdi
    3da4:	48 89 3c 24          	mov    QWORD PTR [rsp],rdi
    3da8:	74 46                	je     3df0 <do_oret+0x70>
    3daa:	48 89 e2             	mov    rdx,rsp
    3dad:	48 39 fa             	cmp    rdx,rdi
    3db0:	73 3e                	jae    3df0 <do_oret+0x70>
    3db2:	48 8b 50 10          	mov    rdx,QWORD PTR [rax+0x10]
    3db6:	48 8d 8a 10 ff ff ff 	lea    rcx,[rdx-0xf0]
    3dbd:	48 39 f9             	cmp    rcx,rdi
    3dc0:	72 2e                	jb     3df0 <do_oret+0x70>
    3dc2:	48 81 7f 20 44 49 43 	cmp    QWORD PTR [rdi+0x20],0x4f434944
    3dc9:	4f 
    3dca:	75 24                	jne    3df0 <do_oret+0x70>
    3dcc:	48 8b 4f 30          	mov    rcx,QWORD PTR [rdi+0x30]
    3dd0:	48 39 ca             	cmp    rdx,rcx
    3dd3:	72 1b                	jb     3df0 <do_oret+0x70>
    3dd5:	48 39 f9             	cmp    rcx,rdi
    3dd8:	76 16                	jbe    3df0 <do_oret+0x70>
    3dda:	48 89 48 08          	mov    QWORD PTR [rax+0x8],rcx
    3dde:	48 89 de             	mov    rsi,rbx
    3de1:	e8 d7 94 02 00       	call   2d2bd <asm_oret>
    3de6:	66 2e 0f 1f 84 00 00 	nop    WORD PTR cs:[rax+rax*1+0x0]
    3ded:	00 00 00 
    3df0:	48 8b 74 24 08       	mov    rsi,QWORD PTR [rsp+0x8]
    3df5:	64 48 33 34 25 28 00 	xor    rsi,QWORD PTR fs:0x28
    3dfc:	00 00 
    3dfe:	b8 01 00 00 00       	mov    eax,0x1
    3e03:	75 06                	jne    3e0b <do_oret+0x8b>
    3e05:	48 83 c4 10          	add    rsp,0x10
    3e09:	5b                   	pop    rbx
    3e0a:	c3                   	ret    
    3e0b:	e8 00 13 00 00       	call   5110 <__stack_chk_fail>

0000000000003e10 <do_init_switchless>:
    3e10:	b8 01 00 00 00       	mov    eax,0x1
    3e15:	c3                   	ret    
    3e16:	66 2e 0f 1f 84 00 00 	nop    WORD PTR cs:[rax+rax*1+0x0]
    3e1d:	00 00 00 

0000000000003e20 <do_run_switchless_tworker>:
    3e20:	b8 01 00 00 00       	mov    eax,0x1
    3e25:	c3                   	ret    
    3e26:	66 2e 0f 1f 84 00 00 	nop    WORD PTR cs:[rax+rax*1+0x0]
    3e2d:	00 00 00 

0000000000003e30 <trim_range_ocall>:
    3e30:	55                   	push   rbp
    3e31:	53                   	push   rbx
    3e32:	48 89 fd             	mov    rbp,rdi
    3e35:	bf 10 00 00 00       	mov    edi,0x10
    3e3a:	48 89 f3             	mov    rbx,rsi
    3e3d:	48 83 ec 08          	sub    rsp,0x8
    3e41:	e8 aa e7 ff ff       	call   25f0 <sgx_ocalloc>
    3e46:	48 85 c0             	test   rax,rax
    3e49:	74 25                	je     3e70 <trim_range_ocall+0x40>
    3e4b:	48 89 28             	mov    QWORD PTR [rax],rbp
    3e4e:	48 89 58 08          	mov    QWORD PTR [rax+0x8],rbx
    3e52:	48 89 c6             	mov    rsi,rax
    3e55:	bf fe ff ff ff       	mov    edi,0xfffffffe
    3e5a:	e8 d1 fd ff ff       	call   3c30 <sgx_ocall>
    3e5f:	89 c3                	mov    ebx,eax
    3e61:	e8 7a e8 ff ff       	call   26e0 <sgx_ocfree>
    3e66:	48 83 c4 08          	add    rsp,0x8
    3e6a:	89 d8                	mov    eax,ebx
    3e6c:	5b                   	pop    rbx
    3e6d:	5d                   	pop    rbp
    3e6e:	c3                   	ret    
    3e6f:	90                   	nop
    3e70:	e8 6b e8 ff ff       	call   26e0 <sgx_ocfree>
    3e75:	bb 01 00 00 00       	mov    ebx,0x1
    3e7a:	48 83 c4 08          	add    rsp,0x8
    3e7e:	89 d8                	mov    eax,ebx
    3e80:	5b                   	pop    rbx
    3e81:	5d                   	pop    rbp
    3e82:	c3                   	ret    
    3e83:	66 2e 0f 1f 84 00 00 	nop    WORD PTR cs:[rax+rax*1+0x0]
    3e8a:	00 00 00 
    3e8d:	0f 1f 00             	nop    DWORD PTR [rax]

0000000000003e90 <trim_range_commit_ocall>:
    3e90:	53                   	push   rbx
    3e91:	48 89 fb             	mov    rbx,rdi
    3e94:	bf 08 00 00 00       	mov    edi,0x8
    3e99:	e8 52 e7 ff ff       	call   25f0 <sgx_ocalloc>
    3e9e:	48 85 c0             	test   rax,rax
    3ea1:	74 1d                	je     3ec0 <trim_range_commit_ocall+0x30>
    3ea3:	48 89 18             	mov    QWORD PTR [rax],rbx
    3ea6:	48 89 c6             	mov    rsi,rax
    3ea9:	bf fd ff ff ff       	mov    edi,0xfffffffd
    3eae:	e8 7d fd ff ff       	call   3c30 <sgx_ocall>
    3eb3:	89 c3                	mov    ebx,eax
    3eb5:	e8 26 e8 ff ff       	call   26e0 <sgx_ocfree>
    3eba:	89 d8                	mov    eax,ebx
    3ebc:	5b                   	pop    rbx
    3ebd:	c3                   	ret    
    3ebe:	66 90                	xchg   ax,ax
    3ec0:	bb 01 00 00 00       	mov    ebx,0x1
    3ec5:	e8 16 e8 ff ff       	call   26e0 <sgx_ocfree>
    3eca:	89 d8                	mov    eax,ebx
    3ecc:	5b                   	pop    rbx
    3ecd:	c3                   	ret    
    3ece:	66 90                	xchg   ax,ax

0000000000003ed0 <get_heap_base>:
    3ed0:	48 8d 05 a9 b2 02 00 	lea    rax,[rip+0x2b2a9]        # 2f180 <g_global_data>
    3ed7:	48 8b 40 08          	mov    rax,QWORD PTR [rax+0x8]
    3edb:	48 03 05 a6 00 23 00 	add    rax,QWORD PTR [rip+0x2300a6]        # 233f88 <_GLOBAL_OFFSET_TABLE_+0x18>
    3ee2:	c3                   	ret    
    3ee3:	66 2e 0f 1f 84 00 00 	nop    WORD PTR cs:[rax+rax*1+0x0]
    3eea:	00 00 00 
    3eed:	0f 1f 00             	nop    DWORD PTR [rax]

0000000000003ef0 <get_heap_size>:
    3ef0:	48 8d 15 ad fe 22 00 	lea    rdx,[rip+0x22fead]        # 233da4 <EDMM_supported>
    3ef7:	48 8d 35 82 b2 02 00 	lea    rsi,[rip+0x2b282]        # 2f180 <g_global_data>
    3efe:	8b 12                	mov    edx,DWORD PTR [rdx]
    3f00:	48 8b 46 10          	mov    rax,QWORD PTR [rsi+0x10]
    3f04:	85 d2                	test   edx,edx
    3f06:	74 3d                	je     3f45 <get_heap_size+0x55>
    3f08:	8b 96 18 01 00 00    	mov    edx,DWORD PTR [rsi+0x118]
    3f0e:	85 d2                	test   edx,edx
    3f10:	74 33                	je     3f45 <get_heap_size+0x55>
    3f12:	31 c9                	xor    ecx,ecx
    3f14:	0f 1f 40 00          	nop    DWORD PTR [rax+0x0]
    3f18:	89 ca                	mov    edx,ecx
    3f1a:	48 83 c2 09          	add    rdx,0x9
    3f1e:	48 c1 e2 05          	shl    rdx,0x5
    3f22:	48 01 f2             	add    rdx,rsi
    3f25:	0f b7 3a             	movzx  edi,WORD PTR [rdx]
    3f28:	66 83 ff 03          	cmp    di,0x3
    3f2c:	75 0a                	jne    3f38 <get_heap_size+0x48>
    3f2e:	8b 52 04             	mov    edx,DWORD PTR [rdx+0x4]
    3f31:	48 c1 e2 0c          	shl    rdx,0xc
    3f35:	48 01 d0             	add    rax,rdx
    3f38:	8b 96 18 01 00 00    	mov    edx,DWORD PTR [rsi+0x118]
    3f3e:	83 c1 01             	add    ecx,0x1
    3f41:	39 ca                	cmp    edx,ecx
    3f43:	77 d3                	ja     3f18 <get_heap_size+0x28>
    3f45:	f3 c3                	repz ret 
    3f47:	66 0f 1f 84 00 00 00 	nop    WORD PTR [rax+rax*1+0x0]
    3f4e:	00 00 

0000000000003f50 <get_heap_min_size>:
    3f50:	48 8d 0d 29 b2 02 00 	lea    rcx,[rip+0x2b229]        # 2f180 <g_global_data>
    3f57:	8b 81 18 01 00 00    	mov    eax,DWORD PTR [rcx+0x118]
    3f5d:	85 c0                	test   eax,eax
    3f5f:	74 3a                	je     3f9b <get_heap_min_size+0x4b>
    3f61:	0f b7 81 20 01 00 00 	movzx  eax,WORD PTR [rcx+0x120]
    3f68:	66 83 f8 01          	cmp    ax,0x1
    3f6c:	74 32                	je     3fa0 <get_heap_min_size+0x50>
    3f6e:	31 d2                	xor    edx,edx
    3f70:	eb 1c                	jmp    3f8e <get_heap_min_size+0x3e>
    3f72:	66 0f 1f 44 00 00    	nop    WORD PTR [rax+rax*1+0x0]
    3f78:	89 d6                	mov    esi,edx
    3f7a:	48 8d 46 09          	lea    rax,[rsi+0x9]
    3f7e:	48 c1 e0 05          	shl    rax,0x5
    3f82:	48 01 c8             	add    rax,rcx
    3f85:	0f b7 00             	movzx  eax,WORD PTR [rax]
    3f88:	66 83 f8 01          	cmp    ax,0x1
    3f8c:	74 14                	je     3fa2 <get_heap_min_size+0x52>
    3f8e:	8b 81 18 01 00 00    	mov    eax,DWORD PTR [rcx+0x118]
    3f94:	83 c2 01             	add    edx,0x1
    3f97:	39 d0                	cmp    eax,edx
    3f99:	77 dd                	ja     3f78 <get_heap_min_size+0x28>
    3f9b:	31 c0                	xor    eax,eax
    3f9d:	c3                   	ret    
    3f9e:	66 90                	xchg   ax,ax
    3fa0:	31 f6                	xor    esi,esi
    3fa2:	48 83 c6 09          	add    rsi,0x9
    3fa6:	48 c1 e6 05          	shl    rsi,0x5
    3faa:	48 01 f1             	add    rcx,rsi
    3fad:	8b 41 04             	mov    eax,DWORD PTR [rcx+0x4]
    3fb0:	48 c1 e0 0c          	shl    rax,0xc
    3fb4:	c3                   	ret    
    3fb5:	66 2e 0f 1f 84 00 00 	nop    WORD PTR cs:[rax+rax*1+0x0]
    3fbc:	00 00 00 
    3fbf:	90                   	nop

0000000000003fc0 <get_errno_addr>:
    3fc0:	48 83 ec 08          	sub    rsp,0x8
    3fc4:	e8 cf 90 02 00       	call   2d098 <get_thread_data>
    3fc9:	48 83 c4 08          	add    rsp,0x8
    3fcd:	48 83 c0 40          	add    rax,0x40
    3fd1:	c3                   	ret    
    3fd2:	66 2e 0f 1f 84 00 00 	nop    WORD PTR cs:[rax+rax*1+0x0]
    3fd9:	00 00 00 
    3fdc:	0f 1f 40 00          	nop    DWORD PTR [rax+0x0]

0000000000003fe0 <feature_supported>:
    3fe0:	31 c0                	xor    eax,eax
    3fe2:	48 85 ff             	test   rdi,rdi
    3fe5:	74 3b                	je     4022 <feature_supported+0x42>
    3fe7:	31 d2                	xor    edx,edx
    3fe9:	eb 0d                	jmp    3ff8 <feature_supported+0x18>
    3feb:	0f 1f 44 00 00       	nop    DWORD PTR [rax+rax*1+0x0]
    3ff0:	48 85 c0             	test   rax,rax
    3ff3:	44 89 c2             	mov    edx,r8d
    3ff6:	78 28                	js     4020 <feature_supported+0x40>
    3ff8:	44 8d 42 01          	lea    r8d,[rdx+0x1]
    3ffc:	89 d0                	mov    eax,edx
    3ffe:	48 8b 04 c7          	mov    rax,QWORD PTR [rdi+rax*8]
    4002:	45 89 c1             	mov    r9d,r8d
    4005:	41 c1 e1 06          	shl    r9d,0x6
    4009:	44 39 ce             	cmp    esi,r9d
    400c:	73 e2                	jae    3ff0 <feature_supported+0x10>
    400e:	c1 e2 06             	shl    edx,0x6
    4011:	89 f1                	mov    ecx,esi
    4013:	29 d1                	sub    ecx,edx
    4015:	48 d3 e8             	shr    rax,cl
    4018:	83 e0 01             	and    eax,0x1
    401b:	c3                   	ret    
    401c:	0f 1f 40 00          	nop    DWORD PTR [rax+0x0]
    4020:	31 c0                	xor    eax,eax
    4022:	f3 c3                	repz ret 
    4024:	66 2e 0f 1f 84 00 00 	nop    WORD PTR cs:[rax+rax*1+0x0]
    402b:	00 00 00 
    402e:	66 90                	xchg   ax,ax

0000000000004030 <is_stack_addr>:
    4030:	55                   	push   rbp
    4031:	53                   	push   rbx
    4032:	48 89 f5             	mov    rbp,rsi
    4035:	48 89 fb             	mov    rbx,rdi
    4038:	48 83 ec 08          	sub    rsp,0x8
    403c:	e8 57 90 02 00       	call   2d098 <get_thread_data>
    4041:	31 c9                	xor    ecx,ecx
    4043:	48 01 dd             	add    rbp,rbx
    4046:	0f 92 c1             	setb   cl
    4049:	48 3b 68 10          	cmp    rbp,QWORD PTR [rax+0x10]
    404d:	0f 96 c2             	setbe  dl
    4050:	48 39 58 18          	cmp    QWORD PTR [rax+0x18],rbx
    4054:	0f 96 c0             	setbe  al
    4057:	21 d0                	and    eax,edx
    4059:	48 85 c9             	test   rcx,rcx
    405c:	0f 94 c2             	sete   dl
    405f:	48 83 c4 08          	add    rsp,0x8
    4063:	21 d0                	and    eax,edx
    4065:	5b                   	pop    rbx
    4066:	5d                   	pop    rbp
    4067:	c3                   	ret    
    4068:	0f 1f 84 00 00 00 00 	nop    DWORD PTR [rax+rax*1+0x0]
    406f:	00 

0000000000004070 <is_valid_sp>:
    4070:	40 f6 c7 07          	test   dil,0x7
    4074:	74 0a                	je     4080 <is_valid_sp+0x10>
    4076:	31 c0                	xor    eax,eax
    4078:	c3                   	ret    
    4079:	0f 1f 80 00 00 00 00 	nop    DWORD PTR [rax+0x0]
    4080:	53                   	push   rbx
    4081:	48 89 fb             	mov    rbx,rdi
    4084:	e8 0f 90 02 00       	call   2d098 <get_thread_data>
    4089:	48 3b 58 18          	cmp    rbx,QWORD PTR [rax+0x18]
    408d:	0f 93 c2             	setae  dl
    4090:	48 3b 58 10          	cmp    rbx,QWORD PTR [rax+0x10]
    4094:	5b                   	pop    rbx
    4095:	0f 96 c0             	setbe  al
    4098:	21 d0                	and    eax,edx
    409a:	c3                   	ret    
    409b:	0f 1f 44 00 00       	nop    DWORD PTR [rax+rax*1+0x0]

00000000000040a0 <sgx_register_exception_handler>:
    40a0:	41 54                	push   r12
    40a2:	55                   	push   rbp
    40a3:	41 89 fc             	mov    r12d,edi
    40a6:	53                   	push   rbx
    40a7:	48 89 f5             	mov    rbp,rsi
    40aa:	48 83 ec 10          	sub    rsp,0x10
    40ae:	64 48 8b 04 25 28 00 	mov    rax,QWORD PTR fs:0x28
    40b5:	00 00 
    40b7:	48 89 44 24 08       	mov    QWORD PTR [rsp+0x8],rax
    40bc:	31 c0                	xor    eax,eax
    40be:	48 83 3d 12 0c 23 00 	cmp    QWORD PTR [rip+0x230c12],0x0        # 234cd8 <_ZL12g_veh_cookie>
    40c5:	00 
    40c6:	0f 84 ac 00 00 00    	je     4178 <sgx_register_exception_handler+0xd8>
    40cc:	31 f6                	xor    esi,esi
    40ce:	48 89 ef             	mov    rdi,rbp
    40d1:	e8 7a e4 ff ff       	call   2550 <sgx_is_within_enclave>
    40d6:	85 c0                	test   eax,eax
    40d8:	0f 84 c2 00 00 00    	je     41a0 <sgx_register_exception_handler+0x100>
    40de:	bf 10 00 00 00       	mov    edi,0x10
    40e3:	e8 88 18 00 00       	call   5970 <dlmalloc>
    40e8:	48 85 c0             	test   rax,rax
    40eb:	48 89 c3             	mov    rbx,rax
    40ee:	0f 84 ac 00 00 00    	je     41a0 <sgx_register_exception_handler+0x100>
    40f4:	48 33 2d dd 0b 23 00 	xor    rbp,QWORD PTR [rip+0x230bdd]        # 234cd8 <_ZL12g_veh_cookie>
    40fb:	48 8d 3d de 0b 23 00 	lea    rdi,[rip+0x230bde]        # 234ce0 <_ZL14g_handler_lock>
    4102:	48 89 28             	mov    QWORD PTR [rax],rbp
    4105:	e8 66 46 00 00       	call   8770 <sgx_spin_lock>
    410a:	48 8b 05 d7 0b 23 00 	mov    rax,QWORD PTR [rip+0x230bd7]        # 234ce8 <_ZL12g_first_node>
    4111:	48 85 c0             	test   rax,rax
    4114:	74 05                	je     411b <sgx_register_exception_handler+0x7b>
    4116:	45 85 e4             	test   r12d,r12d
    4119:	74 40                	je     415b <sgx_register_exception_handler+0xbb>
    411b:	48 89 43 08          	mov    QWORD PTR [rbx+0x8],rax
    411f:	48 89 1d c2 0b 23 00 	mov    QWORD PTR [rip+0x230bc2],rbx        # 234ce8 <_ZL12g_first_node>
    4126:	48 8d 3d b3 0b 23 00 	lea    rdi,[rip+0x230bb3]        # 234ce0 <_ZL14g_handler_lock>
    412d:	e8 9e 46 00 00       	call   87d0 <sgx_spin_unlock>
    4132:	48 8b 4c 24 08       	mov    rcx,QWORD PTR [rsp+0x8]
    4137:	64 48 33 0c 25 28 00 	xor    rcx,QWORD PTR fs:0x28
    413e:	00 00 
    4140:	48 89 d8             	mov    rax,rbx
    4143:	0f 85 91 00 00 00    	jne    41da <sgx_register_exception_handler+0x13a>
    4149:	48 83 c4 10          	add    rsp,0x10
    414d:	5b                   	pop    rbx
    414e:	5d                   	pop    rbp
    414f:	41 5c                	pop    r12
    4151:	c3                   	ret    
    4152:	66 0f 1f 44 00 00    	nop    WORD PTR [rax+rax*1+0x0]
    4158:	48 89 d0             	mov    rax,rdx
    415b:	48 8b 50 08          	mov    rdx,QWORD PTR [rax+0x8]
    415f:	48 85 d2             	test   rdx,rdx
    4162:	75 f4                	jne    4158 <sgx_register_exception_handler+0xb8>
    4164:	48 c7 43 08 00 00 00 	mov    QWORD PTR [rbx+0x8],0x0
    416b:	00 
    416c:	48 89 58 08          	mov    QWORD PTR [rax+0x8],rbx
    4170:	eb b4                	jmp    4126 <sgx_register_exception_handler+0x86>
    4172:	66 0f 1f 44 00 00    	nop    WORD PTR [rax+rax*1+0x0]
    4178:	48 c7 04 24 00 00 00 	mov    QWORD PTR [rsp],0x0
    417f:	00 
    4180:	48 89 e3             	mov    rbx,rsp
    4183:	eb 0a                	jmp    418f <sgx_register_exception_handler+0xef>
    4185:	0f 1f 00             	nop    DWORD PTR [rax]
    4188:	48 83 3c 24 00       	cmp    QWORD PTR [rsp],0x0
    418d:	75 19                	jne    41a8 <sgx_register_exception_handler+0x108>
    418f:	be 08 00 00 00       	mov    esi,0x8
    4194:	48 89 df             	mov    rdi,rbx
    4197:	e8 94 e5 ff ff       	call   2730 <sgx_read_rand>
    419c:	85 c0                	test   eax,eax
    419e:	74 e8                	je     4188 <sgx_register_exception_handler+0xe8>
    41a0:	31 db                	xor    ebx,ebx
    41a2:	eb 8e                	jmp    4132 <sgx_register_exception_handler+0x92>
    41a4:	0f 1f 40 00          	nop    DWORD PTR [rax+0x0]
    41a8:	48 8d 3d 31 0b 23 00 	lea    rdi,[rip+0x230b31]        # 234ce0 <_ZL14g_handler_lock>
    41af:	e8 bc 45 00 00       	call   8770 <sgx_spin_lock>
    41b4:	48 83 3d 1c 0b 23 00 	cmp    QWORD PTR [rip+0x230b1c],0x0        # 234cd8 <_ZL12g_veh_cookie>
    41bb:	00 
    41bc:	75 0b                	jne    41c9 <sgx_register_exception_handler+0x129>
    41be:	48 8b 04 24          	mov    rax,QWORD PTR [rsp]
    41c2:	48 89 05 0f 0b 23 00 	mov    QWORD PTR [rip+0x230b0f],rax        # 234cd8 <_ZL12g_veh_cookie>
    41c9:	48 8d 3d 10 0b 23 00 	lea    rdi,[rip+0x230b10]        # 234ce0 <_ZL14g_handler_lock>
    41d0:	e8 fb 45 00 00       	call   87d0 <sgx_spin_unlock>
    41d5:	e9 f2 fe ff ff       	jmp    40cc <sgx_register_exception_handler+0x2c>
    41da:	e8 31 0f 00 00       	call   5110 <__stack_chk_fail>
    41df:	90                   	nop

00000000000041e0 <_Z26trace_exception_generationP17_exception_info_t>:
    41e0:	55                   	push   rbp
    41e1:	53                   	push   rbx
    41e2:	48 83 ec 48          	sub    rsp,0x48
    41e6:	64 48 8b 04 25 28 00 	mov    rax,QWORD PTR fs:0x28
    41ed:	00 00 
    41ef:	48 89 44 24 38       	mov    QWORD PTR [rsp+0x38],rax
    41f4:	31 c0                	xor    eax,eax
    41f6:	48 85 ff             	test   rdi,rdi
    41f9:	48 8d 5c 24 10       	lea    rbx,[rsp+0x10]
    41fe:	74 0d                	je     420d <_Z26trace_exception_generationP17_exception_info_t+0x2d>
    4200:	48 89 da             	mov    rdx,rbx
    4203:	be 13 00 00 00       	mov    esi,0x13
    4208:	e8 53 0a 02 00       	call   24c60 <sgx_sha256_msg>
    420d:	48 8d 7c 24 08       	lea    rdi,[rsp+0x8]
    4212:	48 8b 6c 24 58       	mov    rbp,QWORD PTR [rsp+0x58]
    4217:	ba 20 00 00 00       	mov    edx,0x20
    421c:	48 89 de             	mov    rsi,rbx
    421f:	e8 ac 41 00 00       	call   83d0 <memcpy>
    4224:	48 8b 54 24 08       	mov    rdx,QWORD PTR [rsp+0x8]
    4229:	48 89 ee             	mov    rsi,rbp
    422c:	bf 4a 00 00 00       	mov    edi,0x4a
    4231:	e8 aa dd ff ff       	call   1fe0 <_Z9elaboratecPvS_>
    4236:	48 8b 44 24 38       	mov    rax,QWORD PTR [rsp+0x38]
    423b:	64 48 33 04 25 28 00 	xor    rax,QWORD PTR fs:0x28
    4242:	00 00 
    4244:	75 07                	jne    424d <_Z26trace_exception_generationP17_exception_info_t+0x6d>
    4246:	48 83 c4 48          	add    rsp,0x48
    424a:	5b                   	pop    rbx
    424b:	5d                   	pop    rbp
    424c:	c3                   	ret    
    424d:	e8 be 0e 00 00       	call   5110 <__stack_chk_fail>
    4252:	66 2e 0f 1f 84 00 00 	nop    WORD PTR cs:[rax+rax*1+0x0]
    4259:	00 00 00 
    425c:	0f 1f 40 00          	nop    DWORD PTR [rax+0x0]

0000000000004260 <_Z27trace_exception_consumptionP17_exception_info_t>:
    4260:	55                   	push   rbp
    4261:	53                   	push   rbx
    4262:	48 83 ec 48          	sub    rsp,0x48
    4266:	64 48 8b 04 25 28 00 	mov    rax,QWORD PTR fs:0x28
    426d:	00 00 
    426f:	48 89 44 24 38       	mov    QWORD PTR [rsp+0x38],rax
    4274:	31 c0                	xor    eax,eax
    4276:	48 85 ff             	test   rdi,rdi
    4279:	48 8d 5c 24 10       	lea    rbx,[rsp+0x10]
    427e:	74 0d                	je     428d <_Z27trace_exception_consumptionP17_exception_info_t+0x2d>
    4280:	48 89 da             	mov    rdx,rbx
    4283:	be 13 00 00 00       	mov    esi,0x13
    4288:	e8 d3 09 02 00       	call   24c60 <sgx_sha256_msg>
    428d:	48 8d 7c 24 08       	lea    rdi,[rsp+0x8]
    4292:	48 8b 6c 24 58       	mov    rbp,QWORD PTR [rsp+0x58]
    4297:	ba 20 00 00 00       	mov    edx,0x20
    429c:	48 89 de             	mov    rsi,rbx
    429f:	e8 2c 41 00 00       	call   83d0 <memcpy>
    42a4:	48 8b 54 24 08       	mov    rdx,QWORD PTR [rsp+0x8]
    42a9:	48 89 ee             	mov    rsi,rbp
    42ac:	bf 4b 00 00 00       	mov    edi,0x4b
    42b1:	e8 2a dd ff ff       	call   1fe0 <_Z9elaboratecPvS_>
    42b6:	48 8b 44 24 38       	mov    rax,QWORD PTR [rsp+0x38]
    42bb:	64 48 33 04 25 28 00 	xor    rax,QWORD PTR fs:0x28
    42c2:	00 00 
    42c4:	75 07                	jne    42cd <_Z27trace_exception_consumptionP17_exception_info_t+0x6d>
    42c6:	48 83 c4 48          	add    rsp,0x48
    42ca:	5b                   	pop    rbx
    42cb:	5d                   	pop    rbp
    42cc:	c3                   	ret    
    42cd:	e8 3e 0e 00 00       	call   5110 <__stack_chk_fail>
    42d2:	66 2e 0f 1f 84 00 00 	nop    WORD PTR cs:[rax+rax*1+0x0]
    42d9:	00 00 00 
    42dc:	0f 1f 40 00          	nop    DWORD PTR [rax+0x0]

00000000000042e0 <_Z13trace_eresumev>:
    42e0:	48 8b 34 24          	mov    rsi,QWORD PTR [rsp]
    42e4:	31 d2                	xor    edx,edx
    42e6:	bf 4c 00 00 00       	mov    edi,0x4c
    42eb:	e9 f0 dc ff ff       	jmp    1fe0 <_Z9elaboratecPvS_>

00000000000042f0 <internal_handle_exception>:
    42f0:	41 57                	push   r15
    42f2:	41 56                	push   r14
    42f4:	41 55                	push   r13
    42f6:	41 54                	push   r12
    42f8:	49 89 fc             	mov    r12,rdi
    42fb:	55                   	push   rbp
    42fc:	53                   	push   rbx
    42fd:	48 83 ec 08          	sub    rsp,0x8
    4301:	e8 da ff ff ff       	call   42e0 <_Z13trace_eresumev>
    4306:	e8 8d 8d 02 00       	call   2d098 <get_thread_data>
    430b:	49 89 c5             	mov    r13,rax
    430e:	48 8b 40 60          	mov    rax,QWORD PTR [rax+0x60]
    4312:	48 85 c0             	test   rax,rax
    4315:	79 0d                	jns    4324 <internal_handle_exception+0x34>
    4317:	49 c7 45 60 ff ff ff 	mov    QWORD PTR [r13+0x60],0xffffffffffffffff
    431e:	ff 
    431f:	e8 8d 90 02 00       	call   2d3b1 <abort>
    4324:	48 83 c0 01          	add    rax,0x1
    4328:	48 8d 3d b1 09 23 00 	lea    rdi,[rip+0x2309b1]        # 234ce0 <_ZL14g_handler_lock>
    432f:	49 89 45 60          	mov    QWORD PTR [r13+0x60],rax
    4333:	e8 38 44 00 00       	call   8770 <sgx_spin_lock>
    4338:	48 8b 05 a9 09 23 00 	mov    rax,QWORD PTR [rip+0x2309a9]        # 234ce8 <_ZL12g_first_node>
    433f:	48 85 c0             	test   rax,rax
    4342:	0f 84 08 01 00 00    	je     4450 <internal_handle_exception+0x160>
    4348:	31 db                	xor    ebx,ebx
    434a:	66 0f 1f 44 00 00    	nop    WORD PTR [rax+rax*1+0x0]
    4350:	48 8b 40 08          	mov    rax,QWORD PTR [rax+0x8]
    4354:	48 83 c3 08          	add    rbx,0x8
    4358:	48 85 c0             	test   rax,rax
    435b:	75 f3                	jne    4350 <internal_handle_exception+0x60>
    435d:	48 85 db             	test   rbx,rbx
    4360:	0f 84 ea 00 00 00    	je     4450 <internal_handle_exception+0x160>
    4366:	48 89 df             	mov    rdi,rbx
    4369:	e8 02 16 00 00       	call   5970 <dlmalloc>
    436e:	48 85 c0             	test   rax,rax
    4371:	49 89 c6             	mov    r14,rax
    4374:	0f 84 01 01 00 00    	je     447b <internal_handle_exception+0x18b>
    437a:	48 8b 05 67 09 23 00 	mov    rax,QWORD PTR [rip+0x230967]        # 234ce8 <_ZL12g_first_node>
    4381:	48 85 c0             	test   rax,rax
    4384:	74 1e                	je     43a4 <internal_handle_exception+0xb4>
    4386:	4c 89 f2             	mov    rdx,r14
    4389:	0f 1f 80 00 00 00 00 	nop    DWORD PTR [rax+0x0]
    4390:	48 8b 08             	mov    rcx,QWORD PTR [rax]
    4393:	48 8b 40 08          	mov    rax,QWORD PTR [rax+0x8]
    4397:	48 83 c2 08          	add    rdx,0x8
    439b:	48 89 4a f8          	mov    QWORD PTR [rdx-0x8],rcx
    439f:	48 85 c0             	test   rax,rax
    43a2:	75 ec                	jne    4390 <internal_handle_exception+0xa0>
    43a4:	48 8d 3d 35 09 23 00 	lea    rdi,[rip+0x230935]        # 234ce0 <_ZL14g_handler_lock>
    43ab:	e8 20 44 00 00       	call   87d0 <sgx_spin_unlock>
    43b0:	48 85 db             	test   rbx,rbx
    43b3:	74 77                	je     442c <internal_handle_exception+0x13c>
    43b5:	4d 89 f7             	mov    r15,r14
    43b8:	eb 10                	jmp    43ca <internal_handle_exception+0xda>
    43ba:	66 0f 1f 44 00 00    	nop    WORD PTR [rax+rax*1+0x0]
    43c0:	49 83 c7 08          	add    r15,0x8
    43c4:	48 83 eb 08          	sub    rbx,0x8
    43c8:	74 62                	je     442c <internal_handle_exception+0x13c>
    43ca:	49 8b 2f             	mov    rbp,QWORD PTR [r15]
    43cd:	48 33 2d 04 09 23 00 	xor    rbp,QWORD PTR [rip+0x230904]        # 234cd8 <_ZL12g_veh_cookie>
    43d4:	4c 89 e7             	mov    rdi,r12
    43d7:	e8 84 fe ff ff       	call   4260 <_Z27trace_exception_consumptionP17_exception_info_t>
    43dc:	48 89 ef             	mov    rdi,rbp
    43df:	e8 cc db ff ff       	call   1fb0 <_Z10traceedgecPv>
    43e4:	4c 89 e7             	mov    rdi,r12
    43e7:	ff d5                	call   rbp
    43e9:	4c 89 e7             	mov    rdi,r12
    43ec:	89 c5                	mov    ebp,eax
    43ee:	e8 ed fd ff ff       	call   41e0 <_Z26trace_exception_generationP17_exception_info_t>
    43f3:	83 fd ff             	cmp    ebp,0xffffffff
    43f6:	75 c8                	jne    43c0 <internal_handle_exception+0xd0>
    43f8:	4c 89 f7             	mov    rdi,r14
    43fb:	e8 70 2f 00 00       	call   7370 <dlfree>
    4400:	49 8b 7c 24 20       	mov    rdi,QWORD PTR [r12+0x20]
    4405:	e8 66 fc ff ff       	call   4070 <is_valid_sp>
    440a:	84 c0                	test   al,al
    440c:	0f 84 05 ff ff ff    	je     4317 <internal_handle_exception+0x27>
    4412:	49 83 6d 60 01       	sub    QWORD PTR [r13+0x60],0x1
    4417:	4c 89 e7             	mov    rdi,r12
    441a:	e8 41 fe ff ff       	call   4260 <_Z27trace_exception_consumptionP17_exception_info_t>
    441f:	4c 89 e7             	mov    rdi,r12
    4422:	e8 99 8f 02 00       	call   2d3c0 <continue_execution>
    4427:	e9 eb fe ff ff       	jmp    4317 <internal_handle_exception+0x27>
    442c:	4c 89 f7             	mov    rdi,r14
    442f:	e8 3c 2f 00 00       	call   7370 <dlfree>
    4434:	49 8b 7c 24 20       	mov    rdi,QWORD PTR [r12+0x20]
    4439:	e8 32 fc ff ff       	call   4070 <is_valid_sp>
    443e:	84 c0                	test   al,al
    4440:	0f 84 d1 fe ff ff    	je     4317 <internal_handle_exception+0x27>
    4446:	49 c7 45 60 ff ff ff 	mov    QWORD PTR [r13+0x60],0xffffffffffffffff
    444d:	ff 
    444e:	eb c7                	jmp    4417 <internal_handle_exception+0x127>
    4450:	48 8d 3d 89 08 23 00 	lea    rdi,[rip+0x230889]        # 234ce0 <_ZL14g_handler_lock>
    4457:	31 db                	xor    ebx,ebx
    4459:	e8 72 43 00 00       	call   87d0 <sgx_spin_unlock>
    445e:	4c 89 e7             	mov    rdi,r12
    4461:	49 c7 45 60 ff ff ff 	mov    QWORD PTR [r13+0x60],0xffffffffffffffff
    4468:	ff 
    4469:	e8 f2 fd ff ff       	call   4260 <_Z27trace_exception_consumptionP17_exception_info_t>
    446e:	4c 89 e7             	mov    rdi,r12
    4471:	e8 4a 8f 02 00       	call   2d3c0 <continue_execution>
    4476:	e9 eb fe ff ff       	jmp    4366 <internal_handle_exception+0x76>
    447b:	48 8d 3d 5e 08 23 00 	lea    rdi,[rip+0x23085e]        # 234ce0 <_ZL14g_handler_lock>
    4482:	e8 49 43 00 00       	call   87d0 <sgx_spin_unlock>
    4487:	e9 8b fe ff ff       	jmp    4317 <internal_handle_exception+0x27>
    448c:	0f 1f 40 00          	nop    DWORD PTR [rax+0x0]

0000000000004490 <trts_handle_exception>:
    4490:	41 55                	push   r13
    4492:	41 54                	push   r12
    4494:	55                   	push   rbp
    4495:	53                   	push   rbx
    4496:	48 89 fb             	mov    rbx,rdi
    4499:	48 83 ec 08          	sub    rsp,0x8
    449d:	e8 f6 8b 02 00       	call   2d098 <get_thread_data>
    44a2:	48 85 c0             	test   rax,rax
    44a5:	74 51                	je     44f8 <trts_handle_exception+0x68>
    44a7:	48 85 db             	test   rbx,rbx
    44aa:	74 4c                	je     44f8 <trts_handle_exception+0x68>
    44ac:	48 89 df             	mov    rdi,rbx
    44af:	48 89 c5             	mov    rbp,rax
    44b2:	e8 d9 e3 ff ff       	call   2890 <check_static_stack_canary>
    44b7:	85 c0                	test   eax,eax
    44b9:	75 3d                	jne    44f8 <trts_handle_exception+0x68>
    44bb:	e8 a5 8b 02 00       	call   2d065 <get_enclave_state>
    44c0:	83 f8 02             	cmp    eax,0x2
    44c3:	75 33                	jne    44f8 <trts_handle_exception+0x68>
    44c5:	48 83 7d 60 ff       	cmp    QWORD PTR [rbp+0x60],0xffffffffffffffff
    44ca:	74 2c                	je     44f8 <trts_handle_exception+0x68>
    44cc:	48 8b 45 10          	mov    rax,QWORD PTR [rbp+0x10]
    44d0:	48 05 d0 07 01 00    	add    rax,0x107d0
    44d6:	48 39 c3             	cmp    rbx,rax
    44d9:	75 1d                	jne    44f8 <trts_handle_exception+0x68>
    44db:	4c 8b 65 20          	mov    r12,QWORD PTR [rbp+0x20]
    44df:	4c 89 e0             	mov    rax,r12
    44e2:	48 25 00 f0 ff ff    	and    rax,0xfffffffffffff000
    44e8:	48 2d 00 10 00 00    	sub    rax,0x1000
    44ee:	48 39 c3             	cmp    rbx,rax
    44f1:	74 25                	je     4518 <trts_handle_exception+0x88>
    44f3:	0f 1f 44 00 00       	nop    DWORD PTR [rax+rax*1+0x0]
    44f8:	48 8d 05 65 07 23 00 	lea    rax,[rip+0x230765]        # 234c64 <g_enclave_state>
    44ff:	c7 00 03 00 00 00    	mov    DWORD PTR [rax],0x3
    4505:	b8 06 10 00 00       	mov    eax,0x1006
    450a:	48 83 c4 08          	add    rsp,0x8
    450e:	5b                   	pop    rbx
    450f:	5d                   	pop    rbp
    4510:	41 5c                	pop    r12
    4512:	41 5d                	pop    r13
    4514:	c3                   	ret    
    4515:	0f 1f 00             	nop    DWORD PTR [rax]
    4518:	49 8b 5c 24 20       	mov    rbx,QWORD PTR [r12+0x20]
    451d:	31 f6                	xor    esi,esi
    451f:	48 89 df             	mov    rdi,rbx
    4522:	e8 09 fb ff ff       	call   4030 <is_stack_addr>
    4527:	84 c0                	test   al,al
    4529:	0f 84 81 00 00 00    	je     45b0 <trts_handle_exception+0x120>
    452f:	48 81 eb 18 01 00 00 	sub    rbx,0x118
    4536:	be 18 01 00 00       	mov    esi,0x118
    453b:	48 83 e3 f0          	and    rbx,0xfffffffffffffff0
    453f:	48 89 df             	mov    rdi,rbx
    4542:	e8 e9 fa ff ff       	call   4030 <is_stack_addr>
    4547:	84 c0                	test   al,al
    4549:	74 65                	je     45b0 <trts_handle_exception+0x120>
    454b:	4c 8d 6b f8          	lea    r13,[rbx-0x8]
    454f:	be 08 00 00 00       	mov    esi,0x8
    4554:	4c 89 ef             	mov    rdi,r13
    4557:	e8 d4 fa ff ff       	call   4030 <is_stack_addr>
    455c:	84 c0                	test   al,al
    455e:	74 50                	je     45b0 <trts_handle_exception+0x120>
    4560:	48 8b 85 98 00 00 00 	mov    rax,QWORD PTR [rbp+0x98]
    4567:	4c 39 e8             	cmp    rax,r13
    456a:	76 5b                	jbe    45c7 <trts_handle_exception+0x137>
    456c:	48 8d 98 ff 0f 00 00 	lea    rbx,[rax+0xfff]
    4573:	4c 29 eb             	sub    rbx,r13
    4576:	48 81 e3 00 f0 ff ff 	and    rbx,0xfffffffffffff000
    457d:	48 39 d8             	cmp    rax,rbx
    4580:	76 2e                	jbe    45b0 <trts_handle_exception+0x120>
    4582:	48 29 d8             	sub    rax,rbx
    4585:	48 3b 45 18          	cmp    rax,QWORD PTR [rbp+0x18]
    4589:	48 89 c7             	mov    rdi,rax
    458c:	72 22                	jb     45b0 <trts_handle_exception+0x120>
    458e:	48 89 de             	mov    rsi,rbx
    4591:	48 c1 ee 0c          	shr    rsi,0xc
    4595:	48 85 f6             	test   rsi,rsi
    4598:	74 16                	je     45b0 <trts_handle_exception+0x120>
    459a:	e8 91 e9 ff ff       	call   2f30 <apply_pages_within_exception>
    459f:	85 c0                	test   eax,eax
    45a1:	75 0d                	jne    45b0 <trts_handle_exception+0x120>
    45a3:	48 29 9d 98 00 00 00 	sub    QWORD PTR [rbp+0x98],rbx
    45aa:	e9 5b ff ff ff       	jmp    450a <trts_handle_exception+0x7a>
    45af:	90                   	nop
    45b0:	48 8d 05 ad 06 23 00 	lea    rax,[rip+0x2306ad]        # 234c64 <g_enclave_state>
    45b7:	c7 00 03 00 00 00    	mov    DWORD PTR [rax],0x3
    45bd:	b8 09 10 00 00       	mov    eax,0x1009
    45c2:	e9 43 ff ff ff       	jmp    450a <trts_handle_exception+0x7a>
    45c7:	49 8b 84 24 88 00 00 	mov    rax,QWORD PTR [r12+0x88]
    45ce:	00 
    45cf:	48 3b 05 12 fa 22 00 	cmp    rax,QWORD PTR [rip+0x22fa12]        # 233fe8 <_GLOBAL_OFFSET_TABLE_+0x78>
    45d6:	0f 84 0d 01 00 00    	je     46e9 <trts_handle_exception+0x259>
    45dc:	41 80 bc 24 a3 00 00 	cmp    BYTE PTR [r12+0xa3],0x0
    45e3:	00 00 
    45e5:	0f 89 0d ff ff ff    	jns    44f8 <trts_handle_exception+0x68>
    45eb:	41 0f b6 94 24 a0 00 	movzx  edx,BYTE PTR [r12+0xa0]
    45f2:	00 00 
    45f4:	48 8d 0d f5 fc ff ff 	lea    rcx,[rip+0xfffffffffffffcf5]        # 42f0 <internal_handle_exception>
    45fb:	48 89 df             	mov    rdi,rbx
    45fe:	89 93 90 00 00 00    	mov    DWORD PTR [rbx+0x90],edx
    4604:	41 0f b6 94 24 a1 00 	movzx  edx,BYTE PTR [r12+0xa1]
    460b:	00 00 
    460d:	83 e2 07             	and    edx,0x7
    4610:	89 93 94 00 00 00    	mov    DWORD PTR [rbx+0x94],edx
    4616:	49 8b 14 24          	mov    rdx,QWORD PTR [r12]
    461a:	48 89 13             	mov    QWORD PTR [rbx],rdx
    461d:	49 8b 54 24 08       	mov    rdx,QWORD PTR [r12+0x8]
    4622:	48 89 53 08          	mov    QWORD PTR [rbx+0x8],rdx
    4626:	49 8b 54 24 10       	mov    rdx,QWORD PTR [r12+0x10]
    462b:	48 89 53 10          	mov    QWORD PTR [rbx+0x10],rdx
    462f:	49 8b 54 24 18       	mov    rdx,QWORD PTR [r12+0x18]
    4634:	48 89 53 18          	mov    QWORD PTR [rbx+0x18],rdx
    4638:	49 8b 54 24 20       	mov    rdx,QWORD PTR [r12+0x20]
    463d:	48 89 53 20          	mov    QWORD PTR [rbx+0x20],rdx
    4641:	49 8b 54 24 28       	mov    rdx,QWORD PTR [r12+0x28]
    4646:	48 89 53 28          	mov    QWORD PTR [rbx+0x28],rdx
    464a:	49 8b 54 24 30       	mov    rdx,QWORD PTR [r12+0x30]
    464f:	48 89 53 30          	mov    QWORD PTR [rbx+0x30],rdx
    4653:	49 8b 54 24 38       	mov    rdx,QWORD PTR [r12+0x38]
    4658:	48 89 53 38          	mov    QWORD PTR [rbx+0x38],rdx
    465c:	49 8b 94 24 80 00 00 	mov    rdx,QWORD PTR [r12+0x80]
    4663:	00 
    4664:	48 89 83 88 00 00 00 	mov    QWORD PTR [rbx+0x88],rax
    466b:	48 89 93 80 00 00 00 	mov    QWORD PTR [rbx+0x80],rdx
    4672:	49 8b 54 24 40       	mov    rdx,QWORD PTR [r12+0x40]
    4677:	48 89 53 40          	mov    QWORD PTR [rbx+0x40],rdx
    467b:	49 8b 54 24 48       	mov    rdx,QWORD PTR [r12+0x48]
    4680:	48 89 53 48          	mov    QWORD PTR [rbx+0x48],rdx
    4684:	49 8b 54 24 50       	mov    rdx,QWORD PTR [r12+0x50]
    4689:	48 89 53 50          	mov    QWORD PTR [rbx+0x50],rdx
    468d:	49 8b 54 24 58       	mov    rdx,QWORD PTR [r12+0x58]
    4692:	48 89 53 58          	mov    QWORD PTR [rbx+0x58],rdx
    4696:	49 8b 54 24 60       	mov    rdx,QWORD PTR [r12+0x60]
    469b:	48 89 53 60          	mov    QWORD PTR [rbx+0x60],rdx
    469f:	49 8b 54 24 68       	mov    rdx,QWORD PTR [r12+0x68]
    46a4:	48 89 53 68          	mov    QWORD PTR [rbx+0x68],rdx
    46a8:	49 8b 54 24 70       	mov    rdx,QWORD PTR [r12+0x70]
    46ad:	48 89 53 70          	mov    QWORD PTR [rbx+0x70],rdx
    46b1:	49 8b 54 24 78       	mov    rdx,QWORD PTR [r12+0x78]
    46b6:	48 89 53 78          	mov    QWORD PTR [rbx+0x78],rdx
    46ba:	49 89 8c 24 88 00 00 	mov    QWORD PTR [r12+0x88],rcx
    46c1:	00 
    46c2:	4d 89 6c 24 20       	mov    QWORD PTR [r12+0x20],r13
    46c7:	49 89 1c 24          	mov    QWORD PTR [r12],rbx
    46cb:	49 89 5c 24 38       	mov    QWORD PTR [r12+0x38],rbx
    46d0:	48 89 43 f8          	mov    QWORD PTR [rbx-0x8],rax
    46d4:	41 80 a4 24 a3 00 00 	and    BYTE PTR [r12+0xa3],0x7f
    46db:	00 7f 
    46dd:	e8 fe fa ff ff       	call   41e0 <_Z26trace_exception_generationP17_exception_info_t>
    46e2:	31 c0                	xor    eax,eax
    46e4:	e9 21 fe ff ff       	jmp    450a <trts_handle_exception+0x7a>
    46e9:	49 83 3c 24 00       	cmp    QWORD PTR [r12],0x0
    46ee:	0f 85 e8 fe ff ff    	jne    45dc <trts_handle_exception+0x14c>
    46f4:	48 83 c0 03          	add    rax,0x3
    46f8:	49 83 8c 24 80 00 00 	or     QWORD PTR [r12+0x80],0x1
    46ff:	00 01 
    4701:	49 89 84 24 88 00 00 	mov    QWORD PTR [r12+0x88],rax
    4708:	00 
    4709:	31 c0                	xor    eax,eax
    470b:	e9 fa fd ff ff       	jmp    450a <trts_handle_exception+0x7a>

0000000000004710 <get_xfeature_state>:
    4710:	48 83 ec 08          	sub    rsp,0x8
    4714:	e8 17 83 02 00       	call   2ca30 <sgx_self_report>
    4719:	48 8b 40 38          	mov    rax,QWORD PTR [rax+0x38]
    471d:	31 d2                	xor    edx,edx
    471f:	48 83 f8 03          	cmp    rax,0x3
    4723:	0f 95 c2             	setne  dl
    4726:	89 15 3c 05 23 00    	mov    DWORD PTR [rip+0x23053c],edx        # 234c68 <g_xsave_enabled>
    472c:	48 83 c4 08          	add    rsp,0x8
    4730:	c3                   	ret    
    4731:	66 2e 0f 1f 84 00 00 	nop    WORD PTR cs:[rax+rax*1+0x0]
    4738:	00 00 00 
    473b:	0f 1f 44 00 00       	nop    DWORD PTR [rax+rax*1+0x0]

0000000000004740 <do_relocs>:
    4740:	48 01 fe             	add    rsi,rdi
    4743:	48 01 fa             	add    rdx,rdi
    4746:	48 85 c9             	test   rcx,rcx
    4749:	0f 84 00 02 00 00    	je     494f <do_relocs+0x20f>
    474f:	55                   	push   rbp
    4750:	4c 8d 15 39 8d 02 00 	lea    r10,[rip+0x28d39]        # 2d490 <g_dyn_entry_table+0x50>
    4757:	53                   	push   rbx
    4758:	45 31 c9             	xor    r9d,r9d
    475b:	0f 1f 44 00 00       	nop    DWORD PTR [rax+rax*1+0x0]
    4760:	4c 8b 46 08          	mov    r8,QWORD PTR [rsi+0x8]
    4764:	4c 8b 1e             	mov    r11,QWORD PTR [rsi]
    4767:	44 89 c0             	mov    eax,r8d
    476a:	49 01 fb             	add    r11,rdi
    476d:	48 83 f8 12          	cmp    rax,0x12
    4771:	0f 87 cb 00 00 00    	ja     4842 <do_relocs+0x102>
    4777:	49 63 04 82          	movsxd rax,DWORD PTR [r10+rax*4]
    477b:	4c 01 d0             	add    rax,r10
    477e:	ff e0                	jmp    rax
    4780:	4c 8b 40 28          	mov    r8,QWORD PTR [rax+0x28]
    4784:	48 8b 40 30          	mov    rax,QWORD PTR [rax+0x30]
    4788:	48 83 f8 01          	cmp    rax,0x1
    478c:	76 0b                	jbe    4799 <do_relocs+0x59>
    478e:	4d 8d 44 00 ff       	lea    r8,[r8+rax*1-0x1]
    4793:	48 f7 d8             	neg    rax
    4796:	49 21 c0             	and    r8,rax
    4799:	4d 85 c0             	test   r8,r8
    479c:	0f 84 a0 00 00 00    	je     4842 <do_relocs+0x102>
    47a2:	48 8b 46 10          	mov    rax,QWORD PTR [rsi+0x10]
    47a6:	48 03 43 08          	add    rax,QWORD PTR [rbx+0x8]
    47aa:	4c 29 c0             	sub    rax,r8
    47ad:	49 89 03             	mov    QWORD PTR [r11],rax
    47b0:	49 83 c1 01          	add    r9,0x1
    47b4:	48 83 c6 18          	add    rsi,0x18
    47b8:	4c 39 c9             	cmp    rcx,r9
    47bb:	75 a3                	jne    4760 <do_relocs+0x20>
    47bd:	31 c0                	xor    eax,eax
    47bf:	5b                   	pop    rbx
    47c0:	5d                   	pop    rbp
    47c1:	c3                   	ret    
    47c2:	66 0f 1f 44 00 00    	nop    WORD PTR [rax+rax*1+0x0]
    47c8:	49 c1 e8 20          	shr    r8,0x20
    47cc:	4b 8d 04 40          	lea    rax,[r8+r8*2]
    47d0:	48 8d 1c c2          	lea    rbx,[rdx+rax*8]
    47d4:	0f b6 43 04          	movzx  eax,BYTE PTR [rbx+0x4]
    47d8:	c0 e8 04             	shr    al,0x4
    47db:	3c 02                	cmp    al,0x2
    47dd:	75 07                	jne    47e6 <do_relocs+0xa6>
    47df:	48 83 7b 08 00       	cmp    QWORD PTR [rbx+0x8],0x0
    47e4:	74 ca                	je     47b0 <do_relocs+0x70>
    47e6:	81 3f 7f 45 4c 46    	cmp    DWORD PTR [rdi],0x464c457f
    47ec:	75 54                	jne    4842 <do_relocs+0x102>
    47ee:	66 83 7f 10 03       	cmp    WORD PTR [rdi+0x10],0x3
    47f3:	75 4d                	jne    4842 <do_relocs+0x102>
    47f5:	4c 8b 47 20          	mov    r8,QWORD PTR [rdi+0x20]
    47f9:	49 01 f8             	add    r8,rdi
    47fc:	4d 85 c0             	test   r8,r8
    47ff:	4c 89 c0             	mov    rax,r8
    4802:	74 3e                	je     4842 <do_relocs+0x102>
    4804:	0f b7 6f 38          	movzx  ebp,WORD PTR [rdi+0x38]
    4808:	85 ed                	test   ebp,ebp
    480a:	74 36                	je     4842 <do_relocs+0x102>
    480c:	41 83 38 07          	cmp    DWORD PTR [r8],0x7
    4810:	0f 84 6a ff ff ff    	je     4780 <do_relocs+0x40>
    4816:	83 ed 01             	sub    ebp,0x1
    4819:	4c 8d 04 ed 00 00 00 	lea    r8,[rbp*8+0x0]
    4820:	00 
    4821:	49 29 e8             	sub    r8,rbp
    4824:	4e 8d 44 c0 38       	lea    r8,[rax+r8*8+0x38]
    4829:	eb 0e                	jmp    4839 <do_relocs+0xf9>
    482b:	0f 1f 44 00 00       	nop    DWORD PTR [rax+rax*1+0x0]
    4830:	83 38 07             	cmp    DWORD PTR [rax],0x7
    4833:	0f 84 47 ff ff ff    	je     4780 <do_relocs+0x40>
    4839:	48 83 c0 38          	add    rax,0x38
    483d:	49 39 c0             	cmp    r8,rax
    4840:	75 ee                	jne    4830 <do_relocs+0xf0>
    4842:	b8 ff ff ff ff       	mov    eax,0xffffffff
    4847:	5b                   	pop    rbx
    4848:	5d                   	pop    rbp
    4849:	c3                   	ret    
    484a:	66 0f 1f 44 00 00    	nop    WORD PTR [rax+rax*1+0x0]
    4850:	49 c1 e8 20          	shr    r8,0x20
    4854:	4b 8d 04 40          	lea    rax,[r8+r8*2]
    4858:	48 8d 04 c2          	lea    rax,[rdx+rax*8]
    485c:	4c 8b 40 08          	mov    r8,QWORD PTR [rax+0x8]
    4860:	0f b6 40 04          	movzx  eax,BYTE PTR [rax+0x4]
    4864:	c0 e8 04             	shr    al,0x4
    4867:	3c 02                	cmp    al,0x2
    4869:	0f 84 c1 00 00 00    	je     4930 <do_relocs+0x1f0>
    486f:	4c 03 46 10          	add    r8,QWORD PTR [rsi+0x10]
    4873:	49 83 c1 01          	add    r9,0x1
    4877:	48 83 c6 18          	add    rsi,0x18
    487b:	4c 39 c9             	cmp    rcx,r9
    487e:	4d 89 03             	mov    QWORD PTR [r11],r8
    4881:	0f 85 d9 fe ff ff    	jne    4760 <do_relocs+0x20>
    4887:	e9 31 ff ff ff       	jmp    47bd <do_relocs+0x7d>
    488c:	0f 1f 40 00          	nop    DWORD PTR [rax+0x0]
    4890:	48 8b 46 10          	mov    rax,QWORD PTR [rsi+0x10]
    4894:	49 83 c1 01          	add    r9,0x1
    4898:	48 83 c6 18          	add    rsi,0x18
    489c:	48 01 f8             	add    rax,rdi
    489f:	4c 39 c9             	cmp    rcx,r9
    48a2:	49 89 03             	mov    QWORD PTR [r11],rax
    48a5:	0f 85 b5 fe ff ff    	jne    4760 <do_relocs+0x20>
    48ab:	e9 0d ff ff ff       	jmp    47bd <do_relocs+0x7d>
    48b0:	49 83 c1 01          	add    r9,0x1
    48b4:	48 83 c6 18          	add    rsi,0x18
    48b8:	49 c7 03 01 00 00 00 	mov    QWORD PTR [r11],0x1
    48bf:	4c 39 c9             	cmp    rcx,r9
    48c2:	0f 85 98 fe ff ff    	jne    4760 <do_relocs+0x20>
    48c8:	e9 f0 fe ff ff       	jmp    47bd <do_relocs+0x7d>
    48cd:	0f 1f 00             	nop    DWORD PTR [rax]
    48d0:	49 c1 e8 20          	shr    r8,0x20
    48d4:	4b 8d 04 40          	lea    rax,[r8+r8*2]
    48d8:	4c 8d 04 c2          	lea    r8,[rdx+rax*8]
    48dc:	41 0f b6 40 04       	movzx  eax,BYTE PTR [r8+0x4]
    48e1:	49 8b 58 08          	mov    rbx,QWORD PTR [r8+0x8]
    48e5:	c0 e8 04             	shr    al,0x4
    48e8:	3c 02                	cmp    al,0x2
    48ea:	74 24                	je     4910 <do_relocs+0x1d0>
    48ec:	48 8b 46 10          	mov    rax,QWORD PTR [rsi+0x10]
    48f0:	49 83 c1 01          	add    r9,0x1
    48f4:	48 83 c6 18          	add    rsi,0x18
    48f8:	48 01 f8             	add    rax,rdi
    48fb:	48 01 d8             	add    rax,rbx
    48fe:	4c 39 c9             	cmp    rcx,r9
    4901:	49 89 03             	mov    QWORD PTR [r11],rax
    4904:	0f 85 56 fe ff ff    	jne    4760 <do_relocs+0x20>
    490a:	e9 ae fe ff ff       	jmp    47bd <do_relocs+0x7d>
    490f:	90                   	nop
    4910:	48 85 db             	test   rbx,rbx
    4913:	75 d7                	jne    48ec <do_relocs+0x1ac>
    4915:	49 83 c1 01          	add    r9,0x1
    4919:	48 83 c6 18          	add    rsi,0x18
    491d:	4c 39 c9             	cmp    rcx,r9
    4920:	0f 85 3a fe ff ff    	jne    4760 <do_relocs+0x20>
    4926:	e9 92 fe ff ff       	jmp    47bd <do_relocs+0x7d>
    492b:	0f 1f 44 00 00       	nop    DWORD PTR [rax+rax*1+0x0]
    4930:	4d 85 c0             	test   r8,r8
    4933:	0f 85 36 ff ff ff    	jne    486f <do_relocs+0x12f>
    4939:	49 83 c1 01          	add    r9,0x1
    493d:	48 83 c6 18          	add    rsi,0x18
    4941:	4c 39 c9             	cmp    rcx,r9
    4944:	0f 85 16 fe ff ff    	jne    4760 <do_relocs+0x20>
    494a:	e9 6e fe ff ff       	jmp    47bd <do_relocs+0x7d>
    494f:	31 c0                	xor    eax,eax
    4951:	c3                   	ret    
    4952:	66 2e 0f 1f 84 00 00 	nop    WORD PTR cs:[rax+rax*1+0x0]
    4959:	00 00 00 
    495c:	0f 1f 40 00          	nop    DWORD PTR [rax+0x0]

0000000000004960 <relocate_enclave>:
    4960:	48 85 ff             	test   rdi,rdi
    4963:	0f 84 c0 01 00 00    	je     4b29 <relocate_enclave+0x1c9>
    4969:	81 3f 7f 45 4c 46    	cmp    DWORD PTR [rdi],0x464c457f
    496f:	0f 85 b4 01 00 00    	jne    4b29 <relocate_enclave+0x1c9>
    4975:	66 83 7f 10 03       	cmp    WORD PTR [rdi+0x10],0x3
    497a:	0f 85 a9 01 00 00    	jne    4b29 <relocate_enclave+0x1c9>
    4980:	41 57                	push   r15
    4982:	41 56                	push   r14
    4984:	41 55                	push   r13
    4986:	41 54                	push   r12
    4988:	55                   	push   rbp
    4989:	53                   	push   rbx
    498a:	48 89 fb             	mov    rbx,rdi
    498d:	48 83 ec 10          	sub    rsp,0x10
    4991:	48 03 5f 20          	add    rbx,QWORD PTR [rdi+0x20]
    4995:	0f 84 ff 00 00 00    	je     4a9a <relocate_enclave+0x13a>
    499b:	31 ed                	xor    ebp,ebp
    499d:	66 83 7f 38 00       	cmp    WORD PTR [rdi+0x38],0x0
    49a2:	49 89 fd             	mov    r13,rdi
    49a5:	4c 8d 25 30 8b 02 00 	lea    r12,[rip+0x28b30]        # 2d4dc <g_dyn_entry_table+0x9c>
    49ac:	75 1e                	jne    49cc <relocate_enclave+0x6c>
    49ae:	e9 65 01 00 00       	jmp    4b18 <relocate_enclave+0x1b8>
    49b3:	0f 1f 44 00 00       	nop    DWORD PTR [rax+rax*1+0x0]
    49b8:	41 0f b7 45 38       	movzx  eax,WORD PTR [r13+0x38]
    49bd:	83 c5 01             	add    ebp,0x1
    49c0:	48 83 c3 38          	add    rbx,0x38
    49c4:	39 e8                	cmp    eax,ebp
    49c6:	0f 86 4c 01 00 00    	jbe    4b18 <relocate_enclave+0x1b8>
    49cc:	83 3b 02             	cmp    DWORD PTR [rbx],0x2
    49cf:	75 e7                	jne    49b8 <relocate_enclave+0x58>
    49d1:	48 8b 53 20          	mov    rdx,QWORD PTR [rbx+0x20]
    49d5:	48 8b 43 18          	mov    rax,QWORD PTR [rbx+0x18]
    49d9:	48 c1 ea 04          	shr    rdx,0x4
    49dd:	4c 01 e8             	add    rax,r13
    49e0:	48 85 d2             	test   rdx,rdx
    49e3:	49 89 c0             	mov    r8,rax
    49e6:	74 d0                	je     49b8 <relocate_enclave+0x58>
    49e8:	4c 8b 08             	mov    r9,QWORD PTR [rax]
    49eb:	4d 85 c9             	test   r9,r9
    49ee:	74 c8                	je     49b8 <relocate_enclave+0x58>
    49f0:	48 c1 e2 04          	shl    rdx,0x4
    49f4:	45 31 ff             	xor    r15d,r15d
    49f7:	45 31 f6             	xor    r14d,r14d
    49fa:	48 01 c2             	add    rdx,rax
    49fd:	45 31 d2             	xor    r10d,r10d
    4a00:	31 c0                	xor    eax,eax
    4a02:	31 f6                	xor    esi,esi
    4a04:	45 31 db             	xor    r11d,r11d
    4a07:	66 0f 1f 84 00 00 00 	nop    WORD PTR [rax+rax*1+0x0]
    4a0e:	00 00 
    4a10:	49 83 f9 17          	cmp    r9,0x17
    4a14:	77 12                	ja     4a28 <relocate_enclave+0xc8>
    4a16:	4b 63 3c 8c          	movsxd rdi,DWORD PTR [r12+r9*4]
    4a1a:	4c 01 e7             	add    rdi,r12
    4a1d:	ff e7                	jmp    rdi
    4a1f:	90                   	nop
    4a20:	4d 8b 50 08          	mov    r10,QWORD PTR [r8+0x8]
    4a24:	0f 1f 40 00          	nop    DWORD PTR [rax+0x0]
    4a28:	49 83 c0 10          	add    r8,0x10
    4a2c:	49 39 d0             	cmp    r8,rdx
    4a2f:	74 08                	je     4a39 <relocate_enclave+0xd9>
    4a31:	4d 8b 08             	mov    r9,QWORD PTR [r8]
    4a34:	4d 85 c9             	test   r9,r9
    4a37:	75 d7                	jne    4a10 <relocate_enclave+0xb0>
    4a39:	48 85 f6             	test   rsi,rsi
    4a3c:	0f 84 be 00 00 00    	je     4b00 <relocate_enclave+0x1a0>
    4a42:	4d 85 f6             	test   r14,r14
    4a45:	4c 89 14 24          	mov    QWORD PTR [rsp],r10
    4a49:	74 4f                	je     4a9a <relocate_enclave+0x13a>
    4a4b:	31 d2                	xor    edx,edx
    4a4d:	4c 89 ef             	mov    rdi,r13
    4a50:	4c 89 5c 24 08       	mov    QWORD PTR [rsp+0x8],r11
    4a55:	49 f7 f6             	div    r14
    4a58:	4c 89 da             	mov    rdx,r11
    4a5b:	48 89 c1             	mov    rcx,rax
    4a5e:	e8 dd fc ff ff       	call   4740 <do_relocs>
    4a63:	85 c0                	test   eax,eax
    4a65:	4c 8b 5c 24 08       	mov    r11,QWORD PTR [rsp+0x8]
    4a6a:	4c 8b 14 24          	mov    r10,QWORD PTR [rsp]
    4a6e:	75 2a                	jne    4a9a <relocate_enclave+0x13a>
    4a70:	4d 85 d2             	test   r10,r10
    4a73:	0f 84 3f ff ff ff    	je     49b8 <relocate_enclave+0x58>
    4a79:	31 d2                	xor    edx,edx
    4a7b:	4c 89 f8             	mov    rax,r15
    4a7e:	4c 89 d6             	mov    rsi,r10
    4a81:	49 f7 f6             	div    r14
    4a84:	4c 89 ef             	mov    rdi,r13
    4a87:	4c 89 da             	mov    rdx,r11
    4a8a:	48 89 c1             	mov    rcx,rax
    4a8d:	e8 ae fc ff ff       	call   4740 <do_relocs>
    4a92:	85 c0                	test   eax,eax
    4a94:	0f 84 1e ff ff ff    	je     49b8 <relocate_enclave+0x58>
    4a9a:	48 83 c4 10          	add    rsp,0x10
    4a9e:	b8 ff ff ff ff       	mov    eax,0xffffffff
    4aa3:	5b                   	pop    rbx
    4aa4:	5d                   	pop    rbp
    4aa5:	41 5c                	pop    r12
    4aa7:	41 5d                	pop    r13
    4aa9:	41 5e                	pop    r14
    4aab:	41 5f                	pop    r15
    4aad:	c3                   	ret    
    4aae:	66 90                	xchg   ax,ax
    4ab0:	4d 8b 58 08          	mov    r11,QWORD PTR [r8+0x8]
    4ab4:	e9 6f ff ff ff       	jmp    4a28 <relocate_enclave+0xc8>
    4ab9:	0f 1f 80 00 00 00 00 	nop    DWORD PTR [rax+0x0]
    4ac0:	4d 8b 78 08          	mov    r15,QWORD PTR [r8+0x8]
    4ac4:	e9 5f ff ff ff       	jmp    4a28 <relocate_enclave+0xc8>
    4ac9:	0f 1f 80 00 00 00 00 	nop    DWORD PTR [rax+0x0]
    4ad0:	49 8b 40 08          	mov    rax,QWORD PTR [r8+0x8]
    4ad4:	e9 4f ff ff ff       	jmp    4a28 <relocate_enclave+0xc8>
    4ad9:	0f 1f 80 00 00 00 00 	nop    DWORD PTR [rax+0x0]
    4ae0:	49 8b 70 08          	mov    rsi,QWORD PTR [r8+0x8]
    4ae4:	e9 3f ff ff ff       	jmp    4a28 <relocate_enclave+0xc8>
    4ae9:	0f 1f 80 00 00 00 00 	nop    DWORD PTR [rax+0x0]
    4af0:	4d 8b 70 08          	mov    r14,QWORD PTR [r8+0x8]
    4af4:	e9 2f ff ff ff       	jmp    4a28 <relocate_enclave+0xc8>
    4af9:	0f 1f 80 00 00 00 00 	nop    DWORD PTR [rax+0x0]
    4b00:	4d 85 d2             	test   r10,r10
    4b03:	0f 84 af fe ff ff    	je     49b8 <relocate_enclave+0x58>
    4b09:	4d 85 f6             	test   r14,r14
    4b0c:	0f 85 67 ff ff ff    	jne    4a79 <relocate_enclave+0x119>
    4b12:	eb 86                	jmp    4a9a <relocate_enclave+0x13a>
    4b14:	0f 1f 40 00          	nop    DWORD PTR [rax+0x0]
    4b18:	48 83 c4 10          	add    rsp,0x10
    4b1c:	31 c0                	xor    eax,eax
    4b1e:	5b                   	pop    rbx
    4b1f:	5d                   	pop    rbp
    4b20:	41 5c                	pop    r12
    4b22:	41 5d                	pop    r13
    4b24:	41 5e                	pop    r14
    4b26:	41 5f                	pop    r15
    4b28:	c3                   	ret    
    4b29:	b8 ff ff ff ff       	mov    eax,0xffffffff
    4b2e:	c3                   	ret    
    4b2f:	90                   	nop

0000000000004b30 <elf_tls_info>:
    4b30:	48 85 ff             	test   rdi,rdi
    4b33:	b8 ff ff ff ff       	mov    eax,0xffffffff
    4b38:	74 08                	je     4b42 <elf_tls_info+0x12>
    4b3a:	81 3f 7f 45 4c 46    	cmp    DWORD PTR [rdi],0x464c457f
    4b40:	74 06                	je     4b48 <elf_tls_info+0x18>
    4b42:	f3 c3                	repz ret 
    4b44:	0f 1f 40 00          	nop    DWORD PTR [rax+0x0]
    4b48:	66 83 7f 10 03       	cmp    WORD PTR [rdi+0x10],0x3
    4b4d:	75 f3                	jne    4b42 <elf_tls_info+0x12>
    4b4f:	48 8b 47 20          	mov    rax,QWORD PTR [rdi+0x20]
    4b53:	48 01 f8             	add    rax,rdi
    4b56:	48 85 f6             	test   rsi,rsi
    4b59:	41 0f 94 c0          	sete   r8b
    4b5d:	48 85 d2             	test   rdx,rdx
    4b60:	0f 94 c1             	sete   cl
    4b63:	41 08 c8             	or     r8b,cl
    4b66:	75 61                	jne    4bc9 <elf_tls_info+0x99>
    4b68:	48 85 c0             	test   rax,rax
    4b6b:	74 5c                	je     4bc9 <elf_tls_info+0x99>
    4b6d:	0f b7 4f 38          	movzx  ecx,WORD PTR [rdi+0x38]
    4b71:	48 c7 06 00 00 00 00 	mov    QWORD PTR [rsi],0x0
    4b78:	48 c7 02 00 00 00 00 	mov    QWORD PTR [rdx],0x0
    4b7f:	85 c9                	test   ecx,ecx
    4b81:	74 2b                	je     4bae <elf_tls_info+0x7e>
    4b83:	83 38 07             	cmp    DWORD PTR [rax],0x7
    4b86:	74 30                	je     4bb8 <elf_tls_info+0x88>
    4b88:	44 8d 41 ff          	lea    r8d,[rcx-0x1]
    4b8c:	4a 8d 0c c5 00 00 00 	lea    rcx,[r8*8+0x0]
    4b93:	00 
    4b94:	4c 29 c1             	sub    rcx,r8
    4b97:	48 8d 4c c8 38       	lea    rcx,[rax+rcx*8+0x38]
    4b9c:	eb 07                	jmp    4ba5 <elf_tls_info+0x75>
    4b9e:	66 90                	xchg   ax,ax
    4ba0:	83 38 07             	cmp    DWORD PTR [rax],0x7
    4ba3:	74 13                	je     4bb8 <elf_tls_info+0x88>
    4ba5:	48 83 c0 38          	add    rax,0x38
    4ba9:	48 39 c8             	cmp    rax,rcx
    4bac:	75 f2                	jne    4ba0 <elf_tls_info+0x70>
    4bae:	31 c0                	xor    eax,eax
    4bb0:	c3                   	ret    
    4bb1:	0f 1f 80 00 00 00 00 	nop    DWORD PTR [rax+0x0]
    4bb8:	48 03 78 10          	add    rdi,QWORD PTR [rax+0x10]
    4bbc:	48 89 3e             	mov    QWORD PTR [rsi],rdi
    4bbf:	48 8b 40 20          	mov    rax,QWORD PTR [rax+0x20]
    4bc3:	48 89 02             	mov    QWORD PTR [rdx],rax
    4bc6:	31 c0                	xor    eax,eax
    4bc8:	c3                   	ret    
    4bc9:	b8 ff ff ff ff       	mov    eax,0xffffffff
    4bce:	c3                   	ret    
    4bcf:	90                   	nop

0000000000004bd0 <elf_get_init_array>:
    4bd0:	48 85 ff             	test   rdi,rdi
    4bd3:	b8 ff ff ff ff       	mov    eax,0xffffffff
    4bd8:	74 08                	je     4be2 <elf_get_init_array+0x12>
    4bda:	81 3f 7f 45 4c 46    	cmp    DWORD PTR [rdi],0x464c457f
    4be0:	74 06                	je     4be8 <elf_get_init_array+0x18>
    4be2:	f3 c3                	repz ret 
    4be4:	0f 1f 40 00          	nop    DWORD PTR [rax+0x0]
    4be8:	66 83 7f 10 03       	cmp    WORD PTR [rdi+0x10],0x3
    4bed:	75 f3                	jne    4be2 <elf_get_init_array+0x12>
    4bef:	48 8b 4f 20          	mov    rcx,QWORD PTR [rdi+0x20]
    4bf3:	48 01 f9             	add    rcx,rdi
    4bf6:	48 85 f6             	test   rsi,rsi
    4bf9:	41 0f 94 c0          	sete   r8b
    4bfd:	48 85 d2             	test   rdx,rdx
    4c00:	0f 94 c0             	sete   al
    4c03:	41 08 c0             	or     r8b,al
    4c06:	0f 85 97 00 00 00    	jne    4ca3 <elf_get_init_array+0xd3>
    4c0c:	48 85 c9             	test   rcx,rcx
    4c0f:	0f 84 8e 00 00 00    	je     4ca3 <elf_get_init_array+0xd3>
    4c15:	0f b7 47 38          	movzx  eax,WORD PTR [rdi+0x38]
    4c19:	48 c7 06 00 00 00 00 	mov    QWORD PTR [rsi],0x0
    4c20:	48 c7 02 00 00 00 00 	mov    QWORD PTR [rdx],0x0
    4c27:	85 c0                	test   eax,eax
    4c29:	74 75                	je     4ca0 <elf_get_init_array+0xd0>
    4c2b:	44 8d 40 ff          	lea    r8d,[rax-0x1]
    4c2f:	4a 8d 04 c5 00 00 00 	lea    rax,[r8*8+0x0]
    4c36:	00 
    4c37:	4c 29 c0             	sub    rax,r8
    4c3a:	4c 8d 54 c1 38       	lea    r10,[rcx+rax*8+0x38]
    4c3f:	eb 10                	jmp    4c51 <elf_get_init_array+0x81>
    4c41:	0f 1f 80 00 00 00 00 	nop    DWORD PTR [rax+0x0]
    4c48:	48 83 c1 38          	add    rcx,0x38
    4c4c:	4c 39 d1             	cmp    rcx,r10
    4c4f:	74 4f                	je     4ca0 <elf_get_init_array+0xd0>
    4c51:	83 39 02             	cmp    DWORD PTR [rcx],0x2
    4c54:	75 f2                	jne    4c48 <elf_get_init_array+0x78>
    4c56:	4c 8b 49 20          	mov    r9,QWORD PTR [rcx+0x20]
    4c5a:	48 8b 41 18          	mov    rax,QWORD PTR [rcx+0x18]
    4c5e:	49 c1 e9 04          	shr    r9,0x4
    4c62:	48 01 f8             	add    rax,rdi
    4c65:	4d 85 c9             	test   r9,r9
    4c68:	74 de                	je     4c48 <elf_get_init_array+0x78>
    4c6a:	49 c1 e1 04          	shl    r9,0x4
    4c6e:	49 01 c1             	add    r9,rax
    4c71:	eb 1b                	jmp    4c8e <elf_get_init_array+0xbe>
    4c73:	0f 1f 44 00 00       	nop    DWORD PTR [rax+rax*1+0x0]
    4c78:	49 83 f8 1b          	cmp    r8,0x1b
    4c7c:	75 07                	jne    4c85 <elf_get_init_array+0xb5>
    4c7e:	4c 8b 40 08          	mov    r8,QWORD PTR [rax+0x8]
    4c82:	4c 89 02             	mov    QWORD PTR [rdx],r8
    4c85:	48 83 c0 10          	add    rax,0x10
    4c89:	49 39 c1             	cmp    r9,rax
    4c8c:	74 ba                	je     4c48 <elf_get_init_array+0x78>
    4c8e:	4c 8b 00             	mov    r8,QWORD PTR [rax]
    4c91:	49 83 f8 19          	cmp    r8,0x19
    4c95:	75 e1                	jne    4c78 <elf_get_init_array+0xa8>
    4c97:	4c 8b 40 08          	mov    r8,QWORD PTR [rax+0x8]
    4c9b:	4c 89 06             	mov    QWORD PTR [rsi],r8
    4c9e:	eb e5                	jmp    4c85 <elf_get_init_array+0xb5>
    4ca0:	31 c0                	xor    eax,eax
    4ca2:	c3                   	ret    
    4ca3:	b8 ff ff ff ff       	mov    eax,0xffffffff
    4ca8:	c3                   	ret    
    4ca9:	0f 1f 80 00 00 00 00 	nop    DWORD PTR [rax+0x0]

0000000000004cb0 <elf_get_uninit_array>:
    4cb0:	48 85 ff             	test   rdi,rdi
    4cb3:	b8 ff ff ff ff       	mov    eax,0xffffffff
    4cb8:	74 08                	je     4cc2 <elf_get_uninit_array+0x12>
    4cba:	81 3f 7f 45 4c 46    	cmp    DWORD PTR [rdi],0x464c457f
    4cc0:	74 06                	je     4cc8 <elf_get_uninit_array+0x18>
    4cc2:	f3 c3                	repz ret 
    4cc4:	0f 1f 40 00          	nop    DWORD PTR [rax+0x0]
    4cc8:	66 83 7f 10 03       	cmp    WORD PTR [rdi+0x10],0x3
    4ccd:	75 f3                	jne    4cc2 <elf_get_uninit_array+0x12>
    4ccf:	48 8b 4f 20          	mov    rcx,QWORD PTR [rdi+0x20]
    4cd3:	48 01 f9             	add    rcx,rdi
    4cd6:	48 85 f6             	test   rsi,rsi
    4cd9:	41 0f 94 c0          	sete   r8b
    4cdd:	48 85 d2             	test   rdx,rdx
    4ce0:	0f 94 c0             	sete   al
    4ce3:	41 08 c0             	or     r8b,al
    4ce6:	0f 85 97 00 00 00    	jne    4d83 <elf_get_uninit_array+0xd3>
    4cec:	48 85 c9             	test   rcx,rcx
    4cef:	0f 84 8e 00 00 00    	je     4d83 <elf_get_uninit_array+0xd3>
    4cf5:	0f b7 47 38          	movzx  eax,WORD PTR [rdi+0x38]
    4cf9:	48 c7 06 00 00 00 00 	mov    QWORD PTR [rsi],0x0
    4d00:	48 c7 02 00 00 00 00 	mov    QWORD PTR [rdx],0x0
    4d07:	85 c0                	test   eax,eax
    4d09:	74 75                	je     4d80 <elf_get_uninit_array+0xd0>
    4d0b:	44 8d 40 ff          	lea    r8d,[rax-0x1]
    4d0f:	4a 8d 04 c5 00 00 00 	lea    rax,[r8*8+0x0]
    4d16:	00 
    4d17:	4c 29 c0             	sub    rax,r8
    4d1a:	4c 8d 54 c1 38       	lea    r10,[rcx+rax*8+0x38]
    4d1f:	eb 10                	jmp    4d31 <elf_get_uninit_array+0x81>
    4d21:	0f 1f 80 00 00 00 00 	nop    DWORD PTR [rax+0x0]
    4d28:	48 83 c1 38          	add    rcx,0x38
    4d2c:	4c 39 d1             	cmp    rcx,r10
    4d2f:	74 4f                	je     4d80 <elf_get_uninit_array+0xd0>
    4d31:	83 39 02             	cmp    DWORD PTR [rcx],0x2
    4d34:	75 f2                	jne    4d28 <elf_get_uninit_array+0x78>
    4d36:	4c 8b 49 20          	mov    r9,QWORD PTR [rcx+0x20]
    4d3a:	48 8b 41 18          	mov    rax,QWORD PTR [rcx+0x18]
    4d3e:	49 c1 e9 04          	shr    r9,0x4
    4d42:	48 01 f8             	add    rax,rdi
    4d45:	4d 85 c9             	test   r9,r9
    4d48:	74 de                	je     4d28 <elf_get_uninit_array+0x78>
    4d4a:	49 c1 e1 04          	shl    r9,0x4
    4d4e:	49 01 c1             	add    r9,rax
    4d51:	eb 1b                	jmp    4d6e <elf_get_uninit_array+0xbe>
    4d53:	0f 1f 44 00 00       	nop    DWORD PTR [rax+rax*1+0x0]
    4d58:	49 83 f8 1c          	cmp    r8,0x1c
    4d5c:	75 07                	jne    4d65 <elf_get_uninit_array+0xb5>
    4d5e:	4c 8b 40 08          	mov    r8,QWORD PTR [rax+0x8]
    4d62:	4c 89 02             	mov    QWORD PTR [rdx],r8
    4d65:	48 83 c0 10          	add    rax,0x10
    4d69:	49 39 c1             	cmp    r9,rax
    4d6c:	74 ba                	je     4d28 <elf_get_uninit_array+0x78>
    4d6e:	4c 8b 00             	mov    r8,QWORD PTR [rax]
    4d71:	49 83 f8 1a          	cmp    r8,0x1a
    4d75:	75 e1                	jne    4d58 <elf_get_uninit_array+0xa8>
    4d77:	4c 8b 40 08          	mov    r8,QWORD PTR [rax+0x8]
    4d7b:	4c 89 06             	mov    QWORD PTR [rsi],r8
    4d7e:	eb e5                	jmp    4d65 <elf_get_uninit_array+0xb5>
    4d80:	31 c0                	xor    eax,eax
    4d82:	c3                   	ret    
    4d83:	b8 ff ff ff ff       	mov    eax,0xffffffff
    4d88:	c3                   	ret    
    4d89:	0f 1f 80 00 00 00 00 	nop    DWORD PTR [rax+0x0]

0000000000004d90 <change_protection>:
    4d90:	48 85 ff             	test   rdi,rdi
    4d93:	b8 01 00 00 00       	mov    eax,0x1
    4d98:	74 08                	je     4da2 <change_protection+0x12>
    4d9a:	81 3f 7f 45 4c 46    	cmp    DWORD PTR [rdi],0x464c457f
    4da0:	74 06                	je     4da8 <change_protection+0x18>
    4da2:	f3 c3                	repz ret 
    4da4:	0f 1f 40 00          	nop    DWORD PTR [rax+0x0]
    4da8:	66 83 7f 10 03       	cmp    WORD PTR [rdi+0x10],0x3
    4dad:	75 f3                	jne    4da2 <change_protection+0x12>
    4daf:	41 56                	push   r14
    4db1:	41 55                	push   r13
    4db3:	41 54                	push   r12
    4db5:	49 89 fc             	mov    r12,rdi
    4db8:	55                   	push   rbp
    4db9:	53                   	push   rbx
