
../../libdvdcss_enclave.signed.so:     file format elf64-x86-64


Disassembly of section .plt:

0000000000000b60 <.plt>:
 b60:	ff 35 12 e4 23 00    	push   QWORD PTR [rip+0x23e412]        # 23ef78 <_GLOBAL_OFFSET_TABLE_+0x8>
 b66:	ff 25 14 e4 23 00    	jmp    QWORD PTR [rip+0x23e414]        # 23ef80 <_GLOBAL_OFFSET_TABLE_+0x10>
 b6c:	0f 1f 40 00          	nop    DWORD PTR [rax+0x0]

Disassembly of section .plt.got:

0000000000000b70 <_Z9pcl_entryPvS_@plt>:
 b70:	ff 25 42 e4 23 00    	jmp    QWORD PTR [rip+0x23e442]        # 23efb8 <_Z9pcl_entryPvS_>
 b76:	66 90                	xchg   ax,ax

Disassembly of section .text:

0000000000000b80 <trts_access_version_dummy1>:
     b80:	48 8d 05 89 e4 23 00 	lea    rax,[rip+0x23e489]        # 23f010 <sgx_trts_version>
     b87:	c6 00 73             	mov    BYTE PTR [rax],0x73
     b8a:	c3                   	ret    
     b8b:	0f 1f 44 00 00       	nop    DWORD PTR [rax+rax*1+0x0]

0000000000000b90 <tstdc_access_version_dummy1>:
     b90:	c6 05 a9 e4 23 00 73 	mov    BYTE PTR [rip+0x23e4a9],0x73        # 23f040 <sgx_tstdc_version>
     b97:	48 8d 05 a2 e4 23 00 	lea    rax,[rip+0x23e4a2]        # 23f040 <sgx_tstdc_version>
     b9e:	c3                   	ret    
     b9f:	90                   	nop

0000000000000ba0 <tcrypto_access_version_dummy1>:
     ba0:	c6 05 19 ed 23 00 73 	mov    BYTE PTR [rip+0x23ed19],0x73        # 23f8c0 <sgx_tcrypto_version>
     ba7:	48 8d 05 12 ed 23 00 	lea    rax,[rip+0x23ed12]        # 23f8c0 <sgx_tcrypto_version>
     bae:	c3                   	ret    
     baf:	90                   	nop

0000000000000bb0 <tservice_access_version_dummy1>:
     bb0:	c6 05 89 f0 23 00 73 	mov    BYTE PTR [rip+0x23f089],0x73        # 23fc40 <sgx_tservice_version>
     bb7:	48 8d 05 82 f0 23 00 	lea    rax,[rip+0x23f082]        # 23fc40 <sgx_tservice_version>
     bbe:	c3                   	ret    
     bbf:	90                   	nop

0000000000000bc0 <sgx_sec_dvdcss_test>:
     bc0:	55                   	push   rbp
     bc1:	48 89 e5             	mov    rbp,rsp
     bc4:	48 83 ec 40          	sub    rsp,0x40
     bc8:	48 89 7d f0          	mov    QWORD PTR [rbp-0x10],rdi
     bcc:	48 83 7d f0 00       	cmp    QWORD PTR [rbp-0x10],0x0
     bd1:	0f 84 38 00 00 00    	je     c0f <sgx_sec_dvdcss_test+0x4f>
     bd7:	bf 01 00 00 00       	mov    edi,0x1
     bdc:	e8 bf b5 00 00       	call   c1a0 <_Z7tracebrPv>
     be1:	48 8d 05 38 b8 00 00 	lea    rax,[rip+0xb838]        # c420 <sgx_is_outside_enclave>
     be8:	48 8b 7d f0          	mov    rdi,QWORD PTR [rbp-0x10]
     bec:	48 89 7d d0          	mov    QWORD PTR [rbp-0x30],rdi
     bf0:	48 89 c7             	mov    rdi,rax
     bf3:	e8 38 b2 00 00       	call   be30 <_Z10traceedgecPv>
     bf8:	48 8b 7d d0          	mov    rdi,QWORD PTR [rbp-0x30]
     bfc:	be 10 00 00 00       	mov    esi,0x10
     c01:	e8 1a b8 00 00       	call   c420 <sgx_is_outside_enclave>
     c06:	83 f8 00             	cmp    eax,0x0
     c09:	0f 85 13 00 00 00    	jne    c22 <sgx_sec_dvdcss_test+0x62>
     c0f:	31 ff                	xor    edi,edi
     c11:	e8 8a b5 00 00       	call   c1a0 <_Z7tracebrPv>
     c16:	c7 45 fc 02 00 00 00 	mov    DWORD PTR [rbp-0x4],0x2
     c1d:	e9 54 00 00 00       	jmp    c76 <sgx_sec_dvdcss_test+0xb6>
     c22:	bf 01 00 00 00       	mov    edi,0x1
     c27:	e8 74 b5 00 00       	call   c1a0 <_Z7tracebrPv>
     c2c:	48 8d 05 bd 5d 00 00 	lea    rax,[rip+0x5dbd]        # 69f0 <sec_dvdcss_test>
     c33:	0f ae e8             	lfence 
     c36:	48 8b 4d f0          	mov    rcx,QWORD PTR [rbp-0x10]
     c3a:	48 89 4d e8          	mov    QWORD PTR [rbp-0x18],rcx
     c3e:	c7 45 e4 00 00 00 00 	mov    DWORD PTR [rbp-0x1c],0x0
     c45:	48 8b 4d e8          	mov    rcx,QWORD PTR [rbp-0x18]
     c49:	48 8b 49 08          	mov    rcx,QWORD PTR [rcx+0x8]
     c4d:	48 89 4d d8          	mov    QWORD PTR [rbp-0x28],rcx
     c51:	48 8b 7d d8          	mov    rdi,QWORD PTR [rbp-0x28]
     c55:	48 89 7d c8          	mov    QWORD PTR [rbp-0x38],rdi
     c59:	48 89 c7             	mov    rdi,rax
     c5c:	e8 cf b1 00 00       	call   be30 <_Z10traceedgecPv>
     c61:	48 8b 7d c8          	mov    rdi,QWORD PTR [rbp-0x38]
     c65:	e8 86 5d 00 00       	call   69f0 <sec_dvdcss_test>
     c6a:	48 8b 4d e8          	mov    rcx,QWORD PTR [rbp-0x18]
     c6e:	89 01                	mov    DWORD PTR [rcx],eax
     c70:	8b 45 e4             	mov    eax,DWORD PTR [rbp-0x1c]
     c73:	89 45 fc             	mov    DWORD PTR [rbp-0x4],eax
     c76:	8b 45 fc             	mov    eax,DWORD PTR [rbp-0x4]
     c79:	48 8b 7d 08          	mov    rdi,QWORD PTR [rbp+0x8]
     c7d:	89 45 c4             	mov    DWORD PTR [rbp-0x3c],eax
     c80:	e8 ab b1 00 00       	call   be30 <_Z10traceedgecPv>
     c85:	8b 45 c4             	mov    eax,DWORD PTR [rbp-0x3c]
     c88:	48 83 c4 40          	add    rsp,0x40
     c8c:	5d                   	pop    rbp
     c8d:	c3                   	ret    
     c8e:	66 90                	xchg   ax,ax

0000000000000c90 <sgx_sec_dvdcss_disckey>:
     c90:	55                   	push   rbp
     c91:	48 89 e5             	mov    rbp,rsp
     c94:	48 83 ec 40          	sub    rsp,0x40
     c98:	48 89 7d f0          	mov    QWORD PTR [rbp-0x10],rdi
     c9c:	48 83 7d f0 00       	cmp    QWORD PTR [rbp-0x10],0x0
     ca1:	0f 84 38 00 00 00    	je     cdf <sgx_sec_dvdcss_disckey+0x4f>
     ca7:	bf 01 00 00 00       	mov    edi,0x1
     cac:	e8 ef b4 00 00       	call   c1a0 <_Z7tracebrPv>
     cb1:	48 8d 05 68 b7 00 00 	lea    rax,[rip+0xb768]        # c420 <sgx_is_outside_enclave>
     cb8:	48 8b 7d f0          	mov    rdi,QWORD PTR [rbp-0x10]
     cbc:	48 89 7d d0          	mov    QWORD PTR [rbp-0x30],rdi
     cc0:	48 89 c7             	mov    rdi,rax
     cc3:	e8 68 b1 00 00       	call   be30 <_Z10traceedgecPv>
     cc8:	48 8b 7d d0          	mov    rdi,QWORD PTR [rbp-0x30]
     ccc:	be 10 00 00 00       	mov    esi,0x10
     cd1:	e8 4a b7 00 00       	call   c420 <sgx_is_outside_enclave>
     cd6:	83 f8 00             	cmp    eax,0x0
     cd9:	0f 85 13 00 00 00    	jne    cf2 <sgx_sec_dvdcss_disckey+0x62>
     cdf:	31 ff                	xor    edi,edi
     ce1:	e8 ba b4 00 00       	call   c1a0 <_Z7tracebrPv>
     ce6:	c7 45 fc 02 00 00 00 	mov    DWORD PTR [rbp-0x4],0x2
     ced:	e9 54 00 00 00       	jmp    d46 <sgx_sec_dvdcss_disckey+0xb6>
     cf2:	bf 01 00 00 00       	mov    edi,0x1
     cf7:	e8 a4 b4 00 00       	call   c1a0 <_Z7tracebrPv>
     cfc:	48 8d 05 ad 65 00 00 	lea    rax,[rip+0x65ad]        # 72b0 <sec_dvdcss_disckey>
     d03:	0f ae e8             	lfence 
     d06:	48 8b 4d f0          	mov    rcx,QWORD PTR [rbp-0x10]
     d0a:	48 89 4d e8          	mov    QWORD PTR [rbp-0x18],rcx
     d0e:	c7 45 e4 00 00 00 00 	mov    DWORD PTR [rbp-0x1c],0x0
     d15:	48 8b 4d e8          	mov    rcx,QWORD PTR [rbp-0x18]
     d19:	48 8b 49 08          	mov    rcx,QWORD PTR [rcx+0x8]
     d1d:	48 89 4d d8          	mov    QWORD PTR [rbp-0x28],rcx
     d21:	48 8b 7d d8          	mov    rdi,QWORD PTR [rbp-0x28]
     d25:	48 89 7d c8          	mov    QWORD PTR [rbp-0x38],rdi
     d29:	48 89 c7             	mov    rdi,rax
     d2c:	e8 ff b0 00 00       	call   be30 <_Z10traceedgecPv>
     d31:	48 8b 7d c8          	mov    rdi,QWORD PTR [rbp-0x38]
     d35:	e8 76 65 00 00       	call   72b0 <sec_dvdcss_disckey>
     d3a:	48 8b 4d e8          	mov    rcx,QWORD PTR [rbp-0x18]
     d3e:	89 01                	mov    DWORD PTR [rcx],eax
     d40:	8b 45 e4             	mov    eax,DWORD PTR [rbp-0x1c]
     d43:	89 45 fc             	mov    DWORD PTR [rbp-0x4],eax
     d46:	8b 45 fc             	mov    eax,DWORD PTR [rbp-0x4]
     d49:	48 8b 7d 08          	mov    rdi,QWORD PTR [rbp+0x8]
     d4d:	89 45 c4             	mov    DWORD PTR [rbp-0x3c],eax
     d50:	e8 db b0 00 00       	call   be30 <_Z10traceedgecPv>
     d55:	8b 45 c4             	mov    eax,DWORD PTR [rbp-0x3c]
     d58:	48 83 c4 40          	add    rsp,0x40
     d5c:	5d                   	pop    rbp
     d5d:	c3                   	ret    
     d5e:	66 90                	xchg   ax,ax

0000000000000d60 <sgx_sec_dvdcss_unscramble>:
     d60:	55                   	push   rbp
     d61:	48 89 e5             	mov    rbp,rsp
     d64:	48 81 ec a0 00 00 00 	sub    rsp,0xa0
     d6b:	48 89 7d f0          	mov    QWORD PTR [rbp-0x10],rdi
     d6f:	48 83 7d f0 00       	cmp    QWORD PTR [rbp-0x10],0x0
     d74:	0f 84 38 00 00 00    	je     db2 <sgx_sec_dvdcss_unscramble+0x52>
     d7a:	bf 01 00 00 00       	mov    edi,0x1
     d7f:	e8 1c b4 00 00       	call   c1a0 <_Z7tracebrPv>
     d84:	48 8d 05 95 b6 00 00 	lea    rax,[rip+0xb695]        # c420 <sgx_is_outside_enclave>
     d8b:	48 8b 7d f0          	mov    rdi,QWORD PTR [rbp-0x10]
     d8f:	48 89 7d b8          	mov    QWORD PTR [rbp-0x48],rdi
     d93:	48 89 c7             	mov    rdi,rax
     d96:	e8 95 b0 00 00       	call   be30 <_Z10traceedgecPv>
     d9b:	48 8b 7d b8          	mov    rdi,QWORD PTR [rbp-0x48]
     d9f:	be 18 00 00 00       	mov    esi,0x18
     da4:	e8 77 b6 00 00       	call   c420 <sgx_is_outside_enclave>
     da9:	83 f8 00             	cmp    eax,0x0
     dac:	0f 85 13 00 00 00    	jne    dc5 <sgx_sec_dvdcss_unscramble+0x65>
     db2:	31 ff                	xor    edi,edi
     db4:	e8 e7 b3 00 00       	call   c1a0 <_Z7tracebrPv>
     db9:	c7 45 fc 02 00 00 00 	mov    DWORD PTR [rbp-0x4],0x2
     dc0:	e9 49 02 00 00       	jmp    100e <sgx_sec_dvdcss_unscramble+0x2ae>
     dc5:	bf 01 00 00 00       	mov    edi,0x1
     dca:	e8 d1 b3 00 00       	call   c1a0 <_Z7tracebrPv>
     dcf:	0f ae e8             	lfence 
     dd2:	48 8b 45 f0          	mov    rax,QWORD PTR [rbp-0x10]
     dd6:	48 89 45 e8          	mov    QWORD PTR [rbp-0x18],rax
     dda:	c7 45 e4 00 00 00 00 	mov    DWORD PTR [rbp-0x1c],0x0
     de1:	48 8b 45 e8          	mov    rax,QWORD PTR [rbp-0x18]
     de5:	48 8b 40 08          	mov    rax,QWORD PTR [rax+0x8]
     de9:	48 89 45 d8          	mov    QWORD PTR [rbp-0x28],rax
     ded:	48 c7 45 d0 05 00 00 	mov    QWORD PTR [rbp-0x30],0x5
     df4:	00 
     df5:	48 c7 45 c8 00 00 00 	mov    QWORD PTR [rbp-0x38],0x0
     dfc:	00 
     dfd:	48 8b 45 e8          	mov    rax,QWORD PTR [rbp-0x18]
     e01:	48 8b 40 10          	mov    rax,QWORD PTR [rax+0x10]
     e05:	48 89 45 c0          	mov    QWORD PTR [rbp-0x40],rax
     e09:	48 83 7d d8 00       	cmp    QWORD PTR [rbp-0x28],0x0
     e0e:	0f 84 52 00 00 00    	je     e66 <sgx_sec_dvdcss_unscramble+0x106>
     e14:	bf 01 00 00 00       	mov    edi,0x1
     e19:	e8 82 b3 00 00       	call   c1a0 <_Z7tracebrPv>
     e1e:	48 8d 05 fb b5 00 00 	lea    rax,[rip+0xb5fb]        # c420 <sgx_is_outside_enclave>
     e25:	48 8b 7d d8          	mov    rdi,QWORD PTR [rbp-0x28]
     e29:	48 8b 75 d0          	mov    rsi,QWORD PTR [rbp-0x30]
     e2d:	48 89 7d b0          	mov    QWORD PTR [rbp-0x50],rdi
     e31:	48 89 c7             	mov    rdi,rax
     e34:	48 89 75 a8          	mov    QWORD PTR [rbp-0x58],rsi
     e38:	e8 f3 af 00 00       	call   be30 <_Z10traceedgecPv>
     e3d:	48 8b 7d b0          	mov    rdi,QWORD PTR [rbp-0x50]
     e41:	48 8b 75 a8          	mov    rsi,QWORD PTR [rbp-0x58]
     e45:	e8 d6 b5 00 00       	call   c420 <sgx_is_outside_enclave>
     e4a:	83 f8 00             	cmp    eax,0x0
     e4d:	0f 85 13 00 00 00    	jne    e66 <sgx_sec_dvdcss_unscramble+0x106>
     e53:	31 ff                	xor    edi,edi
     e55:	e8 46 b3 00 00       	call   c1a0 <_Z7tracebrPv>
     e5a:	c7 45 fc 02 00 00 00 	mov    DWORD PTR [rbp-0x4],0x2
     e61:	e9 a8 01 00 00       	jmp    100e <sgx_sec_dvdcss_unscramble+0x2ae>
     e66:	31 ff                	xor    edi,edi
     e68:	e8 33 b3 00 00       	call   c1a0 <_Z7tracebrPv>
     e6d:	0f ae e8             	lfence 
     e70:	48 83 7d d8 00       	cmp    QWORD PTR [rbp-0x28],0x0
     e75:	0f 84 06 01 00 00    	je     f81 <sgx_sec_dvdcss_unscramble+0x221>
     e7b:	bf 01 00 00 00       	mov    edi,0x1
     e80:	e8 1b b3 00 00       	call   c1a0 <_Z7tracebrPv>
     e85:	48 83 7d d0 00       	cmp    QWORD PTR [rbp-0x30],0x0
     e8a:	0f 84 f1 00 00 00    	je     f81 <sgx_sec_dvdcss_unscramble+0x221>
     e90:	bf 01 00 00 00       	mov    edi,0x1
     e95:	e8 06 b3 00 00       	call   c1a0 <_Z7tracebrPv>
     e9a:	48 8b 45 d0          	mov    rax,QWORD PTR [rbp-0x30]
     e9e:	48 25 00 00 00 00    	and    rax,0x0
     ea4:	48 83 f8 00          	cmp    rax,0x0
     ea8:	0f 84 16 00 00 00    	je     ec4 <sgx_sec_dvdcss_unscramble+0x164>
     eae:	bf 01 00 00 00       	mov    edi,0x1
     eb3:	e8 e8 b2 00 00       	call   c1a0 <_Z7tracebrPv>
     eb8:	c7 45 e4 02 00 00 00 	mov    DWORD PTR [rbp-0x1c],0x2
     ebf:	e9 02 01 00 00       	jmp    fc6 <sgx_sec_dvdcss_unscramble+0x266>
     ec4:	31 ff                	xor    edi,edi
     ec6:	e8 d5 b2 00 00       	call   c1a0 <_Z7tracebrPv>
     ecb:	48 8d 05 de e7 00 00 	lea    rax,[rip+0xe7de]        # f6b0 <dlmalloc>
     ed2:	48 8b 7d d0          	mov    rdi,QWORD PTR [rbp-0x30]
     ed6:	48 89 7d a0          	mov    QWORD PTR [rbp-0x60],rdi
     eda:	48 89 c7             	mov    rdi,rax
     edd:	e8 4e af 00 00       	call   be30 <_Z10traceedgecPv>
     ee2:	48 8b 7d a0          	mov    rdi,QWORD PTR [rbp-0x60]
     ee6:	e8 c5 e7 00 00       	call   f6b0 <dlmalloc>
     eeb:	48 89 45 c8          	mov    QWORD PTR [rbp-0x38],rax
     eef:	48 83 7d c8 00       	cmp    QWORD PTR [rbp-0x38],0x0
     ef4:	0f 85 16 00 00 00    	jne    f10 <sgx_sec_dvdcss_unscramble+0x1b0>
     efa:	bf 01 00 00 00       	mov    edi,0x1
     eff:	e8 9c b2 00 00       	call   c1a0 <_Z7tracebrPv>
     f04:	c7 45 e4 03 00 00 00 	mov    DWORD PTR [rbp-0x1c],0x3
     f0b:	e9 b6 00 00 00       	jmp    fc6 <sgx_sec_dvdcss_unscramble+0x266>
     f10:	31 ff                	xor    edi,edi
     f12:	e8 89 b2 00 00       	call   c1a0 <_Z7tracebrPv>
     f17:	48 8d 05 62 17 01 00 	lea    rax,[rip+0x11762]        # 12680 <memcpy_s>
     f1e:	48 8b 7d c8          	mov    rdi,QWORD PTR [rbp-0x38]
     f22:	48 8b 75 d0          	mov    rsi,QWORD PTR [rbp-0x30]
     f26:	48 8b 55 d8          	mov    rdx,QWORD PTR [rbp-0x28]
     f2a:	48 8b 4d d0          	mov    rcx,QWORD PTR [rbp-0x30]
     f2e:	48 89 7d 98          	mov    QWORD PTR [rbp-0x68],rdi
     f32:	48 89 c7             	mov    rdi,rax
     f35:	48 89 75 90          	mov    QWORD PTR [rbp-0x70],rsi
     f39:	48 89 55 88          	mov    QWORD PTR [rbp-0x78],rdx
     f3d:	48 89 4d 80          	mov    QWORD PTR [rbp-0x80],rcx
     f41:	e8 ea ae 00 00       	call   be30 <_Z10traceedgecPv>
     f46:	48 8b 7d 98          	mov    rdi,QWORD PTR [rbp-0x68]
     f4a:	48 8b 75 90          	mov    rsi,QWORD PTR [rbp-0x70]
     f4e:	48 8b 55 88          	mov    rdx,QWORD PTR [rbp-0x78]
     f52:	48 8b 4d 80          	mov    rcx,QWORD PTR [rbp-0x80]
     f56:	e8 25 17 01 00       	call   12680 <memcpy_s>
     f5b:	83 f8 00             	cmp    eax,0x0
     f5e:	0f 84 16 00 00 00    	je     f7a <sgx_sec_dvdcss_unscramble+0x21a>
     f64:	bf 01 00 00 00       	mov    edi,0x1
     f69:	e8 32 b2 00 00       	call   c1a0 <_Z7tracebrPv>
     f6e:	c7 45 e4 01 00 00 00 	mov    DWORD PTR [rbp-0x1c],0x1
     f75:	e9 4c 00 00 00       	jmp    fc6 <sgx_sec_dvdcss_unscramble+0x266>
     f7a:	31 ff                	xor    edi,edi
     f7c:	e8 1f b2 00 00       	call   c1a0 <_Z7tracebrPv>
     f81:	31 ff                	xor    edi,edi
     f83:	e8 18 b2 00 00       	call   c1a0 <_Z7tracebrPv>
     f88:	48 8d 05 01 93 00 00 	lea    rax,[rip+0x9301]        # a290 <sec_dvdcss_unscramble>
     f8f:	48 8b 7d c8          	mov    rdi,QWORD PTR [rbp-0x38]
     f93:	48 8b 75 c0          	mov    rsi,QWORD PTR [rbp-0x40]
     f97:	48 89 bd 78 ff ff ff 	mov    QWORD PTR [rbp-0x88],rdi
     f9e:	48 89 c7             	mov    rdi,rax
     fa1:	48 89 b5 70 ff ff ff 	mov    QWORD PTR [rbp-0x90],rsi
     fa8:	e8 83 ae 00 00       	call   be30 <_Z10traceedgecPv>
     fad:	48 8b bd 78 ff ff ff 	mov    rdi,QWORD PTR [rbp-0x88]
     fb4:	48 8b b5 70 ff ff ff 	mov    rsi,QWORD PTR [rbp-0x90]
     fbb:	e8 d0 92 00 00       	call   a290 <sec_dvdcss_unscramble>
     fc0:	48 8b 4d e8          	mov    rcx,QWORD PTR [rbp-0x18]
     fc4:	89 01                	mov    DWORD PTR [rcx],eax
     fc6:	48 83 7d c8 00       	cmp    QWORD PTR [rbp-0x38],0x0
     fcb:	0f 84 30 00 00 00    	je     1001 <sgx_sec_dvdcss_unscramble+0x2a1>
     fd1:	bf 01 00 00 00       	mov    edi,0x1
     fd6:	e8 c5 b1 00 00       	call   c1a0 <_Z7tracebrPv>
     fdb:	48 8d 05 ce 00 01 00 	lea    rax,[rip+0x100ce]        # 110b0 <dlfree>
     fe2:	48 8b 7d c8          	mov    rdi,QWORD PTR [rbp-0x38]
     fe6:	48 89 bd 68 ff ff ff 	mov    QWORD PTR [rbp-0x98],rdi
     fed:	48 89 c7             	mov    rdi,rax
     ff0:	e8 3b ae 00 00       	call   be30 <_Z10traceedgecPv>
     ff5:	48 8b bd 68 ff ff ff 	mov    rdi,QWORD PTR [rbp-0x98]
     ffc:	e8 af 00 01 00       	call   110b0 <dlfree>
    1001:	31 ff                	xor    edi,edi
    1003:	e8 98 b1 00 00       	call   c1a0 <_Z7tracebrPv>
    1008:	8b 45 e4             	mov    eax,DWORD PTR [rbp-0x1c]
    100b:	89 45 fc             	mov    DWORD PTR [rbp-0x4],eax
    100e:	8b 45 fc             	mov    eax,DWORD PTR [rbp-0x4]
    1011:	48 8b 7d 08          	mov    rdi,QWORD PTR [rbp+0x8]
    1015:	89 85 64 ff ff ff    	mov    DWORD PTR [rbp-0x9c],eax
    101b:	e8 10 ae 00 00       	call   be30 <_Z10traceedgecPv>
    1020:	8b 85 64 ff ff ff    	mov    eax,DWORD PTR [rbp-0x9c]
    1026:	48 81 c4 a0 00 00 00 	add    rsp,0xa0
    102d:	5d                   	pop    rbp
    102e:	c3                   	ret    
    102f:	90                   	nop

0000000000001030 <sgx_sec_dvdcss_titlekey>:
    1030:	55                   	push   rbp
    1031:	48 89 e5             	mov    rbp,rsp
    1034:	48 81 ec b0 00 00 00 	sub    rsp,0xb0
    103b:	48 89 7d f0          	mov    QWORD PTR [rbp-0x10],rdi
    103f:	48 83 7d f0 00       	cmp    QWORD PTR [rbp-0x10],0x0
    1044:	0f 84 38 00 00 00    	je     1082 <sgx_sec_dvdcss_titlekey+0x52>
    104a:	bf 01 00 00 00       	mov    edi,0x1
    104f:	e8 4c b1 00 00       	call   c1a0 <_Z7tracebrPv>
    1054:	48 8d 05 c5 b3 00 00 	lea    rax,[rip+0xb3c5]        # c420 <sgx_is_outside_enclave>
    105b:	48 8b 7d f0          	mov    rdi,QWORD PTR [rbp-0x10]
    105f:	48 89 7d b8          	mov    QWORD PTR [rbp-0x48],rdi
    1063:	48 89 c7             	mov    rdi,rax
    1066:	e8 c5 ad 00 00       	call   be30 <_Z10traceedgecPv>
    106b:	48 8b 7d b8          	mov    rdi,QWORD PTR [rbp-0x48]
    106f:	be 20 00 00 00       	mov    esi,0x20
    1074:	e8 a7 b3 00 00       	call   c420 <sgx_is_outside_enclave>
    1079:	83 f8 00             	cmp    eax,0x0
    107c:	0f 85 13 00 00 00    	jne    1095 <sgx_sec_dvdcss_titlekey+0x65>
    1082:	31 ff                	xor    edi,edi
    1084:	e8 17 b1 00 00       	call   c1a0 <_Z7tracebrPv>
    1089:	c7 45 fc 02 00 00 00 	mov    DWORD PTR [rbp-0x4],0x2
    1090:	e9 5c 02 00 00       	jmp    12f1 <sgx_sec_dvdcss_titlekey+0x2c1>
    1095:	bf 01 00 00 00       	mov    edi,0x1
    109a:	e8 01 b1 00 00       	call   c1a0 <_Z7tracebrPv>
    109f:	0f ae e8             	lfence 
    10a2:	48 8b 45 f0          	mov    rax,QWORD PTR [rbp-0x10]
    10a6:	48 89 45 e8          	mov    QWORD PTR [rbp-0x18],rax
    10aa:	c7 45 e4 00 00 00 00 	mov    DWORD PTR [rbp-0x1c],0x0
    10b1:	48 8b 45 e8          	mov    rax,QWORD PTR [rbp-0x18]
    10b5:	48 8b 40 08          	mov    rax,QWORD PTR [rax+0x8]
    10b9:	48 89 45 d8          	mov    QWORD PTR [rbp-0x28],rax
    10bd:	48 8b 45 e8          	mov    rax,QWORD PTR [rbp-0x18]
    10c1:	48 8b 40 18          	mov    rax,QWORD PTR [rax+0x18]
    10c5:	48 89 45 d0          	mov    QWORD PTR [rbp-0x30],rax
    10c9:	48 c7 45 c8 05 00 00 	mov    QWORD PTR [rbp-0x38],0x5
    10d0:	00 
    10d1:	48 c7 45 c0 00 00 00 	mov    QWORD PTR [rbp-0x40],0x0
    10d8:	00 
    10d9:	48 83 7d d0 00       	cmp    QWORD PTR [rbp-0x30],0x0
    10de:	0f 84 52 00 00 00    	je     1136 <sgx_sec_dvdcss_titlekey+0x106>
    10e4:	bf 01 00 00 00       	mov    edi,0x1
    10e9:	e8 b2 b0 00 00       	call   c1a0 <_Z7tracebrPv>
    10ee:	48 8d 05 2b b3 00 00 	lea    rax,[rip+0xb32b]        # c420 <sgx_is_outside_enclave>
    10f5:	48 8b 7d d0          	mov    rdi,QWORD PTR [rbp-0x30]
    10f9:	48 8b 75 c8          	mov    rsi,QWORD PTR [rbp-0x38]
    10fd:	48 89 7d b0          	mov    QWORD PTR [rbp-0x50],rdi
    1101:	48 89 c7             	mov    rdi,rax
    1104:	48 89 75 a8          	mov    QWORD PTR [rbp-0x58],rsi
    1108:	e8 23 ad 00 00       	call   be30 <_Z10traceedgecPv>
    110d:	48 8b 7d b0          	mov    rdi,QWORD PTR [rbp-0x50]
    1111:	48 8b 75 a8          	mov    rsi,QWORD PTR [rbp-0x58]
    1115:	e8 06 b3 00 00       	call   c420 <sgx_is_outside_enclave>
    111a:	83 f8 00             	cmp    eax,0x0
    111d:	0f 85 13 00 00 00    	jne    1136 <sgx_sec_dvdcss_titlekey+0x106>
    1123:	31 ff                	xor    edi,edi
    1125:	e8 76 b0 00 00       	call   c1a0 <_Z7tracebrPv>
    112a:	c7 45 fc 02 00 00 00 	mov    DWORD PTR [rbp-0x4],0x2
    1131:	e9 bb 01 00 00       	jmp    12f1 <sgx_sec_dvdcss_titlekey+0x2c1>
    1136:	31 ff                	xor    edi,edi
    1138:	e8 63 b0 00 00       	call   c1a0 <_Z7tracebrPv>
    113d:	0f ae e8             	lfence 
    1140:	48 83 7d d0 00       	cmp    QWORD PTR [rbp-0x30],0x0
    1145:	0f 84 06 01 00 00    	je     1251 <sgx_sec_dvdcss_titlekey+0x221>
    114b:	bf 01 00 00 00       	mov    edi,0x1
    1150:	e8 4b b0 00 00       	call   c1a0 <_Z7tracebrPv>
    1155:	48 83 7d c8 00       	cmp    QWORD PTR [rbp-0x38],0x0
    115a:	0f 84 f1 00 00 00    	je     1251 <sgx_sec_dvdcss_titlekey+0x221>
    1160:	bf 01 00 00 00       	mov    edi,0x1
    1165:	e8 36 b0 00 00       	call   c1a0 <_Z7tracebrPv>
    116a:	48 8b 45 c8          	mov    rax,QWORD PTR [rbp-0x38]
    116e:	48 25 00 00 00 00    	and    rax,0x0
    1174:	48 83 f8 00          	cmp    rax,0x0
    1178:	0f 84 16 00 00 00    	je     1194 <sgx_sec_dvdcss_titlekey+0x164>
    117e:	bf 01 00 00 00       	mov    edi,0x1
    1183:	e8 18 b0 00 00       	call   c1a0 <_Z7tracebrPv>
    1188:	c7 45 e4 02 00 00 00 	mov    DWORD PTR [rbp-0x1c],0x2
    118f:	e9 15 01 00 00       	jmp    12a9 <sgx_sec_dvdcss_titlekey+0x279>
    1194:	31 ff                	xor    edi,edi
    1196:	e8 05 b0 00 00       	call   c1a0 <_Z7tracebrPv>
    119b:	48 8d 05 0e e5 00 00 	lea    rax,[rip+0xe50e]        # f6b0 <dlmalloc>
    11a2:	48 8b 7d c8          	mov    rdi,QWORD PTR [rbp-0x38]
    11a6:	48 89 7d a0          	mov    QWORD PTR [rbp-0x60],rdi
    11aa:	48 89 c7             	mov    rdi,rax
    11ad:	e8 7e ac 00 00       	call   be30 <_Z10traceedgecPv>
    11b2:	48 8b 7d a0          	mov    rdi,QWORD PTR [rbp-0x60]
    11b6:	e8 f5 e4 00 00       	call   f6b0 <dlmalloc>
    11bb:	48 89 45 c0          	mov    QWORD PTR [rbp-0x40],rax
    11bf:	48 83 7d c0 00       	cmp    QWORD PTR [rbp-0x40],0x0
    11c4:	0f 85 16 00 00 00    	jne    11e0 <sgx_sec_dvdcss_titlekey+0x1b0>
    11ca:	bf 01 00 00 00       	mov    edi,0x1
    11cf:	e8 cc af 00 00       	call   c1a0 <_Z7tracebrPv>
    11d4:	c7 45 e4 03 00 00 00 	mov    DWORD PTR [rbp-0x1c],0x3
    11db:	e9 c9 00 00 00       	jmp    12a9 <sgx_sec_dvdcss_titlekey+0x279>
    11e0:	31 ff                	xor    edi,edi
    11e2:	e8 b9 af 00 00       	call   c1a0 <_Z7tracebrPv>
    11e7:	48 8d 05 92 14 01 00 	lea    rax,[rip+0x11492]        # 12680 <memcpy_s>
    11ee:	48 8b 7d c0          	mov    rdi,QWORD PTR [rbp-0x40]
    11f2:	48 8b 75 c8          	mov    rsi,QWORD PTR [rbp-0x38]
    11f6:	48 8b 55 d0          	mov    rdx,QWORD PTR [rbp-0x30]
    11fa:	48 8b 4d c8          	mov    rcx,QWORD PTR [rbp-0x38]
    11fe:	48 89 7d 98          	mov    QWORD PTR [rbp-0x68],rdi
    1202:	48 89 c7             	mov    rdi,rax
    1205:	48 89 75 90          	mov    QWORD PTR [rbp-0x70],rsi
    1209:	48 89 55 88          	mov    QWORD PTR [rbp-0x78],rdx
    120d:	48 89 4d 80          	mov    QWORD PTR [rbp-0x80],rcx
    1211:	e8 1a ac 00 00       	call   be30 <_Z10traceedgecPv>
    1216:	48 8b 7d 98          	mov    rdi,QWORD PTR [rbp-0x68]
    121a:	48 8b 75 90          	mov    rsi,QWORD PTR [rbp-0x70]
    121e:	48 8b 55 88          	mov    rdx,QWORD PTR [rbp-0x78]
    1222:	48 8b 4d 80          	mov    rcx,QWORD PTR [rbp-0x80]
    1226:	e8 55 14 01 00       	call   12680 <memcpy_s>
    122b:	83 f8 00             	cmp    eax,0x0
    122e:	0f 84 16 00 00 00    	je     124a <sgx_sec_dvdcss_titlekey+0x21a>
    1234:	bf 01 00 00 00       	mov    edi,0x1
    1239:	e8 62 af 00 00       	call   c1a0 <_Z7tracebrPv>
    123e:	c7 45 e4 01 00 00 00 	mov    DWORD PTR [rbp-0x1c],0x1
    1245:	e9 5f 00 00 00       	jmp    12a9 <sgx_sec_dvdcss_titlekey+0x279>
    124a:	31 ff                	xor    edi,edi
    124c:	e8 4f af 00 00       	call   c1a0 <_Z7tracebrPv>
    1251:	31 ff                	xor    edi,edi
    1253:	e8 48 af 00 00       	call   c1a0 <_Z7tracebrPv>
    1258:	48 8d 05 f1 80 00 00 	lea    rax,[rip+0x80f1]        # 9350 <sec_dvdcss_titlekey>
    125f:	48 8b 7d d8          	mov    rdi,QWORD PTR [rbp-0x28]
    1263:	48 8b 4d e8          	mov    rcx,QWORD PTR [rbp-0x18]
    1267:	8b 71 10             	mov    esi,DWORD PTR [rcx+0x10]
    126a:	48 8b 55 c0          	mov    rdx,QWORD PTR [rbp-0x40]
    126e:	48 89 bd 78 ff ff ff 	mov    QWORD PTR [rbp-0x88],rdi
    1275:	48 89 c7             	mov    rdi,rax
    1278:	89 b5 74 ff ff ff    	mov    DWORD PTR [rbp-0x8c],esi
    127e:	48 89 95 68 ff ff ff 	mov    QWORD PTR [rbp-0x98],rdx
    1285:	e8 a6 ab 00 00       	call   be30 <_Z10traceedgecPv>
    128a:	48 8b bd 78 ff ff ff 	mov    rdi,QWORD PTR [rbp-0x88]
    1291:	8b b5 74 ff ff ff    	mov    esi,DWORD PTR [rbp-0x8c]
    1297:	48 8b 95 68 ff ff ff 	mov    rdx,QWORD PTR [rbp-0x98]
    129e:	e8 ad 80 00 00       	call   9350 <sec_dvdcss_titlekey>
    12a3:	48 8b 4d e8          	mov    rcx,QWORD PTR [rbp-0x18]
    12a7:	89 01                	mov    DWORD PTR [rcx],eax
    12a9:	48 83 7d c0 00       	cmp    QWORD PTR [rbp-0x40],0x0
    12ae:	0f 84 30 00 00 00    	je     12e4 <sgx_sec_dvdcss_titlekey+0x2b4>
    12b4:	bf 01 00 00 00       	mov    edi,0x1
    12b9:	e8 e2 ae 00 00       	call   c1a0 <_Z7tracebrPv>
    12be:	48 8d 05 eb fd 00 00 	lea    rax,[rip+0xfdeb]        # 110b0 <dlfree>
    12c5:	48 8b 7d c0          	mov    rdi,QWORD PTR [rbp-0x40]
    12c9:	48 89 bd 60 ff ff ff 	mov    QWORD PTR [rbp-0xa0],rdi
    12d0:	48 89 c7             	mov    rdi,rax
    12d3:	e8 58 ab 00 00       	call   be30 <_Z10traceedgecPv>
    12d8:	48 8b bd 60 ff ff ff 	mov    rdi,QWORD PTR [rbp-0xa0]
    12df:	e8 cc fd 00 00       	call   110b0 <dlfree>
    12e4:	31 ff                	xor    edi,edi
    12e6:	e8 b5 ae 00 00       	call   c1a0 <_Z7tracebrPv>
    12eb:	8b 45 e4             	mov    eax,DWORD PTR [rbp-0x1c]
    12ee:	89 45 fc             	mov    DWORD PTR [rbp-0x4],eax
    12f1:	8b 45 fc             	mov    eax,DWORD PTR [rbp-0x4]
    12f4:	48 8b 7d 08          	mov    rdi,QWORD PTR [rbp+0x8]
    12f8:	89 85 5c ff ff ff    	mov    DWORD PTR [rbp-0xa4],eax
    12fe:	e8 2d ab 00 00       	call   be30 <_Z10traceedgecPv>
    1303:	8b 85 5c ff ff ff    	mov    eax,DWORD PTR [rbp-0xa4]
    1309:	48 81 c4 b0 00 00 00 	add    rsp,0xb0
    1310:	5d                   	pop    rbp
    1311:	c3                   	ret    
    1312:	66 2e 0f 1f 84 00 00 	nop    WORD PTR cs:[rax+rax*1+0x0]
    1319:	00 00 00 
    131c:	0f 1f 40 00          	nop    DWORD PTR [rax+0x0]

0000000000001320 <sgx_setBucket>:
    1320:	55                   	push   rbp
    1321:	48 89 e5             	mov    rbp,rsp
    1324:	48 83 ec 30          	sub    rsp,0x30
    1328:	48 89 7d f0          	mov    QWORD PTR [rbp-0x10],rdi
    132c:	48 83 7d f0 00       	cmp    QWORD PTR [rbp-0x10],0x0
    1331:	0f 84 17 00 00 00    	je     134e <sgx_setBucket+0x2e>
    1337:	48 8b 7d f0          	mov    rdi,QWORD PTR [rbp-0x10]
    133b:	be 08 00 00 00       	mov    esi,0x8
    1340:	e8 db b0 00 00       	call   c420 <sgx_is_outside_enclave>
    1345:	83 f8 00             	cmp    eax,0x0
    1348:	0f 85 0c 00 00 00    	jne    135a <sgx_setBucket+0x3a>
    134e:	c7 45 fc 02 00 00 00 	mov    DWORD PTR [rbp-0x4],0x2
    1355:	e9 31 00 00 00       	jmp    138b <sgx_setBucket+0x6b>
    135a:	e9 00 00 00 00       	jmp    135f <sgx_setBucket+0x3f>
    135f:	0f ae e8             	lfence 
    1362:	48 8b 45 f0          	mov    rax,QWORD PTR [rbp-0x10]
    1366:	48 89 45 e8          	mov    QWORD PTR [rbp-0x18],rax
    136a:	c7 45 e4 00 00 00 00 	mov    DWORD PTR [rbp-0x1c],0x0
    1371:	48 8b 45 e8          	mov    rax,QWORD PTR [rbp-0x18]
    1375:	48 8b 00             	mov    rax,QWORD PTR [rax]
    1378:	48 89 45 d8          	mov    QWORD PTR [rbp-0x28],rax
    137c:	48 8b 7d d8          	mov    rdi,QWORD PTR [rbp-0x28]
    1380:	e8 2b a9 00 00       	call   bcb0 <setBucket>
    1385:	8b 4d e4             	mov    ecx,DWORD PTR [rbp-0x1c]
    1388:	89 4d fc             	mov    DWORD PTR [rbp-0x4],ecx
    138b:	8b 45 fc             	mov    eax,DWORD PTR [rbp-0x4]
    138e:	48 83 c4 30          	add    rsp,0x30
    1392:	5d                   	pop    rbp
    1393:	c3                   	ret    
    1394:	66 2e 0f 1f 84 00 00 	nop    WORD PTR cs:[rax+rax*1+0x0]
    139b:	00 00 00 
    139e:	66 90                	xchg   ax,ax

00000000000013a0 <sgx_setActionCounter>:
    13a0:	55                   	push   rbp
    13a1:	48 89 e5             	mov    rbp,rsp
    13a4:	48 83 ec 40          	sub    rsp,0x40
    13a8:	48 89 7d f0          	mov    QWORD PTR [rbp-0x10],rdi
    13ac:	48 83 7d f0 00       	cmp    QWORD PTR [rbp-0x10],0x0
    13b1:	0f 84 38 00 00 00    	je     13ef <sgx_setActionCounter+0x4f>
    13b7:	bf 01 00 00 00       	mov    edi,0x1
    13bc:	e8 df ad 00 00       	call   c1a0 <_Z7tracebrPv>
    13c1:	48 8d 05 58 b0 00 00 	lea    rax,[rip+0xb058]        # c420 <sgx_is_outside_enclave>
    13c8:	48 8b 7d f0          	mov    rdi,QWORD PTR [rbp-0x10]
    13cc:	48 89 7d d0          	mov    QWORD PTR [rbp-0x30],rdi
    13d0:	48 89 c7             	mov    rdi,rax
    13d3:	e8 58 aa 00 00       	call   be30 <_Z10traceedgecPv>
    13d8:	48 8b 7d d0          	mov    rdi,QWORD PTR [rbp-0x30]
    13dc:	be 08 00 00 00       	mov    esi,0x8
    13e1:	e8 3a b0 00 00       	call   c420 <sgx_is_outside_enclave>
    13e6:	83 f8 00             	cmp    eax,0x0
    13e9:	0f 85 13 00 00 00    	jne    1402 <sgx_setActionCounter+0x62>
    13ef:	31 ff                	xor    edi,edi
    13f1:	e8 aa ad 00 00       	call   c1a0 <_Z7tracebrPv>
    13f6:	c7 45 fc 02 00 00 00 	mov    DWORD PTR [rbp-0x4],0x2
    13fd:	e9 4d 00 00 00       	jmp    144f <sgx_setActionCounter+0xaf>
    1402:	bf 01 00 00 00       	mov    edi,0x1
    1407:	e8 94 ad 00 00       	call   c1a0 <_Z7tracebrPv>
    140c:	48 8d 05 bd a8 00 00 	lea    rax,[rip+0xa8bd]        # bcd0 <setActionCounter>
    1413:	0f ae e8             	lfence 
    1416:	48 8b 4d f0          	mov    rcx,QWORD PTR [rbp-0x10]
    141a:	48 89 4d e8          	mov    QWORD PTR [rbp-0x18],rcx
    141e:	c7 45 e4 00 00 00 00 	mov    DWORD PTR [rbp-0x1c],0x0
    1425:	48 8b 4d e8          	mov    rcx,QWORD PTR [rbp-0x18]
    1429:	48 8b 09             	mov    rcx,QWORD PTR [rcx]
    142c:	48 89 4d d8          	mov    QWORD PTR [rbp-0x28],rcx
    1430:	48 8b 7d d8          	mov    rdi,QWORD PTR [rbp-0x28]
    1434:	48 89 7d c8          	mov    QWORD PTR [rbp-0x38],rdi
    1438:	48 89 c7             	mov    rdi,rax
    143b:	e8 f0 a9 00 00       	call   be30 <_Z10traceedgecPv>
    1440:	48 8b 7d c8          	mov    rdi,QWORD PTR [rbp-0x38]
    1444:	e8 87 a8 00 00       	call   bcd0 <setActionCounter>
    1449:	8b 55 e4             	mov    edx,DWORD PTR [rbp-0x1c]
    144c:	89 55 fc             	mov    DWORD PTR [rbp-0x4],edx
    144f:	8b 45 fc             	mov    eax,DWORD PTR [rbp-0x4]
    1452:	48 8b 7d 08          	mov    rdi,QWORD PTR [rbp+0x8]
    1456:	89 45 c4             	mov    DWORD PTR [rbp-0x3c],eax
    1459:	e8 d2 a9 00 00       	call   be30 <_Z10traceedgecPv>
    145e:	8b 45 c4             	mov    eax,DWORD PTR [rbp-0x3c]
    1461:	48 83 c4 40          	add    rsp,0x40
    1465:	5d                   	pop    rbp
    1466:	c3                   	ret    
    1467:	66 0f 1f 84 00 00 00 	nop    WORD PTR [rax+rax*1+0x0]
    146e:	00 00 

0000000000001470 <sgx_bootSecureCommunication>:
    1470:	55                   	push   rbp
    1471:	48 89 e5             	mov    rbp,rsp
    1474:	48 83 ec 20          	sub    rsp,0x20
    1478:	48 89 7d f0          	mov    QWORD PTR [rbp-0x10],rdi
    147c:	c7 45 ec 00 00 00 00 	mov    DWORD PTR [rbp-0x14],0x0
    1483:	48 83 7d f0 00       	cmp    QWORD PTR [rbp-0x10],0x0
    1488:	0f 84 0c 00 00 00    	je     149a <sgx_bootSecureCommunication+0x2a>
    148e:	c7 45 fc 02 00 00 00 	mov    DWORD PTR [rbp-0x4],0x2
    1495:	e9 0b 00 00 00       	jmp    14a5 <sgx_bootSecureCommunication+0x35>
    149a:	e8 51 a8 00 00       	call   bcf0 <bootSecureCommunication>
    149f:	8b 45 ec             	mov    eax,DWORD PTR [rbp-0x14]
    14a2:	89 45 fc             	mov    DWORD PTR [rbp-0x4],eax
    14a5:	8b 45 fc             	mov    eax,DWORD PTR [rbp-0x4]
    14a8:	48 83 c4 20          	add    rsp,0x20
    14ac:	5d                   	pop    rbp
    14ad:	c3                   	ret    
    14ae:	66 90                	xchg   ax,ax

00000000000014b0 <sgx_makeEndMsg>:
    14b0:	55                   	push   rbp
    14b1:	48 89 e5             	mov    rbp,rsp
    14b4:	48 83 ec 20          	sub    rsp,0x20
    14b8:	48 89 7d f0          	mov    QWORD PTR [rbp-0x10],rdi
    14bc:	c7 45 ec 00 00 00 00 	mov    DWORD PTR [rbp-0x14],0x0
    14c3:	48 83 7d f0 00       	cmp    QWORD PTR [rbp-0x10],0x0
    14c8:	0f 84 0c 00 00 00    	je     14da <sgx_makeEndMsg+0x2a>
    14ce:	c7 45 fc 02 00 00 00 	mov    DWORD PTR [rbp-0x4],0x2
    14d5:	e9 0b 00 00 00       	jmp    14e5 <sgx_makeEndMsg+0x35>
    14da:	e8 11 a4 00 00       	call   b8f0 <makeEndMsg>
    14df:	8b 45 ec             	mov    eax,DWORD PTR [rbp-0x14]
    14e2:	89 45 fc             	mov    DWORD PTR [rbp-0x4],eax
    14e5:	8b 45 fc             	mov    eax,DWORD PTR [rbp-0x4]
    14e8:	48 83 c4 20          	add    rsp,0x20
    14ec:	5d                   	pop    rbp
    14ed:	c3                   	ret    
    14ee:	66 90                	xchg   ax,ax

00000000000014f0 <ocall_print_error_string>:
    14f0:	55                   	push   rbp
    14f1:	48 89 e5             	mov    rbp,rsp
    14f4:	48 81 ec b0 00 00 00 	sub    rsp,0xb0
    14fb:	48 89 7d f0          	mov    QWORD PTR [rbp-0x10],rdi
    14ff:	c7 45 ec 00 00 00 00 	mov    DWORD PTR [rbp-0x14],0x0
    1506:	48 83 7d f0 00       	cmp    QWORD PTR [rbp-0x10],0x0
    150b:	0f 84 39 00 00 00    	je     154a <ocall_print_error_string+0x5a>
    1511:	bf 01 00 00 00       	mov    edi,0x1
    1516:	e8 85 ac 00 00       	call   c1a0 <_Z7tracebrPv>
    151b:	48 8d 05 7e 10 01 00 	lea    rax,[rip+0x1107e]        # 125a0 <strlen>
    1522:	48 8b 7d f0          	mov    rdi,QWORD PTR [rbp-0x10]
    1526:	48 89 7d c0          	mov    QWORD PTR [rbp-0x40],rdi
    152a:	48 89 c7             	mov    rdi,rax
    152d:	e8 fe a8 00 00       	call   be30 <_Z10traceedgecPv>
    1532:	48 8b 7d c0          	mov    rdi,QWORD PTR [rbp-0x40]
    1536:	e8 65 10 01 00       	call   125a0 <strlen>
    153b:	48 05 01 00 00 00    	add    rax,0x1
    1541:	48 89 45 b8          	mov    QWORD PTR [rbp-0x48],rax
    1545:	e9 0f 00 00 00       	jmp    1559 <ocall_print_error_string+0x69>
    154a:	31 ff                	xor    edi,edi
    154c:	e8 4f ac 00 00       	call   c1a0 <_Z7tracebrPv>
    1551:	31 c0                	xor    eax,eax
    1553:	89 c1                	mov    ecx,eax
    1555:	48 89 4d b8          	mov    QWORD PTR [rbp-0x48],rcx
    1559:	48 8b 45 b8          	mov    rax,QWORD PTR [rbp-0x48]
    155d:	48 89 45 e0          	mov    QWORD PTR [rbp-0x20],rax
    1561:	48 c7 45 d8 00 00 00 	mov    QWORD PTR [rbp-0x28],0x0
    1568:	00 
    1569:	48 c7 45 d0 08 00 00 	mov    QWORD PTR [rbp-0x30],0x8
    1570:	00 
    1571:	48 c7 45 c8 00 00 00 	mov    QWORD PTR [rbp-0x38],0x0
    1578:	00 
    1579:	48 83 7d f0 00       	cmp    QWORD PTR [rbp-0x10],0x0
    157e:	0f 84 52 00 00 00    	je     15d6 <ocall_print_error_string+0xe6>
    1584:	bf 01 00 00 00       	mov    edi,0x1
    1589:	e8 12 ac 00 00       	call   c1a0 <_Z7tracebrPv>
    158e:	48 8d 05 3b ae 00 00 	lea    rax,[rip+0xae3b]        # c3d0 <sgx_is_within_enclave>
    1595:	48 8b 7d f0          	mov    rdi,QWORD PTR [rbp-0x10]
    1599:	48 8b 75 e0          	mov    rsi,QWORD PTR [rbp-0x20]
    159d:	48 89 7d b0          	mov    QWORD PTR [rbp-0x50],rdi
    15a1:	48 89 c7             	mov    rdi,rax
    15a4:	48 89 75 a8          	mov    QWORD PTR [rbp-0x58],rsi
    15a8:	e8 83 a8 00 00       	call   be30 <_Z10traceedgecPv>
    15ad:	48 8b 7d b0          	mov    rdi,QWORD PTR [rbp-0x50]
    15b1:	48 8b 75 a8          	mov    rsi,QWORD PTR [rbp-0x58]
    15b5:	e8 16 ae 00 00       	call   c3d0 <sgx_is_within_enclave>
    15ba:	83 f8 00             	cmp    eax,0x0
    15bd:	0f 85 13 00 00 00    	jne    15d6 <ocall_print_error_string+0xe6>
    15c3:	31 ff                	xor    edi,edi
    15c5:	e8 d6 ab 00 00       	call   c1a0 <_Z7tracebrPv>
    15ca:	c7 45 fc 02 00 00 00 	mov    DWORD PTR [rbp-0x4],0x2
    15d1:	e9 b2 02 00 00       	jmp    1888 <ocall_print_error_string+0x398>
    15d6:	31 ff                	xor    edi,edi
    15d8:	e8 c3 ab 00 00       	call   c1a0 <_Z7tracebrPv>
    15dd:	48 83 7d f0 00       	cmp    QWORD PTR [rbp-0x10],0x0
    15e2:	0f 84 17 00 00 00    	je     15ff <ocall_print_error_string+0x10f>
    15e8:	bf 01 00 00 00       	mov    edi,0x1
    15ed:	e8 ae ab 00 00       	call   c1a0 <_Z7tracebrPv>
    15f2:	48 8b 45 e0          	mov    rax,QWORD PTR [rbp-0x20]
    15f6:	48 89 45 a0          	mov    QWORD PTR [rbp-0x60],rax
    15fa:	e9 0f 00 00 00       	jmp    160e <ocall_print_error_string+0x11e>
    15ff:	31 ff                	xor    edi,edi
    1601:	e8 9a ab 00 00       	call   c1a0 <_Z7tracebrPv>
    1606:	31 c0                	xor    eax,eax
    1608:	89 c1                	mov    ecx,eax
    160a:	48 89 4d a0          	mov    QWORD PTR [rbp-0x60],rcx
    160e:	48 8b 45 a0          	mov    rax,QWORD PTR [rbp-0x60]
    1612:	48 03 45 d0          	add    rax,QWORD PTR [rbp-0x30]
    1616:	48 89 45 d0          	mov    QWORD PTR [rbp-0x30],rax
    161a:	48 83 7d f0 00       	cmp    QWORD PTR [rbp-0x10],0x0
    161f:	48 89 45 98          	mov    QWORD PTR [rbp-0x68],rax
    1623:	0f 84 17 00 00 00    	je     1640 <ocall_print_error_string+0x150>
    1629:	bf 01 00 00 00       	mov    edi,0x1
    162e:	e8 6d ab 00 00       	call   c1a0 <_Z7tracebrPv>
    1633:	48 8b 45 e0          	mov    rax,QWORD PTR [rbp-0x20]
    1637:	48 89 45 90          	mov    QWORD PTR [rbp-0x70],rax
    163b:	e9 0f 00 00 00       	jmp    164f <ocall_print_error_string+0x15f>
    1640:	31 ff                	xor    edi,edi
    1642:	e8 59 ab 00 00       	call   c1a0 <_Z7tracebrPv>
    1647:	31 c0                	xor    eax,eax
    1649:	89 c1                	mov    ecx,eax
    164b:	48 89 4d 90          	mov    QWORD PTR [rbp-0x70],rcx
    164f:	48 8b 45 90          	mov    rax,QWORD PTR [rbp-0x70]
    1653:	48 8b 4d 98          	mov    rcx,QWORD PTR [rbp-0x68]
    1657:	48 39 c1             	cmp    rcx,rax
    165a:	0f 83 16 00 00 00    	jae    1676 <ocall_print_error_string+0x186>
    1660:	bf 01 00 00 00       	mov    edi,0x1
    1665:	e8 36 ab 00 00       	call   c1a0 <_Z7tracebrPv>
    166a:	c7 45 fc 02 00 00 00 	mov    DWORD PTR [rbp-0x4],0x2
    1671:	e9 12 02 00 00       	jmp    1888 <ocall_print_error_string+0x398>
    1676:	31 ff                	xor    edi,edi
    1678:	e8 23 ab 00 00       	call   c1a0 <_Z7tracebrPv>
    167d:	48 8d 05 ec ad 00 00 	lea    rax,[rip+0xadec]        # c470 <sgx_ocalloc>
    1684:	48 8b 7d d0          	mov    rdi,QWORD PTR [rbp-0x30]
    1688:	48 89 7d 88          	mov    QWORD PTR [rbp-0x78],rdi
    168c:	48 89 c7             	mov    rdi,rax
    168f:	e8 9c a7 00 00       	call   be30 <_Z10traceedgecPv>
    1694:	48 8b 7d 88          	mov    rdi,QWORD PTR [rbp-0x78]
    1698:	e8 d3 ad 00 00       	call   c470 <sgx_ocalloc>
    169d:	48 89 45 c8          	mov    QWORD PTR [rbp-0x38],rax
    16a1:	48 83 7d c8 00       	cmp    QWORD PTR [rbp-0x38],0x0
    16a6:	0f 85 2a 00 00 00    	jne    16d6 <ocall_print_error_string+0x1e6>
    16ac:	bf 01 00 00 00       	mov    edi,0x1
    16b1:	e8 ea aa 00 00       	call   c1a0 <_Z7tracebrPv>
    16b6:	48 8d 05 a3 ae 00 00 	lea    rax,[rip+0xaea3]        # c560 <sgx_ocfree>
    16bd:	48 89 c7             	mov    rdi,rax
    16c0:	e8 6b a7 00 00       	call   be30 <_Z10traceedgecPv>
    16c5:	e8 96 ae 00 00       	call   c560 <sgx_ocfree>
    16ca:	c7 45 fc 01 00 00 00 	mov    DWORD PTR [rbp-0x4],0x1
    16d1:	e9 b2 01 00 00       	jmp    1888 <ocall_print_error_string+0x398>
    16d6:	31 ff                	xor    edi,edi
    16d8:	e8 c3 aa 00 00       	call   c1a0 <_Z7tracebrPv>
    16dd:	48 8b 45 c8          	mov    rax,QWORD PTR [rbp-0x38]
    16e1:	48 89 45 d8          	mov    QWORD PTR [rbp-0x28],rax
    16e5:	48 8b 45 c8          	mov    rax,QWORD PTR [rbp-0x38]
    16e9:	48 05 08 00 00 00    	add    rax,0x8
    16ef:	48 89 45 c8          	mov    QWORD PTR [rbp-0x38],rax
    16f3:	48 8b 45 d0          	mov    rax,QWORD PTR [rbp-0x30]
    16f7:	48 2d 08 00 00 00    	sub    rax,0x8
    16fd:	48 89 45 d0          	mov    QWORD PTR [rbp-0x30],rax
    1701:	48 83 7d f0 00       	cmp    QWORD PTR [rbp-0x10],0x0
    1706:	0f 84 0a 01 00 00    	je     1816 <ocall_print_error_string+0x326>
    170c:	bf 01 00 00 00       	mov    edi,0x1
    1711:	e8 8a aa 00 00       	call   c1a0 <_Z7tracebrPv>
    1716:	48 8b 45 c8          	mov    rax,QWORD PTR [rbp-0x38]
    171a:	48 8b 4d d8          	mov    rcx,QWORD PTR [rbp-0x28]
    171e:	48 89 01             	mov    QWORD PTR [rcx],rax
    1721:	48 8b 45 e0          	mov    rax,QWORD PTR [rbp-0x20]
    1725:	48 25 00 00 00 00    	and    rax,0x0
    172b:	48 83 f8 00          	cmp    rax,0x0
    172f:	0f 84 2a 00 00 00    	je     175f <ocall_print_error_string+0x26f>
    1735:	bf 01 00 00 00       	mov    edi,0x1
    173a:	e8 61 aa 00 00       	call   c1a0 <_Z7tracebrPv>
    173f:	48 8d 05 1a ae 00 00 	lea    rax,[rip+0xae1a]        # c560 <sgx_ocfree>
    1746:	48 89 c7             	mov    rdi,rax
    1749:	e8 e2 a6 00 00       	call   be30 <_Z10traceedgecPv>
    174e:	e8 0d ae 00 00       	call   c560 <sgx_ocfree>
    1753:	c7 45 fc 02 00 00 00 	mov    DWORD PTR [rbp-0x4],0x2
    175a:	e9 29 01 00 00       	jmp    1888 <ocall_print_error_string+0x398>
    175f:	31 ff                	xor    edi,edi
    1761:	e8 3a aa 00 00       	call   c1a0 <_Z7tracebrPv>
    1766:	48 8d 05 13 0f 01 00 	lea    rax,[rip+0x10f13]        # 12680 <memcpy_s>
    176d:	48 8b 7d c8          	mov    rdi,QWORD PTR [rbp-0x38]
    1771:	48 8b 75 d0          	mov    rsi,QWORD PTR [rbp-0x30]
    1775:	48 8b 55 f0          	mov    rdx,QWORD PTR [rbp-0x10]
    1779:	48 8b 4d e0          	mov    rcx,QWORD PTR [rbp-0x20]
    177d:	48 89 7d 80          	mov    QWORD PTR [rbp-0x80],rdi
    1781:	48 89 c7             	mov    rdi,rax
    1784:	48 89 b5 78 ff ff ff 	mov    QWORD PTR [rbp-0x88],rsi
    178b:	48 89 95 70 ff ff ff 	mov    QWORD PTR [rbp-0x90],rdx
    1792:	48 89 8d 68 ff ff ff 	mov    QWORD PTR [rbp-0x98],rcx
    1799:	e8 92 a6 00 00       	call   be30 <_Z10traceedgecPv>
    179e:	48 8b 7d 80          	mov    rdi,QWORD PTR [rbp-0x80]
    17a2:	48 8b b5 78 ff ff ff 	mov    rsi,QWORD PTR [rbp-0x88]
    17a9:	48 8b 95 70 ff ff ff 	mov    rdx,QWORD PTR [rbp-0x90]
    17b0:	48 8b 8d 68 ff ff ff 	mov    rcx,QWORD PTR [rbp-0x98]
    17b7:	e8 c4 0e 01 00       	call   12680 <memcpy_s>
    17bc:	83 f8 00             	cmp    eax,0x0
    17bf:	0f 84 2a 00 00 00    	je     17ef <ocall_print_error_string+0x2ff>
    17c5:	bf 01 00 00 00       	mov    edi,0x1
    17ca:	e8 d1 a9 00 00       	call   c1a0 <_Z7tracebrPv>
    17cf:	48 8d 05 8a ad 00 00 	lea    rax,[rip+0xad8a]        # c560 <sgx_ocfree>
    17d6:	48 89 c7             	mov    rdi,rax
    17d9:	e8 52 a6 00 00       	call   be30 <_Z10traceedgecPv>
    17de:	e8 7d ad 00 00       	call   c560 <sgx_ocfree>
    17e3:	c7 45 fc 01 00 00 00 	mov    DWORD PTR [rbp-0x4],0x1
    17ea:	e9 99 00 00 00       	jmp    1888 <ocall_print_error_string+0x398>
    17ef:	31 ff                	xor    edi,edi
    17f1:	e8 aa a9 00 00       	call   c1a0 <_Z7tracebrPv>
    17f6:	48 8b 45 c8          	mov    rax,QWORD PTR [rbp-0x38]
    17fa:	48 03 45 e0          	add    rax,QWORD PTR [rbp-0x20]
    17fe:	48 89 45 c8          	mov    QWORD PTR [rbp-0x38],rax
    1802:	48 8b 45 e0          	mov    rax,QWORD PTR [rbp-0x20]
    1806:	48 8b 4d d0          	mov    rcx,QWORD PTR [rbp-0x30]
    180a:	48 29 c1             	sub    rcx,rax
    180d:	48 89 4d d0          	mov    QWORD PTR [rbp-0x30],rcx
    1811:	e9 12 00 00 00       	jmp    1828 <ocall_print_error_string+0x338>
    1816:	31 ff                	xor    edi,edi
    1818:	e8 83 a9 00 00       	call   c1a0 <_Z7tracebrPv>
    181d:	48 8b 45 d8          	mov    rax,QWORD PTR [rbp-0x28]
    1821:	48 c7 00 00 00 00 00 	mov    QWORD PTR [rax],0x0
    1828:	48 8d 05 81 c2 00 00 	lea    rax,[rip+0xc281]        # dab0 <sgx_ocall>
    182f:	48 8b 4d d8          	mov    rcx,QWORD PTR [rbp-0x28]
    1833:	48 89 c7             	mov    rdi,rax
    1836:	48 89 8d 60 ff ff ff 	mov    QWORD PTR [rbp-0xa0],rcx
    183d:	e8 ee a5 00 00       	call   be30 <_Z10traceedgecPv>
    1842:	31 ff                	xor    edi,edi
    1844:	48 8b b5 60 ff ff ff 	mov    rsi,QWORD PTR [rbp-0xa0]
    184b:	e8 60 c2 00 00       	call   dab0 <sgx_ocall>
    1850:	89 45 ec             	mov    DWORD PTR [rbp-0x14],eax
    1853:	83 7d ec 00          	cmp    DWORD PTR [rbp-0x14],0x0
    1857:	0f 85 0a 00 00 00    	jne    1867 <ocall_print_error_string+0x377>
    185d:	bf 01 00 00 00       	mov    edi,0x1
    1862:	e8 39 a9 00 00       	call   c1a0 <_Z7tracebrPv>
    1867:	31 ff                	xor    edi,edi
    1869:	e8 32 a9 00 00       	call   c1a0 <_Z7tracebrPv>
    186e:	48 8d 05 eb ac 00 00 	lea    rax,[rip+0xaceb]        # c560 <sgx_ocfree>
    1875:	48 89 c7             	mov    rdi,rax
    1878:	e8 b3 a5 00 00       	call   be30 <_Z10traceedgecPv>
    187d:	e8 de ac 00 00       	call   c560 <sgx_ocfree>
    1882:	8b 4d ec             	mov    ecx,DWORD PTR [rbp-0x14]
    1885:	89 4d fc             	mov    DWORD PTR [rbp-0x4],ecx
    1888:	8b 45 fc             	mov    eax,DWORD PTR [rbp-0x4]
    188b:	48 8b 7d 08          	mov    rdi,QWORD PTR [rbp+0x8]
    188f:	89 85 5c ff ff ff    	mov    DWORD PTR [rbp-0xa4],eax
    1895:	e8 96 a5 00 00       	call   be30 <_Z10traceedgecPv>
    189a:	8b 85 5c ff ff ff    	mov    eax,DWORD PTR [rbp-0xa4]
    18a0:	48 81 c4 b0 00 00 00 	add    rsp,0xb0
    18a7:	5d                   	pop    rbp
    18a8:	c3                   	ret    
    18a9:	0f 1f 80 00 00 00 00 	nop    DWORD PTR [rax+0x0]

00000000000018b0 <ocall_ioctl_ReportASF>:
    18b0:	55                   	push   rbp
    18b1:	48 89 e5             	mov    rbp,rsp
    18b4:	48 81 ec b0 00 00 00 	sub    rsp,0xb0
    18bb:	48 89 7d f0          	mov    QWORD PTR [rbp-0x10],rdi
    18bf:	89 75 ec             	mov    DWORD PTR [rbp-0x14],esi
    18c2:	48 89 55 e0          	mov    QWORD PTR [rbp-0x20],rdx
    18c6:	c7 45 dc 00 00 00 00 	mov    DWORD PTR [rbp-0x24],0x0
    18cd:	48 c7 45 d0 04 00 00 	mov    QWORD PTR [rbp-0x30],0x4
    18d4:	00 
    18d5:	48 c7 45 c8 00 00 00 	mov    QWORD PTR [rbp-0x38],0x0
    18dc:	00 
    18dd:	48 c7 45 c0 10 00 00 	mov    QWORD PTR [rbp-0x40],0x10
    18e4:	00 
    18e5:	48 c7 45 b8 00 00 00 	mov    QWORD PTR [rbp-0x48],0x0
    18ec:	00 
    18ed:	48 c7 45 b0 00 00 00 	mov    QWORD PTR [rbp-0x50],0x0
    18f4:	00 
    18f5:	48 83 7d e0 00       	cmp    QWORD PTR [rbp-0x20],0x0
    18fa:	0f 84 52 00 00 00    	je     1952 <ocall_ioctl_ReportASF+0xa2>
    1900:	bf 01 00 00 00       	mov    edi,0x1
    1905:	e8 96 a8 00 00       	call   c1a0 <_Z7tracebrPv>
    190a:	48 8d 05 bf aa 00 00 	lea    rax,[rip+0xaabf]        # c3d0 <sgx_is_within_enclave>
    1911:	48 8b 4d e0          	mov    rcx,QWORD PTR [rbp-0x20]
    1915:	48 8b 75 d0          	mov    rsi,QWORD PTR [rbp-0x30]
    1919:	48 89 c7             	mov    rdi,rax
    191c:	48 89 4d a8          	mov    QWORD PTR [rbp-0x58],rcx
    1920:	48 89 75 a0          	mov    QWORD PTR [rbp-0x60],rsi
    1924:	e8 07 a5 00 00       	call   be30 <_Z10traceedgecPv>
    1929:	48 8b 7d a8          	mov    rdi,QWORD PTR [rbp-0x58]
    192d:	48 8b 75 a0          	mov    rsi,QWORD PTR [rbp-0x60]
    1931:	e8 9a aa 00 00       	call   c3d0 <sgx_is_within_enclave>
    1936:	83 f8 00             	cmp    eax,0x0
    1939:	0f 85 13 00 00 00    	jne    1952 <ocall_ioctl_ReportASF+0xa2>
    193f:	31 ff                	xor    edi,edi
    1941:	e8 5a a8 00 00       	call   c1a0 <_Z7tracebrPv>
    1946:	c7 45 fc 02 00 00 00 	mov    DWORD PTR [rbp-0x4],0x2
    194d:	e9 22 03 00 00       	jmp    1c74 <ocall_ioctl_ReportASF+0x3c4>
    1952:	31 ff                	xor    edi,edi
    1954:	e8 47 a8 00 00       	call   c1a0 <_Z7tracebrPv>
    1959:	48 83 7d e0 00       	cmp    QWORD PTR [rbp-0x20],0x0
    195e:	0f 84 17 00 00 00    	je     197b <ocall_ioctl_ReportASF+0xcb>
    1964:	bf 01 00 00 00       	mov    edi,0x1
    1969:	e8 32 a8 00 00       	call   c1a0 <_Z7tracebrPv>
    196e:	48 8b 45 d0          	mov    rax,QWORD PTR [rbp-0x30]
    1972:	48 89 45 98          	mov    QWORD PTR [rbp-0x68],rax
    1976:	e9 0f 00 00 00       	jmp    198a <ocall_ioctl_ReportASF+0xda>
    197b:	31 ff                	xor    edi,edi
    197d:	e8 1e a8 00 00       	call   c1a0 <_Z7tracebrPv>
    1982:	31 c0                	xor    eax,eax
    1984:	89 c1                	mov    ecx,eax
    1986:	48 89 4d 98          	mov    QWORD PTR [rbp-0x68],rcx
    198a:	48 8b 45 98          	mov    rax,QWORD PTR [rbp-0x68]
    198e:	48 03 45 c0          	add    rax,QWORD PTR [rbp-0x40]
    1992:	48 89 45 c0          	mov    QWORD PTR [rbp-0x40],rax
    1996:	48 83 7d e0 00       	cmp    QWORD PTR [rbp-0x20],0x0
    199b:	48 89 45 90          	mov    QWORD PTR [rbp-0x70],rax
    199f:	0f 84 17 00 00 00    	je     19bc <ocall_ioctl_ReportASF+0x10c>
    19a5:	bf 01 00 00 00       	mov    edi,0x1
    19aa:	e8 f1 a7 00 00       	call   c1a0 <_Z7tracebrPv>
    19af:	48 8b 45 d0          	mov    rax,QWORD PTR [rbp-0x30]
    19b3:	48 89 45 88          	mov    QWORD PTR [rbp-0x78],rax
    19b7:	e9 0f 00 00 00       	jmp    19cb <ocall_ioctl_ReportASF+0x11b>
    19bc:	31 ff                	xor    edi,edi
    19be:	e8 dd a7 00 00       	call   c1a0 <_Z7tracebrPv>
    19c3:	31 c0                	xor    eax,eax
    19c5:	89 c1                	mov    ecx,eax
    19c7:	48 89 4d 88          	mov    QWORD PTR [rbp-0x78],rcx
    19cb:	48 8b 45 88          	mov    rax,QWORD PTR [rbp-0x78]
    19cf:	48 8b 4d 90          	mov    rcx,QWORD PTR [rbp-0x70]
    19d3:	48 39 c1             	cmp    rcx,rax
    19d6:	0f 83 16 00 00 00    	jae    19f2 <ocall_ioctl_ReportASF+0x142>
    19dc:	bf 01 00 00 00       	mov    edi,0x1
    19e1:	e8 ba a7 00 00       	call   c1a0 <_Z7tracebrPv>
    19e6:	c7 45 fc 02 00 00 00 	mov    DWORD PTR [rbp-0x4],0x2
    19ed:	e9 82 02 00 00       	jmp    1c74 <ocall_ioctl_ReportASF+0x3c4>
    19f2:	31 ff                	xor    edi,edi
    19f4:	e8 a7 a7 00 00       	call   c1a0 <_Z7tracebrPv>
    19f9:	48 8d 05 70 aa 00 00 	lea    rax,[rip+0xaa70]        # c470 <sgx_ocalloc>
    1a00:	48 8b 7d c0          	mov    rdi,QWORD PTR [rbp-0x40]
    1a04:	48 89 7d 80          	mov    QWORD PTR [rbp-0x80],rdi
    1a08:	48 89 c7             	mov    rdi,rax
    1a0b:	e8 20 a4 00 00       	call   be30 <_Z10traceedgecPv>
    1a10:	48 8b 7d 80          	mov    rdi,QWORD PTR [rbp-0x80]
    1a14:	e8 57 aa 00 00       	call   c470 <sgx_ocalloc>
    1a19:	48 89 45 b8          	mov    QWORD PTR [rbp-0x48],rax
    1a1d:	48 83 7d b8 00       	cmp    QWORD PTR [rbp-0x48],0x0
    1a22:	0f 85 2a 00 00 00    	jne    1a52 <ocall_ioctl_ReportASF+0x1a2>
    1a28:	bf 01 00 00 00       	mov    edi,0x1
    1a2d:	e8 6e a7 00 00       	call   c1a0 <_Z7tracebrPv>
    1a32:	48 8d 05 27 ab 00 00 	lea    rax,[rip+0xab27]        # c560 <sgx_ocfree>
    1a39:	48 89 c7             	mov    rdi,rax
    1a3c:	e8 ef a3 00 00       	call   be30 <_Z10traceedgecPv>
    1a41:	e8 1a ab 00 00       	call   c560 <sgx_ocfree>
    1a46:	c7 45 fc 01 00 00 00 	mov    DWORD PTR [rbp-0x4],0x1
    1a4d:	e9 22 02 00 00       	jmp    1c74 <ocall_ioctl_ReportASF+0x3c4>
    1a52:	31 ff                	xor    edi,edi
    1a54:	e8 47 a7 00 00       	call   c1a0 <_Z7tracebrPv>
    1a59:	48 8b 45 b8          	mov    rax,QWORD PTR [rbp-0x48]
    1a5d:	48 89 45 c8          	mov    QWORD PTR [rbp-0x38],rax
    1a61:	48 8b 45 b8          	mov    rax,QWORD PTR [rbp-0x48]
    1a65:	48 05 10 00 00 00    	add    rax,0x10
    1a6b:	48 89 45 b8          	mov    QWORD PTR [rbp-0x48],rax
    1a6f:	48 8b 45 c0          	mov    rax,QWORD PTR [rbp-0x40]
    1a73:	48 2d 10 00 00 00    	sub    rax,0x10
    1a79:	48 89 45 c0          	mov    QWORD PTR [rbp-0x40],rax
    1a7d:	8b 4d ec             	mov    ecx,DWORD PTR [rbp-0x14]
    1a80:	48 8b 45 c8          	mov    rax,QWORD PTR [rbp-0x38]
    1a84:	89 48 04             	mov    DWORD PTR [rax+0x4],ecx
    1a87:	48 83 7d e0 00       	cmp    QWORD PTR [rbp-0x20],0x0
    1a8c:	0f 84 92 00 00 00    	je     1b24 <ocall_ioctl_ReportASF+0x274>
    1a92:	bf 01 00 00 00       	mov    edi,0x1
    1a97:	e8 04 a7 00 00       	call   c1a0 <_Z7tracebrPv>
    1a9c:	48 8b 45 b8          	mov    rax,QWORD PTR [rbp-0x48]
    1aa0:	48 8b 4d c8          	mov    rcx,QWORD PTR [rbp-0x38]
    1aa4:	48 89 41 08          	mov    QWORD PTR [rcx+0x8],rax
    1aa8:	48 8b 45 b8          	mov    rax,QWORD PTR [rbp-0x48]
    1aac:	48 89 45 b0          	mov    QWORD PTR [rbp-0x50],rax
    1ab0:	48 8b 45 d0          	mov    rax,QWORD PTR [rbp-0x30]
    1ab4:	48 25 03 00 00 00    	and    rax,0x3
    1aba:	48 83 f8 00          	cmp    rax,0x0
    1abe:	0f 84 2a 00 00 00    	je     1aee <ocall_ioctl_ReportASF+0x23e>
    1ac4:	bf 01 00 00 00       	mov    edi,0x1
    1ac9:	e8 d2 a6 00 00       	call   c1a0 <_Z7tracebrPv>
    1ace:	48 8d 05 8b aa 00 00 	lea    rax,[rip+0xaa8b]        # c560 <sgx_ocfree>
    1ad5:	48 89 c7             	mov    rdi,rax
    1ad8:	e8 53 a3 00 00       	call   be30 <_Z10traceedgecPv>
    1add:	e8 7e aa 00 00       	call   c560 <sgx_ocfree>
    1ae2:	c7 45 fc 02 00 00 00 	mov    DWORD PTR [rbp-0x4],0x2
    1ae9:	e9 86 01 00 00       	jmp    1c74 <ocall_ioctl_ReportASF+0x3c4>
    1aee:	31 ff                	xor    edi,edi
    1af0:	e8 ab a6 00 00       	call   c1a0 <_Z7tracebrPv>
    1af5:	31 f6                	xor    esi,esi
    1af7:	48 8b 7d b0          	mov    rdi,QWORD PTR [rbp-0x50]
    1afb:	48 8b 55 d0          	mov    rdx,QWORD PTR [rbp-0x30]
    1aff:	e8 bc 06 01 00       	call   121c0 <memset>
    1b04:	48 8b 45 b8          	mov    rax,QWORD PTR [rbp-0x48]
    1b08:	48 03 45 d0          	add    rax,QWORD PTR [rbp-0x30]
    1b0c:	48 89 45 b8          	mov    QWORD PTR [rbp-0x48],rax
    1b10:	48 8b 45 d0          	mov    rax,QWORD PTR [rbp-0x30]
    1b14:	48 8b 4d c0          	mov    rcx,QWORD PTR [rbp-0x40]
    1b18:	48 29 c1             	sub    rcx,rax
    1b1b:	48 89 4d c0          	mov    QWORD PTR [rbp-0x40],rcx
    1b1f:	e9 13 00 00 00       	jmp    1b37 <ocall_ioctl_ReportASF+0x287>
    1b24:	31 ff                	xor    edi,edi
    1b26:	e8 75 a6 00 00       	call   c1a0 <_Z7tracebrPv>
    1b2b:	48 8b 45 c8          	mov    rax,QWORD PTR [rbp-0x38]
    1b2f:	48 c7 40 08 00 00 00 	mov    QWORD PTR [rax+0x8],0x0
    1b36:	00 
    1b37:	48 8d 05 72 bf 00 00 	lea    rax,[rip+0xbf72]        # dab0 <sgx_ocall>
    1b3e:	48 8b 4d c8          	mov    rcx,QWORD PTR [rbp-0x38]
    1b42:	48 89 c7             	mov    rdi,rax
    1b45:	48 89 8d 78 ff ff ff 	mov    QWORD PTR [rbp-0x88],rcx
    1b4c:	e8 df a2 00 00       	call   be30 <_Z10traceedgecPv>
    1b51:	bf 01 00 00 00       	mov    edi,0x1
    1b56:	48 8b b5 78 ff ff ff 	mov    rsi,QWORD PTR [rbp-0x88]
    1b5d:	e8 4e bf 00 00       	call   dab0 <sgx_ocall>
    1b62:	89 45 dc             	mov    DWORD PTR [rbp-0x24],eax
    1b65:	83 7d dc 00          	cmp    DWORD PTR [rbp-0x24],0x0
    1b69:	0f 85 e4 00 00 00    	jne    1c53 <ocall_ioctl_ReportASF+0x3a3>
    1b6f:	bf 01 00 00 00       	mov    edi,0x1
    1b74:	e8 27 a6 00 00       	call   c1a0 <_Z7tracebrPv>
    1b79:	48 83 7d f0 00       	cmp    QWORD PTR [rbp-0x10],0x0
    1b7e:	0f 84 16 00 00 00    	je     1b9a <ocall_ioctl_ReportASF+0x2ea>
    1b84:	bf 01 00 00 00       	mov    edi,0x1
    1b89:	e8 12 a6 00 00       	call   c1a0 <_Z7tracebrPv>
    1b8e:	48 8b 45 c8          	mov    rax,QWORD PTR [rbp-0x38]
    1b92:	8b 08                	mov    ecx,DWORD PTR [rax]
    1b94:	48 8b 45 f0          	mov    rax,QWORD PTR [rbp-0x10]
    1b98:	89 08                	mov    DWORD PTR [rax],ecx
    1b9a:	31 ff                	xor    edi,edi
    1b9c:	e8 ff a5 00 00       	call   c1a0 <_Z7tracebrPv>
    1ba1:	48 83 7d e0 00       	cmp    QWORD PTR [rbp-0x20],0x0
    1ba6:	0f 84 a0 00 00 00    	je     1c4c <ocall_ioctl_ReportASF+0x39c>
    1bac:	bf 01 00 00 00       	mov    edi,0x1
    1bb1:	e8 ea a5 00 00       	call   c1a0 <_Z7tracebrPv>
    1bb6:	48 8d 05 c3 0a 01 00 	lea    rax,[rip+0x10ac3]        # 12680 <memcpy_s>
    1bbd:	48 8b 4d e0          	mov    rcx,QWORD PTR [rbp-0x20]
    1bc1:	48 8b 75 d0          	mov    rsi,QWORD PTR [rbp-0x30]
    1bc5:	48 8b 55 b0          	mov    rdx,QWORD PTR [rbp-0x50]
    1bc9:	4c 8b 45 d0          	mov    r8,QWORD PTR [rbp-0x30]
    1bcd:	48 89 c7             	mov    rdi,rax
    1bd0:	48 89 8d 70 ff ff ff 	mov    QWORD PTR [rbp-0x90],rcx
    1bd7:	48 89 b5 68 ff ff ff 	mov    QWORD PTR [rbp-0x98],rsi
    1bde:	48 89 95 60 ff ff ff 	mov    QWORD PTR [rbp-0xa0],rdx
    1be5:	4c 89 85 58 ff ff ff 	mov    QWORD PTR [rbp-0xa8],r8
    1bec:	e8 3f a2 00 00       	call   be30 <_Z10traceedgecPv>
    1bf1:	48 8b bd 70 ff ff ff 	mov    rdi,QWORD PTR [rbp-0x90]
    1bf8:	48 8b b5 68 ff ff ff 	mov    rsi,QWORD PTR [rbp-0x98]
    1bff:	48 8b 95 60 ff ff ff 	mov    rdx,QWORD PTR [rbp-0xa0]
    1c06:	48 8b 8d 58 ff ff ff 	mov    rcx,QWORD PTR [rbp-0xa8]
    1c0d:	e8 6e 0a 01 00       	call   12680 <memcpy_s>
    1c12:	83 f8 00             	cmp    eax,0x0
    1c15:	0f 84 2a 00 00 00    	je     1c45 <ocall_ioctl_ReportASF+0x395>
    1c1b:	bf 01 00 00 00       	mov    edi,0x1
    1c20:	e8 7b a5 00 00       	call   c1a0 <_Z7tracebrPv>
    1c25:	48 8d 05 34 a9 00 00 	lea    rax,[rip+0xa934]        # c560 <sgx_ocfree>
    1c2c:	48 89 c7             	mov    rdi,rax
    1c2f:	e8 fc a1 00 00       	call   be30 <_Z10traceedgecPv>
    1c34:	e8 27 a9 00 00       	call   c560 <sgx_ocfree>
    1c39:	c7 45 fc 01 00 00 00 	mov    DWORD PTR [rbp-0x4],0x1
    1c40:	e9 2f 00 00 00       	jmp    1c74 <ocall_ioctl_ReportASF+0x3c4>
    1c45:	31 ff                	xor    edi,edi
    1c47:	e8 54 a5 00 00       	call   c1a0 <_Z7tracebrPv>
    1c4c:	31 ff                	xor    edi,edi
    1c4e:	e8 4d a5 00 00       	call   c1a0 <_Z7tracebrPv>
    1c53:	31 ff                	xor    edi,edi
    1c55:	e8 46 a5 00 00       	call   c1a0 <_Z7tracebrPv>
    1c5a:	48 8d 05 ff a8 00 00 	lea    rax,[rip+0xa8ff]        # c560 <sgx_ocfree>
    1c61:	48 89 c7             	mov    rdi,rax
    1c64:	e8 c7 a1 00 00       	call   be30 <_Z10traceedgecPv>
    1c69:	e8 f2 a8 00 00       	call   c560 <sgx_ocfree>
    1c6e:	8b 4d dc             	mov    ecx,DWORD PTR [rbp-0x24]
    1c71:	89 4d fc             	mov    DWORD PTR [rbp-0x4],ecx
    1c74:	8b 45 fc             	mov    eax,DWORD PTR [rbp-0x4]
    1c77:	48 8b 7d 08          	mov    rdi,QWORD PTR [rbp+0x8]
    1c7b:	89 85 54 ff ff ff    	mov    DWORD PTR [rbp-0xac],eax
    1c81:	e8 aa a1 00 00       	call   be30 <_Z10traceedgecPv>
    1c86:	8b 85 54 ff ff ff    	mov    eax,DWORD PTR [rbp-0xac]
    1c8c:	48 81 c4 b0 00 00 00 	add    rsp,0xb0
    1c93:	5d                   	pop    rbp
    1c94:	c3                   	ret    
    1c95:	66 2e 0f 1f 84 00 00 	nop    WORD PTR cs:[rax+rax*1+0x0]
    1c9c:	00 00 00 
    1c9f:	90                   	nop

0000000000001ca0 <ocall_ioctl_InvalidateAgid>:
    1ca0:	55                   	push   rbp
    1ca1:	48 89 e5             	mov    rbp,rsp
    1ca4:	48 81 ec b0 00 00 00 	sub    rsp,0xb0
    1cab:	48 89 7d f0          	mov    QWORD PTR [rbp-0x10],rdi
    1caf:	89 75 ec             	mov    DWORD PTR [rbp-0x14],esi
    1cb2:	48 89 55 e0          	mov    QWORD PTR [rbp-0x20],rdx
    1cb6:	c7 45 dc 00 00 00 00 	mov    DWORD PTR [rbp-0x24],0x0
    1cbd:	48 c7 45 d0 04 00 00 	mov    QWORD PTR [rbp-0x30],0x4
    1cc4:	00 
    1cc5:	48 c7 45 c8 00 00 00 	mov    QWORD PTR [rbp-0x38],0x0
    1ccc:	00 
    1ccd:	48 c7 45 c0 10 00 00 	mov    QWORD PTR [rbp-0x40],0x10
    1cd4:	00 
    1cd5:	48 c7 45 b8 00 00 00 	mov    QWORD PTR [rbp-0x48],0x0
    1cdc:	00 
    1cdd:	48 c7 45 b0 00 00 00 	mov    QWORD PTR [rbp-0x50],0x0
    1ce4:	00 
    1ce5:	48 83 7d e0 00       	cmp    QWORD PTR [rbp-0x20],0x0
    1cea:	0f 84 52 00 00 00    	je     1d42 <ocall_ioctl_InvalidateAgid+0xa2>
    1cf0:	bf 01 00 00 00       	mov    edi,0x1
    1cf5:	e8 a6 a4 00 00       	call   c1a0 <_Z7tracebrPv>
    1cfa:	48 8d 05 cf a6 00 00 	lea    rax,[rip+0xa6cf]        # c3d0 <sgx_is_within_enclave>
    1d01:	48 8b 4d e0          	mov    rcx,QWORD PTR [rbp-0x20]
    1d05:	48 8b 75 d0          	mov    rsi,QWORD PTR [rbp-0x30]
    1d09:	48 89 c7             	mov    rdi,rax
    1d0c:	48 89 4d a8          	mov    QWORD PTR [rbp-0x58],rcx
    1d10:	48 89 75 a0          	mov    QWORD PTR [rbp-0x60],rsi
    1d14:	e8 17 a1 00 00       	call   be30 <_Z10traceedgecPv>
    1d19:	48 8b 7d a8          	mov    rdi,QWORD PTR [rbp-0x58]
    1d1d:	48 8b 75 a0          	mov    rsi,QWORD PTR [rbp-0x60]
    1d21:	e8 aa a6 00 00       	call   c3d0 <sgx_is_within_enclave>
    1d26:	83 f8 00             	cmp    eax,0x0
    1d29:	0f 85 13 00 00 00    	jne    1d42 <ocall_ioctl_InvalidateAgid+0xa2>
    1d2f:	31 ff                	xor    edi,edi
    1d31:	e8 6a a4 00 00       	call   c1a0 <_Z7tracebrPv>
    1d36:	c7 45 fc 02 00 00 00 	mov    DWORD PTR [rbp-0x4],0x2
    1d3d:	e9 22 03 00 00       	jmp    2064 <ocall_ioctl_InvalidateAgid+0x3c4>
    1d42:	31 ff                	xor    edi,edi
    1d44:	e8 57 a4 00 00       	call   c1a0 <_Z7tracebrPv>
    1d49:	48 83 7d e0 00       	cmp    QWORD PTR [rbp-0x20],0x0
    1d4e:	0f 84 17 00 00 00    	je     1d6b <ocall_ioctl_InvalidateAgid+0xcb>
    1d54:	bf 01 00 00 00       	mov    edi,0x1
    1d59:	e8 42 a4 00 00       	call   c1a0 <_Z7tracebrPv>
    1d5e:	48 8b 45 d0          	mov    rax,QWORD PTR [rbp-0x30]
    1d62:	48 89 45 98          	mov    QWORD PTR [rbp-0x68],rax
    1d66:	e9 0f 00 00 00       	jmp    1d7a <ocall_ioctl_InvalidateAgid+0xda>
    1d6b:	31 ff                	xor    edi,edi
    1d6d:	e8 2e a4 00 00       	call   c1a0 <_Z7tracebrPv>
    1d72:	31 c0                	xor    eax,eax
    1d74:	89 c1                	mov    ecx,eax
    1d76:	48 89 4d 98          	mov    QWORD PTR [rbp-0x68],rcx
    1d7a:	48 8b 45 98          	mov    rax,QWORD PTR [rbp-0x68]
    1d7e:	48 03 45 c0          	add    rax,QWORD PTR [rbp-0x40]
    1d82:	48 89 45 c0          	mov    QWORD PTR [rbp-0x40],rax
    1d86:	48 83 7d e0 00       	cmp    QWORD PTR [rbp-0x20],0x0
    1d8b:	48 89 45 90          	mov    QWORD PTR [rbp-0x70],rax
    1d8f:	0f 84 17 00 00 00    	je     1dac <ocall_ioctl_InvalidateAgid+0x10c>
    1d95:	bf 01 00 00 00       	mov    edi,0x1
    1d9a:	e8 01 a4 00 00       	call   c1a0 <_Z7tracebrPv>
    1d9f:	48 8b 45 d0          	mov    rax,QWORD PTR [rbp-0x30]
    1da3:	48 89 45 88          	mov    QWORD PTR [rbp-0x78],rax
    1da7:	e9 0f 00 00 00       	jmp    1dbb <ocall_ioctl_InvalidateAgid+0x11b>
    1dac:	31 ff                	xor    edi,edi
    1dae:	e8 ed a3 00 00       	call   c1a0 <_Z7tracebrPv>
    1db3:	31 c0                	xor    eax,eax
    1db5:	89 c1                	mov    ecx,eax
    1db7:	48 89 4d 88          	mov    QWORD PTR [rbp-0x78],rcx
    1dbb:	48 8b 45 88          	mov    rax,QWORD PTR [rbp-0x78]
    1dbf:	48 8b 4d 90          	mov    rcx,QWORD PTR [rbp-0x70]
    1dc3:	48 39 c1             	cmp    rcx,rax
    1dc6:	0f 83 16 00 00 00    	jae    1de2 <ocall_ioctl_InvalidateAgid+0x142>
    1dcc:	bf 01 00 00 00       	mov    edi,0x1
    1dd1:	e8 ca a3 00 00       	call   c1a0 <_Z7tracebrPv>
    1dd6:	c7 45 fc 02 00 00 00 	mov    DWORD PTR [rbp-0x4],0x2
    1ddd:	e9 82 02 00 00       	jmp    2064 <ocall_ioctl_InvalidateAgid+0x3c4>
    1de2:	31 ff                	xor    edi,edi
    1de4:	e8 b7 a3 00 00       	call   c1a0 <_Z7tracebrPv>
    1de9:	48 8d 05 80 a6 00 00 	lea    rax,[rip+0xa680]        # c470 <sgx_ocalloc>
    1df0:	48 8b 7d c0          	mov    rdi,QWORD PTR [rbp-0x40]
    1df4:	48 89 7d 80          	mov    QWORD PTR [rbp-0x80],rdi
    1df8:	48 89 c7             	mov    rdi,rax
    1dfb:	e8 30 a0 00 00       	call   be30 <_Z10traceedgecPv>
    1e00:	48 8b 7d 80          	mov    rdi,QWORD PTR [rbp-0x80]
    1e04:	e8 67 a6 00 00       	call   c470 <sgx_ocalloc>
    1e09:	48 89 45 b8          	mov    QWORD PTR [rbp-0x48],rax
    1e0d:	48 83 7d b8 00       	cmp    QWORD PTR [rbp-0x48],0x0
    1e12:	0f 85 2a 00 00 00    	jne    1e42 <ocall_ioctl_InvalidateAgid+0x1a2>
    1e18:	bf 01 00 00 00       	mov    edi,0x1
    1e1d:	e8 7e a3 00 00       	call   c1a0 <_Z7tracebrPv>
    1e22:	48 8d 05 37 a7 00 00 	lea    rax,[rip+0xa737]        # c560 <sgx_ocfree>
    1e29:	48 89 c7             	mov    rdi,rax
    1e2c:	e8 ff 9f 00 00       	call   be30 <_Z10traceedgecPv>
    1e31:	e8 2a a7 00 00       	call   c560 <sgx_ocfree>
    1e36:	c7 45 fc 01 00 00 00 	mov    DWORD PTR [rbp-0x4],0x1
    1e3d:	e9 22 02 00 00       	jmp    2064 <ocall_ioctl_InvalidateAgid+0x3c4>
    1e42:	31 ff                	xor    edi,edi
    1e44:	e8 57 a3 00 00       	call   c1a0 <_Z7tracebrPv>
    1e49:	48 8b 45 b8          	mov    rax,QWORD PTR [rbp-0x48]
    1e4d:	48 89 45 c8          	mov    QWORD PTR [rbp-0x38],rax
    1e51:	48 8b 45 b8          	mov    rax,QWORD PTR [rbp-0x48]
    1e55:	48 05 10 00 00 00    	add    rax,0x10
    1e5b:	48 89 45 b8          	mov    QWORD PTR [rbp-0x48],rax
    1e5f:	48 8b 45 c0          	mov    rax,QWORD PTR [rbp-0x40]
    1e63:	48 2d 10 00 00 00    	sub    rax,0x10
    1e69:	48 89 45 c0          	mov    QWORD PTR [rbp-0x40],rax
    1e6d:	8b 4d ec             	mov    ecx,DWORD PTR [rbp-0x14]
    1e70:	48 8b 45 c8          	mov    rax,QWORD PTR [rbp-0x38]
    1e74:	89 48 04             	mov    DWORD PTR [rax+0x4],ecx
    1e77:	48 83 7d e0 00       	cmp    QWORD PTR [rbp-0x20],0x0
    1e7c:	0f 84 92 00 00 00    	je     1f14 <ocall_ioctl_InvalidateAgid+0x274>
    1e82:	bf 01 00 00 00       	mov    edi,0x1
    1e87:	e8 14 a3 00 00       	call   c1a0 <_Z7tracebrPv>
    1e8c:	48 8b 45 b8          	mov    rax,QWORD PTR [rbp-0x48]
    1e90:	48 8b 4d c8          	mov    rcx,QWORD PTR [rbp-0x38]
    1e94:	48 89 41 08          	mov    QWORD PTR [rcx+0x8],rax
    1e98:	48 8b 45 b8          	mov    rax,QWORD PTR [rbp-0x48]
    1e9c:	48 89 45 b0          	mov    QWORD PTR [rbp-0x50],rax
    1ea0:	48 8b 45 d0          	mov    rax,QWORD PTR [rbp-0x30]
    1ea4:	48 25 03 00 00 00    	and    rax,0x3
    1eaa:	48 83 f8 00          	cmp    rax,0x0
    1eae:	0f 84 2a 00 00 00    	je     1ede <ocall_ioctl_InvalidateAgid+0x23e>
    1eb4:	bf 01 00 00 00       	mov    edi,0x1
    1eb9:	e8 e2 a2 00 00       	call   c1a0 <_Z7tracebrPv>
    1ebe:	48 8d 05 9b a6 00 00 	lea    rax,[rip+0xa69b]        # c560 <sgx_ocfree>
    1ec5:	48 89 c7             	mov    rdi,rax
    1ec8:	e8 63 9f 00 00       	call   be30 <_Z10traceedgecPv>
    1ecd:	e8 8e a6 00 00       	call   c560 <sgx_ocfree>
    1ed2:	c7 45 fc 02 00 00 00 	mov    DWORD PTR [rbp-0x4],0x2
    1ed9:	e9 86 01 00 00       	jmp    2064 <ocall_ioctl_InvalidateAgid+0x3c4>
    1ede:	31 ff                	xor    edi,edi
    1ee0:	e8 bb a2 00 00       	call   c1a0 <_Z7tracebrPv>
    1ee5:	31 f6                	xor    esi,esi
    1ee7:	48 8b 7d b0          	mov    rdi,QWORD PTR [rbp-0x50]
    1eeb:	48 8b 55 d0          	mov    rdx,QWORD PTR [rbp-0x30]
    1eef:	e8 cc 02 01 00       	call   121c0 <memset>
    1ef4:	48 8b 45 b8          	mov    rax,QWORD PTR [rbp-0x48]
    1ef8:	48 03 45 d0          	add    rax,QWORD PTR [rbp-0x30]
    1efc:	48 89 45 b8          	mov    QWORD PTR [rbp-0x48],rax
    1f00:	48 8b 45 d0          	mov    rax,QWORD PTR [rbp-0x30]
    1f04:	48 8b 4d c0          	mov    rcx,QWORD PTR [rbp-0x40]
    1f08:	48 29 c1             	sub    rcx,rax
    1f0b:	48 89 4d c0          	mov    QWORD PTR [rbp-0x40],rcx
    1f0f:	e9 13 00 00 00       	jmp    1f27 <ocall_ioctl_InvalidateAgid+0x287>
    1f14:	31 ff                	xor    edi,edi
    1f16:	e8 85 a2 00 00       	call   c1a0 <_Z7tracebrPv>
    1f1b:	48 8b 45 c8          	mov    rax,QWORD PTR [rbp-0x38]
    1f1f:	48 c7 40 08 00 00 00 	mov    QWORD PTR [rax+0x8],0x0
    1f26:	00 
    1f27:	48 8d 05 82 bb 00 00 	lea    rax,[rip+0xbb82]        # dab0 <sgx_ocall>
    1f2e:	48 8b 4d c8          	mov    rcx,QWORD PTR [rbp-0x38]
    1f32:	48 89 c7             	mov    rdi,rax
    1f35:	48 89 8d 78 ff ff ff 	mov    QWORD PTR [rbp-0x88],rcx
    1f3c:	e8 ef 9e 00 00       	call   be30 <_Z10traceedgecPv>
    1f41:	bf 02 00 00 00       	mov    edi,0x2
    1f46:	48 8b b5 78 ff ff ff 	mov    rsi,QWORD PTR [rbp-0x88]
    1f4d:	e8 5e bb 00 00       	call   dab0 <sgx_ocall>
    1f52:	89 45 dc             	mov    DWORD PTR [rbp-0x24],eax
    1f55:	83 7d dc 00          	cmp    DWORD PTR [rbp-0x24],0x0
    1f59:	0f 85 e4 00 00 00    	jne    2043 <ocall_ioctl_InvalidateAgid+0x3a3>
    1f5f:	bf 01 00 00 00       	mov    edi,0x1
    1f64:	e8 37 a2 00 00       	call   c1a0 <_Z7tracebrPv>
    1f69:	48 83 7d f0 00       	cmp    QWORD PTR [rbp-0x10],0x0
    1f6e:	0f 84 16 00 00 00    	je     1f8a <ocall_ioctl_InvalidateAgid+0x2ea>
    1f74:	bf 01 00 00 00       	mov    edi,0x1
    1f79:	e8 22 a2 00 00       	call   c1a0 <_Z7tracebrPv>
    1f7e:	48 8b 45 c8          	mov    rax,QWORD PTR [rbp-0x38]
    1f82:	8b 08                	mov    ecx,DWORD PTR [rax]
    1f84:	48 8b 45 f0          	mov    rax,QWORD PTR [rbp-0x10]
    1f88:	89 08                	mov    DWORD PTR [rax],ecx
    1f8a:	31 ff                	xor    edi,edi
    1f8c:	e8 0f a2 00 00       	call   c1a0 <_Z7tracebrPv>
    1f91:	48 83 7d e0 00       	cmp    QWORD PTR [rbp-0x20],0x0
    1f96:	0f 84 a0 00 00 00    	je     203c <ocall_ioctl_InvalidateAgid+0x39c>
    1f9c:	bf 01 00 00 00       	mov    edi,0x1
    1fa1:	e8 fa a1 00 00       	call   c1a0 <_Z7tracebrPv>
    1fa6:	48 8d 05 d3 06 01 00 	lea    rax,[rip+0x106d3]        # 12680 <memcpy_s>
    1fad:	48 8b 4d e0          	mov    rcx,QWORD PTR [rbp-0x20]
    1fb1:	48 8b 75 d0          	mov    rsi,QWORD PTR [rbp-0x30]
    1fb5:	48 8b 55 b0          	mov    rdx,QWORD PTR [rbp-0x50]
    1fb9:	4c 8b 45 d0          	mov    r8,QWORD PTR [rbp-0x30]
    1fbd:	48 89 c7             	mov    rdi,rax
    1fc0:	48 89 8d 70 ff ff ff 	mov    QWORD PTR [rbp-0x90],rcx
    1fc7:	48 89 b5 68 ff ff ff 	mov    QWORD PTR [rbp-0x98],rsi
    1fce:	48 89 95 60 ff ff ff 	mov    QWORD PTR [rbp-0xa0],rdx
    1fd5:	4c 89 85 58 ff ff ff 	mov    QWORD PTR [rbp-0xa8],r8
    1fdc:	e8 4f 9e 00 00       	call   be30 <_Z10traceedgecPv>
    1fe1:	48 8b bd 70 ff ff ff 	mov    rdi,QWORD PTR [rbp-0x90]
    1fe8:	48 8b b5 68 ff ff ff 	mov    rsi,QWORD PTR [rbp-0x98]
    1fef:	48 8b 95 60 ff ff ff 	mov    rdx,QWORD PTR [rbp-0xa0]
    1ff6:	48 8b 8d 58 ff ff ff 	mov    rcx,QWORD PTR [rbp-0xa8]
    1ffd:	e8 7e 06 01 00       	call   12680 <memcpy_s>
    2002:	83 f8 00             	cmp    eax,0x0
    2005:	0f 84 2a 00 00 00    	je     2035 <ocall_ioctl_InvalidateAgid+0x395>
    200b:	bf 01 00 00 00       	mov    edi,0x1
    2010:	e8 8b a1 00 00       	call   c1a0 <_Z7tracebrPv>
    2015:	48 8d 05 44 a5 00 00 	lea    rax,[rip+0xa544]        # c560 <sgx_ocfree>
    201c:	48 89 c7             	mov    rdi,rax
    201f:	e8 0c 9e 00 00       	call   be30 <_Z10traceedgecPv>
    2024:	e8 37 a5 00 00       	call   c560 <sgx_ocfree>
    2029:	c7 45 fc 01 00 00 00 	mov    DWORD PTR [rbp-0x4],0x1
    2030:	e9 2f 00 00 00       	jmp    2064 <ocall_ioctl_InvalidateAgid+0x3c4>
    2035:	31 ff                	xor    edi,edi
    2037:	e8 64 a1 00 00       	call   c1a0 <_Z7tracebrPv>
    203c:	31 ff                	xor    edi,edi
    203e:	e8 5d a1 00 00       	call   c1a0 <_Z7tracebrPv>
    2043:	31 ff                	xor    edi,edi
    2045:	e8 56 a1 00 00       	call   c1a0 <_Z7tracebrPv>
    204a:	48 8d 05 0f a5 00 00 	lea    rax,[rip+0xa50f]        # c560 <sgx_ocfree>
    2051:	48 89 c7             	mov    rdi,rax
    2054:	e8 d7 9d 00 00       	call   be30 <_Z10traceedgecPv>
    2059:	e8 02 a5 00 00       	call   c560 <sgx_ocfree>
    205e:	8b 4d dc             	mov    ecx,DWORD PTR [rbp-0x24]
    2061:	89 4d fc             	mov    DWORD PTR [rbp-0x4],ecx
    2064:	8b 45 fc             	mov    eax,DWORD PTR [rbp-0x4]
    2067:	48 8b 7d 08          	mov    rdi,QWORD PTR [rbp+0x8]
    206b:	89 85 54 ff ff ff    	mov    DWORD PTR [rbp-0xac],eax
    2071:	e8 ba 9d 00 00       	call   be30 <_Z10traceedgecPv>
    2076:	8b 85 54 ff ff ff    	mov    eax,DWORD PTR [rbp-0xac]
    207c:	48 81 c4 b0 00 00 00 	add    rsp,0xb0
    2083:	5d                   	pop    rbp
    2084:	c3                   	ret    
    2085:	66 2e 0f 1f 84 00 00 	nop    WORD PTR cs:[rax+rax*1+0x0]
    208c:	00 00 00 
    208f:	90                   	nop

0000000000002090 <ocall_ioctl_SendKey2>:
    2090:	55                   	push   rbp
    2091:	48 89 e5             	mov    rbp,rsp
    2094:	48 81 ec 00 01 00 00 	sub    rsp,0x100
    209b:	48 89 7d f0          	mov    QWORD PTR [rbp-0x10],rdi
    209f:	89 75 ec             	mov    DWORD PTR [rbp-0x14],esi
    20a2:	48 89 55 e0          	mov    QWORD PTR [rbp-0x20],rdx
    20a6:	48 89 4d d8          	mov    QWORD PTR [rbp-0x28],rcx
    20aa:	c7 45 d4 00 00 00 00 	mov    DWORD PTR [rbp-0x2c],0x0
    20b1:	48 c7 45 c8 04 00 00 	mov    QWORD PTR [rbp-0x38],0x4
    20b8:	00 
    20b9:	48 c7 45 c0 01 00 00 	mov    QWORD PTR [rbp-0x40],0x1
    20c0:	00 
    20c1:	48 c7 45 b8 00 00 00 	mov    QWORD PTR [rbp-0x48],0x0
    20c8:	00 
    20c9:	48 c7 45 b0 18 00 00 	mov    QWORD PTR [rbp-0x50],0x18
    20d0:	00 
    20d1:	48 c7 45 a8 00 00 00 	mov    QWORD PTR [rbp-0x58],0x0
    20d8:	00 
    20d9:	48 83 7d e0 00       	cmp    QWORD PTR [rbp-0x20],0x0
    20de:	0f 84 52 00 00 00    	je     2136 <ocall_ioctl_SendKey2+0xa6>
    20e4:	bf 01 00 00 00       	mov    edi,0x1
    20e9:	e8 b2 a0 00 00       	call   c1a0 <_Z7tracebrPv>
    20ee:	48 8d 05 db a2 00 00 	lea    rax,[rip+0xa2db]        # c3d0 <sgx_is_within_enclave>
    20f5:	48 8b 4d e0          	mov    rcx,QWORD PTR [rbp-0x20]
    20f9:	48 8b 75 c8          	mov    rsi,QWORD PTR [rbp-0x38]
    20fd:	48 89 c7             	mov    rdi,rax
    2100:	48 89 4d a0          	mov    QWORD PTR [rbp-0x60],rcx
    2104:	48 89 75 98          	mov    QWORD PTR [rbp-0x68],rsi
    2108:	e8 23 9d 00 00       	call   be30 <_Z10traceedgecPv>
    210d:	48 8b 7d a0          	mov    rdi,QWORD PTR [rbp-0x60]
    2111:	48 8b 75 98          	mov    rsi,QWORD PTR [rbp-0x68]
    2115:	e8 b6 a2 00 00       	call   c3d0 <sgx_is_within_enclave>
    211a:	83 f8 00             	cmp    eax,0x0
    211d:	0f 85 13 00 00 00    	jne    2136 <ocall_ioctl_SendKey2+0xa6>
    2123:	31 ff                	xor    edi,edi
    2125:	e8 76 a0 00 00       	call   c1a0 <_Z7tracebrPv>
    212a:	c7 45 fc 02 00 00 00 	mov    DWORD PTR [rbp-0x4],0x2
    2131:	e9 54 05 00 00       	jmp    268a <ocall_ioctl_SendKey2+0x5fa>
    2136:	31 ff                	xor    edi,edi
    2138:	e8 63 a0 00 00       	call   c1a0 <_Z7tracebrPv>
    213d:	e9 00 00 00 00       	jmp    2142 <ocall_ioctl_SendKey2+0xb2>
    2142:	48 83 7d d8 00       	cmp    QWORD PTR [rbp-0x28],0x0
    2147:	0f 84 52 00 00 00    	je     219f <ocall_ioctl_SendKey2+0x10f>
    214d:	bf 01 00 00 00       	mov    edi,0x1
    2152:	e8 49 a0 00 00       	call   c1a0 <_Z7tracebrPv>
    2157:	48 8d 05 72 a2 00 00 	lea    rax,[rip+0xa272]        # c3d0 <sgx_is_within_enclave>
    215e:	48 8b 7d d8          	mov    rdi,QWORD PTR [rbp-0x28]
    2162:	48 8b 75 c0          	mov    rsi,QWORD PTR [rbp-0x40]
    2166:	48 89 7d 90          	mov    QWORD PTR [rbp-0x70],rdi
    216a:	48 89 c7             	mov    rdi,rax
    216d:	48 89 75 88          	mov    QWORD PTR [rbp-0x78],rsi
    2171:	e8 ba 9c 00 00       	call   be30 <_Z10traceedgecPv>
    2176:	48 8b 7d 90          	mov    rdi,QWORD PTR [rbp-0x70]
    217a:	48 8b 75 88          	mov    rsi,QWORD PTR [rbp-0x78]
    217e:	e8 4d a2 00 00       	call   c3d0 <sgx_is_within_enclave>
    2183:	83 f8 00             	cmp    eax,0x0
    2186:	0f 85 13 00 00 00    	jne    219f <ocall_ioctl_SendKey2+0x10f>
    218c:	31 ff                	xor    edi,edi
    218e:	e8 0d a0 00 00       	call   c1a0 <_Z7tracebrPv>
    2193:	c7 45 fc 02 00 00 00 	mov    DWORD PTR [rbp-0x4],0x2
    219a:	e9 eb 04 00 00       	jmp    268a <ocall_ioctl_SendKey2+0x5fa>
    219f:	31 ff                	xor    edi,edi
    21a1:	e8 fa 9f 00 00       	call   c1a0 <_Z7tracebrPv>
    21a6:	48 83 7d e0 00       	cmp    QWORD PTR [rbp-0x20],0x0
    21ab:	0f 84 17 00 00 00    	je     21c8 <ocall_ioctl_SendKey2+0x138>
    21b1:	bf 01 00 00 00       	mov    edi,0x1
    21b6:	e8 e5 9f 00 00       	call   c1a0 <_Z7tracebrPv>
    21bb:	48 8b 45 c8          	mov    rax,QWORD PTR [rbp-0x38]
    21bf:	48 89 45 80          	mov    QWORD PTR [rbp-0x80],rax
    21c3:	e9 0f 00 00 00       	jmp    21d7 <ocall_ioctl_SendKey2+0x147>
    21c8:	31 ff                	xor    edi,edi
    21ca:	e8 d1 9f 00 00       	call   c1a0 <_Z7tracebrPv>
    21cf:	31 c0                	xor    eax,eax
    21d1:	89 c1                	mov    ecx,eax
    21d3:	48 89 4d 80          	mov    QWORD PTR [rbp-0x80],rcx
    21d7:	48 8b 45 80          	mov    rax,QWORD PTR [rbp-0x80]
    21db:	48 03 45 b0          	add    rax,QWORD PTR [rbp-0x50]
    21df:	48 89 45 b0          	mov    QWORD PTR [rbp-0x50],rax
    21e3:	48 83 7d e0 00       	cmp    QWORD PTR [rbp-0x20],0x0
    21e8:	48 89 85 78 ff ff ff 	mov    QWORD PTR [rbp-0x88],rax
    21ef:	0f 84 1a 00 00 00    	je     220f <ocall_ioctl_SendKey2+0x17f>
    21f5:	bf 01 00 00 00       	mov    edi,0x1
    21fa:	e8 a1 9f 00 00       	call   c1a0 <_Z7tracebrPv>
    21ff:	48 8b 45 c8          	mov    rax,QWORD PTR [rbp-0x38]
    2203:	48 89 85 70 ff ff ff 	mov    QWORD PTR [rbp-0x90],rax
    220a:	e9 12 00 00 00       	jmp    2221 <ocall_ioctl_SendKey2+0x191>
    220f:	31 ff                	xor    edi,edi
    2211:	e8 8a 9f 00 00       	call   c1a0 <_Z7tracebrPv>
    2216:	31 c0                	xor    eax,eax
    2218:	89 c1                	mov    ecx,eax
    221a:	48 89 8d 70 ff ff ff 	mov    QWORD PTR [rbp-0x90],rcx
    2221:	48 8b 85 70 ff ff ff 	mov    rax,QWORD PTR [rbp-0x90]
    2228:	48 8b 8d 78 ff ff ff 	mov    rcx,QWORD PTR [rbp-0x88]
    222f:	48 39 c1             	cmp    rcx,rax
    2232:	0f 83 16 00 00 00    	jae    224e <ocall_ioctl_SendKey2+0x1be>
    2238:	bf 01 00 00 00       	mov    edi,0x1
    223d:	e8 5e 9f 00 00       	call   c1a0 <_Z7tracebrPv>
    2242:	c7 45 fc 02 00 00 00 	mov    DWORD PTR [rbp-0x4],0x2
    2249:	e9 3c 04 00 00       	jmp    268a <ocall_ioctl_SendKey2+0x5fa>
    224e:	31 ff                	xor    edi,edi
    2250:	e8 4b 9f 00 00       	call   c1a0 <_Z7tracebrPv>
    2255:	48 83 7d d8 00       	cmp    QWORD PTR [rbp-0x28],0x0
    225a:	0f 84 1a 00 00 00    	je     227a <ocall_ioctl_SendKey2+0x1ea>
    2260:	bf 01 00 00 00       	mov    edi,0x1
    2265:	e8 36 9f 00 00       	call   c1a0 <_Z7tracebrPv>
    226a:	48 8b 45 c0          	mov    rax,QWORD PTR [rbp-0x40]
    226e:	48 89 85 68 ff ff ff 	mov    QWORD PTR [rbp-0x98],rax
    2275:	e9 12 00 00 00       	jmp    228c <ocall_ioctl_SendKey2+0x1fc>
    227a:	31 ff                	xor    edi,edi
    227c:	e8 1f 9f 00 00       	call   c1a0 <_Z7tracebrPv>
    2281:	31 c0                	xor    eax,eax
    2283:	89 c1                	mov    ecx,eax
    2285:	48 89 8d 68 ff ff ff 	mov    QWORD PTR [rbp-0x98],rcx
    228c:	48 8b 85 68 ff ff ff 	mov    rax,QWORD PTR [rbp-0x98]
    2293:	48 03 45 b0          	add    rax,QWORD PTR [rbp-0x50]
    2297:	48 89 45 b0          	mov    QWORD PTR [rbp-0x50],rax
    229b:	48 83 7d d8 00       	cmp    QWORD PTR [rbp-0x28],0x0
    22a0:	48 89 85 60 ff ff ff 	mov    QWORD PTR [rbp-0xa0],rax
    22a7:	0f 84 1a 00 00 00    	je     22c7 <ocall_ioctl_SendKey2+0x237>
    22ad:	bf 01 00 00 00       	mov    edi,0x1
    22b2:	e8 e9 9e 00 00       	call   c1a0 <_Z7tracebrPv>
    22b7:	48 8b 45 c0          	mov    rax,QWORD PTR [rbp-0x40]
    22bb:	48 89 85 58 ff ff ff 	mov    QWORD PTR [rbp-0xa8],rax
    22c2:	e9 12 00 00 00       	jmp    22d9 <ocall_ioctl_SendKey2+0x249>
    22c7:	31 ff                	xor    edi,edi
    22c9:	e8 d2 9e 00 00       	call   c1a0 <_Z7tracebrPv>
    22ce:	31 c0                	xor    eax,eax
    22d0:	89 c1                	mov    ecx,eax
    22d2:	48 89 8d 58 ff ff ff 	mov    QWORD PTR [rbp-0xa8],rcx
    22d9:	48 8b 85 58 ff ff ff 	mov    rax,QWORD PTR [rbp-0xa8]
    22e0:	48 8b 8d 60 ff ff ff 	mov    rcx,QWORD PTR [rbp-0xa0]
    22e7:	48 39 c1             	cmp    rcx,rax
    22ea:	0f 83 16 00 00 00    	jae    2306 <ocall_ioctl_SendKey2+0x276>
    22f0:	bf 01 00 00 00       	mov    edi,0x1
    22f5:	e8 a6 9e 00 00       	call   c1a0 <_Z7tracebrPv>
    22fa:	c7 45 fc 02 00 00 00 	mov    DWORD PTR [rbp-0x4],0x2
    2301:	e9 84 03 00 00       	jmp    268a <ocall_ioctl_SendKey2+0x5fa>
    2306:	31 ff                	xor    edi,edi
    2308:	e8 93 9e 00 00       	call   c1a0 <_Z7tracebrPv>
    230d:	48 8d 05 5c a1 00 00 	lea    rax,[rip+0xa15c]        # c470 <sgx_ocalloc>
    2314:	48 8b 7d b0          	mov    rdi,QWORD PTR [rbp-0x50]
    2318:	48 89 bd 50 ff ff ff 	mov    QWORD PTR [rbp-0xb0],rdi
    231f:	48 89 c7             	mov    rdi,rax
    2322:	e8 09 9b 00 00       	call   be30 <_Z10traceedgecPv>
    2327:	48 8b bd 50 ff ff ff 	mov    rdi,QWORD PTR [rbp-0xb0]
    232e:	e8 3d a1 00 00       	call   c470 <sgx_ocalloc>
    2333:	48 89 45 a8          	mov    QWORD PTR [rbp-0x58],rax
    2337:	48 83 7d a8 00       	cmp    QWORD PTR [rbp-0x58],0x0
    233c:	0f 85 2a 00 00 00    	jne    236c <ocall_ioctl_SendKey2+0x2dc>
    2342:	bf 01 00 00 00       	mov    edi,0x1
    2347:	e8 54 9e 00 00       	call   c1a0 <_Z7tracebrPv>
    234c:	48 8d 05 0d a2 00 00 	lea    rax,[rip+0xa20d]        # c560 <sgx_ocfree>
    2353:	48 89 c7             	mov    rdi,rax
    2356:	e8 d5 9a 00 00       	call   be30 <_Z10traceedgecPv>
    235b:	e8 00 a2 00 00       	call   c560 <sgx_ocfree>
    2360:	c7 45 fc 01 00 00 00 	mov    DWORD PTR [rbp-0x4],0x1
    2367:	e9 1e 03 00 00       	jmp    268a <ocall_ioctl_SendKey2+0x5fa>
    236c:	31 ff                	xor    edi,edi
    236e:	e8 2d 9e 00 00       	call   c1a0 <_Z7tracebrPv>
    2373:	48 8b 45 a8          	mov    rax,QWORD PTR [rbp-0x58]
    2377:	48 89 45 b8          	mov    QWORD PTR [rbp-0x48],rax
    237b:	48 8b 45 a8          	mov    rax,QWORD PTR [rbp-0x58]
    237f:	48 05 18 00 00 00    	add    rax,0x18
    2385:	48 89 45 a8          	mov    QWORD PTR [rbp-0x58],rax
    2389:	48 8b 45 b0          	mov    rax,QWORD PTR [rbp-0x50]
    238d:	48 2d 18 00 00 00    	sub    rax,0x18
    2393:	48 89 45 b0          	mov    QWORD PTR [rbp-0x50],rax
    2397:	8b 4d ec             	mov    ecx,DWORD PTR [rbp-0x14]
    239a:	48 8b 45 b8          	mov    rax,QWORD PTR [rbp-0x48]
    239e:	89 48 04             	mov    DWORD PTR [rax+0x4],ecx
    23a1:	48 83 7d e0 00       	cmp    QWORD PTR [rbp-0x20],0x0
    23a6:	0f 84 11 01 00 00    	je     24bd <ocall_ioctl_SendKey2+0x42d>
    23ac:	bf 01 00 00 00       	mov    edi,0x1
    23b1:	e8 ea 9d 00 00       	call   c1a0 <_Z7tracebrPv>
    23b6:	48 8b 45 a8          	mov    rax,QWORD PTR [rbp-0x58]
    23ba:	48 8b 4d b8          	mov    rcx,QWORD PTR [rbp-0x48]
    23be:	48 89 41 08          	mov    QWORD PTR [rcx+0x8],rax
    23c2:	48 8b 45 c8          	mov    rax,QWORD PTR [rbp-0x38]
    23c6:	48 25 03 00 00 00    	and    rax,0x3
    23cc:	48 83 f8 00          	cmp    rax,0x0
    23d0:	0f 84 2a 00 00 00    	je     2400 <ocall_ioctl_SendKey2+0x370>
    23d6:	bf 01 00 00 00       	mov    edi,0x1
    23db:	e8 c0 9d 00 00       	call   c1a0 <_Z7tracebrPv>
    23e0:	48 8d 05 79 a1 00 00 	lea    rax,[rip+0xa179]        # c560 <sgx_ocfree>
    23e7:	48 89 c7             	mov    rdi,rax
    23ea:	e8 41 9a 00 00       	call   be30 <_Z10traceedgecPv>
    23ef:	e8 6c a1 00 00       	call   c560 <sgx_ocfree>
    23f4:	c7 45 fc 02 00 00 00 	mov    DWORD PTR [rbp-0x4],0x2
    23fb:	e9 8a 02 00 00       	jmp    268a <ocall_ioctl_SendKey2+0x5fa>
    2400:	31 ff                	xor    edi,edi
    2402:	e8 99 9d 00 00       	call   c1a0 <_Z7tracebrPv>
    2407:	48 8d 05 72 02 01 00 	lea    rax,[rip+0x10272]        # 12680 <memcpy_s>
    240e:	48 8b 7d a8          	mov    rdi,QWORD PTR [rbp-0x58]
    2412:	48 8b 75 b0          	mov    rsi,QWORD PTR [rbp-0x50]
    2416:	48 8b 4d e0          	mov    rcx,QWORD PTR [rbp-0x20]
    241a:	48 8b 55 c8          	mov    rdx,QWORD PTR [rbp-0x38]
    241e:	48 89 bd 48 ff ff ff 	mov    QWORD PTR [rbp-0xb8],rdi
    2425:	48 89 c7             	mov    rdi,rax
    2428:	48 89 b5 40 ff ff ff 	mov    QWORD PTR [rbp-0xc0],rsi
    242f:	48 89 8d 38 ff ff ff 	mov    QWORD PTR [rbp-0xc8],rcx
    2436:	48 89 95 30 ff ff ff 	mov    QWORD PTR [rbp-0xd0],rdx
    243d:	e8 ee 99 00 00       	call   be30 <_Z10traceedgecPv>
    2442:	48 8b bd 48 ff ff ff 	mov    rdi,QWORD PTR [rbp-0xb8]
    2449:	48 8b b5 40 ff ff ff 	mov    rsi,QWORD PTR [rbp-0xc0]
    2450:	48 8b 95 38 ff ff ff 	mov    rdx,QWORD PTR [rbp-0xc8]
    2457:	48 8b 8d 30 ff ff ff 	mov    rcx,QWORD PTR [rbp-0xd0]
    245e:	e8 1d 02 01 00       	call   12680 <memcpy_s>
    2463:	83 f8 00             	cmp    eax,0x0
    2466:	0f 84 2a 00 00 00    	je     2496 <ocall_ioctl_SendKey2+0x406>
    246c:	bf 01 00 00 00       	mov    edi,0x1
    2471:	e8 2a 9d 00 00       	call   c1a0 <_Z7tracebrPv>
    2476:	48 8d 05 e3 a0 00 00 	lea    rax,[rip+0xa0e3]        # c560 <sgx_ocfree>
    247d:	48 89 c7             	mov    rdi,rax
    2480:	e8 ab 99 00 00       	call   be30 <_Z10traceedgecPv>
    2485:	e8 d6 a0 00 00       	call   c560 <sgx_ocfree>
    248a:	c7 45 fc 01 00 00 00 	mov    DWORD PTR [rbp-0x4],0x1
    2491:	e9 f4 01 00 00       	jmp    268a <ocall_ioctl_SendKey2+0x5fa>
    2496:	31 ff                	xor    edi,edi
    2498:	e8 03 9d 00 00       	call   c1a0 <_Z7tracebrPv>
    249d:	48 8b 45 a8          	mov    rax,QWORD PTR [rbp-0x58]
    24a1:	48 03 45 c8          	add    rax,QWORD PTR [rbp-0x38]
    24a5:	48 89 45 a8          	mov    QWORD PTR [rbp-0x58],rax
    24a9:	48 8b 45 c8          	mov    rax,QWORD PTR [rbp-0x38]
    24ad:	48 8b 4d b0          	mov    rcx,QWORD PTR [rbp-0x50]
    24b1:	48 29 c1             	sub    rcx,rax
    24b4:	48 89 4d b0          	mov    QWORD PTR [rbp-0x50],rcx
    24b8:	e9 13 00 00 00       	jmp    24d0 <ocall_ioctl_SendKey2+0x440>
    24bd:	31 ff                	xor    edi,edi
    24bf:	e8 dc 9c 00 00       	call   c1a0 <_Z7tracebrPv>
    24c4:	48 8b 45 b8          	mov    rax,QWORD PTR [rbp-0x48]
    24c8:	48 c7 40 08 00 00 00 	mov    QWORD PTR [rax+0x8],0x0
    24cf:	00 
    24d0:	48 83 7d d8 00       	cmp    QWORD PTR [rbp-0x28],0x0
    24d5:	0f 84 11 01 00 00    	je     25ec <ocall_ioctl_SendKey2+0x55c>
    24db:	bf 01 00 00 00       	mov    edi,0x1
    24e0:	e8 bb 9c 00 00       	call   c1a0 <_Z7tracebrPv>
    24e5:	48 8b 45 a8          	mov    rax,QWORD PTR [rbp-0x58]
    24e9:	48 8b 4d b8          	mov    rcx,QWORD PTR [rbp-0x48]
    24ed:	48 89 41 10          	mov    QWORD PTR [rcx+0x10],rax
    24f1:	48 8b 45 c0          	mov    rax,QWORD PTR [rbp-0x40]
    24f5:	48 25 00 00 00 00    	and    rax,0x0
    24fb:	48 83 f8 00          	cmp    rax,0x0
    24ff:	0f 84 2a 00 00 00    	je     252f <ocall_ioctl_SendKey2+0x49f>
    2505:	bf 01 00 00 00       	mov    edi,0x1
    250a:	e8 91 9c 00 00       	call   c1a0 <_Z7tracebrPv>
    250f:	48 8d 05 4a a0 00 00 	lea    rax,[rip+0xa04a]        # c560 <sgx_ocfree>
    2516:	48 89 c7             	mov    rdi,rax
    2519:	e8 12 99 00 00       	call   be30 <_Z10traceedgecPv>
    251e:	e8 3d a0 00 00       	call   c560 <sgx_ocfree>
    2523:	c7 45 fc 02 00 00 00 	mov    DWORD PTR [rbp-0x4],0x2
    252a:	e9 5b 01 00 00       	jmp    268a <ocall_ioctl_SendKey2+0x5fa>
    252f:	31 ff                	xor    edi,edi
    2531:	e8 6a 9c 00 00       	call   c1a0 <_Z7tracebrPv>
    2536:	48 8d 05 43 01 01 00 	lea    rax,[rip+0x10143]        # 12680 <memcpy_s>
    253d:	48 8b 7d a8          	mov    rdi,QWORD PTR [rbp-0x58]
    2541:	48 8b 75 b0          	mov    rsi,QWORD PTR [rbp-0x50]
    2545:	48 8b 55 d8          	mov    rdx,QWORD PTR [rbp-0x28]
    2549:	48 8b 4d c0          	mov    rcx,QWORD PTR [rbp-0x40]
    254d:	48 89 bd 28 ff ff ff 	mov    QWORD PTR [rbp-0xd8],rdi
    2554:	48 89 c7             	mov    rdi,rax
    2557:	48 89 b5 20 ff ff ff 	mov    QWORD PTR [rbp-0xe0],rsi
    255e:	48 89 95 18 ff ff ff 	mov    QWORD PTR [rbp-0xe8],rdx
    2565:	48 89 8d 10 ff ff ff 	mov    QWORD PTR [rbp-0xf0],rcx
    256c:	e8 bf 98 00 00       	call   be30 <_Z10traceedgecPv>
    2571:	48 8b bd 28 ff ff ff 	mov    rdi,QWORD PTR [rbp-0xd8]
    2578:	48 8b b5 20 ff ff ff 	mov    rsi,QWORD PTR [rbp-0xe0]
    257f:	48 8b 95 18 ff ff ff 	mov    rdx,QWORD PTR [rbp-0xe8]
    2586:	48 8b 8d 10 ff ff ff 	mov    rcx,QWORD PTR [rbp-0xf0]
    258d:	e8 ee 00 01 00       	call   12680 <memcpy_s>
    2592:	83 f8 00             	cmp    eax,0x0
    2595:	0f 84 2a 00 00 00    	je     25c5 <ocall_ioctl_SendKey2+0x535>
    259b:	bf 01 00 00 00       	mov    edi,0x1
    25a0:	e8 fb 9b 00 00       	call   c1a0 <_Z7tracebrPv>
    25a5:	48 8d 05 b4 9f 00 00 	lea    rax,[rip+0x9fb4]        # c560 <sgx_ocfree>
    25ac:	48 89 c7             	mov    rdi,rax
    25af:	e8 7c 98 00 00       	call   be30 <_Z10traceedgecPv>
    25b4:	e8 a7 9f 00 00       	call   c560 <sgx_ocfree>
    25b9:	c7 45 fc 01 00 00 00 	mov    DWORD PTR [rbp-0x4],0x1
    25c0:	e9 c5 00 00 00       	jmp    268a <ocall_ioctl_SendKey2+0x5fa>
    25c5:	31 ff                	xor    edi,edi
    25c7:	e8 d4 9b 00 00       	call   c1a0 <_Z7tracebrPv>
    25cc:	48 8b 45 a8          	mov    rax,QWORD PTR [rbp-0x58]
    25d0:	48 03 45 c0          	add    rax,QWORD PTR [rbp-0x40]
    25d4:	48 89 45 a8          	mov    QWORD PTR [rbp-0x58],rax
    25d8:	48 8b 45 c0          	mov    rax,QWORD PTR [rbp-0x40]
    25dc:	48 8b 4d b0          	mov    rcx,QWORD PTR [rbp-0x50]
    25e0:	48 29 c1             	sub    rcx,rax
    25e3:	48 89 4d b0          	mov    QWORD PTR [rbp-0x50],rcx
    25e7:	e9 13 00 00 00       	jmp    25ff <ocall_ioctl_SendKey2+0x56f>
    25ec:	31 ff                	xor    edi,edi
    25ee:	e8 ad 9b 00 00       	call   c1a0 <_Z7tracebrPv>
    25f3:	48 8b 45 b8          	mov    rax,QWORD PTR [rbp-0x48]
    25f7:	48 c7 40 10 00 00 00 	mov    QWORD PTR [rax+0x10],0x0
    25fe:	00 
    25ff:	48 8d 05 aa b4 00 00 	lea    rax,[rip+0xb4aa]        # dab0 <sgx_ocall>
    2606:	48 8b 4d b8          	mov    rcx,QWORD PTR [rbp-0x48]
    260a:	48 89 c7             	mov    rdi,rax
    260d:	48 89 8d 08 ff ff ff 	mov    QWORD PTR [rbp-0xf8],rcx
    2614:	e8 17 98 00 00       	call   be30 <_Z10traceedgecPv>
    2619:	bf 03 00 00 00       	mov    edi,0x3
    261e:	48 8b b5 08 ff ff ff 	mov    rsi,QWORD PTR [rbp-0xf8]
    2625:	e8 86 b4 00 00       	call   dab0 <sgx_ocall>
    262a:	89 45 d4             	mov    DWORD PTR [rbp-0x2c],eax
    262d:	83 7d d4 00          	cmp    DWORD PTR [rbp-0x2c],0x0
    2631:	0f 85 32 00 00 00    	jne    2669 <ocall_ioctl_SendKey2+0x5d9>
    2637:	bf 01 00 00 00       	mov    edi,0x1
    263c:	e8 5f 9b 00 00       	call   c1a0 <_Z7tracebrPv>
    2641:	48 83 7d f0 00       	cmp    QWORD PTR [rbp-0x10],0x0
    2646:	0f 84 16 00 00 00    	je     2662 <ocall_ioctl_SendKey2+0x5d2>
    264c:	bf 01 00 00 00       	mov    edi,0x1
    2651:	e8 4a 9b 00 00       	call   c1a0 <_Z7tracebrPv>
    2656:	48 8b 45 b8          	mov    rax,QWORD PTR [rbp-0x48]
    265a:	8b 08                	mov    ecx,DWORD PTR [rax]
    265c:	48 8b 45 f0          	mov    rax,QWORD PTR [rbp-0x10]
    2660:	89 08                	mov    DWORD PTR [rax],ecx
    2662:	31 ff                	xor    edi,edi
    2664:	e8 37 9b 00 00       	call   c1a0 <_Z7tracebrPv>
    2669:	31 ff                	xor    edi,edi
    266b:	e8 30 9b 00 00       	call   c1a0 <_Z7tracebrPv>
    2670:	48 8d 05 e9 9e 00 00 	lea    rax,[rip+0x9ee9]        # c560 <sgx_ocfree>
    2677:	48 89 c7             	mov    rdi,rax
    267a:	e8 b1 97 00 00       	call   be30 <_Z10traceedgecPv>
    267f:	e8 dc 9e 00 00       	call   c560 <sgx_ocfree>
    2684:	8b 4d d4             	mov    ecx,DWORD PTR [rbp-0x2c]
    2687:	89 4d fc             	mov    DWORD PTR [rbp-0x4],ecx
    268a:	8b 45 fc             	mov    eax,DWORD PTR [rbp-0x4]
    268d:	48 8b 7d 08          	mov    rdi,QWORD PTR [rbp+0x8]
    2691:	89 85 04 ff ff ff    	mov    DWORD PTR [rbp-0xfc],eax
    2697:	e8 94 97 00 00       	call   be30 <_Z10traceedgecPv>
    269c:	8b 85 04 ff ff ff    	mov    eax,DWORD PTR [rbp-0xfc]
    26a2:	48 81 c4 00 01 00 00 	add    rsp,0x100
    26a9:	5d                   	pop    rbp
    26aa:	c3                   	ret    
    26ab:	0f 1f 44 00 00       	nop    DWORD PTR [rax+rax*1+0x0]

00000000000026b0 <ocall_ioctl_ReportChallenge>:
    26b0:	55                   	push   rbp
    26b1:	48 89 e5             	mov    rbp,rsp
    26b4:	48 81 ec 30 01 00 00 	sub    rsp,0x130
    26bb:	48 89 7d f0          	mov    QWORD PTR [rbp-0x10],rdi
    26bf:	89 75 ec             	mov    DWORD PTR [rbp-0x14],esi
    26c2:	48 89 55 e0          	mov    QWORD PTR [rbp-0x20],rdx
    26c6:	48 89 4d d8          	mov    QWORD PTR [rbp-0x28],rcx
    26ca:	c7 45 d4 00 00 00 00 	mov    DWORD PTR [rbp-0x2c],0x0
    26d1:	48 c7 45 c8 04 00 00 	mov    QWORD PTR [rbp-0x38],0x4
    26d8:	00 
    26d9:	48 c7 45 c0 0a 00 00 	mov    QWORD PTR [rbp-0x40],0xa
    26e0:	00 
    26e1:	48 c7 45 b8 00 00 00 	mov    QWORD PTR [rbp-0x48],0x0
    26e8:	00 
    26e9:	48 c7 45 b0 18 00 00 	mov    QWORD PTR [rbp-0x50],0x18
    26f0:	00 
    26f1:	48 c7 45 a8 00 00 00 	mov    QWORD PTR [rbp-0x58],0x0
    26f8:	00 
    26f9:	48 c7 45 a0 00 00 00 	mov    QWORD PTR [rbp-0x60],0x0
    2700:	00 
    2701:	48 83 7d e0 00       	cmp    QWORD PTR [rbp-0x20],0x0
    2706:	0f 84 52 00 00 00    	je     275e <ocall_ioctl_ReportChallenge+0xae>
    270c:	bf 01 00 00 00       	mov    edi,0x1
    2711:	e8 8a 9a 00 00       	call   c1a0 <_Z7tracebrPv>
    2716:	48 8d 05 b3 9c 00 00 	lea    rax,[rip+0x9cb3]        # c3d0 <sgx_is_within_enclave>
    271d:	48 8b 4d e0          	mov    rcx,QWORD PTR [rbp-0x20]
    2721:	48 8b 75 c8          	mov    rsi,QWORD PTR [rbp-0x38]
    2725:	48 89 c7             	mov    rdi,rax
    2728:	48 89 4d 98          	mov    QWORD PTR [rbp-0x68],rcx
    272c:	48 89 75 90          	mov    QWORD PTR [rbp-0x70],rsi
    2730:	e8 fb 96 00 00       	call   be30 <_Z10traceedgecPv>
    2735:	48 8b 7d 98          	mov    rdi,QWORD PTR [rbp-0x68]
    2739:	48 8b 75 90          	mov    rsi,QWORD PTR [rbp-0x70]
    273d:	e8 8e 9c 00 00       	call   c3d0 <sgx_is_within_enclave>
    2742:	83 f8 00             	cmp    eax,0x0
    2745:	0f 85 13 00 00 00    	jne    275e <ocall_ioctl_ReportChallenge+0xae>
    274b:	31 ff                	xor    edi,edi
    274d:	e8 4e 9a 00 00       	call   c1a0 <_Z7tracebrPv>
    2752:	c7 45 fc 02 00 00 00 	mov    DWORD PTR [rbp-0x4],0x2
    2759:	e9 17 06 00 00       	jmp    2d75 <ocall_ioctl_ReportChallenge+0x6c5>
    275e:	31 ff                	xor    edi,edi
    2760:	e8 3b 9a 00 00       	call   c1a0 <_Z7tracebrPv>
    2765:	e9 00 00 00 00       	jmp    276a <ocall_ioctl_ReportChallenge+0xba>
    276a:	48 83 7d d8 00       	cmp    QWORD PTR [rbp-0x28],0x0
    276f:	0f 84 52 00 00 00    	je     27c7 <ocall_ioctl_ReportChallenge+0x117>
    2775:	bf 01 00 00 00       	mov    edi,0x1
    277a:	e8 21 9a 00 00       	call   c1a0 <_Z7tracebrPv>
    277f:	48 8d 05 4a 9c 00 00 	lea    rax,[rip+0x9c4a]        # c3d0 <sgx_is_within_enclave>
    2786:	48 8b 7d d8          	mov    rdi,QWORD PTR [rbp-0x28]
    278a:	48 8b 75 c0          	mov    rsi,QWORD PTR [rbp-0x40]
    278e:	48 89 7d 88          	mov    QWORD PTR [rbp-0x78],rdi
    2792:	48 89 c7             	mov    rdi,rax
    2795:	48 89 75 80          	mov    QWORD PTR [rbp-0x80],rsi
    2799:	e8 92 96 00 00       	call   be30 <_Z10traceedgecPv>
    279e:	48 8b 7d 88          	mov    rdi,QWORD PTR [rbp-0x78]
    27a2:	48 8b 75 80          	mov    rsi,QWORD PTR [rbp-0x80]
    27a6:	e8 25 9c 00 00       	call   c3d0 <sgx_is_within_enclave>
    27ab:	83 f8 00             	cmp    eax,0x0
    27ae:	0f 85 13 00 00 00    	jne    27c7 <ocall_ioctl_ReportChallenge+0x117>
    27b4:	31 ff                	xor    edi,edi
    27b6:	e8 e5 99 00 00       	call   c1a0 <_Z7tracebrPv>
    27bb:	c7 45 fc 02 00 00 00 	mov    DWORD PTR [rbp-0x4],0x2
    27c2:	e9 ae 05 00 00       	jmp    2d75 <ocall_ioctl_ReportChallenge+0x6c5>
    27c7:	31 ff                	xor    edi,edi
    27c9:	e8 d2 99 00 00       	call   c1a0 <_Z7tracebrPv>
    27ce:	48 83 7d e0 00       	cmp    QWORD PTR [rbp-0x20],0x0
    27d3:	0f 84 1a 00 00 00    	je     27f3 <ocall_ioctl_ReportChallenge+0x143>
    27d9:	bf 01 00 00 00       	mov    edi,0x1
    27de:	e8 bd 99 00 00       	call   c1a0 <_Z7tracebrPv>
    27e3:	48 8b 45 c8          	mov    rax,QWORD PTR [rbp-0x38]
    27e7:	48 89 85 78 ff ff ff 	mov    QWORD PTR [rbp-0x88],rax
    27ee:	e9 12 00 00 00       	jmp    2805 <ocall_ioctl_ReportChallenge+0x155>
    27f3:	31 ff                	xor    edi,edi
    27f5:	e8 a6 99 00 00       	call   c1a0 <_Z7tracebrPv>
    27fa:	31 c0                	xor    eax,eax
    27fc:	89 c1                	mov    ecx,eax
    27fe:	48 89 8d 78 ff ff ff 	mov    QWORD PTR [rbp-0x88],rcx
    2805:	48 8b 85 78 ff ff ff 	mov    rax,QWORD PTR [rbp-0x88]
    280c:	48 03 45 b0          	add    rax,QWORD PTR [rbp-0x50]
    2810:	48 89 45 b0          	mov    QWORD PTR [rbp-0x50],rax
    2814:	48 83 7d e0 00       	cmp    QWORD PTR [rbp-0x20],0x0
    2819:	48 89 85 70 ff ff ff 	mov    QWORD PTR [rbp-0x90],rax
    2820:	0f 84 1a 00 00 00    	je     2840 <ocall_ioctl_ReportChallenge+0x190>
    2826:	bf 01 00 00 00       	mov    edi,0x1
    282b:	e8 70 99 00 00       	call   c1a0 <_Z7tracebrPv>
    2830:	48 8b 45 c8          	mov    rax,QWORD PTR [rbp-0x38]
    2834:	48 89 85 68 ff ff ff 	mov    QWORD PTR [rbp-0x98],rax
    283b:	e9 12 00 00 00       	jmp    2852 <ocall_ioctl_ReportChallenge+0x1a2>
    2840:	31 ff                	xor    edi,edi
    2842:	e8 59 99 00 00       	call   c1a0 <_Z7tracebrPv>
    2847:	31 c0                	xor    eax,eax
    2849:	89 c1                	mov    ecx,eax
    284b:	48 89 8d 68 ff ff ff 	mov    QWORD PTR [rbp-0x98],rcx
    2852:	48 8b 85 68 ff ff ff 	mov    rax,QWORD PTR [rbp-0x98]
    2859:	48 8b 8d 70 ff ff ff 	mov    rcx,QWORD PTR [rbp-0x90]
    2860:	48 39 c1             	cmp    rcx,rax
    2863:	0f 83 16 00 00 00    	jae    287f <ocall_ioctl_ReportChallenge+0x1cf>
    2869:	bf 01 00 00 00       	mov    edi,0x1
    286e:	e8 2d 99 00 00       	call   c1a0 <_Z7tracebrPv>
    2873:	c7 45 fc 02 00 00 00 	mov    DWORD PTR [rbp-0x4],0x2
    287a:	e9 f6 04 00 00       	jmp    2d75 <ocall_ioctl_ReportChallenge+0x6c5>
    287f:	31 ff                	xor    edi,edi
    2881:	e8 1a 99 00 00       	call   c1a0 <_Z7tracebrPv>
    2886:	48 83 7d d8 00       	cmp    QWORD PTR [rbp-0x28],0x0
    288b:	0f 84 1a 00 00 00    	je     28ab <ocall_ioctl_ReportChallenge+0x1fb>
    2891:	bf 01 00 00 00       	mov    edi,0x1
    2896:	e8 05 99 00 00       	call   c1a0 <_Z7tracebrPv>
    289b:	48 8b 45 c0          	mov    rax,QWORD PTR [rbp-0x40]
    289f:	48 89 85 60 ff ff ff 	mov    QWORD PTR [rbp-0xa0],rax
    28a6:	e9 12 00 00 00       	jmp    28bd <ocall_ioctl_ReportChallenge+0x20d>
    28ab:	31 ff                	xor    edi,edi
    28ad:	e8 ee 98 00 00       	call   c1a0 <_Z7tracebrPv>
    28b2:	31 c0                	xor    eax,eax
    28b4:	89 c1                	mov    ecx,eax
    28b6:	48 89 8d 60 ff ff ff 	mov    QWORD PTR [rbp-0xa0],rcx
    28bd:	48 8b 85 60 ff ff ff 	mov    rax,QWORD PTR [rbp-0xa0]
    28c4:	48 03 45 b0          	add    rax,QWORD PTR [rbp-0x50]
    28c8:	48 89 45 b0          	mov    QWORD PTR [rbp-0x50],rax
    28cc:	48 83 7d d8 00       	cmp    QWORD PTR [rbp-0x28],0x0
    28d1:	48 89 85 58 ff ff ff 	mov    QWORD PTR [rbp-0xa8],rax
    28d8:	0f 84 1a 00 00 00    	je     28f8 <ocall_ioctl_ReportChallenge+0x248>
    28de:	bf 01 00 00 00       	mov    edi,0x1
    28e3:	e8 b8 98 00 00       	call   c1a0 <_Z7tracebrPv>
    28e8:	48 8b 45 c0          	mov    rax,QWORD PTR [rbp-0x40]
    28ec:	48 89 85 50 ff ff ff 	mov    QWORD PTR [rbp-0xb0],rax
    28f3:	e9 12 00 00 00       	jmp    290a <ocall_ioctl_ReportChallenge+0x25a>
    28f8:	31 ff                	xor    edi,edi
    28fa:	e8 a1 98 00 00       	call   c1a0 <_Z7tracebrPv>
    28ff:	31 c0                	xor    eax,eax
    2901:	89 c1                	mov    ecx,eax
    2903:	48 89 8d 50 ff ff ff 	mov    QWORD PTR [rbp-0xb0],rcx
    290a:	48 8b 85 50 ff ff ff 	mov    rax,QWORD PTR [rbp-0xb0]
    2911:	48 8b 8d 58 ff ff ff 	mov    rcx,QWORD PTR [rbp-0xa8]
    2918:	48 39 c1             	cmp    rcx,rax
    291b:	0f 83 16 00 00 00    	jae    2937 <ocall_ioctl_ReportChallenge+0x287>
    2921:	bf 01 00 00 00       	mov    edi,0x1
    2926:	e8 75 98 00 00       	call   c1a0 <_Z7tracebrPv>
    292b:	c7 45 fc 02 00 00 00 	mov    DWORD PTR [rbp-0x4],0x2
    2932:	e9 3e 04 00 00       	jmp    2d75 <ocall_ioctl_ReportChallenge+0x6c5>
    2937:	31 ff                	xor    edi,edi
    2939:	e8 62 98 00 00       	call   c1a0 <_Z7tracebrPv>
    293e:	48 8d 05 2b 9b 00 00 	lea    rax,[rip+0x9b2b]        # c470 <sgx_ocalloc>
    2945:	48 8b 7d b0          	mov    rdi,QWORD PTR [rbp-0x50]
    2949:	48 89 bd 48 ff ff ff 	mov    QWORD PTR [rbp-0xb8],rdi
    2950:	48 89 c7             	mov    rdi,rax
    2953:	e8 d8 94 00 00       	call   be30 <_Z10traceedgecPv>
    2958:	48 8b bd 48 ff ff ff 	mov    rdi,QWORD PTR [rbp-0xb8]
    295f:	e8 0c 9b 00 00       	call   c470 <sgx_ocalloc>
    2964:	48 89 45 a8          	mov    QWORD PTR [rbp-0x58],rax
    2968:	48 83 7d a8 00       	cmp    QWORD PTR [rbp-0x58],0x0
    296d:	0f 85 2a 00 00 00    	jne    299d <ocall_ioctl_ReportChallenge+0x2ed>
    2973:	bf 01 00 00 00       	mov    edi,0x1
    2978:	e8 23 98 00 00       	call   c1a0 <_Z7tracebrPv>
    297d:	48 8d 05 dc 9b 00 00 	lea    rax,[rip+0x9bdc]        # c560 <sgx_ocfree>
    2984:	48 89 c7             	mov    rdi,rax
    2987:	e8 a4 94 00 00       	call   be30 <_Z10traceedgecPv>
    298c:	e8 cf 9b 00 00       	call   c560 <sgx_ocfree>
    2991:	c7 45 fc 01 00 00 00 	mov    DWORD PTR [rbp-0x4],0x1
    2998:	e9 d8 03 00 00       	jmp    2d75 <ocall_ioctl_ReportChallenge+0x6c5>
    299d:	31 ff                	xor    edi,edi
    299f:	e8 fc 97 00 00       	call   c1a0 <_Z7tracebrPv>
    29a4:	48 8b 45 a8          	mov    rax,QWORD PTR [rbp-0x58]
    29a8:	48 89 45 b8          	mov    QWORD PTR [rbp-0x48],rax
    29ac:	48 8b 45 a8          	mov    rax,QWORD PTR [rbp-0x58]
    29b0:	48 05 18 00 00 00    	add    rax,0x18
    29b6:	48 89 45 a8          	mov    QWORD PTR [rbp-0x58],rax
    29ba:	48 8b 45 b0          	mov    rax,QWORD PTR [rbp-0x50]
    29be:	48 2d 18 00 00 00    	sub    rax,0x18
    29c4:	48 89 45 b0          	mov    QWORD PTR [rbp-0x50],rax
    29c8:	8b 4d ec             	mov    ecx,DWORD PTR [rbp-0x14]
    29cb:	48 8b 45 b8          	mov    rax,QWORD PTR [rbp-0x48]
    29cf:	89 48 04             	mov    DWORD PTR [rax+0x4],ecx
    29d2:	48 83 7d e0 00       	cmp    QWORD PTR [rbp-0x20],0x0
    29d7:	0f 84 11 01 00 00    	je     2aee <ocall_ioctl_ReportChallenge+0x43e>
    29dd:	bf 01 00 00 00       	mov    edi,0x1
    29e2:	e8 b9 97 00 00       	call   c1a0 <_Z7tracebrPv>
    29e7:	48 8b 45 a8          	mov    rax,QWORD PTR [rbp-0x58]
    29eb:	48 8b 4d b8          	mov    rcx,QWORD PTR [rbp-0x48]
    29ef:	48 89 41 08          	mov    QWORD PTR [rcx+0x8],rax
    29f3:	48 8b 45 c8          	mov    rax,QWORD PTR [rbp-0x38]
    29f7:	48 25 03 00 00 00    	and    rax,0x3
    29fd:	48 83 f8 00          	cmp    rax,0x0
    2a01:	0f 84 2a 00 00 00    	je     2a31 <ocall_ioctl_ReportChallenge+0x381>
    2a07:	bf 01 00 00 00       	mov    edi,0x1
    2a0c:	e8 8f 97 00 00       	call   c1a0 <_Z7tracebrPv>
    2a11:	48 8d 05 48 9b 00 00 	lea    rax,[rip+0x9b48]        # c560 <sgx_ocfree>
    2a18:	48 89 c7             	mov    rdi,rax
    2a1b:	e8 10 94 00 00       	call   be30 <_Z10traceedgecPv>
    2a20:	e8 3b 9b 00 00       	call   c560 <sgx_ocfree>
    2a25:	c7 45 fc 02 00 00 00 	mov    DWORD PTR [rbp-0x4],0x2
    2a2c:	e9 44 03 00 00       	jmp    2d75 <ocall_ioctl_ReportChallenge+0x6c5>
    2a31:	31 ff                	xor    edi,edi
    2a33:	e8 68 97 00 00       	call   c1a0 <_Z7tracebrPv>
    2a38:	48 8d 05 41 fc 00 00 	lea    rax,[rip+0xfc41]        # 12680 <memcpy_s>
    2a3f:	48 8b 7d a8          	mov    rdi,QWORD PTR [rbp-0x58]
    2a43:	48 8b 75 b0          	mov    rsi,QWORD PTR [rbp-0x50]
    2a47:	48 8b 4d e0          	mov    rcx,QWORD PTR [rbp-0x20]
    2a4b:	48 8b 55 c8          	mov    rdx,QWORD PTR [rbp-0x38]
    2a4f:	48 89 bd 40 ff ff ff 	mov    QWORD PTR [rbp-0xc0],rdi
    2a56:	48 89 c7             	mov    rdi,rax
    2a59:	48 89 b5 38 ff ff ff 	mov    QWORD PTR [rbp-0xc8],rsi
    2a60:	48 89 8d 30 ff ff ff 	mov    QWORD PTR [rbp-0xd0],rcx
    2a67:	48 89 95 28 ff ff ff 	mov    QWORD PTR [rbp-0xd8],rdx
    2a6e:	e8 bd 93 00 00       	call   be30 <_Z10traceedgecPv>
    2a73:	48 8b bd 40 ff ff ff 	mov    rdi,QWORD PTR [rbp-0xc0]
    2a7a:	48 8b b5 38 ff ff ff 	mov    rsi,QWORD PTR [rbp-0xc8]
    2a81:	48 8b 95 30 ff ff ff 	mov    rdx,QWORD PTR [rbp-0xd0]
    2a88:	48 8b 8d 28 ff ff ff 	mov    rcx,QWORD PTR [rbp-0xd8]
    2a8f:	e8 ec fb 00 00       	call   12680 <memcpy_s>
    2a94:	83 f8 00             	cmp    eax,0x0
    2a97:	0f 84 2a 00 00 00    	je     2ac7 <ocall_ioctl_ReportChallenge+0x417>
    2a9d:	bf 01 00 00 00       	mov    edi,0x1
    2aa2:	e8 f9 96 00 00       	call   c1a0 <_Z7tracebrPv>
    2aa7:	48 8d 05 b2 9a 00 00 	lea    rax,[rip+0x9ab2]        # c560 <sgx_ocfree>
    2aae:	48 89 c7             	mov    rdi,rax
    2ab1:	e8 7a 93 00 00       	call   be30 <_Z10traceedgecPv>
    2ab6:	e8 a5 9a 00 00       	call   c560 <sgx_ocfree>
    2abb:	c7 45 fc 01 00 00 00 	mov    DWORD PTR [rbp-0x4],0x1
    2ac2:	e9 ae 02 00 00       	jmp    2d75 <ocall_ioctl_ReportChallenge+0x6c5>
    2ac7:	31 ff                	xor    edi,edi
    2ac9:	e8 d2 96 00 00       	call   c1a0 <_Z7tracebrPv>
    2ace:	48 8b 45 a8          	mov    rax,QWORD PTR [rbp-0x58]
    2ad2:	48 03 45 c8          	add    rax,QWORD PTR [rbp-0x38]
    2ad6:	48 89 45 a8          	mov    QWORD PTR [rbp-0x58],rax
    2ada:	48 8b 45 c8          	mov    rax,QWORD PTR [rbp-0x38]
    2ade:	48 8b 4d b0          	mov    rcx,QWORD PTR [rbp-0x50]
    2ae2:	48 29 c1             	sub    rcx,rax
    2ae5:	48 89 4d b0          	mov    QWORD PTR [rbp-0x50],rcx
    2ae9:	e9 13 00 00 00       	jmp    2b01 <ocall_ioctl_ReportChallenge+0x451>
    2aee:	31 ff                	xor    edi,edi
    2af0:	e8 ab 96 00 00       	call   c1a0 <_Z7tracebrPv>
    2af5:	48 8b 45 b8          	mov    rax,QWORD PTR [rbp-0x48]
    2af9:	48 c7 40 08 00 00 00 	mov    QWORD PTR [rax+0x8],0x0
    2b00:	00 
    2b01:	48 83 7d d8 00       	cmp    QWORD PTR [rbp-0x28],0x0
    2b06:	0f 84 19 01 00 00    	je     2c25 <ocall_ioctl_ReportChallenge+0x575>
    2b0c:	bf 01 00 00 00       	mov    edi,0x1
    2b11:	e8 8a 96 00 00       	call   c1a0 <_Z7tracebrPv>
    2b16:	48 8b 45 a8          	mov    rax,QWORD PTR [rbp-0x58]
    2b1a:	48 8b 4d b8          	mov    rcx,QWORD PTR [rbp-0x48]
    2b1e:	48 89 41 10          	mov    QWORD PTR [rcx+0x10],rax
    2b22:	48 8b 45 a8          	mov    rax,QWORD PTR [rbp-0x58]
    2b26:	48 89 45 a0          	mov    QWORD PTR [rbp-0x60],rax
    2b2a:	48 8b 45 c0          	mov    rax,QWORD PTR [rbp-0x40]
    2b2e:	48 25 00 00 00 00    	and    rax,0x0
    2b34:	48 83 f8 00          	cmp    rax,0x0
    2b38:	0f 84 2a 00 00 00    	je     2b68 <ocall_ioctl_ReportChallenge+0x4b8>
    2b3e:	bf 01 00 00 00       	mov    edi,0x1
    2b43:	e8 58 96 00 00       	call   c1a0 <_Z7tracebrPv>
    2b48:	48 8d 05 11 9a 00 00 	lea    rax,[rip+0x9a11]        # c560 <sgx_ocfree>
    2b4f:	48 89 c7             	mov    rdi,rax
    2b52:	e8 d9 92 00 00       	call   be30 <_Z10traceedgecPv>
    2b57:	e8 04 9a 00 00       	call   c560 <sgx_ocfree>
    2b5c:	c7 45 fc 02 00 00 00 	mov    DWORD PTR [rbp-0x4],0x2
    2b63:	e9 0d 02 00 00       	jmp    2d75 <ocall_ioctl_ReportChallenge+0x6c5>
    2b68:	31 ff                	xor    edi,edi
    2b6a:	e8 31 96 00 00       	call   c1a0 <_Z7tracebrPv>
    2b6f:	48 8d 05 0a fb 00 00 	lea    rax,[rip+0xfb0a]        # 12680 <memcpy_s>
    2b76:	48 8b 7d a0          	mov    rdi,QWORD PTR [rbp-0x60]
    2b7a:	48 8b 75 b0          	mov    rsi,QWORD PTR [rbp-0x50]
    2b7e:	48 8b 55 d8          	mov    rdx,QWORD PTR [rbp-0x28]
    2b82:	48 8b 4d c0          	mov    rcx,QWORD PTR [rbp-0x40]
    2b86:	48 89 bd 20 ff ff ff 	mov    QWORD PTR [rbp-0xe0],rdi
    2b8d:	48 89 c7             	mov    rdi,rax
    2b90:	48 89 b5 18 ff ff ff 	mov    QWORD PTR [rbp-0xe8],rsi
    2b97:	48 89 95 10 ff ff ff 	mov    QWORD PTR [rbp-0xf0],rdx
    2b9e:	48 89 8d 08 ff ff ff 	mov    QWORD PTR [rbp-0xf8],rcx
    2ba5:	e8 86 92 00 00       	call   be30 <_Z10traceedgecPv>
    2baa:	48 8b bd 20 ff ff ff 	mov    rdi,QWORD PTR [rbp-0xe0]
    2bb1:	48 8b b5 18 ff ff ff 	mov    rsi,QWORD PTR [rbp-0xe8]
    2bb8:	48 8b 95 10 ff ff ff 	mov    rdx,QWORD PTR [rbp-0xf0]
    2bbf:	48 8b 8d 08 ff ff ff 	mov    rcx,QWORD PTR [rbp-0xf8]
    2bc6:	e8 b5 fa 00 00       	call   12680 <memcpy_s>
    2bcb:	83 f8 00             	cmp    eax,0x0
    2bce:	0f 84 2a 00 00 00    	je     2bfe <ocall_ioctl_ReportChallenge+0x54e>
    2bd4:	bf 01 00 00 00       	mov    edi,0x1
    2bd9:	e8 c2 95 00 00       	call   c1a0 <_Z7tracebrPv>
    2bde:	48 8d 05 7b 99 00 00 	lea    rax,[rip+0x997b]        # c560 <sgx_ocfree>
    2be5:	48 89 c7             	mov    rdi,rax
    2be8:	e8 43 92 00 00       	call   be30 <_Z10traceedgecPv>
    2bed:	e8 6e 99 00 00       	call   c560 <sgx_ocfree>
    2bf2:	c7 45 fc 01 00 00 00 	mov    DWORD PTR [rbp-0x4],0x1
    2bf9:	e9 77 01 00 00       	jmp    2d75 <ocall_ioctl_ReportChallenge+0x6c5>
    2bfe:	31 ff                	xor    edi,edi
    2c00:	e8 9b 95 00 00       	call   c1a0 <_Z7tracebrPv>
    2c05:	48 8b 45 a8          	mov    rax,QWORD PTR [rbp-0x58]
    2c09:	48 03 45 c0          	add    rax,QWORD PTR [rbp-0x40]
    2c0d:	48 89 45 a8          	mov    QWORD PTR [rbp-0x58],rax
    2c11:	48 8b 45 c0          	mov    rax,QWORD PTR [rbp-0x40]
    2c15:	48 8b 4d b0          	mov    rcx,QWORD PTR [rbp-0x50]
    2c19:	48 29 c1             	sub    rcx,rax
    2c1c:	48 89 4d b0          	mov    QWORD PTR [rbp-0x50],rcx
    2c20:	e9 13 00 00 00       	jmp    2c38 <ocall_ioctl_ReportChallenge+0x588>
    2c25:	31 ff                	xor    edi,edi
    2c27:	e8 74 95 00 00       	call   c1a0 <_Z7tracebrPv>
    2c2c:	48 8b 45 b8          	mov    rax,QWORD PTR [rbp-0x48]
    2c30:	48 c7 40 10 00 00 00 	mov    QWORD PTR [rax+0x10],0x0
    2c37:	00 
    2c38:	48 8d 05 71 ae 00 00 	lea    rax,[rip+0xae71]        # dab0 <sgx_ocall>
    2c3f:	48 8b 4d b8          	mov    rcx,QWORD PTR [rbp-0x48]
    2c43:	48 89 c7             	mov    rdi,rax
    2c46:	48 89 8d 00 ff ff ff 	mov    QWORD PTR [rbp-0x100],rcx
    2c4d:	e8 de 91 00 00       	call   be30 <_Z10traceedgecPv>
    2c52:	bf 04 00 00 00       	mov    edi,0x4
    2c57:	48 8b b5 00 ff ff ff 	mov    rsi,QWORD PTR [rbp-0x100]
    2c5e:	e8 4d ae 00 00       	call   dab0 <sgx_ocall>
    2c63:	89 45 d4             	mov    DWORD PTR [rbp-0x2c],eax
    2c66:	83 7d d4 00          	cmp    DWORD PTR [rbp-0x2c],0x0
    2c6a:	0f 85 e4 00 00 00    	jne    2d54 <ocall_ioctl_ReportChallenge+0x6a4>
    2c70:	bf 01 00 00 00       	mov    edi,0x1
    2c75:	e8 26 95 00 00       	call   c1a0 <_Z7tracebrPv>
    2c7a:	48 83 7d f0 00       	cmp    QWORD PTR [rbp-0x10],0x0
    2c7f:	0f 84 16 00 00 00    	je     2c9b <ocall_ioctl_ReportChallenge+0x5eb>
    2c85:	bf 01 00 00 00       	mov    edi,0x1
    2c8a:	e8 11 95 00 00       	call   c1a0 <_Z7tracebrPv>
    2c8f:	48 8b 45 b8          	mov    rax,QWORD PTR [rbp-0x48]
    2c93:	8b 08                	mov    ecx,DWORD PTR [rax]
    2c95:	48 8b 45 f0          	mov    rax,QWORD PTR [rbp-0x10]
    2c99:	89 08                	mov    DWORD PTR [rax],ecx
    2c9b:	31 ff                	xor    edi,edi
    2c9d:	e8 fe 94 00 00       	call   c1a0 <_Z7tracebrPv>
    2ca2:	48 83 7d d8 00       	cmp    QWORD PTR [rbp-0x28],0x0
    2ca7:	0f 84 a0 00 00 00    	je     2d4d <ocall_ioctl_ReportChallenge+0x69d>
    2cad:	bf 01 00 00 00       	mov    edi,0x1
    2cb2:	e8 e9 94 00 00       	call   c1a0 <_Z7tracebrPv>
    2cb7:	48 8d 05 c2 f9 00 00 	lea    rax,[rip+0xf9c2]        # 12680 <memcpy_s>
    2cbe:	48 8b 7d d8          	mov    rdi,QWORD PTR [rbp-0x28]
    2cc2:	48 8b 75 c0          	mov    rsi,QWORD PTR [rbp-0x40]
    2cc6:	48 8b 55 a0          	mov    rdx,QWORD PTR [rbp-0x60]
    2cca:	48 8b 4d c0          	mov    rcx,QWORD PTR [rbp-0x40]
    2cce:	48 89 bd f8 fe ff ff 	mov    QWORD PTR [rbp-0x108],rdi
    2cd5:	48 89 c7             	mov    rdi,rax
    2cd8:	48 89 b5 f0 fe ff ff 	mov    QWORD PTR [rbp-0x110],rsi
    2cdf:	48 89 95 e8 fe ff ff 	mov    QWORD PTR [rbp-0x118],rdx
    2ce6:	48 89 8d e0 fe ff ff 	mov    QWORD PTR [rbp-0x120],rcx
    2ced:	e8 3e 91 00 00       	call   be30 <_Z10traceedgecPv>
    2cf2:	48 8b bd f8 fe ff ff 	mov    rdi,QWORD PTR [rbp-0x108]
    2cf9:	48 8b b5 f0 fe ff ff 	mov    rsi,QWORD PTR [rbp-0x110]
    2d00:	48 8b 95 e8 fe ff ff 	mov    rdx,QWORD PTR [rbp-0x118]
    2d07:	48 8b 8d e0 fe ff ff 	mov    rcx,QWORD PTR [rbp-0x120]
    2d0e:	e8 6d f9 00 00       	call   12680 <memcpy_s>
    2d13:	83 f8 00             	cmp    eax,0x0
    2d16:	0f 84 2a 00 00 00    	je     2d46 <ocall_ioctl_ReportChallenge+0x696>
    2d1c:	bf 01 00 00 00       	mov    edi,0x1
    2d21:	e8 7a 94 00 00       	call   c1a0 <_Z7tracebrPv>
    2d26:	48 8d 05 33 98 00 00 	lea    rax,[rip+0x9833]        # c560 <sgx_ocfree>
    2d2d:	48 89 c7             	mov    rdi,rax
    2d30:	e8 fb 90 00 00       	call   be30 <_Z10traceedgecPv>
    2d35:	e8 26 98 00 00       	call   c560 <sgx_ocfree>
    2d3a:	c7 45 fc 01 00 00 00 	mov    DWORD PTR [rbp-0x4],0x1
    2d41:	e9 2f 00 00 00       	jmp    2d75 <ocall_ioctl_ReportChallenge+0x6c5>
    2d46:	31 ff                	xor    edi,edi
    2d48:	e8 53 94 00 00       	call   c1a0 <_Z7tracebrPv>
    2d4d:	31 ff                	xor    edi,edi
    2d4f:	e8 4c 94 00 00       	call   c1a0 <_Z7tracebrPv>
    2d54:	31 ff                	xor    edi,edi
    2d56:	e8 45 94 00 00       	call   c1a0 <_Z7tracebrPv>
    2d5b:	48 8d 05 fe 97 00 00 	lea    rax,[rip+0x97fe]        # c560 <sgx_ocfree>
    2d62:	48 89 c7             	mov    rdi,rax
    2d65:	e8 c6 90 00 00       	call   be30 <_Z10traceedgecPv>
    2d6a:	e8 f1 97 00 00       	call   c560 <sgx_ocfree>
    2d6f:	8b 4d d4             	mov    ecx,DWORD PTR [rbp-0x2c]
    2d72:	89 4d fc             	mov    DWORD PTR [rbp-0x4],ecx
    2d75:	8b 45 fc             	mov    eax,DWORD PTR [rbp-0x4]
    2d78:	48 8b 7d 08          	mov    rdi,QWORD PTR [rbp+0x8]
    2d7c:	89 85 dc fe ff ff    	mov    DWORD PTR [rbp-0x124],eax
    2d82:	e8 a9 90 00 00       	call   be30 <_Z10traceedgecPv>
    2d87:	8b 85 dc fe ff ff    	mov    eax,DWORD PTR [rbp-0x124]
    2d8d:	48 81 c4 30 01 00 00 	add    rsp,0x130
    2d94:	5d                   	pop    rbp
    2d95:	c3                   	ret    
    2d96:	66 2e 0f 1f 84 00 00 	nop    WORD PTR cs:[rax+rax*1+0x0]
    2d9d:	00 00 00 

0000000000002da0 <ocall_ioctl_ReportKey1>:
    2da0:	55                   	push   rbp
    2da1:	48 89 e5             	mov    rbp,rsp
    2da4:	48 81 ec 10 01 00 00 	sub    rsp,0x110
    2dab:	48 89 7d f0          	mov    QWORD PTR [rbp-0x10],rdi
    2daf:	89 75 ec             	mov    DWORD PTR [rbp-0x14],esi
    2db2:	48 89 55 e0          	mov    QWORD PTR [rbp-0x20],rdx
    2db6:	48 89 4d d8          	mov    QWORD PTR [rbp-0x28],rcx
    2dba:	c7 45 d4 00 00 00 00 	mov    DWORD PTR [rbp-0x2c],0x0
    2dc1:	48 c7 45 c8 04 00 00 	mov    QWORD PTR [rbp-0x38],0x4
    2dc8:	00 
    2dc9:	48 c7 45 c0 0a 00 00 	mov    QWORD PTR [rbp-0x40],0xa
    2dd0:	00 
    2dd1:	48 c7 45 b8 00 00 00 	mov    QWORD PTR [rbp-0x48],0x0
    2dd8:	00 
    2dd9:	48 c7 45 b0 18 00 00 	mov    QWORD PTR [rbp-0x50],0x18
    2de0:	00 
    2de1:	48 c7 45 a8 00 00 00 	mov    QWORD PTR [rbp-0x58],0x0
    2de8:	00 
    2de9:	48 c7 45 a0 00 00 00 	mov    QWORD PTR [rbp-0x60],0x0
    2df0:	00 
    2df1:	48 83 7d e0 00       	cmp    QWORD PTR [rbp-0x20],0x0
    2df6:	0f 84 52 00 00 00    	je     2e4e <ocall_ioctl_ReportKey1+0xae>
    2dfc:	bf 01 00 00 00       	mov    edi,0x1
    2e01:	e8 9a 93 00 00       	call   c1a0 <_Z7tracebrPv>
    2e06:	48 8d 05 c3 95 00 00 	lea    rax,[rip+0x95c3]        # c3d0 <sgx_is_within_enclave>
    2e0d:	48 8b 4d e0          	mov    rcx,QWORD PTR [rbp-0x20]
    2e11:	48 8b 75 c8          	mov    rsi,QWORD PTR [rbp-0x38]
    2e15:	48 89 c7             	mov    rdi,rax
    2e18:	48 89 4d 98          	mov    QWORD PTR [rbp-0x68],rcx
    2e1c:	48 89 75 90          	mov    QWORD PTR [rbp-0x70],rsi
    2e20:	e8 0b 90 00 00       	call   be30 <_Z10traceedgecPv>
    2e25:	48 8b 7d 98          	mov    rdi,QWORD PTR [rbp-0x68]
    2e29:	48 8b 75 90          	mov    rsi,QWORD PTR [rbp-0x70]
    2e2d:	e8 9e 95 00 00       	call   c3d0 <sgx_is_within_enclave>
    2e32:	83 f8 00             	cmp    eax,0x0
    2e35:	0f 85 13 00 00 00    	jne    2e4e <ocall_ioctl_ReportKey1+0xae>
    2e3b:	31 ff                	xor    edi,edi
    2e3d:	e8 5e 93 00 00       	call   c1a0 <_Z7tracebrPv>
    2e42:	c7 45 fc 02 00 00 00 	mov    DWORD PTR [rbp-0x4],0x2
    2e49:	e9 90 05 00 00       	jmp    33de <ocall_ioctl_ReportKey1+0x63e>
    2e4e:	31 ff                	xor    edi,edi
    2e50:	e8 4b 93 00 00       	call   c1a0 <_Z7tracebrPv>
    2e55:	e9 00 00 00 00       	jmp    2e5a <ocall_ioctl_ReportKey1+0xba>
    2e5a:	48 83 7d d8 00       	cmp    QWORD PTR [rbp-0x28],0x0
    2e5f:	0f 84 52 00 00 00    	je     2eb7 <ocall_ioctl_ReportKey1+0x117>
    2e65:	bf 01 00 00 00       	mov    edi,0x1
    2e6a:	e8 31 93 00 00       	call   c1a0 <_Z7tracebrPv>
    2e6f:	48 8d 05 5a 95 00 00 	lea    rax,[rip+0x955a]        # c3d0 <sgx_is_within_enclave>
    2e76:	48 8b 7d d8          	mov    rdi,QWORD PTR [rbp-0x28]
    2e7a:	48 8b 75 c0          	mov    rsi,QWORD PTR [rbp-0x40]
    2e7e:	48 89 7d 88          	mov    QWORD PTR [rbp-0x78],rdi
    2e82:	48 89 c7             	mov    rdi,rax
    2e85:	48 89 75 80          	mov    QWORD PTR [rbp-0x80],rsi
    2e89:	e8 a2 8f 00 00       	call   be30 <_Z10traceedgecPv>
    2e8e:	48 8b 7d 88          	mov    rdi,QWORD PTR [rbp-0x78]
    2e92:	48 8b 75 80          	mov    rsi,QWORD PTR [rbp-0x80]
    2e96:	e8 35 95 00 00       	call   c3d0 <sgx_is_within_enclave>
    2e9b:	83 f8 00             	cmp    eax,0x0
    2e9e:	0f 85 13 00 00 00    	jne    2eb7 <ocall_ioctl_ReportKey1+0x117>
    2ea4:	31 ff                	xor    edi,edi
    2ea6:	e8 f5 92 00 00       	call   c1a0 <_Z7tracebrPv>
    2eab:	c7 45 fc 02 00 00 00 	mov    DWORD PTR [rbp-0x4],0x2
    2eb2:	e9 27 05 00 00       	jmp    33de <ocall_ioctl_ReportKey1+0x63e>
    2eb7:	31 ff                	xor    edi,edi
    2eb9:	e8 e2 92 00 00       	call   c1a0 <_Z7tracebrPv>
    2ebe:	48 83 7d e0 00       	cmp    QWORD PTR [rbp-0x20],0x0
    2ec3:	0f 84 1a 00 00 00    	je     2ee3 <ocall_ioctl_ReportKey1+0x143>
    2ec9:	bf 01 00 00 00       	mov    edi,0x1
    2ece:	e8 cd 92 00 00       	call   c1a0 <_Z7tracebrPv>
    2ed3:	48 8b 45 c8          	mov    rax,QWORD PTR [rbp-0x38]
    2ed7:	48 89 85 78 ff ff ff 	mov    QWORD PTR [rbp-0x88],rax
    2ede:	e9 12 00 00 00       	jmp    2ef5 <ocall_ioctl_ReportKey1+0x155>
    2ee3:	31 ff                	xor    edi,edi
    2ee5:	e8 b6 92 00 00       	call   c1a0 <_Z7tracebrPv>
    2eea:	31 c0                	xor    eax,eax
    2eec:	89 c1                	mov    ecx,eax
    2eee:	48 89 8d 78 ff ff ff 	mov    QWORD PTR [rbp-0x88],rcx
    2ef5:	48 8b 85 78 ff ff ff 	mov    rax,QWORD PTR [rbp-0x88]
    2efc:	48 03 45 b0          	add    rax,QWORD PTR [rbp-0x50]
    2f00:	48 89 45 b0          	mov    QWORD PTR [rbp-0x50],rax
    2f04:	48 83 7d e0 00       	cmp    QWORD PTR [rbp-0x20],0x0
    2f09:	48 89 85 70 ff ff ff 	mov    QWORD PTR [rbp-0x90],rax
    2f10:	0f 84 1a 00 00 00    	je     2f30 <ocall_ioctl_ReportKey1+0x190>
    2f16:	bf 01 00 00 00       	mov    edi,0x1
    2f1b:	e8 80 92 00 00       	call   c1a0 <_Z7tracebrPv>
    2f20:	48 8b 45 c8          	mov    rax,QWORD PTR [rbp-0x38]
    2f24:	48 89 85 68 ff ff ff 	mov    QWORD PTR [rbp-0x98],rax
    2f2b:	e9 12 00 00 00       	jmp    2f42 <ocall_ioctl_ReportKey1+0x1a2>
    2f30:	31 ff                	xor    edi,edi
    2f32:	e8 69 92 00 00       	call   c1a0 <_Z7tracebrPv>
    2f37:	31 c0                	xor    eax,eax
    2f39:	89 c1                	mov    ecx,eax
    2f3b:	48 89 8d 68 ff ff ff 	mov    QWORD PTR [rbp-0x98],rcx
    2f42:	48 8b 85 68 ff ff ff 	mov    rax,QWORD PTR [rbp-0x98]
    2f49:	48 8b 8d 70 ff ff ff 	mov    rcx,QWORD PTR [rbp-0x90]
    2f50:	48 39 c1             	cmp    rcx,rax
    2f53:	0f 83 16 00 00 00    	jae    2f6f <ocall_ioctl_ReportKey1+0x1cf>
    2f59:	bf 01 00 00 00       	mov    edi,0x1
    2f5e:	e8 3d 92 00 00       	call   c1a0 <_Z7tracebrPv>
    2f63:	c7 45 fc 02 00 00 00 	mov    DWORD PTR [rbp-0x4],0x2
    2f6a:	e9 6f 04 00 00       	jmp    33de <ocall_ioctl_ReportKey1+0x63e>
    2f6f:	31 ff                	xor    edi,edi
    2f71:	e8 2a 92 00 00       	call   c1a0 <_Z7tracebrPv>
    2f76:	48 83 7d d8 00       	cmp    QWORD PTR [rbp-0x28],0x0
    2f7b:	0f 84 1a 00 00 00    	je     2f9b <ocall_ioctl_ReportKey1+0x1fb>
    2f81:	bf 01 00 00 00       	mov    edi,0x1
    2f86:	e8 15 92 00 00       	call   c1a0 <_Z7tracebrPv>
    2f8b:	48 8b 45 c0          	mov    rax,QWORD PTR [rbp-0x40]
    2f8f:	48 89 85 60 ff ff ff 	mov    QWORD PTR [rbp-0xa0],rax
    2f96:	e9 12 00 00 00       	jmp    2fad <ocall_ioctl_ReportKey1+0x20d>
    2f9b:	31 ff                	xor    edi,edi
    2f9d:	e8 fe 91 00 00       	call   c1a0 <_Z7tracebrPv>
    2fa2:	31 c0                	xor    eax,eax
    2fa4:	89 c1                	mov    ecx,eax
    2fa6:	48 89 8d 60 ff ff ff 	mov    QWORD PTR [rbp-0xa0],rcx
    2fad:	48 8b 85 60 ff ff ff 	mov    rax,QWORD PTR [rbp-0xa0]
    2fb4:	48 03 45 b0          	add    rax,QWORD PTR [rbp-0x50]
    2fb8:	48 89 45 b0          	mov    QWORD PTR [rbp-0x50],rax
    2fbc:	48 83 7d d8 00       	cmp    QWORD PTR [rbp-0x28],0x0
    2fc1:	48 89 85 58 ff ff ff 	mov    QWORD PTR [rbp-0xa8],rax
    2fc8:	0f 84 1a 00 00 00    	je     2fe8 <ocall_ioctl_ReportKey1+0x248>
    2fce:	bf 01 00 00 00       	mov    edi,0x1
    2fd3:	e8 c8 91 00 00       	call   c1a0 <_Z7tracebrPv>
    2fd8:	48 8b 45 c0          	mov    rax,QWORD PTR [rbp-0x40]
    2fdc:	48 89 85 50 ff ff ff 	mov    QWORD PTR [rbp-0xb0],rax
    2fe3:	e9 12 00 00 00       	jmp    2ffa <ocall_ioctl_ReportKey1+0x25a>
    2fe8:	31 ff                	xor    edi,edi
    2fea:	e8 b1 91 00 00       	call   c1a0 <_Z7tracebrPv>
    2fef:	31 c0                	xor    eax,eax
    2ff1:	89 c1                	mov    ecx,eax
    2ff3:	48 89 8d 50 ff ff ff 	mov    QWORD PTR [rbp-0xb0],rcx
    2ffa:	48 8b 85 50 ff ff ff 	mov    rax,QWORD PTR [rbp-0xb0]
    3001:	48 8b 8d 58 ff ff ff 	mov    rcx,QWORD PTR [rbp-0xa8]
    3008:	48 39 c1             	cmp    rcx,rax
    300b:	0f 83 16 00 00 00    	jae    3027 <ocall_ioctl_ReportKey1+0x287>
    3011:	bf 01 00 00 00       	mov    edi,0x1
    3016:	e8 85 91 00 00       	call   c1a0 <_Z7tracebrPv>
    301b:	c7 45 fc 02 00 00 00 	mov    DWORD PTR [rbp-0x4],0x2
    3022:	e9 b7 03 00 00       	jmp    33de <ocall_ioctl_ReportKey1+0x63e>
    3027:	31 ff                	xor    edi,edi
    3029:	e8 72 91 00 00       	call   c1a0 <_Z7tracebrPv>
    302e:	48 8d 05 3b 94 00 00 	lea    rax,[rip+0x943b]        # c470 <sgx_ocalloc>
    3035:	48 8b 7d b0          	mov    rdi,QWORD PTR [rbp-0x50]
    3039:	48 89 bd 48 ff ff ff 	mov    QWORD PTR [rbp-0xb8],rdi
    3040:	48 89 c7             	mov    rdi,rax
    3043:	e8 e8 8d 00 00       	call   be30 <_Z10traceedgecPv>
    3048:	48 8b bd 48 ff ff ff 	mov    rdi,QWORD PTR [rbp-0xb8]
    304f:	e8 1c 94 00 00       	call   c470 <sgx_ocalloc>
    3054:	48 89 45 a8          	mov    QWORD PTR [rbp-0x58],rax
    3058:	48 83 7d a8 00       	cmp    QWORD PTR [rbp-0x58],0x0
    305d:	0f 85 2a 00 00 00    	jne    308d <ocall_ioctl_ReportKey1+0x2ed>
    3063:	bf 01 00 00 00       	mov    edi,0x1
    3068:	e8 33 91 00 00       	call   c1a0 <_Z7tracebrPv>
    306d:	48 8d 05 ec 94 00 00 	lea    rax,[rip+0x94ec]        # c560 <sgx_ocfree>
    3074:	48 89 c7             	mov    rdi,rax
    3077:	e8 b4 8d 00 00       	call   be30 <_Z10traceedgecPv>
    307c:	e8 df 94 00 00       	call   c560 <sgx_ocfree>
    3081:	c7 45 fc 01 00 00 00 	mov    DWORD PTR [rbp-0x4],0x1
    3088:	e9 51 03 00 00       	jmp    33de <ocall_ioctl_ReportKey1+0x63e>
    308d:	31 ff                	xor    edi,edi
    308f:	e8 0c 91 00 00       	call   c1a0 <_Z7tracebrPv>
    3094:	48 8b 45 a8          	mov    rax,QWORD PTR [rbp-0x58]
    3098:	48 89 45 b8          	mov    QWORD PTR [rbp-0x48],rax
    309c:	48 8b 45 a8          	mov    rax,QWORD PTR [rbp-0x58]
    30a0:	48 05 18 00 00 00    	add    rax,0x18
    30a6:	48 89 45 a8          	mov    QWORD PTR [rbp-0x58],rax
    30aa:	48 8b 45 b0          	mov    rax,QWORD PTR [rbp-0x50]
    30ae:	48 2d 18 00 00 00    	sub    rax,0x18
    30b4:	48 89 45 b0          	mov    QWORD PTR [rbp-0x50],rax
    30b8:	8b 4d ec             	mov    ecx,DWORD PTR [rbp-0x14]
    30bb:	48 8b 45 b8          	mov    rax,QWORD PTR [rbp-0x48]
    30bf:	89 48 04             	mov    DWORD PTR [rax+0x4],ecx
    30c2:	48 83 7d e0 00       	cmp    QWORD PTR [rbp-0x20],0x0
    30c7:	0f 84 11 01 00 00    	je     31de <ocall_ioctl_ReportKey1+0x43e>
    30cd:	bf 01 00 00 00       	mov    edi,0x1
    30d2:	e8 c9 90 00 00       	call   c1a0 <_Z7tracebrPv>
    30d7:	48 8b 45 a8          	mov    rax,QWORD PTR [rbp-0x58]
    30db:	48 8b 4d b8          	mov    rcx,QWORD PTR [rbp-0x48]
    30df:	48 89 41 08          	mov    QWORD PTR [rcx+0x8],rax
    30e3:	48 8b 45 c8          	mov    rax,QWORD PTR [rbp-0x38]
    30e7:	48 25 03 00 00 00    	and    rax,0x3
    30ed:	48 83 f8 00          	cmp    rax,0x0
    30f1:	0f 84 2a 00 00 00    	je     3121 <ocall_ioctl_ReportKey1+0x381>
    30f7:	bf 01 00 00 00       	mov    edi,0x1
    30fc:	e8 9f 90 00 00       	call   c1a0 <_Z7tracebrPv>
    3101:	48 8d 05 58 94 00 00 	lea    rax,[rip+0x9458]        # c560 <sgx_ocfree>
    3108:	48 89 c7             	mov    rdi,rax
    310b:	e8 20 8d 00 00       	call   be30 <_Z10traceedgecPv>
    3110:	e8 4b 94 00 00       	call   c560 <sgx_ocfree>
    3115:	c7 45 fc 02 00 00 00 	mov    DWORD PTR [rbp-0x4],0x2
    311c:	e9 bd 02 00 00       	jmp    33de <ocall_ioctl_ReportKey1+0x63e>
    3121:	31 ff                	xor    edi,edi
    3123:	e8 78 90 00 00       	call   c1a0 <_Z7tracebrPv>
    3128:	48 8d 05 51 f5 00 00 	lea    rax,[rip+0xf551]        # 12680 <memcpy_s>
    312f:	48 8b 7d a8          	mov    rdi,QWORD PTR [rbp-0x58]
    3133:	48 8b 75 b0          	mov    rsi,QWORD PTR [rbp-0x50]
    3137:	48 8b 4d e0          	mov    rcx,QWORD PTR [rbp-0x20]
    313b:	48 8b 55 c8          	mov    rdx,QWORD PTR [rbp-0x38]
    313f:	48 89 bd 40 ff ff ff 	mov    QWORD PTR [rbp-0xc0],rdi
    3146:	48 89 c7             	mov    rdi,rax
    3149:	48 89 b5 38 ff ff ff 	mov    QWORD PTR [rbp-0xc8],rsi
    3150:	48 89 8d 30 ff ff ff 	mov    QWORD PTR [rbp-0xd0],rcx
    3157:	48 89 95 28 ff ff ff 	mov    QWORD PTR [rbp-0xd8],rdx
    315e:	e8 cd 8c 00 00       	call   be30 <_Z10traceedgecPv>
    3163:	48 8b bd 40 ff ff ff 	mov    rdi,QWORD PTR [rbp-0xc0]
    316a:	48 8b b5 38 ff ff ff 	mov    rsi,QWORD PTR [rbp-0xc8]
    3171:	48 8b 95 30 ff ff ff 	mov    rdx,QWORD PTR [rbp-0xd0]
    3178:	48 8b 8d 28 ff ff ff 	mov    rcx,QWORD PTR [rbp-0xd8]
    317f:	e8 fc f4 00 00       	call   12680 <memcpy_s>
    3184:	83 f8 00             	cmp    eax,0x0
    3187:	0f 84 2a 00 00 00    	je     31b7 <ocall_ioctl_ReportKey1+0x417>
    318d:	bf 01 00 00 00       	mov    edi,0x1
    3192:	e8 09 90 00 00       	call   c1a0 <_Z7tracebrPv>
    3197:	48 8d 05 c2 93 00 00 	lea    rax,[rip+0x93c2]        # c560 <sgx_ocfree>
    319e:	48 89 c7             	mov    rdi,rax
    31a1:	e8 8a 8c 00 00       	call   be30 <_Z10traceedgecPv>
    31a6:	e8 b5 93 00 00       	call   c560 <sgx_ocfree>
    31ab:	c7 45 fc 01 00 00 00 	mov    DWORD PTR [rbp-0x4],0x1
    31b2:	e9 27 02 00 00       	jmp    33de <ocall_ioctl_ReportKey1+0x63e>
    31b7:	31 ff                	xor    edi,edi
    31b9:	e8 e2 8f 00 00       	call   c1a0 <_Z7tracebrPv>
    31be:	48 8b 45 a8          	mov    rax,QWORD PTR [rbp-0x58]
    31c2:	48 03 45 c8          	add    rax,QWORD PTR [rbp-0x38]
    31c6:	48 89 45 a8          	mov    QWORD PTR [rbp-0x58],rax
    31ca:	48 8b 45 c8          	mov    rax,QWORD PTR [rbp-0x38]
    31ce:	48 8b 4d b0          	mov    rcx,QWORD PTR [rbp-0x50]
    31d2:	48 29 c1             	sub    rcx,rax
    31d5:	48 89 4d b0          	mov    QWORD PTR [rbp-0x50],rcx
    31d9:	e9 13 00 00 00       	jmp    31f1 <ocall_ioctl_ReportKey1+0x451>
    31de:	31 ff                	xor    edi,edi
    31e0:	e8 bb 8f 00 00       	call   c1a0 <_Z7tracebrPv>
    31e5:	48 8b 45 b8          	mov    rax,QWORD PTR [rbp-0x48]
    31e9:	48 c7 40 08 00 00 00 	mov    QWORD PTR [rax+0x8],0x0
    31f0:	00 
    31f1:	48 83 7d d8 00       	cmp    QWORD PTR [rbp-0x28],0x0
    31f6:	0f 84 92 00 00 00    	je     328e <ocall_ioctl_ReportKey1+0x4ee>
    31fc:	bf 01 00 00 00       	mov    edi,0x1
    3201:	e8 9a 8f 00 00       	call   c1a0 <_Z7tracebrPv>
    3206:	48 8b 45 a8          	mov    rax,QWORD PTR [rbp-0x58]
    320a:	48 8b 4d b8          	mov    rcx,QWORD PTR [rbp-0x48]
    320e:	48 89 41 10          	mov    QWORD PTR [rcx+0x10],rax
    3212:	48 8b 45 a8          	mov    rax,QWORD PTR [rbp-0x58]
    3216:	48 89 45 a0          	mov    QWORD PTR [rbp-0x60],rax
    321a:	48 8b 45 c0          	mov    rax,QWORD PTR [rbp-0x40]
    321e:	48 25 00 00 00 00    	and    rax,0x0
    3224:	48 83 f8 00          	cmp    rax,0x0
    3228:	0f 84 2a 00 00 00    	je     3258 <ocall_ioctl_ReportKey1+0x4b8>
    322e:	bf 01 00 00 00       	mov    edi,0x1
    3233:	e8 68 8f 00 00       	call   c1a0 <_Z7tracebrPv>
    3238:	48 8d 05 21 93 00 00 	lea    rax,[rip+0x9321]        # c560 <sgx_ocfree>
    323f:	48 89 c7             	mov    rdi,rax
    3242:	e8 e9 8b 00 00       	call   be30 <_Z10traceedgecPv>
    3247:	e8 14 93 00 00       	call   c560 <sgx_ocfree>
    324c:	c7 45 fc 02 00 00 00 	mov    DWORD PTR [rbp-0x4],0x2
    3253:	e9 86 01 00 00       	jmp    33de <ocall_ioctl_ReportKey1+0x63e>
    3258:	31 ff                	xor    edi,edi
    325a:	e8 41 8f 00 00       	call   c1a0 <_Z7tracebrPv>
    325f:	31 f6                	xor    esi,esi
    3261:	48 8b 7d a0          	mov    rdi,QWORD PTR [rbp-0x60]
    3265:	48 8b 55 c0          	mov    rdx,QWORD PTR [rbp-0x40]
    3269:	e8 52 ef 00 00       	call   121c0 <memset>
    326e:	48 8b 45 a8          	mov    rax,QWORD PTR [rbp-0x58]
    3272:	48 03 45 c0          	add    rax,QWORD PTR [rbp-0x40]
    3276:	48 89 45 a8          	mov    QWORD PTR [rbp-0x58],rax
    327a:	48 8b 45 c0          	mov    rax,QWORD PTR [rbp-0x40]
    327e:	48 8b 4d b0          	mov    rcx,QWORD PTR [rbp-0x50]
    3282:	48 29 c1             	sub    rcx,rax
    3285:	48 89 4d b0          	mov    QWORD PTR [rbp-0x50],rcx
    3289:	e9 13 00 00 00       	jmp    32a1 <ocall_ioctl_ReportKey1+0x501>
    328e:	31 ff                	xor    edi,edi
    3290:	e8 0b 8f 00 00       	call   c1a0 <_Z7tracebrPv>
    3295:	48 8b 45 b8          	mov    rax,QWORD PTR [rbp-0x48]
    3299:	48 c7 40 10 00 00 00 	mov    QWORD PTR [rax+0x10],0x0
    32a0:	00 
    32a1:	48 8d 05 08 a8 00 00 	lea    rax,[rip+0xa808]        # dab0 <sgx_ocall>
    32a8:	48 8b 4d b8          	mov    rcx,QWORD PTR [rbp-0x48]
    32ac:	48 89 c7             	mov    rdi,rax
    32af:	48 89 8d 20 ff ff ff 	mov    QWORD PTR [rbp-0xe0],rcx
    32b6:	e8 75 8b 00 00       	call   be30 <_Z10traceedgecPv>
    32bb:	bf 05 00 00 00       	mov    edi,0x5
    32c0:	48 8b b5 20 ff ff ff 	mov    rsi,QWORD PTR [rbp-0xe0]
    32c7:	e8 e4 a7 00 00       	call   dab0 <sgx_ocall>
    32cc:	89 45 d4             	mov    DWORD PTR [rbp-0x2c],eax
    32cf:	83 7d d4 00          	cmp    DWORD PTR [rbp-0x2c],0x0
    32d3:	0f 85 e4 00 00 00    	jne    33bd <ocall_ioctl_ReportKey1+0x61d>
    32d9:	bf 01 00 00 00       	mov    edi,0x1
    32de:	e8 bd 8e 00 00       	call   c1a0 <_Z7tracebrPv>
    32e3:	48 83 7d f0 00       	cmp    QWORD PTR [rbp-0x10],0x0
    32e8:	0f 84 16 00 00 00    	je     3304 <ocall_ioctl_ReportKey1+0x564>
    32ee:	bf 01 00 00 00       	mov    edi,0x1
    32f3:	e8 a8 8e 00 00       	call   c1a0 <_Z7tracebrPv>
    32f8:	48 8b 45 b8          	mov    rax,QWORD PTR [rbp-0x48]
    32fc:	8b 08                	mov    ecx,DWORD PTR [rax]
    32fe:	48 8b 45 f0          	mov    rax,QWORD PTR [rbp-0x10]
    3302:	89 08                	mov    DWORD PTR [rax],ecx
    3304:	31 ff                	xor    edi,edi
    3306:	e8 95 8e 00 00       	call   c1a0 <_Z7tracebrPv>
    330b:	48 83 7d d8 00       	cmp    QWORD PTR [rbp-0x28],0x0
    3310:	0f 84 a0 00 00 00    	je     33b6 <ocall_ioctl_ReportKey1+0x616>
    3316:	bf 01 00 00 00       	mov    edi,0x1
    331b:	e8 80 8e 00 00       	call   c1a0 <_Z7tracebrPv>
    3320:	48 8d 05 59 f3 00 00 	lea    rax,[rip+0xf359]        # 12680 <memcpy_s>
    3327:	48 8b 7d d8          	mov    rdi,QWORD PTR [rbp-0x28]
    332b:	48 8b 75 c0          	mov    rsi,QWORD PTR [rbp-0x40]
    332f:	48 8b 55 a0          	mov    rdx,QWORD PTR [rbp-0x60]
    3333:	48 8b 4d c0          	mov    rcx,QWORD PTR [rbp-0x40]
    3337:	48 89 bd 18 ff ff ff 	mov    QWORD PTR [rbp-0xe8],rdi
    333e:	48 89 c7             	mov    rdi,rax
    3341:	48 89 b5 10 ff ff ff 	mov    QWORD PTR [rbp-0xf0],rsi
    3348:	48 89 95 08 ff ff ff 	mov    QWORD PTR [rbp-0xf8],rdx
    334f:	48 89 8d 00 ff ff ff 	mov    QWORD PTR [rbp-0x100],rcx
    3356:	e8 d5 8a 00 00       	call   be30 <_Z10traceedgecPv>
    335b:	48 8b bd 18 ff ff ff 	mov    rdi,QWORD PTR [rbp-0xe8]
    3362:	48 8b b5 10 ff ff ff 	mov    rsi,QWORD PTR [rbp-0xf0]
    3369:	48 8b 95 08 ff ff ff 	mov    rdx,QWORD PTR [rbp-0xf8]
    3370:	48 8b 8d 00 ff ff ff 	mov    rcx,QWORD PTR [rbp-0x100]
    3377:	e8 04 f3 00 00       	call   12680 <memcpy_s>
    337c:	83 f8 00             	cmp    eax,0x0
    337f:	0f 84 2a 00 00 00    	je     33af <ocall_ioctl_ReportKey1+0x60f>
    3385:	bf 01 00 00 00       	mov    edi,0x1
    338a:	e8 11 8e 00 00       	call   c1a0 <_Z7tracebrPv>
    338f:	48 8d 05 ca 91 00 00 	lea    rax,[rip+0x91ca]        # c560 <sgx_ocfree>
    3396:	48 89 c7             	mov    rdi,rax
    3399:	e8 92 8a 00 00       	call   be30 <_Z10traceedgecPv>
    339e:	e8 bd 91 00 00       	call   c560 <sgx_ocfree>
    33a3:	c7 45 fc 01 00 00 00 	mov    DWORD PTR [rbp-0x4],0x1
    33aa:	e9 2f 00 00 00       	jmp    33de <ocall_ioctl_ReportKey1+0x63e>
    33af:	31 ff                	xor    edi,edi
    33b1:	e8 ea 8d 00 00       	call   c1a0 <_Z7tracebrPv>
    33b6:	31 ff                	xor    edi,edi
    33b8:	e8 e3 8d 00 00       	call   c1a0 <_Z7tracebrPv>
    33bd:	31 ff                	xor    edi,edi
    33bf:	e8 dc 8d 00 00       	call   c1a0 <_Z7tracebrPv>
    33c4:	48 8d 05 95 91 00 00 	lea    rax,[rip+0x9195]        # c560 <sgx_ocfree>
    33cb:	48 89 c7             	mov    rdi,rax
    33ce:	e8 5d 8a 00 00       	call   be30 <_Z10traceedgecPv>
    33d3:	e8 88 91 00 00       	call   c560 <sgx_ocfree>
    33d8:	8b 4d d4             	mov    ecx,DWORD PTR [rbp-0x2c]
    33db:	89 4d fc             	mov    DWORD PTR [rbp-0x4],ecx
    33de:	8b 45 fc             	mov    eax,DWORD PTR [rbp-0x4]
    33e1:	48 8b 7d 08          	mov    rdi,QWORD PTR [rbp+0x8]
    33e5:	89 85 fc fe ff ff    	mov    DWORD PTR [rbp-0x104],eax
    33eb:	e8 40 8a 00 00       	call   be30 <_Z10traceedgecPv>
    33f0:	8b 85 fc fe ff ff    	mov    eax,DWORD PTR [rbp-0x104]
    33f6:	48 81 c4 10 01 00 00 	add    rsp,0x110
    33fd:	5d                   	pop    rbp
    33fe:	c3                   	ret    
    33ff:	90                   	nop

0000000000003400 <ocall_ioctl_SendChallenge>:
    3400:	55                   	push   rbp
    3401:	48 89 e5             	mov    rbp,rsp
    3404:	48 81 ec 00 01 00 00 	sub    rsp,0x100
    340b:	48 89 7d f0          	mov    QWORD PTR [rbp-0x10],rdi
    340f:	89 75 ec             	mov    DWORD PTR [rbp-0x14],esi
    3412:	48 89 55 e0          	mov    QWORD PTR [rbp-0x20],rdx
    3416:	48 89 4d d8          	mov    QWORD PTR [rbp-0x28],rcx
    341a:	c7 45 d4 00 00 00 00 	mov    DWORD PTR [rbp-0x2c],0x0
    3421:	48 c7 45 c8 04 00 00 	mov    QWORD PTR [rbp-0x38],0x4
    3428:	00 
    3429:	48 c7 45 c0 01 00 00 	mov    QWORD PTR [rbp-0x40],0x1
    3430:	00 
    3431:	48 c7 45 b8 00 00 00 	mov    QWORD PTR [rbp-0x48],0x0
    3438:	00 
    3439:	48 c7 45 b0 18 00 00 	mov    QWORD PTR [rbp-0x50],0x18
    3440:	00 
    3441:	48 c7 45 a8 00 00 00 	mov    QWORD PTR [rbp-0x58],0x0
    3448:	00 
    3449:	48 83 7d e0 00       	cmp    QWORD PTR [rbp-0x20],0x0
    344e:	0f 84 52 00 00 00    	je     34a6 <ocall_ioctl_SendChallenge+0xa6>
    3454:	bf 01 00 00 00       	mov    edi,0x1
    3459:	e8 42 8d 00 00       	call   c1a0 <_Z7tracebrPv>
    345e:	48 8d 05 6b 8f 00 00 	lea    rax,[rip+0x8f6b]        # c3d0 <sgx_is_within_enclave>
    3465:	48 8b 4d e0          	mov    rcx,QWORD PTR [rbp-0x20]
    3469:	48 8b 75 c8          	mov    rsi,QWORD PTR [rbp-0x38]
    346d:	48 89 c7             	mov    rdi,rax
    3470:	48 89 4d a0          	mov    QWORD PTR [rbp-0x60],rcx
    3474:	48 89 75 98          	mov    QWORD PTR [rbp-0x68],rsi
    3478:	e8 b3 89 00 00       	call   be30 <_Z10traceedgecPv>
    347d:	48 8b 7d a0          	mov    rdi,QWORD PTR [rbp-0x60]
    3481:	48 8b 75 98          	mov    rsi,QWORD PTR [rbp-0x68]
    3485:	e8 46 8f 00 00       	call   c3d0 <sgx_is_within_enclave>
    348a:	83 f8 00             	cmp    eax,0x0
    348d:	0f 85 13 00 00 00    	jne    34a6 <ocall_ioctl_SendChallenge+0xa6>
    3493:	31 ff                	xor    edi,edi
    3495:	e8 06 8d 00 00       	call   c1a0 <_Z7tracebrPv>
    349a:	c7 45 fc 02 00 00 00 	mov    DWORD PTR [rbp-0x4],0x2
    34a1:	e9 54 05 00 00       	jmp    39fa <ocall_ioctl_SendChallenge+0x5fa>
    34a6:	31 ff                	xor    edi,edi
    34a8:	e8 f3 8c 00 00       	call   c1a0 <_Z7tracebrPv>
    34ad:	e9 00 00 00 00       	jmp    34b2 <ocall_ioctl_SendChallenge+0xb2>
    34b2:	48 83 7d d8 00       	cmp    QWORD PTR [rbp-0x28],0x0
    34b7:	0f 84 52 00 00 00    	je     350f <ocall_ioctl_SendChallenge+0x10f>
    34bd:	bf 01 00 00 00       	mov    edi,0x1
    34c2:	e8 d9 8c 00 00       	call   c1a0 <_Z7tracebrPv>
    34c7:	48 8d 05 02 8f 00 00 	lea    rax,[rip+0x8f02]        # c3d0 <sgx_is_within_enclave>
    34ce:	48 8b 7d d8          	mov    rdi,QWORD PTR [rbp-0x28]
    34d2:	48 8b 75 c0          	mov    rsi,QWORD PTR [rbp-0x40]
    34d6:	48 89 7d 90          	mov    QWORD PTR [rbp-0x70],rdi
    34da:	48 89 c7             	mov    rdi,rax
    34dd:	48 89 75 88          	mov    QWORD PTR [rbp-0x78],rsi
    34e1:	e8 4a 89 00 00       	call   be30 <_Z10traceedgecPv>
    34e6:	48 8b 7d 90          	mov    rdi,QWORD PTR [rbp-0x70]
    34ea:	48 8b 75 88          	mov    rsi,QWORD PTR [rbp-0x78]
    34ee:	e8 dd 8e 00 00       	call   c3d0 <sgx_is_within_enclave>
    34f3:	83 f8 00             	cmp    eax,0x0
    34f6:	0f 85 13 00 00 00    	jne    350f <ocall_ioctl_SendChallenge+0x10f>
    34fc:	31 ff                	xor    edi,edi
    34fe:	e8 9d 8c 00 00       	call   c1a0 <_Z7tracebrPv>
    3503:	c7 45 fc 02 00 00 00 	mov    DWORD PTR [rbp-0x4],0x2
    350a:	e9 eb 04 00 00       	jmp    39fa <ocall_ioctl_SendChallenge+0x5fa>
    350f:	31 ff                	xor    edi,edi
    3511:	e8 8a 8c 00 00       	call   c1a0 <_Z7tracebrPv>
    3516:	48 83 7d e0 00       	cmp    QWORD PTR [rbp-0x20],0x0
    351b:	0f 84 17 00 00 00    	je     3538 <ocall_ioctl_SendChallenge+0x138>
    3521:	bf 01 00 00 00       	mov    edi,0x1
    3526:	e8 75 8c 00 00       	call   c1a0 <_Z7tracebrPv>
    352b:	48 8b 45 c8          	mov    rax,QWORD PTR [rbp-0x38]
    352f:	48 89 45 80          	mov    QWORD PTR [rbp-0x80],rax
    3533:	e9 0f 00 00 00       	jmp    3547 <ocall_ioctl_SendChallenge+0x147>
    3538:	31 ff                	xor    edi,edi
    353a:	e8 61 8c 00 00       	call   c1a0 <_Z7tracebrPv>
    353f:	31 c0                	xor    eax,eax
    3541:	89 c1                	mov    ecx,eax
    3543:	48 89 4d 80          	mov    QWORD PTR [rbp-0x80],rcx
    3547:	48 8b 45 80          	mov    rax,QWORD PTR [rbp-0x80]
    354b:	48 03 45 b0          	add    rax,QWORD PTR [rbp-0x50]
    354f:	48 89 45 b0          	mov    QWORD PTR [rbp-0x50],rax
    3553:	48 83 7d e0 00       	cmp    QWORD PTR [rbp-0x20],0x0
    3558:	48 89 85 78 ff ff ff 	mov    QWORD PTR [rbp-0x88],rax
    355f:	0f 84 1a 00 00 00    	je     357f <ocall_ioctl_SendChallenge+0x17f>
    3565:	bf 01 00 00 00       	mov    edi,0x1
    356a:	e8 31 8c 00 00       	call   c1a0 <_Z7tracebrPv>
    356f:	48 8b 45 c8          	mov    rax,QWORD PTR [rbp-0x38]
    3573:	48 89 85 70 ff ff ff 	mov    QWORD PTR [rbp-0x90],rax
    357a:	e9 12 00 00 00       	jmp    3591 <ocall_ioctl_SendChallenge+0x191>
    357f:	31 ff                	xor    edi,edi
    3581:	e8 1a 8c 00 00       	call   c1a0 <_Z7tracebrPv>
    3586:	31 c0                	xor    eax,eax
    3588:	89 c1                	mov    ecx,eax
    358a:	48 89 8d 70 ff ff ff 	mov    QWORD PTR [rbp-0x90],rcx
    3591:	48 8b 85 70 ff ff ff 	mov    rax,QWORD PTR [rbp-0x90]
    3598:	48 8b 8d 78 ff ff ff 	mov    rcx,QWORD PTR [rbp-0x88]
    359f:	48 39 c1             	cmp    rcx,rax
    35a2:	0f 83 16 00 00 00    	jae    35be <ocall_ioctl_SendChallenge+0x1be>
    35a8:	bf 01 00 00 00       	mov    edi,0x1
    35ad:	e8 ee 8b 00 00       	call   c1a0 <_Z7tracebrPv>
    35b2:	c7 45 fc 02 00 00 00 	mov    DWORD PTR [rbp-0x4],0x2
    35b9:	e9 3c 04 00 00       	jmp    39fa <ocall_ioctl_SendChallenge+0x5fa>
    35be:	31 ff                	xor    edi,edi
    35c0:	e8 db 8b 00 00       	call   c1a0 <_Z7tracebrPv>
    35c5:	48 83 7d d8 00       	cmp    QWORD PTR [rbp-0x28],0x0
    35ca:	0f 84 1a 00 00 00    	je     35ea <ocall_ioctl_SendChallenge+0x1ea>
    35d0:	bf 01 00 00 00       	mov    edi,0x1
    35d5:	e8 c6 8b 00 00       	call   c1a0 <_Z7tracebrPv>
    35da:	48 8b 45 c0          	mov    rax,QWORD PTR [rbp-0x40]
    35de:	48 89 85 68 ff ff ff 	mov    QWORD PTR [rbp-0x98],rax
    35e5:	e9 12 00 00 00       	jmp    35fc <ocall_ioctl_SendChallenge+0x1fc>
    35ea:	31 ff                	xor    edi,edi
    35ec:	e8 af 8b 00 00       	call   c1a0 <_Z7tracebrPv>
    35f1:	31 c0                	xor    eax,eax
    35f3:	89 c1                	mov    ecx,eax
    35f5:	48 89 8d 68 ff ff ff 	mov    QWORD PTR [rbp-0x98],rcx
    35fc:	48 8b 85 68 ff ff ff 	mov    rax,QWORD PTR [rbp-0x98]
    3603:	48 03 45 b0          	add    rax,QWORD PTR [rbp-0x50]
    3607:	48 89 45 b0          	mov    QWORD PTR [rbp-0x50],rax
    360b:	48 83 7d d8 00       	cmp    QWORD PTR [rbp-0x28],0x0
    3610:	48 89 85 60 ff ff ff 	mov    QWORD PTR [rbp-0xa0],rax
    3617:	0f 84 1a 00 00 00    	je     3637 <ocall_ioctl_SendChallenge+0x237>
    361d:	bf 01 00 00 00       	mov    edi,0x1
    3622:	e8 79 8b 00 00       	call   c1a0 <_Z7tracebrPv>
    3627:	48 8b 45 c0          	mov    rax,QWORD PTR [rbp-0x40]
    362b:	48 89 85 58 ff ff ff 	mov    QWORD PTR [rbp-0xa8],rax
    3632:	e9 12 00 00 00       	jmp    3649 <ocall_ioctl_SendChallenge+0x249>
    3637:	31 ff                	xor    edi,edi
    3639:	e8 62 8b 00 00       	call   c1a0 <_Z7tracebrPv>
    363e:	31 c0                	xor    eax,eax
    3640:	89 c1                	mov    ecx,eax
    3642:	48 89 8d 58 ff ff ff 	mov    QWORD PTR [rbp-0xa8],rcx
    3649:	48 8b 85 58 ff ff ff 	mov    rax,QWORD PTR [rbp-0xa8]
    3650:	48 8b 8d 60 ff ff ff 	mov    rcx,QWORD PTR [rbp-0xa0]
    3657:	48 39 c1             	cmp    rcx,rax
    365a:	0f 83 16 00 00 00    	jae    3676 <ocall_ioctl_SendChallenge+0x276>
    3660:	bf 01 00 00 00       	mov    edi,0x1
    3665:	e8 36 8b 00 00       	call   c1a0 <_Z7tracebrPv>
    366a:	c7 45 fc 02 00 00 00 	mov    DWORD PTR [rbp-0x4],0x2
    3671:	e9 84 03 00 00       	jmp    39fa <ocall_ioctl_SendChallenge+0x5fa>
    3676:	31 ff                	xor    edi,edi
    3678:	e8 23 8b 00 00       	call   c1a0 <_Z7tracebrPv>
    367d:	48 8d 05 ec 8d 00 00 	lea    rax,[rip+0x8dec]        # c470 <sgx_ocalloc>
    3684:	48 8b 7d b0          	mov    rdi,QWORD PTR [rbp-0x50]
    3688:	48 89 bd 50 ff ff ff 	mov    QWORD PTR [rbp-0xb0],rdi
    368f:	48 89 c7             	mov    rdi,rax
    3692:	e8 99 87 00 00       	call   be30 <_Z10traceedgecPv>
    3697:	48 8b bd 50 ff ff ff 	mov    rdi,QWORD PTR [rbp-0xb0]
    369e:	e8 cd 8d 00 00       	call   c470 <sgx_ocalloc>
    36a3:	48 89 45 a8          	mov    QWORD PTR [rbp-0x58],rax
    36a7:	48 83 7d a8 00       	cmp    QWORD PTR [rbp-0x58],0x0
    36ac:	0f 85 2a 00 00 00    	jne    36dc <ocall_ioctl_SendChallenge+0x2dc>
    36b2:	bf 01 00 00 00       	mov    edi,0x1
    36b7:	e8 e4 8a 00 00       	call   c1a0 <_Z7tracebrPv>
    36bc:	48 8d 05 9d 8e 00 00 	lea    rax,[rip+0x8e9d]        # c560 <sgx_ocfree>
    36c3:	48 89 c7             	mov    rdi,rax
    36c6:	e8 65 87 00 00       	call   be30 <_Z10traceedgecPv>
    36cb:	e8 90 8e 00 00       	call   c560 <sgx_ocfree>
    36d0:	c7 45 fc 01 00 00 00 	mov    DWORD PTR [rbp-0x4],0x1
    36d7:	e9 1e 03 00 00       	jmp    39fa <ocall_ioctl_SendChallenge+0x5fa>
    36dc:	31 ff                	xor    edi,edi
    36de:	e8 bd 8a 00 00       	call   c1a0 <_Z7tracebrPv>
    36e3:	48 8b 45 a8          	mov    rax,QWORD PTR [rbp-0x58]
    36e7:	48 89 45 b8          	mov    QWORD PTR [rbp-0x48],rax
    36eb:	48 8b 45 a8          	mov    rax,QWORD PTR [rbp-0x58]
    36ef:	48 05 18 00 00 00    	add    rax,0x18
    36f5:	48 89 45 a8          	mov    QWORD PTR [rbp-0x58],rax
    36f9:	48 8b 45 b0          	mov    rax,QWORD PTR [rbp-0x50]
    36fd:	48 2d 18 00 00 00    	sub    rax,0x18
    3703:	48 89 45 b0          	mov    QWORD PTR [rbp-0x50],rax
    3707:	8b 4d ec             	mov    ecx,DWORD PTR [rbp-0x14]
    370a:	48 8b 45 b8          	mov    rax,QWORD PTR [rbp-0x48]
    370e:	89 48 04             	mov    DWORD PTR [rax+0x4],ecx
    3711:	48 83 7d e0 00       	cmp    QWORD PTR [rbp-0x20],0x0
    3716:	0f 84 11 01 00 00    	je     382d <ocall_ioctl_SendChallenge+0x42d>
    371c:	bf 01 00 00 00       	mov    edi,0x1
    3721:	e8 7a 8a 00 00       	call   c1a0 <_Z7tracebrPv>
    3726:	48 8b 45 a8          	mov    rax,QWORD PTR [rbp-0x58]
    372a:	48 8b 4d b8          	mov    rcx,QWORD PTR [rbp-0x48]
    372e:	48 89 41 08          	mov    QWORD PTR [rcx+0x8],rax
    3732:	48 8b 45 c8          	mov    rax,QWORD PTR [rbp-0x38]
    3736:	48 25 03 00 00 00    	and    rax,0x3
    373c:	48 83 f8 00          	cmp    rax,0x0
    3740:	0f 84 2a 00 00 00    	je     3770 <ocall_ioctl_SendChallenge+0x370>
    3746:	bf 01 00 00 00       	mov    edi,0x1
    374b:	e8 50 8a 00 00       	call   c1a0 <_Z7tracebrPv>
    3750:	48 8d 05 09 8e 00 00 	lea    rax,[rip+0x8e09]        # c560 <sgx_ocfree>
    3757:	48 89 c7             	mov    rdi,rax
    375a:	e8 d1 86 00 00       	call   be30 <_Z10traceedgecPv>
    375f:	e8 fc 8d 00 00       	call   c560 <sgx_ocfree>
    3764:	c7 45 fc 02 00 00 00 	mov    DWORD PTR [rbp-0x4],0x2
    376b:	e9 8a 02 00 00       	jmp    39fa <ocall_ioctl_SendChallenge+0x5fa>
    3770:	31 ff                	xor    edi,edi
    3772:	e8 29 8a 00 00       	call   c1a0 <_Z7tracebrPv>
    3777:	48 8d 05 02 ef 00 00 	lea    rax,[rip+0xef02]        # 12680 <memcpy_s>
    377e:	48 8b 7d a8          	mov    rdi,QWORD PTR [rbp-0x58]
    3782:	48 8b 75 b0          	mov    rsi,QWORD PTR [rbp-0x50]
    3786:	48 8b 4d e0          	mov    rcx,QWORD PTR [rbp-0x20]
    378a:	48 8b 55 c8          	mov    rdx,QWORD PTR [rbp-0x38]
    378e:	48 89 bd 48 ff ff ff 	mov    QWORD PTR [rbp-0xb8],rdi
    3795:	48 89 c7             	mov    rdi,rax
    3798:	48 89 b5 40 ff ff ff 	mov    QWORD PTR [rbp-0xc0],rsi
    379f:	48 89 8d 38 ff ff ff 	mov    QWORD PTR [rbp-0xc8],rcx
    37a6:	48 89 95 30 ff ff ff 	mov    QWORD PTR [rbp-0xd0],rdx
    37ad:	e8 7e 86 00 00       	call   be30 <_Z10traceedgecPv>
    37b2:	48 8b bd 48 ff ff ff 	mov    rdi,QWORD PTR [rbp-0xb8]
    37b9:	48 8b b5 40 ff ff ff 	mov    rsi,QWORD PTR [rbp-0xc0]
    37c0:	48 8b 95 38 ff ff ff 	mov    rdx,QWORD PTR [rbp-0xc8]
    37c7:	48 8b 8d 30 ff ff ff 	mov    rcx,QWORD PTR [rbp-0xd0]
    37ce:	e8 ad ee 00 00       	call   12680 <memcpy_s>
    37d3:	83 f8 00             	cmp    eax,0x0
    37d6:	0f 84 2a 00 00 00    	je     3806 <ocall_ioctl_SendChallenge+0x406>
    37dc:	bf 01 00 00 00       	mov    edi,0x1
    37e1:	e8 ba 89 00 00       	call   c1a0 <_Z7tracebrPv>
    37e6:	48 8d 05 73 8d 00 00 	lea    rax,[rip+0x8d73]        # c560 <sgx_ocfree>
    37ed:	48 89 c7             	mov    rdi,rax
    37f0:	e8 3b 86 00 00       	call   be30 <_Z10traceedgecPv>
    37f5:	e8 66 8d 00 00       	call   c560 <sgx_ocfree>
    37fa:	c7 45 fc 01 00 00 00 	mov    DWORD PTR [rbp-0x4],0x1
    3801:	e9 f4 01 00 00       	jmp    39fa <ocall_ioctl_SendChallenge+0x5fa>
    3806:	31 ff                	xor    edi,edi
    3808:	e8 93 89 00 00       	call   c1a0 <_Z7tracebrPv>
    380d:	48 8b 45 a8          	mov    rax,QWORD PTR [rbp-0x58]
    3811:	48 03 45 c8          	add    rax,QWORD PTR [rbp-0x38]
    3815:	48 89 45 a8          	mov    QWORD PTR [rbp-0x58],rax
    3819:	48 8b 45 c8          	mov    rax,QWORD PTR [rbp-0x38]
    381d:	48 8b 4d b0          	mov    rcx,QWORD PTR [rbp-0x50]
    3821:	48 29 c1             	sub    rcx,rax
    3824:	48 89 4d b0          	mov    QWORD PTR [rbp-0x50],rcx
    3828:	e9 13 00 00 00       	jmp    3840 <ocall_ioctl_SendChallenge+0x440>
    382d:	31 ff                	xor    edi,edi
    382f:	e8 6c 89 00 00       	call   c1a0 <_Z7tracebrPv>
    3834:	48 8b 45 b8          	mov    rax,QWORD PTR [rbp-0x48]
    3838:	48 c7 40 08 00 00 00 	mov    QWORD PTR [rax+0x8],0x0
    383f:	00 
    3840:	48 83 7d d8 00       	cmp    QWORD PTR [rbp-0x28],0x0
    3845:	0f 84 11 01 00 00    	je     395c <ocall_ioctl_SendChallenge+0x55c>
    384b:	bf 01 00 00 00       	mov    edi,0x1
    3850:	e8 4b 89 00 00       	call   c1a0 <_Z7tracebrPv>
    3855:	48 8b 45 a8          	mov    rax,QWORD PTR [rbp-0x58]
    3859:	48 8b 4d b8          	mov    rcx,QWORD PTR [rbp-0x48]
    385d:	48 89 41 10          	mov    QWORD PTR [rcx+0x10],rax
    3861:	48 8b 45 c0          	mov    rax,QWORD PTR [rbp-0x40]
    3865:	48 25 00 00 00 00    	and    rax,0x0
    386b:	48 83 f8 00          	cmp    rax,0x0
    386f:	0f 84 2a 00 00 00    	je     389f <ocall_ioctl_SendChallenge+0x49f>
    3875:	bf 01 00 00 00       	mov    edi,0x1
    387a:	e8 21 89 00 00       	call   c1a0 <_Z7tracebrPv>
    387f:	48 8d 05 da 8c 00 00 	lea    rax,[rip+0x8cda]        # c560 <sgx_ocfree>
    3886:	48 89 c7             	mov    rdi,rax
    3889:	e8 a2 85 00 00       	call   be30 <_Z10traceedgecPv>
    388e:	e8 cd 8c 00 00       	call   c560 <sgx_ocfree>
    3893:	c7 45 fc 02 00 00 00 	mov    DWORD PTR [rbp-0x4],0x2
    389a:	e9 5b 01 00 00       	jmp    39fa <ocall_ioctl_SendChallenge+0x5fa>
    389f:	31 ff                	xor    edi,edi
    38a1:	e8 fa 88 00 00       	call   c1a0 <_Z7tracebrPv>
    38a6:	48 8d 05 d3 ed 00 00 	lea    rax,[rip+0xedd3]        # 12680 <memcpy_s>
    38ad:	48 8b 7d a8          	mov    rdi,QWORD PTR [rbp-0x58]
    38b1:	48 8b 75 b0          	mov    rsi,QWORD PTR [rbp-0x50]
    38b5:	48 8b 55 d8          	mov    rdx,QWORD PTR [rbp-0x28]
    38b9:	48 8b 4d c0          	mov    rcx,QWORD PTR [rbp-0x40]
    38bd:	48 89 bd 28 ff ff ff 	mov    QWORD PTR [rbp-0xd8],rdi
    38c4:	48 89 c7             	mov    rdi,rax
    38c7:	48 89 b5 20 ff ff ff 	mov    QWORD PTR [rbp-0xe0],rsi
    38ce:	48 89 95 18 ff ff ff 	mov    QWORD PTR [rbp-0xe8],rdx
    38d5:	48 89 8d 10 ff ff ff 	mov    QWORD PTR [rbp-0xf0],rcx
    38dc:	e8 4f 85 00 00       	call   be30 <_Z10traceedgecPv>
    38e1:	48 8b bd 28 ff ff ff 	mov    rdi,QWORD PTR [rbp-0xd8]
    38e8:	48 8b b5 20 ff ff ff 	mov    rsi,QWORD PTR [rbp-0xe0]
    38ef:	48 8b 95 18 ff ff ff 	mov    rdx,QWORD PTR [rbp-0xe8]
    38f6:	48 8b 8d 10 ff ff ff 	mov    rcx,QWORD PTR [rbp-0xf0]
    38fd:	e8 7e ed 00 00       	call   12680 <memcpy_s>
    3902:	83 f8 00             	cmp    eax,0x0
    3905:	0f 84 2a 00 00 00    	je     3935 <ocall_ioctl_SendChallenge+0x535>
    390b:	bf 01 00 00 00       	mov    edi,0x1
    3910:	e8 8b 88 00 00       	call   c1a0 <_Z7tracebrPv>
    3915:	48 8d 05 44 8c 00 00 	lea    rax,[rip+0x8c44]        # c560 <sgx_ocfree>
    391c:	48 89 c7             	mov    rdi,rax
    391f:	e8 0c 85 00 00       	call   be30 <_Z10traceedgecPv>
    3924:	e8 37 8c 00 00       	call   c560 <sgx_ocfree>
    3929:	c7 45 fc 01 00 00 00 	mov    DWORD PTR [rbp-0x4],0x1
    3930:	e9 c5 00 00 00       	jmp    39fa <ocall_ioctl_SendChallenge+0x5fa>
    3935:	31 ff                	xor    edi,edi
    3937:	e8 64 88 00 00       	call   c1a0 <_Z7tracebrPv>
    393c:	48 8b 45 a8          	mov    rax,QWORD PTR [rbp-0x58]
    3940:	48 03 45 c0          	add    rax,QWORD PTR [rbp-0x40]
    3944:	48 89 45 a8          	mov    QWORD PTR [rbp-0x58],rax
    3948:	48 8b 45 c0          	mov    rax,QWORD PTR [rbp-0x40]
    394c:	48 8b 4d b0          	mov    rcx,QWORD PTR [rbp-0x50]
    3950:	48 29 c1             	sub    rcx,rax
    3953:	48 89 4d b0          	mov    QWORD PTR [rbp-0x50],rcx
    3957:	e9 13 00 00 00       	jmp    396f <ocall_ioctl_SendChallenge+0x56f>
    395c:	31 ff                	xor    edi,edi
    395e:	e8 3d 88 00 00       	call   c1a0 <_Z7tracebrPv>
    3963:	48 8b 45 b8          	mov    rax,QWORD PTR [rbp-0x48]
    3967:	48 c7 40 10 00 00 00 	mov    QWORD PTR [rax+0x10],0x0
    396e:	00 
    396f:	48 8d 05 3a a1 00 00 	lea    rax,[rip+0xa13a]        # dab0 <sgx_ocall>
    3976:	48 8b 4d b8          	mov    rcx,QWORD PTR [rbp-0x48]
    397a:	48 89 c7             	mov    rdi,rax
    397d:	48 89 8d 08 ff ff ff 	mov    QWORD PTR [rbp-0xf8],rcx
    3984:	e8 a7 84 00 00       	call   be30 <_Z10traceedgecPv>
    3989:	bf 06 00 00 00       	mov    edi,0x6
    398e:	48 8b b5 08 ff ff ff 	mov    rsi,QWORD PTR [rbp-0xf8]
    3995:	e8 16 a1 00 00       	call   dab0 <sgx_ocall>
    399a:	89 45 d4             	mov    DWORD PTR [rbp-0x2c],eax
    399d:	83 7d d4 00          	cmp    DWORD PTR [rbp-0x2c],0x0
    39a1:	0f 85 32 00 00 00    	jne    39d9 <ocall_ioctl_SendChallenge+0x5d9>
    39a7:	bf 01 00 00 00       	mov    edi,0x1
    39ac:	e8 ef 87 00 00       	call   c1a0 <_Z7tracebrPv>
    39b1:	48 83 7d f0 00       	cmp    QWORD PTR [rbp-0x10],0x0
    39b6:	0f 84 16 00 00 00    	je     39d2 <ocall_ioctl_SendChallenge+0x5d2>
    39bc:	bf 01 00 00 00       	mov    edi,0x1
    39c1:	e8 da 87 00 00       	call   c1a0 <_Z7tracebrPv>
    39c6:	48 8b 45 b8          	mov    rax,QWORD PTR [rbp-0x48]
    39ca:	8b 08                	mov    ecx,DWORD PTR [rax]
    39cc:	48 8b 45 f0          	mov    rax,QWORD PTR [rbp-0x10]
    39d0:	89 08                	mov    DWORD PTR [rax],ecx
    39d2:	31 ff                	xor    edi,edi
    39d4:	e8 c7 87 00 00       	call   c1a0 <_Z7tracebrPv>
    39d9:	31 ff                	xor    edi,edi
    39db:	e8 c0 87 00 00       	call   c1a0 <_Z7tracebrPv>
    39e0:	48 8d 05 79 8b 00 00 	lea    rax,[rip+0x8b79]        # c560 <sgx_ocfree>
    39e7:	48 89 c7             	mov    rdi,rax
    39ea:	e8 41 84 00 00       	call   be30 <_Z10traceedgecPv>
    39ef:	e8 6c 8b 00 00       	call   c560 <sgx_ocfree>
    39f4:	8b 4d d4             	mov    ecx,DWORD PTR [rbp-0x2c]
    39f7:	89 4d fc             	mov    DWORD PTR [rbp-0x4],ecx
    39fa:	8b 45 fc             	mov    eax,DWORD PTR [rbp-0x4]
    39fd:	48 8b 7d 08          	mov    rdi,QWORD PTR [rbp+0x8]
    3a01:	89 85 04 ff ff ff    	mov    DWORD PTR [rbp-0xfc],eax
    3a07:	e8 24 84 00 00       	call   be30 <_Z10traceedgecPv>
    3a0c:	8b 85 04 ff ff ff    	mov    eax,DWORD PTR [rbp-0xfc]
    3a12:	48 81 c4 00 01 00 00 	add    rsp,0x100
    3a19:	5d                   	pop    rbp
    3a1a:	c3                   	ret    
    3a1b:	0f 1f 44 00 00       	nop    DWORD PTR [rax+rax*1+0x0]

0000000000003a20 <ocall_ioctl_ReportAgid>:
    3a20:	55                   	push   rbp
    3a21:	48 89 e5             	mov    rbp,rsp
    3a24:	48 81 ec d0 00 00 00 	sub    rsp,0xd0
    3a2b:	48 89 7d f0          	mov    QWORD PTR [rbp-0x10],rdi
    3a2f:	89 75 ec             	mov    DWORD PTR [rbp-0x14],esi
    3a32:	48 89 55 e0          	mov    QWORD PTR [rbp-0x20],rdx
    3a36:	c7 45 dc 00 00 00 00 	mov    DWORD PTR [rbp-0x24],0x0
    3a3d:	48 c7 45 d0 04 00 00 	mov    QWORD PTR [rbp-0x30],0x4
    3a44:	00 
    3a45:	48 c7 45 c8 00 00 00 	mov    QWORD PTR [rbp-0x38],0x0
    3a4c:	00 
    3a4d:	48 c7 45 c0 10 00 00 	mov    QWORD PTR [rbp-0x40],0x10
    3a54:	00 
    3a55:	48 c7 45 b8 00 00 00 	mov    QWORD PTR [rbp-0x48],0x0
    3a5c:	00 
    3a5d:	48 c7 45 b0 00 00 00 	mov    QWORD PTR [rbp-0x50],0x0
    3a64:	00 
    3a65:	48 83 7d e0 00       	cmp    QWORD PTR [rbp-0x20],0x0
    3a6a:	0f 84 52 00 00 00    	je     3ac2 <ocall_ioctl_ReportAgid+0xa2>
    3a70:	bf 01 00 00 00       	mov    edi,0x1
    3a75:	e8 26 87 00 00       	call   c1a0 <_Z7tracebrPv>
    3a7a:	48 8d 05 4f 89 00 00 	lea    rax,[rip+0x894f]        # c3d0 <sgx_is_within_enclave>
    3a81:	48 8b 4d e0          	mov    rcx,QWORD PTR [rbp-0x20]
    3a85:	48 8b 75 d0          	mov    rsi,QWORD PTR [rbp-0x30]
    3a89:	48 89 c7             	mov    rdi,rax
    3a8c:	48 89 4d a8          	mov    QWORD PTR [rbp-0x58],rcx
    3a90:	48 89 75 a0          	mov    QWORD PTR [rbp-0x60],rsi
    3a94:	e8 97 83 00 00       	call   be30 <_Z10traceedgecPv>
    3a99:	48 8b 7d a8          	mov    rdi,QWORD PTR [rbp-0x58]
    3a9d:	48 8b 75 a0          	mov    rsi,QWORD PTR [rbp-0x60]
    3aa1:	e8 2a 89 00 00       	call   c3d0 <sgx_is_within_enclave>
    3aa6:	83 f8 00             	cmp    eax,0x0
    3aa9:	0f 85 13 00 00 00    	jne    3ac2 <ocall_ioctl_ReportAgid+0xa2>
    3aaf:	31 ff                	xor    edi,edi
    3ab1:	e8 ea 86 00 00       	call   c1a0 <_Z7tracebrPv>
    3ab6:	c7 45 fc 02 00 00 00 	mov    DWORD PTR [rbp-0x4],0x2
    3abd:	e9 a9 03 00 00       	jmp    3e6b <ocall_ioctl_ReportAgid+0x44b>
    3ac2:	31 ff                	xor    edi,edi
    3ac4:	e8 d7 86 00 00       	call   c1a0 <_Z7tracebrPv>
    3ac9:	48 83 7d e0 00       	cmp    QWORD PTR [rbp-0x20],0x0
    3ace:	0f 84 17 00 00 00    	je     3aeb <ocall_ioctl_ReportAgid+0xcb>
    3ad4:	bf 01 00 00 00       	mov    edi,0x1
    3ad9:	e8 c2 86 00 00       	call   c1a0 <_Z7tracebrPv>
    3ade:	48 8b 45 d0          	mov    rax,QWORD PTR [rbp-0x30]
    3ae2:	48 89 45 98          	mov    QWORD PTR [rbp-0x68],rax
    3ae6:	e9 0f 00 00 00       	jmp    3afa <ocall_ioctl_ReportAgid+0xda>
    3aeb:	31 ff                	xor    edi,edi
    3aed:	e8 ae 86 00 00       	call   c1a0 <_Z7tracebrPv>
    3af2:	31 c0                	xor    eax,eax
    3af4:	89 c1                	mov    ecx,eax
    3af6:	48 89 4d 98          	mov    QWORD PTR [rbp-0x68],rcx
    3afa:	48 8b 45 98          	mov    rax,QWORD PTR [rbp-0x68]
    3afe:	48 03 45 c0          	add    rax,QWORD PTR [rbp-0x40]
    3b02:	48 89 45 c0          	mov    QWORD PTR [rbp-0x40],rax
    3b06:	48 83 7d e0 00       	cmp    QWORD PTR [rbp-0x20],0x0
    3b0b:	48 89 45 90          	mov    QWORD PTR [rbp-0x70],rax
    3b0f:	0f 84 17 00 00 00    	je     3b2c <ocall_ioctl_ReportAgid+0x10c>
    3b15:	bf 01 00 00 00       	mov    edi,0x1
    3b1a:	e8 81 86 00 00       	call   c1a0 <_Z7tracebrPv>
    3b1f:	48 8b 45 d0          	mov    rax,QWORD PTR [rbp-0x30]
    3b23:	48 89 45 88          	mov    QWORD PTR [rbp-0x78],rax
    3b27:	e9 0f 00 00 00       	jmp    3b3b <ocall_ioctl_ReportAgid+0x11b>
    3b2c:	31 ff                	xor    edi,edi
    3b2e:	e8 6d 86 00 00       	call   c1a0 <_Z7tracebrPv>
    3b33:	31 c0                	xor    eax,eax
    3b35:	89 c1                	mov    ecx,eax
    3b37:	48 89 4d 88          	mov    QWORD PTR [rbp-0x78],rcx
    3b3b:	48 8b 45 88          	mov    rax,QWORD PTR [rbp-0x78]
    3b3f:	48 8b 4d 90          	mov    rcx,QWORD PTR [rbp-0x70]
    3b43:	48 39 c1             	cmp    rcx,rax
    3b46:	0f 83 16 00 00 00    	jae    3b62 <ocall_ioctl_ReportAgid+0x142>
    3b4c:	bf 01 00 00 00       	mov    edi,0x1
    3b51:	e8 4a 86 00 00       	call   c1a0 <_Z7tracebrPv>
    3b56:	c7 45 fc 02 00 00 00 	mov    DWORD PTR [rbp-0x4],0x2
    3b5d:	e9 09 03 00 00       	jmp    3e6b <ocall_ioctl_ReportAgid+0x44b>
    3b62:	31 ff                	xor    edi,edi
    3b64:	e8 37 86 00 00       	call   c1a0 <_Z7tracebrPv>
    3b69:	48 8d 05 00 89 00 00 	lea    rax,[rip+0x8900]        # c470 <sgx_ocalloc>
    3b70:	48 8b 7d c0          	mov    rdi,QWORD PTR [rbp-0x40]
    3b74:	48 89 7d 80          	mov    QWORD PTR [rbp-0x80],rdi
    3b78:	48 89 c7             	mov    rdi,rax
    3b7b:	e8 b0 82 00 00       	call   be30 <_Z10traceedgecPv>
    3b80:	48 8b 7d 80          	mov    rdi,QWORD PTR [rbp-0x80]
    3b84:	e8 e7 88 00 00       	call   c470 <sgx_ocalloc>
    3b89:	48 89 45 b8          	mov    QWORD PTR [rbp-0x48],rax
    3b8d:	48 83 7d b8 00       	cmp    QWORD PTR [rbp-0x48],0x0
    3b92:	0f 85 2a 00 00 00    	jne    3bc2 <ocall_ioctl_ReportAgid+0x1a2>
    3b98:	bf 01 00 00 00       	mov    edi,0x1
    3b9d:	e8 fe 85 00 00       	call   c1a0 <_Z7tracebrPv>
    3ba2:	48 8d 05 b7 89 00 00 	lea    rax,[rip+0x89b7]        # c560 <sgx_ocfree>
    3ba9:	48 89 c7             	mov    rdi,rax
    3bac:	e8 7f 82 00 00       	call   be30 <_Z10traceedgecPv>
    3bb1:	e8 aa 89 00 00       	call   c560 <sgx_ocfree>
    3bb6:	c7 45 fc 01 00 00 00 	mov    DWORD PTR [rbp-0x4],0x1
    3bbd:	e9 a9 02 00 00       	jmp    3e6b <ocall_ioctl_ReportAgid+0x44b>
    3bc2:	31 ff                	xor    edi,edi
    3bc4:	e8 d7 85 00 00       	call   c1a0 <_Z7tracebrPv>
    3bc9:	48 8b 45 b8          	mov    rax,QWORD PTR [rbp-0x48]
    3bcd:	48 89 45 c8          	mov    QWORD PTR [rbp-0x38],rax
    3bd1:	48 8b 45 b8          	mov    rax,QWORD PTR [rbp-0x48]
    3bd5:	48 05 10 00 00 00    	add    rax,0x10
    3bdb:	48 89 45 b8          	mov    QWORD PTR [rbp-0x48],rax
    3bdf:	48 8b 45 c0          	mov    rax,QWORD PTR [rbp-0x40]
    3be3:	48 2d 10 00 00 00    	sub    rax,0x10
    3be9:	48 89 45 c0          	mov    QWORD PTR [rbp-0x40],rax
    3bed:	8b 4d ec             	mov    ecx,DWORD PTR [rbp-0x14]
    3bf0:	48 8b 45 c8          	mov    rax,QWORD PTR [rbp-0x38]
    3bf4:	89 48 04             	mov    DWORD PTR [rax+0x4],ecx
    3bf7:	48 83 7d e0 00       	cmp    QWORD PTR [rbp-0x20],0x0
    3bfc:	0f 84 19 01 00 00    	je     3d1b <ocall_ioctl_ReportAgid+0x2fb>
    3c02:	bf 01 00 00 00       	mov    edi,0x1
    3c07:	e8 94 85 00 00       	call   c1a0 <_Z7tracebrPv>
    3c0c:	48 8b 45 b8          	mov    rax,QWORD PTR [rbp-0x48]
    3c10:	48 8b 4d c8          	mov    rcx,QWORD PTR [rbp-0x38]
    3c14:	48 89 41 08          	mov    QWORD PTR [rcx+0x8],rax
    3c18:	48 8b 45 b8          	mov    rax,QWORD PTR [rbp-0x48]
    3c1c:	48 89 45 b0          	mov    QWORD PTR [rbp-0x50],rax
    3c20:	48 8b 45 d0          	mov    rax,QWORD PTR [rbp-0x30]
    3c24:	48 25 03 00 00 00    	and    rax,0x3
    3c2a:	48 83 f8 00          	cmp    rax,0x0
    3c2e:	0f 84 2a 00 00 00    	je     3c5e <ocall_ioctl_ReportAgid+0x23e>
    3c34:	bf 01 00 00 00       	mov    edi,0x1
    3c39:	e8 62 85 00 00       	call   c1a0 <_Z7tracebrPv>
    3c3e:	48 8d 05 1b 89 00 00 	lea    rax,[rip+0x891b]        # c560 <sgx_ocfree>
    3c45:	48 89 c7             	mov    rdi,rax
    3c48:	e8 e3 81 00 00       	call   be30 <_Z10traceedgecPv>
    3c4d:	e8 0e 89 00 00       	call   c560 <sgx_ocfree>
    3c52:	c7 45 fc 02 00 00 00 	mov    DWORD PTR [rbp-0x4],0x2
    3c59:	e9 0d 02 00 00       	jmp    3e6b <ocall_ioctl_ReportAgid+0x44b>
    3c5e:	31 ff                	xor    edi,edi
    3c60:	e8 3b 85 00 00       	call   c1a0 <_Z7tracebrPv>
    3c65:	48 8d 05 14 ea 00 00 	lea    rax,[rip+0xea14]        # 12680 <memcpy_s>
    3c6c:	48 8b 7d b0          	mov    rdi,QWORD PTR [rbp-0x50]
    3c70:	48 8b 75 c0          	mov    rsi,QWORD PTR [rbp-0x40]
    3c74:	48 8b 4d e0          	mov    rcx,QWORD PTR [rbp-0x20]
    3c78:	48 8b 55 d0          	mov    rdx,QWORD PTR [rbp-0x30]
    3c7c:	48 89 bd 78 ff ff ff 	mov    QWORD PTR [rbp-0x88],rdi
    3c83:	48 89 c7             	mov    rdi,rax
    3c86:	48 89 b5 70 ff ff ff 	mov    QWORD PTR [rbp-0x90],rsi
    3c8d:	48 89 8d 68 ff ff ff 	mov    QWORD PTR [rbp-0x98],rcx
    3c94:	48 89 95 60 ff ff ff 	mov    QWORD PTR [rbp-0xa0],rdx
    3c9b:	e8 90 81 00 00       	call   be30 <_Z10traceedgecPv>
    3ca0:	48 8b bd 78 ff ff ff 	mov    rdi,QWORD PTR [rbp-0x88]
    3ca7:	48 8b b5 70 ff ff ff 	mov    rsi,QWORD PTR [rbp-0x90]
    3cae:	48 8b 95 68 ff ff ff 	mov    rdx,QWORD PTR [rbp-0x98]
    3cb5:	48 8b 8d 60 ff ff ff 	mov    rcx,QWORD PTR [rbp-0xa0]
    3cbc:	e8 bf e9 00 00       	call   12680 <memcpy_s>
    3cc1:	83 f8 00             	cmp    eax,0x0
    3cc4:	0f 84 2a 00 00 00    	je     3cf4 <ocall_ioctl_ReportAgid+0x2d4>
    3cca:	bf 01 00 00 00       	mov    edi,0x1
    3ccf:	e8 cc 84 00 00       	call   c1a0 <_Z7tracebrPv>
    3cd4:	48 8d 05 85 88 00 00 	lea    rax,[rip+0x8885]        # c560 <sgx_ocfree>
    3cdb:	48 89 c7             	mov    rdi,rax
    3cde:	e8 4d 81 00 00       	call   be30 <_Z10traceedgecPv>
    3ce3:	e8 78 88 00 00       	call   c560 <sgx_ocfree>
    3ce8:	c7 45 fc 01 00 00 00 	mov    DWORD PTR [rbp-0x4],0x1
    3cef:	e9 77 01 00 00       	jmp    3e6b <ocall_ioctl_ReportAgid+0x44b>
    3cf4:	31 ff                	xor    edi,edi
    3cf6:	e8 a5 84 00 00       	call   c1a0 <_Z7tracebrPv>
    3cfb:	48 8b 45 b8          	mov    rax,QWORD PTR [rbp-0x48]
    3cff:	48 03 45 d0          	add    rax,QWORD PTR [rbp-0x30]
    3d03:	48 89 45 b8          	mov    QWORD PTR [rbp-0x48],rax
    3d07:	48 8b 45 d0          	mov    rax,QWORD PTR [rbp-0x30]
    3d0b:	48 8b 4d c0          	mov    rcx,QWORD PTR [rbp-0x40]
    3d0f:	48 29 c1             	sub    rcx,rax
    3d12:	48 89 4d c0          	mov    QWORD PTR [rbp-0x40],rcx
    3d16:	e9 13 00 00 00       	jmp    3d2e <ocall_ioctl_ReportAgid+0x30e>
    3d1b:	31 ff                	xor    edi,edi
    3d1d:	e8 7e 84 00 00       	call   c1a0 <_Z7tracebrPv>
    3d22:	48 8b 45 c8          	mov    rax,QWORD PTR [rbp-0x38]
    3d26:	48 c7 40 08 00 00 00 	mov    QWORD PTR [rax+0x8],0x0
    3d2d:	00 
    3d2e:	48 8d 05 7b 9d 00 00 	lea    rax,[rip+0x9d7b]        # dab0 <sgx_ocall>
    3d35:	48 8b 4d c8          	mov    rcx,QWORD PTR [rbp-0x38]
    3d39:	48 89 c7             	mov    rdi,rax
    3d3c:	48 89 8d 58 ff ff ff 	mov    QWORD PTR [rbp-0xa8],rcx
    3d43:	e8 e8 80 00 00       	call   be30 <_Z10traceedgecPv>
    3d48:	bf 07 00 00 00       	mov    edi,0x7
    3d4d:	48 8b b5 58 ff ff ff 	mov    rsi,QWORD PTR [rbp-0xa8]
    3d54:	e8 57 9d 00 00       	call   dab0 <sgx_ocall>
    3d59:	89 45 dc             	mov    DWORD PTR [rbp-0x24],eax
    3d5c:	83 7d dc 00          	cmp    DWORD PTR [rbp-0x24],0x0
    3d60:	0f 85 e4 00 00 00    	jne    3e4a <ocall_ioctl_ReportAgid+0x42a>
    3d66:	bf 01 00 00 00       	mov    edi,0x1
    3d6b:	e8 30 84 00 00       	call   c1a0 <_Z7tracebrPv>
    3d70:	48 83 7d f0 00       	cmp    QWORD PTR [rbp-0x10],0x0
    3d75:	0f 84 16 00 00 00    	je     3d91 <ocall_ioctl_ReportAgid+0x371>
    3d7b:	bf 01 00 00 00       	mov    edi,0x1
    3d80:	e8 1b 84 00 00       	call   c1a0 <_Z7tracebrPv>
    3d85:	48 8b 45 c8          	mov    rax,QWORD PTR [rbp-0x38]
    3d89:	8b 08                	mov    ecx,DWORD PTR [rax]
    3d8b:	48 8b 45 f0          	mov    rax,QWORD PTR [rbp-0x10]
    3d8f:	89 08                	mov    DWORD PTR [rax],ecx
    3d91:	31 ff                	xor    edi,edi
    3d93:	e8 08 84 00 00       	call   c1a0 <_Z7tracebrPv>
    3d98:	48 83 7d e0 00       	cmp    QWORD PTR [rbp-0x20],0x0
    3d9d:	0f 84 a0 00 00 00    	je     3e43 <ocall_ioctl_ReportAgid+0x423>
    3da3:	bf 01 00 00 00       	mov    edi,0x1
    3da8:	e8 f3 83 00 00       	call   c1a0 <_Z7tracebrPv>
    3dad:	48 8d 05 cc e8 00 00 	lea    rax,[rip+0xe8cc]        # 12680 <memcpy_s>
    3db4:	48 8b 4d e0          	mov    rcx,QWORD PTR [rbp-0x20]
    3db8:	48 8b 75 d0          	mov    rsi,QWORD PTR [rbp-0x30]
    3dbc:	48 8b 55 b0          	mov    rdx,QWORD PTR [rbp-0x50]
    3dc0:	4c 8b 45 d0          	mov    r8,QWORD PTR [rbp-0x30]
    3dc4:	48 89 c7             	mov    rdi,rax
    3dc7:	48 89 8d 50 ff ff ff 	mov    QWORD PTR [rbp-0xb0],rcx
    3dce:	48 89 b5 48 ff ff ff 	mov    QWORD PTR [rbp-0xb8],rsi
    3dd5:	48 89 95 40 ff ff ff 	mov    QWORD PTR [rbp-0xc0],rdx
    3ddc:	4c 89 85 38 ff ff ff 	mov    QWORD PTR [rbp-0xc8],r8
    3de3:	e8 48 80 00 00       	call   be30 <_Z10traceedgecPv>
    3de8:	48 8b bd 50 ff ff ff 	mov    rdi,QWORD PTR [rbp-0xb0]
    3def:	48 8b b5 48 ff ff ff 	mov    rsi,QWORD PTR [rbp-0xb8]
    3df6:	48 8b 95 40 ff ff ff 	mov    rdx,QWORD PTR [rbp-0xc0]
    3dfd:	48 8b 8d 38 ff ff ff 	mov    rcx,QWORD PTR [rbp-0xc8]
    3e04:	e8 77 e8 00 00       	call   12680 <memcpy_s>
    3e09:	83 f8 00             	cmp    eax,0x0
    3e0c:	0f 84 2a 00 00 00    	je     3e3c <ocall_ioctl_ReportAgid+0x41c>
    3e12:	bf 01 00 00 00       	mov    edi,0x1
    3e17:	e8 84 83 00 00       	call   c1a0 <_Z7tracebrPv>
    3e1c:	48 8d 05 3d 87 00 00 	lea    rax,[rip+0x873d]        # c560 <sgx_ocfree>
    3e23:	48 89 c7             	mov    rdi,rax
    3e26:	e8 05 80 00 00       	call   be30 <_Z10traceedgecPv>
    3e2b:	e8 30 87 00 00       	call   c560 <sgx_ocfree>
    3e30:	c7 45 fc 01 00 00 00 	mov    DWORD PTR [rbp-0x4],0x1
    3e37:	e9 2f 00 00 00       	jmp    3e6b <ocall_ioctl_ReportAgid+0x44b>
    3e3c:	31 ff                	xor    edi,edi
    3e3e:	e8 5d 83 00 00       	call   c1a0 <_Z7tracebrPv>
    3e43:	31 ff                	xor    edi,edi
    3e45:	e8 56 83 00 00       	call   c1a0 <_Z7tracebrPv>
    3e4a:	31 ff                	xor    edi,edi
    3e4c:	e8 4f 83 00 00       	call   c1a0 <_Z7tracebrPv>
    3e51:	48 8d 05 08 87 00 00 	lea    rax,[rip+0x8708]        # c560 <sgx_ocfree>
    3e58:	48 89 c7             	mov    rdi,rax
    3e5b:	e8 d0 7f 00 00       	call   be30 <_Z10traceedgecPv>
    3e60:	e8 fb 86 00 00       	call   c560 <sgx_ocfree>
    3e65:	8b 4d dc             	mov    ecx,DWORD PTR [rbp-0x24]
    3e68:	89 4d fc             	mov    DWORD PTR [rbp-0x4],ecx
    3e6b:	8b 45 fc             	mov    eax,DWORD PTR [rbp-0x4]
    3e6e:	48 8b 7d 08          	mov    rdi,QWORD PTR [rbp+0x8]
    3e72:	89 85 34 ff ff ff    	mov    DWORD PTR [rbp-0xcc],eax
    3e78:	e8 b3 7f 00 00       	call   be30 <_Z10traceedgecPv>
    3e7d:	8b 85 34 ff ff ff    	mov    eax,DWORD PTR [rbp-0xcc]
    3e83:	48 81 c4 d0 00 00 00 	add    rsp,0xd0
    3e8a:	5d                   	pop    rbp
    3e8b:	c3                   	ret    
    3e8c:	0f 1f 40 00          	nop    DWORD PTR [rax+0x0]

0000000000003e90 <ocall_ioctl_ReadDiscKey>:
    3e90:	55                   	push   rbp
    3e91:	48 89 e5             	mov    rbp,rsp
    3e94:	48 81 ec 10 01 00 00 	sub    rsp,0x110
    3e9b:	48 89 7d f0          	mov    QWORD PTR [rbp-0x10],rdi
    3e9f:	89 75 ec             	mov    DWORD PTR [rbp-0x14],esi
    3ea2:	48 89 55 e0          	mov    QWORD PTR [rbp-0x20],rdx
    3ea6:	48 89 4d d8          	mov    QWORD PTR [rbp-0x28],rcx
    3eaa:	c7 45 d4 00 00 00 00 	mov    DWORD PTR [rbp-0x2c],0x0
    3eb1:	48 c7 45 c8 04 00 00 	mov    QWORD PTR [rbp-0x38],0x4
    3eb8:	00 
    3eb9:	48 c7 45 c0 00 08 00 	mov    QWORD PTR [rbp-0x40],0x800
    3ec0:	00 
    3ec1:	48 c7 45 b8 00 00 00 	mov    QWORD PTR [rbp-0x48],0x0
    3ec8:	00 
    3ec9:	48 c7 45 b0 18 00 00 	mov    QWORD PTR [rbp-0x50],0x18
    3ed0:	00 
    3ed1:	48 c7 45 a8 00 00 00 	mov    QWORD PTR [rbp-0x58],0x0
    3ed8:	00 
    3ed9:	48 c7 45 a0 00 00 00 	mov    QWORD PTR [rbp-0x60],0x0
    3ee0:	00 
    3ee1:	48 83 7d e0 00       	cmp    QWORD PTR [rbp-0x20],0x0
    3ee6:	0f 84 52 00 00 00    	je     3f3e <ocall_ioctl_ReadDiscKey+0xae>
    3eec:	bf 01 00 00 00       	mov    edi,0x1
    3ef1:	e8 aa 82 00 00       	call   c1a0 <_Z7tracebrPv>
    3ef6:	48 8d 05 d3 84 00 00 	lea    rax,[rip+0x84d3]        # c3d0 <sgx_is_within_enclave>
    3efd:	48 8b 4d e0          	mov    rcx,QWORD PTR [rbp-0x20]
    3f01:	48 8b 75 c8          	mov    rsi,QWORD PTR [rbp-0x38]
    3f05:	48 89 c7             	mov    rdi,rax
    3f08:	48 89 4d 98          	mov    QWORD PTR [rbp-0x68],rcx
    3f0c:	48 89 75 90          	mov    QWORD PTR [rbp-0x70],rsi
    3f10:	e8 1b 7f 00 00       	call   be30 <_Z10traceedgecPv>
    3f15:	48 8b 7d 98          	mov    rdi,QWORD PTR [rbp-0x68]
    3f19:	48 8b 75 90          	mov    rsi,QWORD PTR [rbp-0x70]
    3f1d:	e8 ae 84 00 00       	call   c3d0 <sgx_is_within_enclave>
    3f22:	83 f8 00             	cmp    eax,0x0
    3f25:	0f 85 13 00 00 00    	jne    3f3e <ocall_ioctl_ReadDiscKey+0xae>
    3f2b:	31 ff                	xor    edi,edi
    3f2d:	e8 6e 82 00 00       	call   c1a0 <_Z7tracebrPv>
    3f32:	c7 45 fc 02 00 00 00 	mov    DWORD PTR [rbp-0x4],0x2
    3f39:	e9 90 05 00 00       	jmp    44ce <ocall_ioctl_ReadDiscKey+0x63e>
    3f3e:	31 ff                	xor    edi,edi
    3f40:	e8 5b 82 00 00       	call   c1a0 <_Z7tracebrPv>
    3f45:	e9 00 00 00 00       	jmp    3f4a <ocall_ioctl_ReadDiscKey+0xba>
    3f4a:	48 83 7d d8 00       	cmp    QWORD PTR [rbp-0x28],0x0
    3f4f:	0f 84 52 00 00 00    	je     3fa7 <ocall_ioctl_ReadDiscKey+0x117>
    3f55:	bf 01 00 00 00       	mov    edi,0x1
    3f5a:	e8 41 82 00 00       	call   c1a0 <_Z7tracebrPv>
    3f5f:	48 8d 05 6a 84 00 00 	lea    rax,[rip+0x846a]        # c3d0 <sgx_is_within_enclave>
    3f66:	48 8b 7d d8          	mov    rdi,QWORD PTR [rbp-0x28]
    3f6a:	48 8b 75 c0          	mov    rsi,QWORD PTR [rbp-0x40]
    3f6e:	48 89 7d 88          	mov    QWORD PTR [rbp-0x78],rdi
    3f72:	48 89 c7             	mov    rdi,rax
    3f75:	48 89 75 80          	mov    QWORD PTR [rbp-0x80],rsi
    3f79:	e8 b2 7e 00 00       	call   be30 <_Z10traceedgecPv>
    3f7e:	48 8b 7d 88          	mov    rdi,QWORD PTR [rbp-0x78]
    3f82:	48 8b 75 80          	mov    rsi,QWORD PTR [rbp-0x80]
    3f86:	e8 45 84 00 00       	call   c3d0 <sgx_is_within_enclave>
    3f8b:	83 f8 00             	cmp    eax,0x0
    3f8e:	0f 85 13 00 00 00    	jne    3fa7 <ocall_ioctl_ReadDiscKey+0x117>
    3f94:	31 ff                	xor    edi,edi
    3f96:	e8 05 82 00 00       	call   c1a0 <_Z7tracebrPv>
    3f9b:	c7 45 fc 02 00 00 00 	mov    DWORD PTR [rbp-0x4],0x2
    3fa2:	e9 27 05 00 00       	jmp    44ce <ocall_ioctl_ReadDiscKey+0x63e>
    3fa7:	31 ff                	xor    edi,edi
    3fa9:	e8 f2 81 00 00       	call   c1a0 <_Z7tracebrPv>
    3fae:	48 83 7d e0 00       	cmp    QWORD PTR [rbp-0x20],0x0
    3fb3:	0f 84 1a 00 00 00    	je     3fd3 <ocall_ioctl_ReadDiscKey+0x143>
    3fb9:	bf 01 00 00 00       	mov    edi,0x1
    3fbe:	e8 dd 81 00 00       	call   c1a0 <_Z7tracebrPv>
    3fc3:	48 8b 45 c8          	mov    rax,QWORD PTR [rbp-0x38]
    3fc7:	48 89 85 78 ff ff ff 	mov    QWORD PTR [rbp-0x88],rax
    3fce:	e9 12 00 00 00       	jmp    3fe5 <ocall_ioctl_ReadDiscKey+0x155>
    3fd3:	31 ff                	xor    edi,edi
    3fd5:	e8 c6 81 00 00       	call   c1a0 <_Z7tracebrPv>
    3fda:	31 c0                	xor    eax,eax
    3fdc:	89 c1                	mov    ecx,eax
    3fde:	48 89 8d 78 ff ff ff 	mov    QWORD PTR [rbp-0x88],rcx
    3fe5:	48 8b 85 78 ff ff ff 	mov    rax,QWORD PTR [rbp-0x88]
    3fec:	48 03 45 b0          	add    rax,QWORD PTR [rbp-0x50]
    3ff0:	48 89 45 b0          	mov    QWORD PTR [rbp-0x50],rax
    3ff4:	48 83 7d e0 00       	cmp    QWORD PTR [rbp-0x20],0x0
    3ff9:	48 89 85 70 ff ff ff 	mov    QWORD PTR [rbp-0x90],rax
    4000:	0f 84 1a 00 00 00    	je     4020 <ocall_ioctl_ReadDiscKey+0x190>
    4006:	bf 01 00 00 00       	mov    edi,0x1
    400b:	e8 90 81 00 00       	call   c1a0 <_Z7tracebrPv>
    4010:	48 8b 45 c8          	mov    rax,QWORD PTR [rbp-0x38]
    4014:	48 89 85 68 ff ff ff 	mov    QWORD PTR [rbp-0x98],rax
    401b:	e9 12 00 00 00       	jmp    4032 <ocall_ioctl_ReadDiscKey+0x1a2>
    4020:	31 ff                	xor    edi,edi
    4022:	e8 79 81 00 00       	call   c1a0 <_Z7tracebrPv>
    4027:	31 c0                	xor    eax,eax
    4029:	89 c1                	mov    ecx,eax
    402b:	48 89 8d 68 ff ff ff 	mov    QWORD PTR [rbp-0x98],rcx
    4032:	48 8b 85 68 ff ff ff 	mov    rax,QWORD PTR [rbp-0x98]
    4039:	48 8b 8d 70 ff ff ff 	mov    rcx,QWORD PTR [rbp-0x90]
    4040:	48 39 c1             	cmp    rcx,rax
    4043:	0f 83 16 00 00 00    	jae    405f <ocall_ioctl_ReadDiscKey+0x1cf>
    4049:	bf 01 00 00 00       	mov    edi,0x1
    404e:	e8 4d 81 00 00       	call   c1a0 <_Z7tracebrPv>
    4053:	c7 45 fc 02 00 00 00 	mov    DWORD PTR [rbp-0x4],0x2
    405a:	e9 6f 04 00 00       	jmp    44ce <ocall_ioctl_ReadDiscKey+0x63e>
    405f:	31 ff                	xor    edi,edi
    4061:	e8 3a 81 00 00       	call   c1a0 <_Z7tracebrPv>
    4066:	48 83 7d d8 00       	cmp    QWORD PTR [rbp-0x28],0x0
    406b:	0f 84 1a 00 00 00    	je     408b <ocall_ioctl_ReadDiscKey+0x1fb>
    4071:	bf 01 00 00 00       	mov    edi,0x1
    4076:	e8 25 81 00 00       	call   c1a0 <_Z7tracebrPv>
    407b:	48 8b 45 c0          	mov    rax,QWORD PTR [rbp-0x40]
    407f:	48 89 85 60 ff ff ff 	mov    QWORD PTR [rbp-0xa0],rax
    4086:	e9 12 00 00 00       	jmp    409d <ocall_ioctl_ReadDiscKey+0x20d>
    408b:	31 ff                	xor    edi,edi
    408d:	e8 0e 81 00 00       	call   c1a0 <_Z7tracebrPv>
    4092:	31 c0                	xor    eax,eax
    4094:	89 c1                	mov    ecx,eax
    4096:	48 89 8d 60 ff ff ff 	mov    QWORD PTR [rbp-0xa0],rcx
    409d:	48 8b 85 60 ff ff ff 	mov    rax,QWORD PTR [rbp-0xa0]
    40a4:	48 03 45 b0          	add    rax,QWORD PTR [rbp-0x50]
    40a8:	48 89 45 b0          	mov    QWORD PTR [rbp-0x50],rax
    40ac:	48 83 7d d8 00       	cmp    QWORD PTR [rbp-0x28],0x0
    40b1:	48 89 85 58 ff ff ff 	mov    QWORD PTR [rbp-0xa8],rax
    40b8:	0f 84 1a 00 00 00    	je     40d8 <ocall_ioctl_ReadDiscKey+0x248>
    40be:	bf 01 00 00 00       	mov    edi,0x1
    40c3:	e8 d8 80 00 00       	call   c1a0 <_Z7tracebrPv>
    40c8:	48 8b 45 c0          	mov    rax,QWORD PTR [rbp-0x40]
    40cc:	48 89 85 50 ff ff ff 	mov    QWORD PTR [rbp-0xb0],rax
    40d3:	e9 12 00 00 00       	jmp    40ea <ocall_ioctl_ReadDiscKey+0x25a>
    40d8:	31 ff                	xor    edi,edi
    40da:	e8 c1 80 00 00       	call   c1a0 <_Z7tracebrPv>
    40df:	31 c0                	xor    eax,eax
    40e1:	89 c1                	mov    ecx,eax
    40e3:	48 89 8d 50 ff ff ff 	mov    QWORD PTR [rbp-0xb0],rcx
    40ea:	48 8b 85 50 ff ff ff 	mov    rax,QWORD PTR [rbp-0xb0]
    40f1:	48 8b 8d 58 ff ff ff 	mov    rcx,QWORD PTR [rbp-0xa8]
    40f8:	48 39 c1             	cmp    rcx,rax
    40fb:	0f 83 16 00 00 00    	jae    4117 <ocall_ioctl_ReadDiscKey+0x287>
    4101:	bf 01 00 00 00       	mov    edi,0x1
    4106:	e8 95 80 00 00       	call   c1a0 <_Z7tracebrPv>
    410b:	c7 45 fc 02 00 00 00 	mov    DWORD PTR [rbp-0x4],0x2
    4112:	e9 b7 03 00 00       	jmp    44ce <ocall_ioctl_ReadDiscKey+0x63e>
    4117:	31 ff                	xor    edi,edi
    4119:	e8 82 80 00 00       	call   c1a0 <_Z7tracebrPv>
    411e:	48 8d 05 4b 83 00 00 	lea    rax,[rip+0x834b]        # c470 <sgx_ocalloc>
    4125:	48 8b 7d b0          	mov    rdi,QWORD PTR [rbp-0x50]
    4129:	48 89 bd 48 ff ff ff 	mov    QWORD PTR [rbp-0xb8],rdi
    4130:	48 89 c7             	mov    rdi,rax
    4133:	e8 f8 7c 00 00       	call   be30 <_Z10traceedgecPv>
    4138:	48 8b bd 48 ff ff ff 	mov    rdi,QWORD PTR [rbp-0xb8]
    413f:	e8 2c 83 00 00       	call   c470 <sgx_ocalloc>
    4144:	48 89 45 a8          	mov    QWORD PTR [rbp-0x58],rax
    4148:	48 83 7d a8 00       	cmp    QWORD PTR [rbp-0x58],0x0
    414d:	0f 85 2a 00 00 00    	jne    417d <ocall_ioctl_ReadDiscKey+0x2ed>
    4153:	bf 01 00 00 00       	mov    edi,0x1
    4158:	e8 43 80 00 00       	call   c1a0 <_Z7tracebrPv>
    415d:	48 8d 05 fc 83 00 00 	lea    rax,[rip+0x83fc]        # c560 <sgx_ocfree>
    4164:	48 89 c7             	mov    rdi,rax
    4167:	e8 c4 7c 00 00       	call   be30 <_Z10traceedgecPv>
    416c:	e8 ef 83 00 00       	call   c560 <sgx_ocfree>
    4171:	c7 45 fc 01 00 00 00 	mov    DWORD PTR [rbp-0x4],0x1
    4178:	e9 51 03 00 00       	jmp    44ce <ocall_ioctl_ReadDiscKey+0x63e>
    417d:	31 ff                	xor    edi,edi
    417f:	e8 1c 80 00 00       	call   c1a0 <_Z7tracebrPv>
    4184:	48 8b 45 a8          	mov    rax,QWORD PTR [rbp-0x58]
    4188:	48 89 45 b8          	mov    QWORD PTR [rbp-0x48],rax
    418c:	48 8b 45 a8          	mov    rax,QWORD PTR [rbp-0x58]
    4190:	48 05 18 00 00 00    	add    rax,0x18
    4196:	48 89 45 a8          	mov    QWORD PTR [rbp-0x58],rax
    419a:	48 8b 45 b0          	mov    rax,QWORD PTR [rbp-0x50]
    419e:	48 2d 18 00 00 00    	sub    rax,0x18
    41a4:	48 89 45 b0          	mov    QWORD PTR [rbp-0x50],rax
    41a8:	8b 4d ec             	mov    ecx,DWORD PTR [rbp-0x14]
    41ab:	48 8b 45 b8          	mov    rax,QWORD PTR [rbp-0x48]
    41af:	89 48 04             	mov    DWORD PTR [rax+0x4],ecx
    41b2:	48 83 7d e0 00       	cmp    QWORD PTR [rbp-0x20],0x0
    41b7:	0f 84 11 01 00 00    	je     42ce <ocall_ioctl_ReadDiscKey+0x43e>
    41bd:	bf 01 00 00 00       	mov    edi,0x1
    41c2:	e8 d9 7f 00 00       	call   c1a0 <_Z7tracebrPv>
    41c7:	48 8b 45 a8          	mov    rax,QWORD PTR [rbp-0x58]
    41cb:	48 8b 4d b8          	mov    rcx,QWORD PTR [rbp-0x48]
    41cf:	48 89 41 08          	mov    QWORD PTR [rcx+0x8],rax
    41d3:	48 8b 45 c8          	mov    rax,QWORD PTR [rbp-0x38]
    41d7:	48 25 03 00 00 00    	and    rax,0x3
    41dd:	48 83 f8 00          	cmp    rax,0x0
    41e1:	0f 84 2a 00 00 00    	je     4211 <ocall_ioctl_ReadDiscKey+0x381>
    41e7:	bf 01 00 00 00       	mov    edi,0x1
    41ec:	e8 af 7f 00 00       	call   c1a0 <_Z7tracebrPv>
    41f1:	48 8d 05 68 83 00 00 	lea    rax,[rip+0x8368]        # c560 <sgx_ocfree>
    41f8:	48 89 c7             	mov    rdi,rax
    41fb:	e8 30 7c 00 00       	call   be30 <_Z10traceedgecPv>
    4200:	e8 5b 83 00 00       	call   c560 <sgx_ocfree>
    4205:	c7 45 fc 02 00 00 00 	mov    DWORD PTR [rbp-0x4],0x2
    420c:	e9 bd 02 00 00       	jmp    44ce <ocall_ioctl_ReadDiscKey+0x63e>
    4211:	31 ff                	xor    edi,edi
    4213:	e8 88 7f 00 00       	call   c1a0 <_Z7tracebrPv>
    4218:	48 8d 05 61 e4 00 00 	lea    rax,[rip+0xe461]        # 12680 <memcpy_s>
    421f:	48 8b 7d a8          	mov    rdi,QWORD PTR [rbp-0x58]
    4223:	48 8b 75 b0          	mov    rsi,QWORD PTR [rbp-0x50]
    4227:	48 8b 4d e0          	mov    rcx,QWORD PTR [rbp-0x20]
    422b:	48 8b 55 c8          	mov    rdx,QWORD PTR [rbp-0x38]
    422f:	48 89 bd 40 ff ff ff 	mov    QWORD PTR [rbp-0xc0],rdi
    4236:	48 89 c7             	mov    rdi,rax
    4239:	48 89 b5 38 ff ff ff 	mov    QWORD PTR [rbp-0xc8],rsi
    4240:	48 89 8d 30 ff ff ff 	mov    QWORD PTR [rbp-0xd0],rcx
    4247:	48 89 95 28 ff ff ff 	mov    QWORD PTR [rbp-0xd8],rdx
    424e:	e8 dd 7b 00 00       	call   be30 <_Z10traceedgecPv>
    4253:	48 8b bd 40 ff ff ff 	mov    rdi,QWORD PTR [rbp-0xc0]
    425a:	48 8b b5 38 ff ff ff 	mov    rsi,QWORD PTR [rbp-0xc8]
    4261:	48 8b 95 30 ff ff ff 	mov    rdx,QWORD PTR [rbp-0xd0]
    4268:	48 8b 8d 28 ff ff ff 	mov    rcx,QWORD PTR [rbp-0xd8]
    426f:	e8 0c e4 00 00       	call   12680 <memcpy_s>
    4274:	83 f8 00             	cmp    eax,0x0
    4277:	0f 84 2a 00 00 00    	je     42a7 <ocall_ioctl_ReadDiscKey+0x417>
    427d:	bf 01 00 00 00       	mov    edi,0x1
    4282:	e8 19 7f 00 00       	call   c1a0 <_Z7tracebrPv>
    4287:	48 8d 05 d2 82 00 00 	lea    rax,[rip+0x82d2]        # c560 <sgx_ocfree>
    428e:	48 89 c7             	mov    rdi,rax
    4291:	e8 9a 7b 00 00       	call   be30 <_Z10traceedgecPv>
    4296:	e8 c5 82 00 00       	call   c560 <sgx_ocfree>
    429b:	c7 45 fc 01 00 00 00 	mov    DWORD PTR [rbp-0x4],0x1
    42a2:	e9 27 02 00 00       	jmp    44ce <ocall_ioctl_ReadDiscKey+0x63e>
    42a7:	31 ff                	xor    edi,edi
    42a9:	e8 f2 7e 00 00       	call   c1a0 <_Z7tracebrPv>
    42ae:	48 8b 45 a8          	mov    rax,QWORD PTR [rbp-0x58]
    42b2:	48 03 45 c8          	add    rax,QWORD PTR [rbp-0x38]
    42b6:	48 89 45 a8          	mov    QWORD PTR [rbp-0x58],rax
    42ba:	48 8b 45 c8          	mov    rax,QWORD PTR [rbp-0x38]
    42be:	48 8b 4d b0          	mov    rcx,QWORD PTR [rbp-0x50]
    42c2:	48 29 c1             	sub    rcx,rax
    42c5:	48 89 4d b0          	mov    QWORD PTR [rbp-0x50],rcx
    42c9:	e9 13 00 00 00       	jmp    42e1 <ocall_ioctl_ReadDiscKey+0x451>
    42ce:	31 ff                	xor    edi,edi
    42d0:	e8 cb 7e 00 00       	call   c1a0 <_Z7tracebrPv>
    42d5:	48 8b 45 b8          	mov    rax,QWORD PTR [rbp-0x48]
    42d9:	48 c7 40 08 00 00 00 	mov    QWORD PTR [rax+0x8],0x0
    42e0:	00 
    42e1:	48 83 7d d8 00       	cmp    QWORD PTR [rbp-0x28],0x0
    42e6:	0f 84 92 00 00 00    	je     437e <ocall_ioctl_ReadDiscKey+0x4ee>
    42ec:	bf 01 00 00 00       	mov    edi,0x1
    42f1:	e8 aa 7e 00 00       	call   c1a0 <_Z7tracebrPv>
    42f6:	48 8b 45 a8          	mov    rax,QWORD PTR [rbp-0x58]
    42fa:	48 8b 4d b8          	mov    rcx,QWORD PTR [rbp-0x48]
    42fe:	48 89 41 10          	mov    QWORD PTR [rcx+0x10],rax
    4302:	48 8b 45 a8          	mov    rax,QWORD PTR [rbp-0x58]
    4306:	48 89 45 a0          	mov    QWORD PTR [rbp-0x60],rax
    430a:	48 8b 45 c0          	mov    rax,QWORD PTR [rbp-0x40]
    430e:	48 25 00 00 00 00    	and    rax,0x0
    4314:	48 83 f8 00          	cmp    rax,0x0
    4318:	0f 84 2a 00 00 00    	je     4348 <ocall_ioctl_ReadDiscKey+0x4b8>
    431e:	bf 01 00 00 00       	mov    edi,0x1
    4323:	e8 78 7e 00 00       	call   c1a0 <_Z7tracebrPv>
    4328:	48 8d 05 31 82 00 00 	lea    rax,[rip+0x8231]        # c560 <sgx_ocfree>
    432f:	48 89 c7             	mov    rdi,rax
    4332:	e8 f9 7a 00 00       	call   be30 <_Z10traceedgecPv>
    4337:	e8 24 82 00 00       	call   c560 <sgx_ocfree>
    433c:	c7 45 fc 02 00 00 00 	mov    DWORD PTR [rbp-0x4],0x2
    4343:	e9 86 01 00 00       	jmp    44ce <ocall_ioctl_ReadDiscKey+0x63e>
    4348:	31 ff                	xor    edi,edi
    434a:	e8 51 7e 00 00       	call   c1a0 <_Z7tracebrPv>
    434f:	31 f6                	xor    esi,esi
    4351:	48 8b 7d a0          	mov    rdi,QWORD PTR [rbp-0x60]
    4355:	48 8b 55 c0          	mov    rdx,QWORD PTR [rbp-0x40]
    4359:	e8 62 de 00 00       	call   121c0 <memset>
    435e:	48 8b 45 a8          	mov    rax,QWORD PTR [rbp-0x58]
    4362:	48 03 45 c0          	add    rax,QWORD PTR [rbp-0x40]
    4366:	48 89 45 a8          	mov    QWORD PTR [rbp-0x58],rax
    436a:	48 8b 45 c0          	mov    rax,QWORD PTR [rbp-0x40]
    436e:	48 8b 4d b0          	mov    rcx,QWORD PTR [rbp-0x50]
    4372:	48 29 c1             	sub    rcx,rax
    4375:	48 89 4d b0          	mov    QWORD PTR [rbp-0x50],rcx
    4379:	e9 13 00 00 00       	jmp    4391 <ocall_ioctl_ReadDiscKey+0x501>
    437e:	31 ff                	xor    edi,edi
    4380:	e8 1b 7e 00 00       	call   c1a0 <_Z7tracebrPv>
    4385:	48 8b 45 b8          	mov    rax,QWORD PTR [rbp-0x48]
    4389:	48 c7 40 10 00 00 00 	mov    QWORD PTR [rax+0x10],0x0
    4390:	00 
    4391:	48 8d 05 18 97 00 00 	lea    rax,[rip+0x9718]        # dab0 <sgx_ocall>
    4398:	48 8b 4d b8          	mov    rcx,QWORD PTR [rbp-0x48]
    439c:	48 89 c7             	mov    rdi,rax
    439f:	48 89 8d 20 ff ff ff 	mov    QWORD PTR [rbp-0xe0],rcx
    43a6:	e8 85 7a 00 00       	call   be30 <_Z10traceedgecPv>
    43ab:	bf 08 00 00 00       	mov    edi,0x8
    43b0:	48 8b b5 20 ff ff ff 	mov    rsi,QWORD PTR [rbp-0xe0]
    43b7:	e8 f4 96 00 00       	call   dab0 <sgx_ocall>
    43bc:	89 45 d4             	mov    DWORD PTR [rbp-0x2c],eax
    43bf:	83 7d d4 00          	cmp    DWORD PTR [rbp-0x2c],0x0
    43c3:	0f 85 e4 00 00 00    	jne    44ad <ocall_ioctl_ReadDiscKey+0x61d>
    43c9:	bf 01 00 00 00       	mov    edi,0x1
    43ce:	e8 cd 7d 00 00       	call   c1a0 <_Z7tracebrPv>
    43d3:	48 83 7d f0 00       	cmp    QWORD PTR [rbp-0x10],0x0
    43d8:	0f 84 16 00 00 00    	je     43f4 <ocall_ioctl_ReadDiscKey+0x564>
    43de:	bf 01 00 00 00       	mov    edi,0x1
    43e3:	e8 b8 7d 00 00       	call   c1a0 <_Z7tracebrPv>
    43e8:	48 8b 45 b8          	mov    rax,QWORD PTR [rbp-0x48]
    43ec:	8b 08                	mov    ecx,DWORD PTR [rax]
    43ee:	48 8b 45 f0          	mov    rax,QWORD PTR [rbp-0x10]
    43f2:	89 08                	mov    DWORD PTR [rax],ecx
    43f4:	31 ff                	xor    edi,edi
    43f6:	e8 a5 7d 00 00       	call   c1a0 <_Z7tracebrPv>
    43fb:	48 83 7d d8 00       	cmp    QWORD PTR [rbp-0x28],0x0
    4400:	0f 84 a0 00 00 00    	je     44a6 <ocall_ioctl_ReadDiscKey+0x616>
    4406:	bf 01 00 00 00       	mov    edi,0x1
    440b:	e8 90 7d 00 00       	call   c1a0 <_Z7tracebrPv>
    4410:	48 8d 05 69 e2 00 00 	lea    rax,[rip+0xe269]        # 12680 <memcpy_s>
    4417:	48 8b 7d d8          	mov    rdi,QWORD PTR [rbp-0x28]
    441b:	48 8b 75 c0          	mov    rsi,QWORD PTR [rbp-0x40]
    441f:	48 8b 55 a0          	mov    rdx,QWORD PTR [rbp-0x60]
    4423:	48 8b 4d c0          	mov    rcx,QWORD PTR [rbp-0x40]
    4427:	48 89 bd 18 ff ff ff 	mov    QWORD PTR [rbp-0xe8],rdi
    442e:	48 89 c7             	mov    rdi,rax
    4431:	48 89 b5 10 ff ff ff 	mov    QWORD PTR [rbp-0xf0],rsi
    4438:	48 89 95 08 ff ff ff 	mov    QWORD PTR [rbp-0xf8],rdx
    443f:	48 89 8d 00 ff ff ff 	mov    QWORD PTR [rbp-0x100],rcx
    4446:	e8 e5 79 00 00       	call   be30 <_Z10traceedgecPv>
    444b:	48 8b bd 18 ff ff ff 	mov    rdi,QWORD PTR [rbp-0xe8]
    4452:	48 8b b5 10 ff ff ff 	mov    rsi,QWORD PTR [rbp-0xf0]
    4459:	48 8b 95 08 ff ff ff 	mov    rdx,QWORD PTR [rbp-0xf8]
    4460:	48 8b 8d 00 ff ff ff 	mov    rcx,QWORD PTR [rbp-0x100]
    4467:	e8 14 e2 00 00       	call   12680 <memcpy_s>
    446c:	83 f8 00             	cmp    eax,0x0
    446f:	0f 84 2a 00 00 00    	je     449f <ocall_ioctl_ReadDiscKey+0x60f>
    4475:	bf 01 00 00 00       	mov    edi,0x1
    447a:	e8 21 7d 00 00       	call   c1a0 <_Z7tracebrPv>
    447f:	48 8d 05 da 80 00 00 	lea    rax,[rip+0x80da]        # c560 <sgx_ocfree>
    4486:	48 89 c7             	mov    rdi,rax
    4489:	e8 a2 79 00 00       	call   be30 <_Z10traceedgecPv>
    448e:	e8 cd 80 00 00       	call   c560 <sgx_ocfree>
    4493:	c7 45 fc 01 00 00 00 	mov    DWORD PTR [rbp-0x4],0x1
    449a:	e9 2f 00 00 00       	jmp    44ce <ocall_ioctl_ReadDiscKey+0x63e>
    449f:	31 ff                	xor    edi,edi
    44a1:	e8 fa 7c 00 00       	call   c1a0 <_Z7tracebrPv>
    44a6:	31 ff                	xor    edi,edi
    44a8:	e8 f3 7c 00 00       	call   c1a0 <_Z7tracebrPv>
    44ad:	31 ff                	xor    edi,edi
    44af:	e8 ec 7c 00 00       	call   c1a0 <_Z7tracebrPv>
    44b4:	48 8d 05 a5 80 00 00 	lea    rax,[rip+0x80a5]        # c560 <sgx_ocfree>
    44bb:	48 89 c7             	mov    rdi,rax
    44be:	e8 6d 79 00 00       	call   be30 <_Z10traceedgecPv>
    44c3:	e8 98 80 00 00       	call   c560 <sgx_ocfree>
    44c8:	8b 4d d4             	mov    ecx,DWORD PTR [rbp-0x2c]
    44cb:	89 4d fc             	mov    DWORD PTR [rbp-0x4],ecx
    44ce:	8b 45 fc             	mov    eax,DWORD PTR [rbp-0x4]
    44d1:	48 8b 7d 08          	mov    rdi,QWORD PTR [rbp+0x8]
    44d5:	89 85 fc fe ff ff    	mov    DWORD PTR [rbp-0x104],eax
    44db:	e8 50 79 00 00       	call   be30 <_Z10traceedgecPv>
    44e0:	8b 85 fc fe ff ff    	mov    eax,DWORD PTR [rbp-0x104]
    44e6:	48 81 c4 10 01 00 00 	add    rsp,0x110
    44ed:	5d                   	pop    rbp
    44ee:	c3                   	ret    
    44ef:	90                   	nop

00000000000044f0 <ocall_ioctl_ReportRPC>:
    44f0:	55                   	push   rbp
    44f1:	48 89 e5             	mov    rbp,rsp
    44f4:	48 81 ec 70 01 00 00 	sub    rsp,0x170
    44fb:	48 89 7d f0          	mov    QWORD PTR [rbp-0x10],rdi
    44ff:	89 75 ec             	mov    DWORD PTR [rbp-0x14],esi
    4502:	48 89 55 e0          	mov    QWORD PTR [rbp-0x20],rdx
    4506:	48 89 4d d8          	mov    QWORD PTR [rbp-0x28],rcx
    450a:	4c 89 45 d0          	mov    QWORD PTR [rbp-0x30],r8
    450e:	c7 45 cc 00 00 00 00 	mov    DWORD PTR [rbp-0x34],0x0
    4515:	48 c7 45 c0 04 00 00 	mov    QWORD PTR [rbp-0x40],0x4
    451c:	00 
    451d:	48 c7 45 b8 04 00 00 	mov    QWORD PTR [rbp-0x48],0x4
    4524:	00 
    4525:	48 c7 45 b0 04 00 00 	mov    QWORD PTR [rbp-0x50],0x4
    452c:	00 
    452d:	48 c7 45 a8 00 00 00 	mov    QWORD PTR [rbp-0x58],0x0
    4534:	00 
    4535:	48 c7 45 a0 20 00 00 	mov    QWORD PTR [rbp-0x60],0x20
    453c:	00 
    453d:	48 c7 45 98 00 00 00 	mov    QWORD PTR [rbp-0x68],0x0
    4544:	00 
    4545:	48 c7 45 90 00 00 00 	mov    QWORD PTR [rbp-0x70],0x0
    454c:	00 
    454d:	48 c7 45 88 00 00 00 	mov    QWORD PTR [rbp-0x78],0x0
    4554:	00 
    4555:	48 c7 45 80 00 00 00 	mov    QWORD PTR [rbp-0x80],0x0
    455c:	00 
    455d:	48 83 7d e0 00       	cmp    QWORD PTR [rbp-0x20],0x0
    4562:	0f 84 5e 00 00 00    	je     45c6 <ocall_ioctl_ReportRPC+0xd6>
    4568:	bf 01 00 00 00       	mov    edi,0x1
    456d:	e8 2e 7c 00 00       	call   c1a0 <_Z7tracebrPv>
    4572:	48 8d 05 57 7e 00 00 	lea    rax,[rip+0x7e57]        # c3d0 <sgx_is_within_enclave>
    4579:	48 8b 4d e0          	mov    rcx,QWORD PTR [rbp-0x20]
    457d:	48 8b 75 c0          	mov    rsi,QWORD PTR [rbp-0x40]
    4581:	48 89 c7             	mov    rdi,rax
    4584:	48 89 8d 78 ff ff ff 	mov    QWORD PTR [rbp-0x88],rcx
    458b:	48 89 b5 70 ff ff ff 	mov    QWORD PTR [rbp-0x90],rsi
    4592:	e8 99 78 00 00       	call   be30 <_Z10traceedgecPv>
    4597:	48 8b bd 78 ff ff ff 	mov    rdi,QWORD PTR [rbp-0x88]
    459e:	48 8b b5 70 ff ff ff 	mov    rsi,QWORD PTR [rbp-0x90]
    45a5:	e8 26 7e 00 00       	call   c3d0 <sgx_is_within_enclave>
    45aa:	83 f8 00             	cmp    eax,0x0
    45ad:	0f 85 13 00 00 00    	jne    45c6 <ocall_ioctl_ReportRPC+0xd6>
    45b3:	31 ff                	xor    edi,edi
    45b5:	e8 e6 7b 00 00       	call   c1a0 <_Z7tracebrPv>
    45ba:	c7 45 fc 02 00 00 00 	mov    DWORD PTR [rbp-0x4],0x2
    45c1:	e9 5e 08 00 00       	jmp    4e24 <ocall_ioctl_ReportRPC+0x934>
    45c6:	31 ff                	xor    edi,edi
    45c8:	e8 d3 7b 00 00       	call   c1a0 <_Z7tracebrPv>
    45cd:	e9 00 00 00 00       	jmp    45d2 <ocall_ioctl_ReportRPC+0xe2>
    45d2:	48 83 7d d8 00       	cmp    QWORD PTR [rbp-0x28],0x0
    45d7:	0f 84 5e 00 00 00    	je     463b <ocall_ioctl_ReportRPC+0x14b>
    45dd:	bf 01 00 00 00       	mov    edi,0x1
    45e2:	e8 b9 7b 00 00       	call   c1a0 <_Z7tracebrPv>
    45e7:	48 8d 05 e2 7d 00 00 	lea    rax,[rip+0x7de2]        # c3d0 <sgx_is_within_enclave>
    45ee:	48 8b 4d d8          	mov    rcx,QWORD PTR [rbp-0x28]
    45f2:	48 8b 75 b8          	mov    rsi,QWORD PTR [rbp-0x48]
    45f6:	48 89 c7             	mov    rdi,rax
    45f9:	48 89 8d 68 ff ff ff 	mov    QWORD PTR [rbp-0x98],rcx
    4600:	48 89 b5 60 ff ff ff 	mov    QWORD PTR [rbp-0xa0],rsi
    4607:	e8 24 78 00 00       	call   be30 <_Z10traceedgecPv>
    460c:	48 8b bd 68 ff ff ff 	mov    rdi,QWORD PTR [rbp-0x98]
    4613:	48 8b b5 60 ff ff ff 	mov    rsi,QWORD PTR [rbp-0xa0]
    461a:	e8 b1 7d 00 00       	call   c3d0 <sgx_is_within_enclave>
    461f:	83 f8 00             	cmp    eax,0x0
    4622:	0f 85 13 00 00 00    	jne    463b <ocall_ioctl_ReportRPC+0x14b>
    4628:	31 ff                	xor    edi,edi
    462a:	e8 71 7b 00 00       	call   c1a0 <_Z7tracebrPv>
    462f:	c7 45 fc 02 00 00 00 	mov    DWORD PTR [rbp-0x4],0x2
    4636:	e9 e9 07 00 00       	jmp    4e24 <ocall_ioctl_ReportRPC+0x934>
    463b:	31 ff                	xor    edi,edi
    463d:	e8 5e 7b 00 00       	call   c1a0 <_Z7tracebrPv>
    4642:	e9 00 00 00 00       	jmp    4647 <ocall_ioctl_ReportRPC+0x157>
    4647:	48 83 7d d0 00       	cmp    QWORD PTR [rbp-0x30],0x0
    464c:	0f 84 5e 00 00 00    	je     46b0 <ocall_ioctl_ReportRPC+0x1c0>
    4652:	bf 01 00 00 00       	mov    edi,0x1
    4657:	e8 44 7b 00 00       	call   c1a0 <_Z7tracebrPv>
    465c:	48 8d 05 6d 7d 00 00 	lea    rax,[rip+0x7d6d]        # c3d0 <sgx_is_within_enclave>
    4663:	48 8b 4d d0          	mov    rcx,QWORD PTR [rbp-0x30]
    4667:	48 8b 75 b0          	mov    rsi,QWORD PTR [rbp-0x50]
    466b:	48 89 c7             	mov    rdi,rax
    466e:	48 89 8d 58 ff ff ff 	mov    QWORD PTR [rbp-0xa8],rcx
    4675:	48 89 b5 50 ff ff ff 	mov    QWORD PTR [rbp-0xb0],rsi
    467c:	e8 af 77 00 00       	call   be30 <_Z10traceedgecPv>
    4681:	48 8b bd 58 ff ff ff 	mov    rdi,QWORD PTR [rbp-0xa8]
    4688:	48 8b b5 50 ff ff ff 	mov    rsi,QWORD PTR [rbp-0xb0]
    468f:	e8 3c 7d 00 00       	call   c3d0 <sgx_is_within_enclave>
    4694:	83 f8 00             	cmp    eax,0x0
    4697:	0f 85 13 00 00 00    	jne    46b0 <ocall_ioctl_ReportRPC+0x1c0>
    469d:	31 ff                	xor    edi,edi
    469f:	e8 fc 7a 00 00       	call   c1a0 <_Z7tracebrPv>
    46a4:	c7 45 fc 02 00 00 00 	mov    DWORD PTR [rbp-0x4],0x2
    46ab:	e9 74 07 00 00       	jmp    4e24 <ocall_ioctl_ReportRPC+0x934>
    46b0:	31 ff                	xor    edi,edi
    46b2:	e8 e9 7a 00 00       	call   c1a0 <_Z7tracebrPv>
    46b7:	48 83 7d e0 00       	cmp    QWORD PTR [rbp-0x20],0x0
    46bc:	0f 84 1a 00 00 00    	je     46dc <ocall_ioctl_ReportRPC+0x1ec>
    46c2:	bf 01 00 00 00       	mov    edi,0x1
    46c7:	e8 d4 7a 00 00       	call   c1a0 <_Z7tracebrPv>
    46cc:	48 8b 45 c0          	mov    rax,QWORD PTR [rbp-0x40]
    46d0:	48 89 85 48 ff ff ff 	mov    QWORD PTR [rbp-0xb8],rax
    46d7:	e9 12 00 00 00       	jmp    46ee <ocall_ioctl_ReportRPC+0x1fe>
    46dc:	31 ff                	xor    edi,edi
    46de:	e8 bd 7a 00 00       	call   c1a0 <_Z7tracebrPv>
    46e3:	31 c0                	xor    eax,eax
    46e5:	89 c1                	mov    ecx,eax
    46e7:	48 89 8d 48 ff ff ff 	mov    QWORD PTR [rbp-0xb8],rcx
    46ee:	48 8b 85 48 ff ff ff 	mov    rax,QWORD PTR [rbp-0xb8]
    46f5:	48 03 45 a0          	add    rax,QWORD PTR [rbp-0x60]
    46f9:	48 89 45 a0          	mov    QWORD PTR [rbp-0x60],rax
    46fd:	48 83 7d e0 00       	cmp    QWORD PTR [rbp-0x20],0x0
    4702:	48 89 85 40 ff ff ff 	mov    QWORD PTR [rbp-0xc0],rax
    4709:	0f 84 1a 00 00 00    	je     4729 <ocall_ioctl_ReportRPC+0x239>
    470f:	bf 01 00 00 00       	mov    edi,0x1
    4714:	e8 87 7a 00 00       	call   c1a0 <_Z7tracebrPv>
    4719:	48 8b 45 c0          	mov    rax,QWORD PTR [rbp-0x40]
    471d:	48 89 85 38 ff ff ff 	mov    QWORD PTR [rbp-0xc8],rax
    4724:	e9 12 00 00 00       	jmp    473b <ocall_ioctl_ReportRPC+0x24b>
    4729:	31 ff                	xor    edi,edi
    472b:	e8 70 7a 00 00       	call   c1a0 <_Z7tracebrPv>
    4730:	31 c0                	xor    eax,eax
    4732:	89 c1                	mov    ecx,eax
    4734:	48 89 8d 38 ff ff ff 	mov    QWORD PTR [rbp-0xc8],rcx
    473b:	48 8b 85 38 ff ff ff 	mov    rax,QWORD PTR [rbp-0xc8]
    4742:	48 8b 8d 40 ff ff ff 	mov    rcx,QWORD PTR [rbp-0xc0]
    4749:	48 39 c1             	cmp    rcx,rax
    474c:	0f 83 16 00 00 00    	jae    4768 <ocall_ioctl_ReportRPC+0x278>
    4752:	bf 01 00 00 00       	mov    edi,0x1
    4757:	e8 44 7a 00 00       	call   c1a0 <_Z7tracebrPv>
    475c:	c7 45 fc 02 00 00 00 	mov    DWORD PTR [rbp-0x4],0x2
    4763:	e9 bc 06 00 00       	jmp    4e24 <ocall_ioctl_ReportRPC+0x934>
    4768:	31 ff                	xor    edi,edi
    476a:	e8 31 7a 00 00       	call   c1a0 <_Z7tracebrPv>
    476f:	48 83 7d d8 00       	cmp    QWORD PTR [rbp-0x28],0x0
    4774:	0f 84 1a 00 00 00    	je     4794 <ocall_ioctl_ReportRPC+0x2a4>
    477a:	bf 01 00 00 00       	mov    edi,0x1
    477f:	e8 1c 7a 00 00       	call   c1a0 <_Z7tracebrPv>
    4784:	48 8b 45 b8          	mov    rax,QWORD PTR [rbp-0x48]
    4788:	48 89 85 30 ff ff ff 	mov    QWORD PTR [rbp-0xd0],rax
    478f:	e9 12 00 00 00       	jmp    47a6 <ocall_ioctl_ReportRPC+0x2b6>
    4794:	31 ff                	xor    edi,edi
    4796:	e8 05 7a 00 00       	call   c1a0 <_Z7tracebrPv>
    479b:	31 c0                	xor    eax,eax
    479d:	89 c1                	mov    ecx,eax
    479f:	48 89 8d 30 ff ff ff 	mov    QWORD PTR [rbp-0xd0],rcx
    47a6:	48 8b 85 30 ff ff ff 	mov    rax,QWORD PTR [rbp-0xd0]
    47ad:	48 03 45 a0          	add    rax,QWORD PTR [rbp-0x60]
    47b1:	48 89 45 a0          	mov    QWORD PTR [rbp-0x60],rax
    47b5:	48 83 7d d8 00       	cmp    QWORD PTR [rbp-0x28],0x0
    47ba:	48 89 85 28 ff ff ff 	mov    QWORD PTR [rbp-0xd8],rax
    47c1:	0f 84 1a 00 00 00    	je     47e1 <ocall_ioctl_ReportRPC+0x2f1>
    47c7:	bf 01 00 00 00       	mov    edi,0x1
    47cc:	e8 cf 79 00 00       	call   c1a0 <_Z7tracebrPv>
    47d1:	48 8b 45 b8          	mov    rax,QWORD PTR [rbp-0x48]
    47d5:	48 89 85 20 ff ff ff 	mov    QWORD PTR [rbp-0xe0],rax
    47dc:	e9 12 00 00 00       	jmp    47f3 <ocall_ioctl_ReportRPC+0x303>
    47e1:	31 ff                	xor    edi,edi
    47e3:	e8 b8 79 00 00       	call   c1a0 <_Z7tracebrPv>
    47e8:	31 c0                	xor    eax,eax
    47ea:	89 c1                	mov    ecx,eax
    47ec:	48 89 8d 20 ff ff ff 	mov    QWORD PTR [rbp-0xe0],rcx
    47f3:	48 8b 85 20 ff ff ff 	mov    rax,QWORD PTR [rbp-0xe0]
    47fa:	48 8b 8d 28 ff ff ff 	mov    rcx,QWORD PTR [rbp-0xd8]
    4801:	48 39 c1             	cmp    rcx,rax
    4804:	0f 83 16 00 00 00    	jae    4820 <ocall_ioctl_ReportRPC+0x330>
    480a:	bf 01 00 00 00       	mov    edi,0x1
    480f:	e8 8c 79 00 00       	call   c1a0 <_Z7tracebrPv>
    4814:	c7 45 fc 02 00 00 00 	mov    DWORD PTR [rbp-0x4],0x2
    481b:	e9 04 06 00 00       	jmp    4e24 <ocall_ioctl_ReportRPC+0x934>
    4820:	31 ff                	xor    edi,edi
    4822:	e8 79 79 00 00       	call   c1a0 <_Z7tracebrPv>
    4827:	48 83 7d d0 00       	cmp    QWORD PTR [rbp-0x30],0x0
    482c:	0f 84 1a 00 00 00    	je     484c <ocall_ioctl_ReportRPC+0x35c>
    4832:	bf 01 00 00 00       	mov    edi,0x1
    4837:	e8 64 79 00 00       	call   c1a0 <_Z7tracebrPv>
    483c:	48 8b 45 b0          	mov    rax,QWORD PTR [rbp-0x50]
    4840:	48 89 85 18 ff ff ff 	mov    QWORD PTR [rbp-0xe8],rax
    4847:	e9 12 00 00 00       	jmp    485e <ocall_ioctl_ReportRPC+0x36e>
    484c:	31 ff                	xor    edi,edi
    484e:	e8 4d 79 00 00       	call   c1a0 <_Z7tracebrPv>
    4853:	31 c0                	xor    eax,eax
    4855:	89 c1                	mov    ecx,eax
    4857:	48 89 8d 18 ff ff ff 	mov    QWORD PTR [rbp-0xe8],rcx
    485e:	48 8b 85 18 ff ff ff 	mov    rax,QWORD PTR [rbp-0xe8]
    4865:	48 03 45 a0          	add    rax,QWORD PTR [rbp-0x60]
    4869:	48 89 45 a0          	mov    QWORD PTR [rbp-0x60],rax
    486d:	48 83 7d d0 00       	cmp    QWORD PTR [rbp-0x30],0x0
    4872:	48 89 85 10 ff ff ff 	mov    QWORD PTR [rbp-0xf0],rax
    4879:	0f 84 1a 00 00 00    	je     4899 <ocall_ioctl_ReportRPC+0x3a9>
    487f:	bf 01 00 00 00       	mov    edi,0x1
    4884:	e8 17 79 00 00       	call   c1a0 <_Z7tracebrPv>
    4889:	48 8b 45 b0          	mov    rax,QWORD PTR [rbp-0x50]
    488d:	48 89 85 08 ff ff ff 	mov    QWORD PTR [rbp-0xf8],rax
    4894:	e9 12 00 00 00       	jmp    48ab <ocall_ioctl_ReportRPC+0x3bb>
    4899:	31 ff                	xor    edi,edi
    489b:	e8 00 79 00 00       	call   c1a0 <_Z7tracebrPv>
    48a0:	31 c0                	xor    eax,eax
    48a2:	89 c1                	mov    ecx,eax
    48a4:	48 89 8d 08 ff ff ff 	mov    QWORD PTR [rbp-0xf8],rcx
    48ab:	48 8b 85 08 ff ff ff 	mov    rax,QWORD PTR [rbp-0xf8]
    48b2:	48 8b 8d 10 ff ff ff 	mov    rcx,QWORD PTR [rbp-0xf0]
    48b9:	48 39 c1             	cmp    rcx,rax
    48bc:	0f 83 16 00 00 00    	jae    48d8 <ocall_ioctl_ReportRPC+0x3e8>
    48c2:	bf 01 00 00 00       	mov    edi,0x1
    48c7:	e8 d4 78 00 00       	call   c1a0 <_Z7tracebrPv>
    48cc:	c7 45 fc 02 00 00 00 	mov    DWORD PTR [rbp-0x4],0x2
    48d3:	e9 4c 05 00 00       	jmp    4e24 <ocall_ioctl_ReportRPC+0x934>
    48d8:	31 ff                	xor    edi,edi
    48da:	e8 c1 78 00 00       	call   c1a0 <_Z7tracebrPv>
    48df:	48 8d 05 8a 7b 00 00 	lea    rax,[rip+0x7b8a]        # c470 <sgx_ocalloc>
    48e6:	48 8b 7d a0          	mov    rdi,QWORD PTR [rbp-0x60]
    48ea:	48 89 bd 00 ff ff ff 	mov    QWORD PTR [rbp-0x100],rdi
    48f1:	48 89 c7             	mov    rdi,rax
    48f4:	e8 37 75 00 00       	call   be30 <_Z10traceedgecPv>
    48f9:	48 8b bd 00 ff ff ff 	mov    rdi,QWORD PTR [rbp-0x100]
    4900:	e8 6b 7b 00 00       	call   c470 <sgx_ocalloc>
    4905:	48 89 45 98          	mov    QWORD PTR [rbp-0x68],rax
    4909:	48 83 7d 98 00       	cmp    QWORD PTR [rbp-0x68],0x0
    490e:	0f 85 2a 00 00 00    	jne    493e <ocall_ioctl_ReportRPC+0x44e>
    4914:	bf 01 00 00 00       	mov    edi,0x1
    4919:	e8 82 78 00 00       	call   c1a0 <_Z7tracebrPv>
    491e:	48 8d 05 3b 7c 00 00 	lea    rax,[rip+0x7c3b]        # c560 <sgx_ocfree>
    4925:	48 89 c7             	mov    rdi,rax
    4928:	e8 03 75 00 00       	call   be30 <_Z10traceedgecPv>
    492d:	e8 2e 7c 00 00       	call   c560 <sgx_ocfree>
    4932:	c7 45 fc 01 00 00 00 	mov    DWORD PTR [rbp-0x4],0x1
    4939:	e9 e6 04 00 00       	jmp    4e24 <ocall_ioctl_ReportRPC+0x934>
    493e:	31 ff                	xor    edi,edi
    4940:	e8 5b 78 00 00       	call   c1a0 <_Z7tracebrPv>
    4945:	48 8b 45 98          	mov    rax,QWORD PTR [rbp-0x68]
    4949:	48 89 45 a8          	mov    QWORD PTR [rbp-0x58],rax
    494d:	48 8b 45 98          	mov    rax,QWORD PTR [rbp-0x68]
    4951:	48 05 20 00 00 00    	add    rax,0x20
    4957:	48 89 45 98          	mov    QWORD PTR [rbp-0x68],rax
    495b:	48 8b 45 a0          	mov    rax,QWORD PTR [rbp-0x60]
    495f:	48 2d 20 00 00 00    	sub    rax,0x20
    4965:	48 89 45 a0          	mov    QWORD PTR [rbp-0x60],rax
    4969:	8b 4d ec             	mov    ecx,DWORD PTR [rbp-0x14]
    496c:	48 8b 45 a8          	mov    rax,QWORD PTR [rbp-0x58]
    4970:	89 48 04             	mov    DWORD PTR [rax+0x4],ecx
    4973:	48 83 7d e0 00       	cmp    QWORD PTR [rbp-0x20],0x0
    4978:	0f 84 92 00 00 00    	je     4a10 <ocall_ioctl_ReportRPC+0x520>
    497e:	bf 01 00 00 00       	mov    edi,0x1
    4983:	e8 18 78 00 00       	call   c1a0 <_Z7tracebrPv>
    4988:	48 8b 45 98          	mov    rax,QWORD PTR [rbp-0x68]
    498c:	48 8b 4d a8          	mov    rcx,QWORD PTR [rbp-0x58]
    4990:	48 89 41 08          	mov    QWORD PTR [rcx+0x8],rax
    4994:	48 8b 45 98          	mov    rax,QWORD PTR [rbp-0x68]
    4998:	48 89 45 90          	mov    QWORD PTR [rbp-0x70],rax
    499c:	48 8b 45 c0          	mov    rax,QWORD PTR [rbp-0x40]
    49a0:	48 25 03 00 00 00    	and    rax,0x3
    49a6:	48 83 f8 00          	cmp    rax,0x0
    49aa:	0f 84 2a 00 00 00    	je     49da <ocall_ioctl_ReportRPC+0x4ea>
    49b0:	bf 01 00 00 00       	mov    edi,0x1
    49b5:	e8 e6 77 00 00       	call   c1a0 <_Z7tracebrPv>
    49ba:	48 8d 05 9f 7b 00 00 	lea    rax,[rip+0x7b9f]        # c560 <sgx_ocfree>
    49c1:	48 89 c7             	mov    rdi,rax
    49c4:	e8 67 74 00 00       	call   be30 <_Z10traceedgecPv>
    49c9:	e8 92 7b 00 00       	call   c560 <sgx_ocfree>
    49ce:	c7 45 fc 02 00 00 00 	mov    DWORD PTR [rbp-0x4],0x2
    49d5:	e9 4a 04 00 00       	jmp    4e24 <ocall_ioctl_ReportRPC+0x934>
    49da:	31 ff                	xor    edi,edi
    49dc:	e8 bf 77 00 00       	call   c1a0 <_Z7tracebrPv>
    49e1:	31 f6                	xor    esi,esi
    49e3:	48 8b 7d 90          	mov    rdi,QWORD PTR [rbp-0x70]
    49e7:	48 8b 55 c0          	mov    rdx,QWORD PTR [rbp-0x40]
    49eb:	e8 d0 d7 00 00       	call   121c0 <memset>
    49f0:	48 8b 45 98          	mov    rax,QWORD PTR [rbp-0x68]
    49f4:	48 03 45 c0          	add    rax,QWORD PTR [rbp-0x40]
    49f8:	48 89 45 98          	mov    QWORD PTR [rbp-0x68],rax
    49fc:	48 8b 45 c0          	mov    rax,QWORD PTR [rbp-0x40]
    4a00:	48 8b 4d a0          	mov    rcx,QWORD PTR [rbp-0x60]
    4a04:	48 29 c1             	sub    rcx,rax
    4a07:	48 89 4d a0          	mov    QWORD PTR [rbp-0x60],rcx
    4a0b:	e9 13 00 00 00       	jmp    4a23 <ocall_ioctl_ReportRPC+0x533>
    4a10:	31 ff                	xor    edi,edi
    4a12:	e8 89 77 00 00       	call   c1a0 <_Z7tracebrPv>
    4a17:	48 8b 45 a8          	mov    rax,QWORD PTR [rbp-0x58]
    4a1b:	48 c7 40 08 00 00 00 	mov    QWORD PTR [rax+0x8],0x0
    4a22:	00 
    4a23:	48 83 7d d8 00       	cmp    QWORD PTR [rbp-0x28],0x0
    4a28:	0f 84 92 00 00 00    	je     4ac0 <ocall_ioctl_ReportRPC+0x5d0>
    4a2e:	bf 01 00 00 00       	mov    edi,0x1
    4a33:	e8 68 77 00 00       	call   c1a0 <_Z7tracebrPv>
    4a38:	48 8b 45 98          	mov    rax,QWORD PTR [rbp-0x68]
    4a3c:	48 8b 4d a8          	mov    rcx,QWORD PTR [rbp-0x58]
    4a40:	48 89 41 10          	mov    QWORD PTR [rcx+0x10],rax
    4a44:	48 8b 45 98          	mov    rax,QWORD PTR [rbp-0x68]
    4a48:	48 89 45 88          	mov    QWORD PTR [rbp-0x78],rax
    4a4c:	48 8b 45 b8          	mov    rax,QWORD PTR [rbp-0x48]
    4a50:	48 25 03 00 00 00    	and    rax,0x3
    4a56:	48 83 f8 00          	cmp    rax,0x0
    4a5a:	0f 84 2a 00 00 00    	je     4a8a <ocall_ioctl_ReportRPC+0x59a>
    4a60:	bf 01 00 00 00       	mov    edi,0x1
    4a65:	e8 36 77 00 00       	call   c1a0 <_Z7tracebrPv>
    4a6a:	48 8d 05 ef 7a 00 00 	lea    rax,[rip+0x7aef]        # c560 <sgx_ocfree>
    4a71:	48 89 c7             	mov    rdi,rax
    4a74:	e8 b7 73 00 00       	call   be30 <_Z10traceedgecPv>
    4a79:	e8 e2 7a 00 00       	call   c560 <sgx_ocfree>
    4a7e:	c7 45 fc 02 00 00 00 	mov    DWORD PTR [rbp-0x4],0x2
    4a85:	e9 9a 03 00 00       	jmp    4e24 <ocall_ioctl_ReportRPC+0x934>
    4a8a:	31 ff                	xor    edi,edi
    4a8c:	e8 0f 77 00 00       	call   c1a0 <_Z7tracebrPv>
    4a91:	31 f6                	xor    esi,esi
    4a93:	48 8b 7d 88          	mov    rdi,QWORD PTR [rbp-0x78]
    4a97:	48 8b 55 b8          	mov    rdx,QWORD PTR [rbp-0x48]
    4a9b:	e8 20 d7 00 00       	call   121c0 <memset>
    4aa0:	48 8b 45 98          	mov    rax,QWORD PTR [rbp-0x68]
    4aa4:	48 03 45 b8          	add    rax,QWORD PTR [rbp-0x48]
    4aa8:	48 89 45 98          	mov    QWORD PTR [rbp-0x68],rax
    4aac:	48 8b 45 b8          	mov    rax,QWORD PTR [rbp-0x48]
    4ab0:	48 8b 4d a0          	mov    rcx,QWORD PTR [rbp-0x60]
    4ab4:	48 29 c1             	sub    rcx,rax
    4ab7:	48 89 4d a0          	mov    QWORD PTR [rbp-0x60],rcx
    4abb:	e9 13 00 00 00       	jmp    4ad3 <ocall_ioctl_ReportRPC+0x5e3>
    4ac0:	31 ff                	xor    edi,edi
    4ac2:	e8 d9 76 00 00       	call   c1a0 <_Z7tracebrPv>
    4ac7:	48 8b 45 a8          	mov    rax,QWORD PTR [rbp-0x58]
    4acb:	48 c7 40 10 00 00 00 	mov    QWORD PTR [rax+0x10],0x0
    4ad2:	00 
    4ad3:	48 83 7d d0 00       	cmp    QWORD PTR [rbp-0x30],0x0
    4ad8:	0f 84 92 00 00 00    	je     4b70 <ocall_ioctl_ReportRPC+0x680>
    4ade:	bf 01 00 00 00       	mov    edi,0x1
    4ae3:	e8 b8 76 00 00       	call   c1a0 <_Z7tracebrPv>
    4ae8:	48 8b 45 98          	mov    rax,QWORD PTR [rbp-0x68]
    4aec:	48 8b 4d a8          	mov    rcx,QWORD PTR [rbp-0x58]
    4af0:	48 89 41 18          	mov    QWORD PTR [rcx+0x18],rax
    4af4:	48 8b 45 98          	mov    rax,QWORD PTR [rbp-0x68]
    4af8:	48 89 45 80          	mov    QWORD PTR [rbp-0x80],rax
    4afc:	48 8b 45 b0          	mov    rax,QWORD PTR [rbp-0x50]
    4b00:	48 25 03 00 00 00    	and    rax,0x3
    4b06:	48 83 f8 00          	cmp    rax,0x0
    4b0a:	0f 84 2a 00 00 00    	je     4b3a <ocall_ioctl_ReportRPC+0x64a>
    4b10:	bf 01 00 00 00       	mov    edi,0x1
    4b15:	e8 86 76 00 00       	call   c1a0 <_Z7tracebrPv>
    4b1a:	48 8d 05 3f 7a 00 00 	lea    rax,[rip+0x7a3f]        # c560 <sgx_ocfree>
    4b21:	48 89 c7             	mov    rdi,rax
    4b24:	e8 07 73 00 00       	call   be30 <_Z10traceedgecPv>
    4b29:	e8 32 7a 00 00       	call   c560 <sgx_ocfree>
    4b2e:	c7 45 fc 02 00 00 00 	mov    DWORD PTR [rbp-0x4],0x2
    4b35:	e9 ea 02 00 00       	jmp    4e24 <ocall_ioctl_ReportRPC+0x934>
    4b3a:	31 ff                	xor    edi,edi
    4b3c:	e8 5f 76 00 00       	call   c1a0 <_Z7tracebrPv>
    4b41:	31 f6                	xor    esi,esi
    4b43:	48 8b 7d 80          	mov    rdi,QWORD PTR [rbp-0x80]
    4b47:	48 8b 55 b0          	mov    rdx,QWORD PTR [rbp-0x50]
    4b4b:	e8 70 d6 00 00       	call   121c0 <memset>
    4b50:	48 8b 45 98          	mov    rax,QWORD PTR [rbp-0x68]
    4b54:	48 03 45 b0          	add    rax,QWORD PTR [rbp-0x50]
    4b58:	48 89 45 98          	mov    QWORD PTR [rbp-0x68],rax
    4b5c:	48 8b 45 b0          	mov    rax,QWORD PTR [rbp-0x50]
    4b60:	48 8b 4d a0          	mov    rcx,QWORD PTR [rbp-0x60]
    4b64:	48 29 c1             	sub    rcx,rax
    4b67:	48 89 4d a0          	mov    QWORD PTR [rbp-0x60],rcx
    4b6b:	e9 13 00 00 00       	jmp    4b83 <ocall_ioctl_ReportRPC+0x693>
    4b70:	31 ff                	xor    edi,edi
    4b72:	e8 29 76 00 00       	call   c1a0 <_Z7tracebrPv>
    4b77:	48 8b 45 a8          	mov    rax,QWORD PTR [rbp-0x58]
    4b7b:	48 c7 40 18 00 00 00 	mov    QWORD PTR [rax+0x18],0x0
    4b82:	00 
    4b83:	48 8d 05 26 8f 00 00 	lea    rax,[rip+0x8f26]        # dab0 <sgx_ocall>
    4b8a:	48 8b 4d a8          	mov    rcx,QWORD PTR [rbp-0x58]
    4b8e:	48 89 c7             	mov    rdi,rax
    4b91:	48 89 8d f8 fe ff ff 	mov    QWORD PTR [rbp-0x108],rcx
    4b98:	e8 93 72 00 00       	call   be30 <_Z10traceedgecPv>
    4b9d:	bf 09 00 00 00       	mov    edi,0x9
    4ba2:	48 8b b5 f8 fe ff ff 	mov    rsi,QWORD PTR [rbp-0x108]
    4ba9:	e8 02 8f 00 00       	call   dab0 <sgx_ocall>
    4bae:	89 45 cc             	mov    DWORD PTR [rbp-0x34],eax
    4bb1:	83 7d cc 00          	cmp    DWORD PTR [rbp-0x34],0x0
    4bb5:	0f 85 48 02 00 00    	jne    4e03 <ocall_ioctl_ReportRPC+0x913>
    4bbb:	bf 01 00 00 00       	mov    edi,0x1
    4bc0:	e8 db 75 00 00       	call   c1a0 <_Z7tracebrPv>
    4bc5:	48 83 7d f0 00       	cmp    QWORD PTR [rbp-0x10],0x0
    4bca:	0f 84 16 00 00 00    	je     4be6 <ocall_ioctl_ReportRPC+0x6f6>
    4bd0:	bf 01 00 00 00       	mov    edi,0x1
    4bd5:	e8 c6 75 00 00       	call   c1a0 <_Z7tracebrPv>
    4bda:	48 8b 45 a8          	mov    rax,QWORD PTR [rbp-0x58]
    4bde:	8b 08                	mov    ecx,DWORD PTR [rax]
    4be0:	48 8b 45 f0          	mov    rax,QWORD PTR [rbp-0x10]
    4be4:	89 08                	mov    DWORD PTR [rax],ecx
    4be6:	31 ff                	xor    edi,edi
    4be8:	e8 b3 75 00 00       	call   c1a0 <_Z7tracebrPv>
    4bed:	48 83 7d e0 00       	cmp    QWORD PTR [rbp-0x20],0x0
    4bf2:	0f 84 a0 00 00 00    	je     4c98 <ocall_ioctl_ReportRPC+0x7a8>
    4bf8:	bf 01 00 00 00       	mov    edi,0x1
    4bfd:	e8 9e 75 00 00       	call   c1a0 <_Z7tracebrPv>
    4c02:	48 8d 05 77 da 00 00 	lea    rax,[rip+0xda77]        # 12680 <memcpy_s>
    4c09:	48 8b 4d e0          	mov    rcx,QWORD PTR [rbp-0x20]
    4c0d:	48 8b 75 c0          	mov    rsi,QWORD PTR [rbp-0x40]
    4c11:	48 8b 55 90          	mov    rdx,QWORD PTR [rbp-0x70]
    4c15:	4c 8b 45 c0          	mov    r8,QWORD PTR [rbp-0x40]
    4c19:	48 89 c7             	mov    rdi,rax
    4c1c:	48 89 8d f0 fe ff ff 	mov    QWORD PTR [rbp-0x110],rcx
    4c23:	48 89 b5 e8 fe ff ff 	mov    QWORD PTR [rbp-0x118],rsi
    4c2a:	48 89 95 e0 fe ff ff 	mov    QWORD PTR [rbp-0x120],rdx
    4c31:	4c 89 85 d8 fe ff ff 	mov    QWORD PTR [rbp-0x128],r8
    4c38:	e8 f3 71 00 00       	call   be30 <_Z10traceedgecPv>
    4c3d:	48 8b bd f0 fe ff ff 	mov    rdi,QWORD PTR [rbp-0x110]
    4c44:	48 8b b5 e8 fe ff ff 	mov    rsi,QWORD PTR [rbp-0x118]
    4c4b:	48 8b 95 e0 fe ff ff 	mov    rdx,QWORD PTR [rbp-0x120]
    4c52:	48 8b 8d d8 fe ff ff 	mov    rcx,QWORD PTR [rbp-0x128]
    4c59:	e8 22 da 00 00       	call   12680 <memcpy_s>
    4c5e:	83 f8 00             	cmp    eax,0x0
    4c61:	0f 84 2a 00 00 00    	je     4c91 <ocall_ioctl_ReportRPC+0x7a1>
    4c67:	bf 01 00 00 00       	mov    edi,0x1
    4c6c:	e8 2f 75 00 00       	call   c1a0 <_Z7tracebrPv>
    4c71:	48 8d 05 e8 78 00 00 	lea    rax,[rip+0x78e8]        # c560 <sgx_ocfree>
    4c78:	48 89 c7             	mov    rdi,rax
    4c7b:	e8 b0 71 00 00       	call   be30 <_Z10traceedgecPv>
    4c80:	e8 db 78 00 00       	call   c560 <sgx_ocfree>
    4c85:	c7 45 fc 01 00 00 00 	mov    DWORD PTR [rbp-0x4],0x1
    4c8c:	e9 93 01 00 00       	jmp    4e24 <ocall_ioctl_ReportRPC+0x934>
    4c91:	31 ff                	xor    edi,edi
    4c93:	e8 08 75 00 00       	call   c1a0 <_Z7tracebrPv>
    4c98:	31 ff                	xor    edi,edi
    4c9a:	e8 01 75 00 00       	call   c1a0 <_Z7tracebrPv>
    4c9f:	48 83 7d d8 00       	cmp    QWORD PTR [rbp-0x28],0x0
    4ca4:	0f 84 a0 00 00 00    	je     4d4a <ocall_ioctl_ReportRPC+0x85a>
    4caa:	bf 01 00 00 00       	mov    edi,0x1
    4caf:	e8 ec 74 00 00       	call   c1a0 <_Z7tracebrPv>
    4cb4:	48 8d 05 c5 d9 00 00 	lea    rax,[rip+0xd9c5]        # 12680 <memcpy_s>
    4cbb:	48 8b 4d d8          	mov    rcx,QWORD PTR [rbp-0x28]
    4cbf:	48 8b 75 b8          	mov    rsi,QWORD PTR [rbp-0x48]
    4cc3:	48 8b 55 88          	mov    rdx,QWORD PTR [rbp-0x78]
    4cc7:	4c 8b 45 b8          	mov    r8,QWORD PTR [rbp-0x48]
    4ccb:	48 89 c7             	mov    rdi,rax
    4cce:	48 89 8d d0 fe ff ff 	mov    QWORD PTR [rbp-0x130],rcx
    4cd5:	48 89 b5 c8 fe ff ff 	mov    QWORD PTR [rbp-0x138],rsi
    4cdc:	48 89 95 c0 fe ff ff 	mov    QWORD PTR [rbp-0x140],rdx
    4ce3:	4c 89 85 b8 fe ff ff 	mov    QWORD PTR [rbp-0x148],r8
    4cea:	e8 41 71 00 00       	call   be30 <_Z10traceedgecPv>
    4cef:	48 8b bd d0 fe ff ff 	mov    rdi,QWORD PTR [rbp-0x130]
    4cf6:	48 8b b5 c8 fe ff ff 	mov    rsi,QWORD PTR [rbp-0x138]
    4cfd:	48 8b 95 c0 fe ff ff 	mov    rdx,QWORD PTR [rbp-0x140]
    4d04:	48 8b 8d b8 fe ff ff 	mov    rcx,QWORD PTR [rbp-0x148]
    4d0b:	e8 70 d9 00 00       	call   12680 <memcpy_s>
    4d10:	83 f8 00             	cmp    eax,0x0
    4d13:	0f 84 2a 00 00 00    	je     4d43 <ocall_ioctl_ReportRPC+0x853>
    4d19:	bf 01 00 00 00       	mov    edi,0x1
    4d1e:	e8 7d 74 00 00       	call   c1a0 <_Z7tracebrPv>
    4d23:	48 8d 05 36 78 00 00 	lea    rax,[rip+0x7836]        # c560 <sgx_ocfree>
    4d2a:	48 89 c7             	mov    rdi,rax
    4d2d:	e8 fe 70 00 00       	call   be30 <_Z10traceedgecPv>
    4d32:	e8 29 78 00 00       	call   c560 <sgx_ocfree>
    4d37:	c7 45 fc 01 00 00 00 	mov    DWORD PTR [rbp-0x4],0x1
    4d3e:	e9 e1 00 00 00       	jmp    4e24 <ocall_ioctl_ReportRPC+0x934>
    4d43:	31 ff                	xor    edi,edi
    4d45:	e8 56 74 00 00       	call   c1a0 <_Z7tracebrPv>
    4d4a:	31 ff                	xor    edi,edi
    4d4c:	e8 4f 74 00 00       	call   c1a0 <_Z7tracebrPv>
    4d51:	48 83 7d d0 00       	cmp    QWORD PTR [rbp-0x30],0x0
    4d56:	0f 84 a0 00 00 00    	je     4dfc <ocall_ioctl_ReportRPC+0x90c>
    4d5c:	bf 01 00 00 00       	mov    edi,0x1
    4d61:	e8 3a 74 00 00       	call   c1a0 <_Z7tracebrPv>
    4d66:	48 8d 05 13 d9 00 00 	lea    rax,[rip+0xd913]        # 12680 <memcpy_s>
    4d6d:	48 8b 4d d0          	mov    rcx,QWORD PTR [rbp-0x30]
    4d71:	48 8b 75 b0          	mov    rsi,QWORD PTR [rbp-0x50]
    4d75:	48 8b 55 80          	mov    rdx,QWORD PTR [rbp-0x80]
    4d79:	4c 8b 45 b0          	mov    r8,QWORD PTR [rbp-0x50]
    4d7d:	48 89 c7             	mov    rdi,rax
    4d80:	48 89 8d b0 fe ff ff 	mov    QWORD PTR [rbp-0x150],rcx
    4d87:	48 89 b5 a8 fe ff ff 	mov    QWORD PTR [rbp-0x158],rsi
    4d8e:	48 89 95 a0 fe ff ff 	mov    QWORD PTR [rbp-0x160],rdx
    4d95:	4c 89 85 98 fe ff ff 	mov    QWORD PTR [rbp-0x168],r8
    4d9c:	e8 8f 70 00 00       	call   be30 <_Z10traceedgecPv>
    4da1:	48 8b bd b0 fe ff ff 	mov    rdi,QWORD PTR [rbp-0x150]
    4da8:	48 8b b5 a8 fe ff ff 	mov    rsi,QWORD PTR [rbp-0x158]
    4daf:	48 8b 95 a0 fe ff ff 	mov    rdx,QWORD PTR [rbp-0x160]
    4db6:	48 8b 8d 98 fe ff ff 	mov    rcx,QWORD PTR [rbp-0x168]
    4dbd:	e8 be d8 00 00       	call   12680 <memcpy_s>
    4dc2:	83 f8 00             	cmp    eax,0x0
    4dc5:	0f 84 2a 00 00 00    	je     4df5 <ocall_ioctl_ReportRPC+0x905>
    4dcb:	bf 01 00 00 00       	mov    edi,0x1
    4dd0:	e8 cb 73 00 00       	call   c1a0 <_Z7tracebrPv>
    4dd5:	48 8d 05 84 77 00 00 	lea    rax,[rip+0x7784]        # c560 <sgx_ocfree>
    4ddc:	48 89 c7             	mov    rdi,rax
    4ddf:	e8 4c 70 00 00       	call   be30 <_Z10traceedgecPv>
    4de4:	e8 77 77 00 00       	call   c560 <sgx_ocfree>
    4de9:	c7 45 fc 01 00 00 00 	mov    DWORD PTR [rbp-0x4],0x1
    4df0:	e9 2f 00 00 00       	jmp    4e24 <ocall_ioctl_ReportRPC+0x934>
    4df5:	31 ff                	xor    edi,edi
    4df7:	e8 a4 73 00 00       	call   c1a0 <_Z7tracebrPv>
    4dfc:	31 ff                	xor    edi,edi
    4dfe:	e8 9d 73 00 00       	call   c1a0 <_Z7tracebrPv>
    4e03:	31 ff                	xor    edi,edi
    4e05:	e8 96 73 00 00       	call   c1a0 <_Z7tracebrPv>
    4e0a:	48 8d 05 4f 77 00 00 	lea    rax,[rip+0x774f]        # c560 <sgx_ocfree>
    4e11:	48 89 c7             	mov    rdi,rax
    4e14:	e8 17 70 00 00       	call   be30 <_Z10traceedgecPv>
    4e19:	e8 42 77 00 00       	call   c560 <sgx_ocfree>
    4e1e:	8b 4d cc             	mov    ecx,DWORD PTR [rbp-0x34]
    4e21:	89 4d fc             	mov    DWORD PTR [rbp-0x4],ecx
    4e24:	8b 45 fc             	mov    eax,DWORD PTR [rbp-0x4]
    4e27:	48 8b 7d 08          	mov    rdi,QWORD PTR [rbp+0x8]
    4e2b:	89 85 94 fe ff ff    	mov    DWORD PTR [rbp-0x16c],eax
    4e31:	e8 fa 6f 00 00       	call   be30 <_Z10traceedgecPv>
    4e36:	8b 85 94 fe ff ff    	mov    eax,DWORD PTR [rbp-0x16c]
    4e3c:	48 81 c4 70 01 00 00 	add    rsp,0x170
    4e43:	5d                   	pop    rbp
    4e44:	c3                   	ret    
    4e45:	66 2e 0f 1f 84 00 00 	nop    WORD PTR cs:[rax+rax*1+0x0]
    4e4c:	00 00 00 
    4e4f:	90                   	nop

0000000000004e50 <ocall_ioctl_ReadCopyright>:
    4e50:	55                   	push   rbp
    4e51:	48 89 e5             	mov    rbp,rsp
    4e54:	48 81 ec b0 00 00 00 	sub    rsp,0xb0
    4e5b:	48 89 7d f0          	mov    QWORD PTR [rbp-0x10],rdi
    4e5f:	89 75 ec             	mov    DWORD PTR [rbp-0x14],esi
    4e62:	89 55 e8             	mov    DWORD PTR [rbp-0x18],edx
    4e65:	48 89 4d e0          	mov    QWORD PTR [rbp-0x20],rcx
    4e69:	c7 45 dc 00 00 00 00 	mov    DWORD PTR [rbp-0x24],0x0
    4e70:	48 c7 45 d0 04 00 00 	mov    QWORD PTR [rbp-0x30],0x4
    4e77:	00 
    4e78:	48 c7 45 c8 00 00 00 	mov    QWORD PTR [rbp-0x38],0x0
    4e7f:	00 
    4e80:	48 c7 45 c0 18 00 00 	mov    QWORD PTR [rbp-0x40],0x18
    4e87:	00 
    4e88:	48 c7 45 b8 00 00 00 	mov    QWORD PTR [rbp-0x48],0x0
    4e8f:	00 
    4e90:	48 c7 45 b0 00 00 00 	mov    QWORD PTR [rbp-0x50],0x0
    4e97:	00 
    4e98:	48 83 7d e0 00       	cmp    QWORD PTR [rbp-0x20],0x0
    4e9d:	0f 84 52 00 00 00    	je     4ef5 <ocall_ioctl_ReadCopyright+0xa5>
    4ea3:	bf 01 00 00 00       	mov    edi,0x1
    4ea8:	e8 f3 72 00 00       	call   c1a0 <_Z7tracebrPv>
    4ead:	48 8d 05 1c 75 00 00 	lea    rax,[rip+0x751c]        # c3d0 <sgx_is_within_enclave>
    4eb4:	48 8b 4d e0          	mov    rcx,QWORD PTR [rbp-0x20]
    4eb8:	48 8b 75 d0          	mov    rsi,QWORD PTR [rbp-0x30]
    4ebc:	48 89 c7             	mov    rdi,rax
    4ebf:	48 89 4d a8          	mov    QWORD PTR [rbp-0x58],rcx
    4ec3:	48 89 75 a0          	mov    QWORD PTR [rbp-0x60],rsi
    4ec7:	e8 64 6f 00 00       	call   be30 <_Z10traceedgecPv>
    4ecc:	48 8b 7d a8          	mov    rdi,QWORD PTR [rbp-0x58]
    4ed0:	48 8b 75 a0          	mov    rsi,QWORD PTR [rbp-0x60]
    4ed4:	e8 f7 74 00 00       	call   c3d0 <sgx_is_within_enclave>
    4ed9:	83 f8 00             	cmp    eax,0x0
    4edc:	0f 85 13 00 00 00    	jne    4ef5 <ocall_ioctl_ReadCopyright+0xa5>
    4ee2:	31 ff                	xor    edi,edi
    4ee4:	e8 b7 72 00 00       	call   c1a0 <_Z7tracebrPv>
    4ee9:	c7 45 fc 02 00 00 00 	mov    DWORD PTR [rbp-0x4],0x2
    4ef0:	e9 2c 03 00 00       	jmp    5221 <ocall_ioctl_ReadCopyright+0x3d1>
    4ef5:	31 ff                	xor    edi,edi
    4ef7:	e8 a4 72 00 00       	call   c1a0 <_Z7tracebrPv>
    4efc:	48 83 7d e0 00       	cmp    QWORD PTR [rbp-0x20],0x0
    4f01:	0f 84 17 00 00 00    	je     4f1e <ocall_ioctl_ReadCopyright+0xce>
    4f07:	bf 01 00 00 00       	mov    edi,0x1
    4f0c:	e8 8f 72 00 00       	call   c1a0 <_Z7tracebrPv>
    4f11:	48 8b 45 d0          	mov    rax,QWORD PTR [rbp-0x30]
    4f15:	48 89 45 98          	mov    QWORD PTR [rbp-0x68],rax
    4f19:	e9 0f 00 00 00       	jmp    4f2d <ocall_ioctl_ReadCopyright+0xdd>
    4f1e:	31 ff                	xor    edi,edi
    4f20:	e8 7b 72 00 00       	call   c1a0 <_Z7tracebrPv>
    4f25:	31 c0                	xor    eax,eax
    4f27:	89 c1                	mov    ecx,eax
    4f29:	48 89 4d 98          	mov    QWORD PTR [rbp-0x68],rcx
    4f2d:	48 8b 45 98          	mov    rax,QWORD PTR [rbp-0x68]
    4f31:	48 03 45 c0          	add    rax,QWORD PTR [rbp-0x40]
    4f35:	48 89 45 c0          	mov    QWORD PTR [rbp-0x40],rax
    4f39:	48 83 7d e0 00       	cmp    QWORD PTR [rbp-0x20],0x0
    4f3e:	48 89 45 90          	mov    QWORD PTR [rbp-0x70],rax
    4f42:	0f 84 17 00 00 00    	je     4f5f <ocall_ioctl_ReadCopyright+0x10f>
    4f48:	bf 01 00 00 00       	mov    edi,0x1
    4f4d:	e8 4e 72 00 00       	call   c1a0 <_Z7tracebrPv>
    4f52:	48 8b 45 d0          	mov    rax,QWORD PTR [rbp-0x30]
    4f56:	48 89 45 88          	mov    QWORD PTR [rbp-0x78],rax
    4f5a:	e9 0f 00 00 00       	jmp    4f6e <ocall_ioctl_ReadCopyright+0x11e>
    4f5f:	31 ff                	xor    edi,edi
    4f61:	e8 3a 72 00 00       	call   c1a0 <_Z7tracebrPv>
    4f66:	31 c0                	xor    eax,eax
    4f68:	89 c1                	mov    ecx,eax
    4f6a:	48 89 4d 88          	mov    QWORD PTR [rbp-0x78],rcx
    4f6e:	48 8b 45 88          	mov    rax,QWORD PTR [rbp-0x78]
    4f72:	48 8b 4d 90          	mov    rcx,QWORD PTR [rbp-0x70]
    4f76:	48 39 c1             	cmp    rcx,rax
    4f79:	0f 83 16 00 00 00    	jae    4f95 <ocall_ioctl_ReadCopyright+0x145>
    4f7f:	bf 01 00 00 00       	mov    edi,0x1
    4f84:	e8 17 72 00 00       	call   c1a0 <_Z7tracebrPv>
    4f89:	c7 45 fc 02 00 00 00 	mov    DWORD PTR [rbp-0x4],0x2
    4f90:	e9 8c 02 00 00       	jmp    5221 <ocall_ioctl_ReadCopyright+0x3d1>
    4f95:	31 ff                	xor    edi,edi
    4f97:	e8 04 72 00 00       	call   c1a0 <_Z7tracebrPv>
    4f9c:	48 8d 05 cd 74 00 00 	lea    rax,[rip+0x74cd]        # c470 <sgx_ocalloc>
    4fa3:	48 8b 7d c0          	mov    rdi,QWORD PTR [rbp-0x40]
    4fa7:	48 89 7d 80          	mov    QWORD PTR [rbp-0x80],rdi
    4fab:	48 89 c7             	mov    rdi,rax
    4fae:	e8 7d 6e 00 00       	call   be30 <_Z10traceedgecPv>
    4fb3:	48 8b 7d 80          	mov    rdi,QWORD PTR [rbp-0x80]
    4fb7:	e8 b4 74 00 00       	call   c470 <sgx_ocalloc>
    4fbc:	48 89 45 b8          	mov    QWORD PTR [rbp-0x48],rax
    4fc0:	48 83 7d b8 00       	cmp    QWORD PTR [rbp-0x48],0x0
    4fc5:	0f 85 2a 00 00 00    	jne    4ff5 <ocall_ioctl_ReadCopyright+0x1a5>
    4fcb:	bf 01 00 00 00       	mov    edi,0x1
    4fd0:	e8 cb 71 00 00       	call   c1a0 <_Z7tracebrPv>
    4fd5:	48 8d 05 84 75 00 00 	lea    rax,[rip+0x7584]        # c560 <sgx_ocfree>
    4fdc:	48 89 c7             	mov    rdi,rax
    4fdf:	e8 4c 6e 00 00       	call   be30 <_Z10traceedgecPv>
    4fe4:	e8 77 75 00 00       	call   c560 <sgx_ocfree>
    4fe9:	c7 45 fc 01 00 00 00 	mov    DWORD PTR [rbp-0x4],0x1
    4ff0:	e9 2c 02 00 00       	jmp    5221 <ocall_ioctl_ReadCopyright+0x3d1>
    4ff5:	31 ff                	xor    edi,edi
    4ff7:	e8 a4 71 00 00       	call   c1a0 <_Z7tracebrPv>
    4ffc:	48 8b 45 b8          	mov    rax,QWORD PTR [rbp-0x48]
    5000:	48 89 45 c8          	mov    QWORD PTR [rbp-0x38],rax
    5004:	48 8b 45 b8          	mov    rax,QWORD PTR [rbp-0x48]
    5008:	48 05 18 00 00 00    	add    rax,0x18
    500e:	48 89 45 b8          	mov    QWORD PTR [rbp-0x48],rax
    5012:	48 8b 45 c0          	mov    rax,QWORD PTR [rbp-0x40]
    5016:	48 2d 18 00 00 00    	sub    rax,0x18
    501c:	48 89 45 c0          	mov    QWORD PTR [rbp-0x40],rax
    5020:	8b 4d ec             	mov    ecx,DWORD PTR [rbp-0x14]
    5023:	48 8b 45 c8          	mov    rax,QWORD PTR [rbp-0x38]
    5027:	89 48 04             	mov    DWORD PTR [rax+0x4],ecx
    502a:	8b 4d e8             	mov    ecx,DWORD PTR [rbp-0x18]
    502d:	48 8b 45 c8          	mov    rax,QWORD PTR [rbp-0x38]
    5031:	89 48 08             	mov    DWORD PTR [rax+0x8],ecx
    5034:	48 83 7d e0 00       	cmp    QWORD PTR [rbp-0x20],0x0
    5039:	0f 84 92 00 00 00    	je     50d1 <ocall_ioctl_ReadCopyright+0x281>
    503f:	bf 01 00 00 00       	mov    edi,0x1
    5044:	e8 57 71 00 00       	call   c1a0 <_Z7tracebrPv>
    5049:	48 8b 45 b8          	mov    rax,QWORD PTR [rbp-0x48]
    504d:	48 8b 4d c8          	mov    rcx,QWORD PTR [rbp-0x38]
    5051:	48 89 41 10          	mov    QWORD PTR [rcx+0x10],rax
    5055:	48 8b 45 b8          	mov    rax,QWORD PTR [rbp-0x48]
    5059:	48 89 45 b0          	mov    QWORD PTR [rbp-0x50],rax
    505d:	48 8b 45 d0          	mov    rax,QWORD PTR [rbp-0x30]
    5061:	48 25 03 00 00 00    	and    rax,0x3
    5067:	48 83 f8 00          	cmp    rax,0x0
    506b:	0f 84 2a 00 00 00    	je     509b <ocall_ioctl_ReadCopyright+0x24b>
    5071:	bf 01 00 00 00       	mov    edi,0x1
    5076:	e8 25 71 00 00       	call   c1a0 <_Z7tracebrPv>
    507b:	48 8d 05 de 74 00 00 	lea    rax,[rip+0x74de]        # c560 <sgx_ocfree>
    5082:	48 89 c7             	mov    rdi,rax
    5085:	e8 a6 6d 00 00       	call   be30 <_Z10traceedgecPv>
    508a:	e8 d1 74 00 00       	call   c560 <sgx_ocfree>
    508f:	c7 45 fc 02 00 00 00 	mov    DWORD PTR [rbp-0x4],0x2
    5096:	e9 86 01 00 00       	jmp    5221 <ocall_ioctl_ReadCopyright+0x3d1>
    509b:	31 ff                	xor    edi,edi
    509d:	e8 fe 70 00 00       	call   c1a0 <_Z7tracebrPv>
    50a2:	31 f6                	xor    esi,esi
    50a4:	48 8b 7d b0          	mov    rdi,QWORD PTR [rbp-0x50]
    50a8:	48 8b 55 d0          	mov    rdx,QWORD PTR [rbp-0x30]
    50ac:	e8 0f d1 00 00       	call   121c0 <memset>
    50b1:	48 8b 45 b8          	mov    rax,QWORD PTR [rbp-0x48]
    50b5:	48 03 45 d0          	add    rax,QWORD PTR [rbp-0x30]
    50b9:	48 89 45 b8          	mov    QWORD PTR [rbp-0x48],rax
    50bd:	48 8b 45 d0          	mov    rax,QWORD PTR [rbp-0x30]
    50c1:	48 8b 4d c0          	mov    rcx,QWORD PTR [rbp-0x40]
    50c5:	48 29 c1             	sub    rcx,rax
    50c8:	48 89 4d c0          	mov    QWORD PTR [rbp-0x40],rcx
    50cc:	e9 13 00 00 00       	jmp    50e4 <ocall_ioctl_ReadCopyright+0x294>
    50d1:	31 ff                	xor    edi,edi
    50d3:	e8 c8 70 00 00       	call   c1a0 <_Z7tracebrPv>
    50d8:	48 8b 45 c8          	mov    rax,QWORD PTR [rbp-0x38]
    50dc:	48 c7 40 10 00 00 00 	mov    QWORD PTR [rax+0x10],0x0
    50e3:	00 
    50e4:	48 8d 05 c5 89 00 00 	lea    rax,[rip+0x89c5]        # dab0 <sgx_ocall>
    50eb:	48 8b 4d c8          	mov    rcx,QWORD PTR [rbp-0x38]
    50ef:	48 89 c7             	mov    rdi,rax
    50f2:	48 89 8d 78 ff ff ff 	mov    QWORD PTR [rbp-0x88],rcx
    50f9:	e8 32 6d 00 00       	call   be30 <_Z10traceedgecPv>
    50fe:	bf 0a 00 00 00       	mov    edi,0xa
    5103:	48 8b b5 78 ff ff ff 	mov    rsi,QWORD PTR [rbp-0x88]
    510a:	e8 a1 89 00 00       	call   dab0 <sgx_ocall>
    510f:	89 45 dc             	mov    DWORD PTR [rbp-0x24],eax
    5112:	83 7d dc 00          	cmp    DWORD PTR [rbp-0x24],0x0
    5116:	0f 85 e4 00 00 00    	jne    5200 <ocall_ioctl_ReadCopyright+0x3b0>
    511c:	bf 01 00 00 00       	mov    edi,0x1
    5121:	e8 7a 70 00 00       	call   c1a0 <_Z7tracebrPv>
    5126:	48 83 7d f0 00       	cmp    QWORD PTR [rbp-0x10],0x0
    512b:	0f 84 16 00 00 00    	je     5147 <ocall_ioctl_ReadCopyright+0x2f7>
    5131:	bf 01 00 00 00       	mov    edi,0x1
    5136:	e8 65 70 00 00       	call   c1a0 <_Z7tracebrPv>
    513b:	48 8b 45 c8          	mov    rax,QWORD PTR [rbp-0x38]
    513f:	8b 08                	mov    ecx,DWORD PTR [rax]
    5141:	48 8b 45 f0          	mov    rax,QWORD PTR [rbp-0x10]
    5145:	89 08                	mov    DWORD PTR [rax],ecx
    5147:	31 ff                	xor    edi,edi
    5149:	e8 52 70 00 00       	call   c1a0 <_Z7tracebrPv>
    514e:	48 83 7d e0 00       	cmp    QWORD PTR [rbp-0x20],0x0
    5153:	0f 84 a0 00 00 00    	je     51f9 <ocall_ioctl_ReadCopyright+0x3a9>
    5159:	bf 01 00 00 00       	mov    edi,0x1
    515e:	e8 3d 70 00 00       	call   c1a0 <_Z7tracebrPv>
    5163:	48 8d 05 16 d5 00 00 	lea    rax,[rip+0xd516]        # 12680 <memcpy_s>
    516a:	48 8b 4d e0          	mov    rcx,QWORD PTR [rbp-0x20]
    516e:	48 8b 75 d0          	mov    rsi,QWORD PTR [rbp-0x30]
    5172:	48 8b 55 b0          	mov    rdx,QWORD PTR [rbp-0x50]
    5176:	4c 8b 45 d0          	mov    r8,QWORD PTR [rbp-0x30]
    517a:	48 89 c7             	mov    rdi,rax
    517d:	48 89 8d 70 ff ff ff 	mov    QWORD PTR [rbp-0x90],rcx
    5184:	48 89 b5 68 ff ff ff 	mov    QWORD PTR [rbp-0x98],rsi
    518b:	48 89 95 60 ff ff ff 	mov    QWORD PTR [rbp-0xa0],rdx
    5192:	4c 89 85 58 ff ff ff 	mov    QWORD PTR [rbp-0xa8],r8
    5199:	e8 92 6c 00 00       	call   be30 <_Z10traceedgecPv>
    519e:	48 8b bd 70 ff ff ff 	mov    rdi,QWORD PTR [rbp-0x90]
    51a5:	48 8b b5 68 ff ff ff 	mov    rsi,QWORD PTR [rbp-0x98]
    51ac:	48 8b 95 60 ff ff ff 	mov    rdx,QWORD PTR [rbp-0xa0]
    51b3:	48 8b 8d 58 ff ff ff 	mov    rcx,QWORD PTR [rbp-0xa8]
    51ba:	e8 c1 d4 00 00       	call   12680 <memcpy_s>
    51bf:	83 f8 00             	cmp    eax,0x0
    51c2:	0f 84 2a 00 00 00    	je     51f2 <ocall_ioctl_ReadCopyright+0x3a2>
    51c8:	bf 01 00 00 00       	mov    edi,0x1
    51cd:	e8 ce 6f 00 00       	call   c1a0 <_Z7tracebrPv>
    51d2:	48 8d 05 87 73 00 00 	lea    rax,[rip+0x7387]        # c560 <sgx_ocfree>
    51d9:	48 89 c7             	mov    rdi,rax
    51dc:	e8 4f 6c 00 00       	call   be30 <_Z10traceedgecPv>
    51e1:	e8 7a 73 00 00       	call   c560 <sgx_ocfree>
    51e6:	c7 45 fc 01 00 00 00 	mov    DWORD PTR [rbp-0x4],0x1
    51ed:	e9 2f 00 00 00       	jmp    5221 <ocall_ioctl_ReadCopyright+0x3d1>
    51f2:	31 ff                	xor    edi,edi
    51f4:	e8 a7 6f 00 00       	call   c1a0 <_Z7tracebrPv>
    51f9:	31 ff                	xor    edi,edi
    51fb:	e8 a0 6f 00 00       	call   c1a0 <_Z7tracebrPv>
    5200:	31 ff                	xor    edi,edi
    5202:	e8 99 6f 00 00       	call   c1a0 <_Z7tracebrPv>
    5207:	48 8d 05 52 73 00 00 	lea    rax,[rip+0x7352]        # c560 <sgx_ocfree>
    520e:	48 89 c7             	mov    rdi,rax
    5211:	e8 1a 6c 00 00       	call   be30 <_Z10traceedgecPv>
    5216:	e8 45 73 00 00       	call   c560 <sgx_ocfree>
    521b:	8b 4d dc             	mov    ecx,DWORD PTR [rbp-0x24]
    521e:	89 4d fc             	mov    DWORD PTR [rbp-0x4],ecx
    5221:	8b 45 fc             	mov    eax,DWORD PTR [rbp-0x4]
    5224:	48 8b 7d 08          	mov    rdi,QWORD PTR [rbp+0x8]
    5228:	89 85 54 ff ff ff    	mov    DWORD PTR [rbp-0xac],eax
    522e:	e8 fd 6b 00 00       	call   be30 <_Z10traceedgecPv>
    5233:	8b 85 54 ff ff ff    	mov    eax,DWORD PTR [rbp-0xac]
    5239:	48 81 c4 b0 00 00 00 	add    rsp,0xb0
    5240:	5d                   	pop    rbp
    5241:	c3                   	ret    
    5242:	66 2e 0f 1f 84 00 00 	nop    WORD PTR cs:[rax+rax*1+0x0]
    5249:	00 00 00 
    524c:	0f 1f 40 00          	nop    DWORD PTR [rax+0x0]

0000000000005250 <ocall_ioctl_ReadTitleKey>:
    5250:	55                   	push   rbp
    5251:	48 89 e5             	mov    rbp,rsp
    5254:	48 81 ec 10 01 00 00 	sub    rsp,0x110
    525b:	48 89 7d f0          	mov    QWORD PTR [rbp-0x10],rdi
    525f:	89 75 ec             	mov    DWORD PTR [rbp-0x14],esi
    5262:	48 89 55 e0          	mov    QWORD PTR [rbp-0x20],rdx
    5266:	89 4d dc             	mov    DWORD PTR [rbp-0x24],ecx
    5269:	4c 89 45 d0          	mov    QWORD PTR [rbp-0x30],r8
    526d:	c7 45 cc 00 00 00 00 	mov    DWORD PTR [rbp-0x34],0x0
    5274:	48 c7 45 c0 04 00 00 	mov    QWORD PTR [rbp-0x40],0x4
    527b:	00 
    527c:	48 c7 45 b8 05 00 00 	mov    QWORD PTR [rbp-0x48],0x5
    5283:	00 
    5284:	48 c7 45 b0 00 00 00 	mov    QWORD PTR [rbp-0x50],0x0
    528b:	00 
    528c:	48 c7 45 a8 20 00 00 	mov    QWORD PTR [rbp-0x58],0x20
    5293:	00 
    5294:	48 c7 45 a0 00 00 00 	mov    QWORD PTR [rbp-0x60],0x0
    529b:	00 
    529c:	48 c7 45 98 00 00 00 	mov    QWORD PTR [rbp-0x68],0x0
    52a3:	00 
    52a4:	48 83 7d e0 00       	cmp    QWORD PTR [rbp-0x20],0x0
    52a9:	0f 84 52 00 00 00    	je     5301 <ocall_ioctl_ReadTitleKey+0xb1>
    52af:	bf 01 00 00 00       	mov    edi,0x1
    52b4:	e8 e7 6e 00 00       	call   c1a0 <_Z7tracebrPv>
    52b9:	48 8d 05 10 71 00 00 	lea    rax,[rip+0x7110]        # c3d0 <sgx_is_within_enclave>
    52c0:	48 8b 4d e0          	mov    rcx,QWORD PTR [rbp-0x20]
    52c4:	48 8b 75 c0          	mov    rsi,QWORD PTR [rbp-0x40]
    52c8:	48 89 c7             	mov    rdi,rax
    52cb:	48 89 4d 90          	mov    QWORD PTR [rbp-0x70],rcx
    52cf:	48 89 75 88          	mov    QWORD PTR [rbp-0x78],rsi
    52d3:	e8 58 6b 00 00       	call   be30 <_Z10traceedgecPv>
    52d8:	48 8b 7d 90          	mov    rdi,QWORD PTR [rbp-0x70]
    52dc:	48 8b 75 88          	mov    rsi,QWORD PTR [rbp-0x78]
    52e0:	e8 eb 70 00 00       	call   c3d0 <sgx_is_within_enclave>
    52e5:	83 f8 00             	cmp    eax,0x0
    52e8:	0f 85 13 00 00 00    	jne    5301 <ocall_ioctl_ReadTitleKey+0xb1>
    52ee:	31 ff                	xor    edi,edi
    52f0:	e8 ab 6e 00 00       	call   c1a0 <_Z7tracebrPv>
    52f5:	c7 45 fc 02 00 00 00 	mov    DWORD PTR [rbp-0x4],0x2
    52fc:	e9 a0 05 00 00       	jmp    58a1 <ocall_ioctl_ReadTitleKey+0x651>
    5301:	31 ff                	xor    edi,edi
    5303:	e8 98 6e 00 00       	call   c1a0 <_Z7tracebrPv>
    5308:	e9 00 00 00 00       	jmp    530d <ocall_ioctl_ReadTitleKey+0xbd>
    530d:	48 83 7d d0 00       	cmp    QWORD PTR [rbp-0x30],0x0
    5312:	0f 84 58 00 00 00    	je     5370 <ocall_ioctl_ReadTitleKey+0x120>
    5318:	bf 01 00 00 00       	mov    edi,0x1
    531d:	e8 7e 6e 00 00       	call   c1a0 <_Z7tracebrPv>
    5322:	48 8d 05 a7 70 00 00 	lea    rax,[rip+0x70a7]        # c3d0 <sgx_is_within_enclave>
    5329:	48 8b 7d d0          	mov    rdi,QWORD PTR [rbp-0x30]
    532d:	48 8b 75 b8          	mov    rsi,QWORD PTR [rbp-0x48]
    5331:	48 89 7d 80          	mov    QWORD PTR [rbp-0x80],rdi
    5335:	48 89 c7             	mov    rdi,rax
    5338:	48 89 b5 78 ff ff ff 	mov    QWORD PTR [rbp-0x88],rsi
    533f:	e8 ec 6a 00 00       	call   be30 <_Z10traceedgecPv>
    5344:	48 8b 7d 80          	mov    rdi,QWORD PTR [rbp-0x80]
    5348:	48 8b b5 78 ff ff ff 	mov    rsi,QWORD PTR [rbp-0x88]
    534f:	e8 7c 70 00 00       	call   c3d0 <sgx_is_within_enclave>
    5354:	83 f8 00             	cmp    eax,0x0
    5357:	0f 85 13 00 00 00    	jne    5370 <ocall_ioctl_ReadTitleKey+0x120>
    535d:	31 ff                	xor    edi,edi
    535f:	e8 3c 6e 00 00       	call   c1a0 <_Z7tracebrPv>
    5364:	c7 45 fc 02 00 00 00 	mov    DWORD PTR [rbp-0x4],0x2
    536b:	e9 31 05 00 00       	jmp    58a1 <ocall_ioctl_ReadTitleKey+0x651>
    5370:	31 ff                	xor    edi,edi
    5372:	e8 29 6e 00 00       	call   c1a0 <_Z7tracebrPv>
    5377:	48 83 7d e0 00       	cmp    QWORD PTR [rbp-0x20],0x0
    537c:	0f 84 1a 00 00 00    	je     539c <ocall_ioctl_ReadTitleKey+0x14c>
    5382:	bf 01 00 00 00       	mov    edi,0x1
    5387:	e8 14 6e 00 00       	call   c1a0 <_Z7tracebrPv>
    538c:	48 8b 45 c0          	mov    rax,QWORD PTR [rbp-0x40]
    5390:	48 89 85 70 ff ff ff 	mov    QWORD PTR [rbp-0x90],rax
    5397:	e9 12 00 00 00       	jmp    53ae <ocall_ioctl_ReadTitleKey+0x15e>
    539c:	31 ff                	xor    edi,edi
    539e:	e8 fd 6d 00 00       	call   c1a0 <_Z7tracebrPv>
    53a3:	31 c0                	xor    eax,eax
    53a5:	89 c1                	mov    ecx,eax
    53a7:	48 89 8d 70 ff ff ff 	mov    QWORD PTR [rbp-0x90],rcx
    53ae:	48 8b 85 70 ff ff ff 	mov    rax,QWORD PTR [rbp-0x90]
    53b5:	48 03 45 a8          	add    rax,QWORD PTR [rbp-0x58]
    53b9:	48 89 45 a8          	mov    QWORD PTR [rbp-0x58],rax
    53bd:	48 83 7d e0 00       	cmp    QWORD PTR [rbp-0x20],0x0
    53c2:	48 89 85 68 ff ff ff 	mov    QWORD PTR [rbp-0x98],rax
    53c9:	0f 84 1a 00 00 00    	je     53e9 <ocall_ioctl_ReadTitleKey+0x199>
    53cf:	bf 01 00 00 00       	mov    edi,0x1
    53d4:	e8 c7 6d 00 00       	call   c1a0 <_Z7tracebrPv>
    53d9:	48 8b 45 c0          	mov    rax,QWORD PTR [rbp-0x40]
    53dd:	48 89 85 60 ff ff ff 	mov    QWORD PTR [rbp-0xa0],rax
    53e4:	e9 12 00 00 00       	jmp    53fb <ocall_ioctl_ReadTitleKey+0x1ab>
    53e9:	31 ff                	xor    edi,edi
    53eb:	e8 b0 6d 00 00       	call   c1a0 <_Z7tracebrPv>
    53f0:	31 c0                	xor    eax,eax
    53f2:	89 c1                	mov    ecx,eax
    53f4:	48 89 8d 60 ff ff ff 	mov    QWORD PTR [rbp-0xa0],rcx
    53fb:	48 8b 85 60 ff ff ff 	mov    rax,QWORD PTR [rbp-0xa0]
    5402:	48 8b 8d 68 ff ff ff 	mov    rcx,QWORD PTR [rbp-0x98]
    5409:	48 39 c1             	cmp    rcx,rax
    540c:	0f 83 16 00 00 00    	jae    5428 <ocall_ioctl_ReadTitleKey+0x1d8>
    5412:	bf 01 00 00 00       	mov    edi,0x1
    5417:	e8 84 6d 00 00       	call   c1a0 <_Z7tracebrPv>
    541c:	c7 45 fc 02 00 00 00 	mov    DWORD PTR [rbp-0x4],0x2
    5423:	e9 79 04 00 00       	jmp    58a1 <ocall_ioctl_ReadTitleKey+0x651>
    5428:	31 ff                	xor    edi,edi
    542a:	e8 71 6d 00 00       	call   c1a0 <_Z7tracebrPv>
    542f:	48 83 7d d0 00       	cmp    QWORD PTR [rbp-0x30],0x0
    5434:	0f 84 1a 00 00 00    	je     5454 <ocall_ioctl_ReadTitleKey+0x204>
    543a:	bf 01 00 00 00       	mov    edi,0x1
    543f:	e8 5c 6d 00 00       	call   c1a0 <_Z7tracebrPv>
    5444:	48 8b 45 b8          	mov    rax,QWORD PTR [rbp-0x48]
    5448:	48 89 85 58 ff ff ff 	mov    QWORD PTR [rbp-0xa8],rax
    544f:	e9 12 00 00 00       	jmp    5466 <ocall_ioctl_ReadTitleKey+0x216>
    5454:	31 ff                	xor    edi,edi
    5456:	e8 45 6d 00 00       	call   c1a0 <_Z7tracebrPv>
    545b:	31 c0                	xor    eax,eax
    545d:	89 c1                	mov    ecx,eax
    545f:	48 89 8d 58 ff ff ff 	mov    QWORD PTR [rbp-0xa8],rcx
    5466:	48 8b 85 58 ff ff ff 	mov    rax,QWORD PTR [rbp-0xa8]
    546d:	48 03 45 a8          	add    rax,QWORD PTR [rbp-0x58]
    5471:	48 89 45 a8          	mov    QWORD PTR [rbp-0x58],rax
    5475:	48 83 7d d0 00       	cmp    QWORD PTR [rbp-0x30],0x0
    547a:	48 89 85 50 ff ff ff 	mov    QWORD PTR [rbp-0xb0],rax
    5481:	0f 84 1a 00 00 00    	je     54a1 <ocall_ioctl_ReadTitleKey+0x251>
    5487:	bf 01 00 00 00       	mov    edi,0x1
    548c:	e8 0f 6d 00 00       	call   c1a0 <_Z7tracebrPv>
    5491:	48 8b 45 b8          	mov    rax,QWORD PTR [rbp-0x48]
    5495:	48 89 85 48 ff ff ff 	mov    QWORD PTR [rbp-0xb8],rax
    549c:	e9 12 00 00 00       	jmp    54b3 <ocall_ioctl_ReadTitleKey+0x263>
    54a1:	31 ff                	xor    edi,edi
    54a3:	e8 f8 6c 00 00       	call   c1a0 <_Z7tracebrPv>
    54a8:	31 c0                	xor    eax,eax
    54aa:	89 c1                	mov    ecx,eax
    54ac:	48 89 8d 48 ff ff ff 	mov    QWORD PTR [rbp-0xb8],rcx
    54b3:	48 8b 85 48 ff ff ff 	mov    rax,QWORD PTR [rbp-0xb8]
    54ba:	48 8b 8d 50 ff ff ff 	mov    rcx,QWORD PTR [rbp-0xb0]
    54c1:	48 39 c1             	cmp    rcx,rax
    54c4:	0f 83 16 00 00 00    	jae    54e0 <ocall_ioctl_ReadTitleKey+0x290>
    54ca:	bf 01 00 00 00       	mov    edi,0x1
    54cf:	e8 cc 6c 00 00       	call   c1a0 <_Z7tracebrPv>
    54d4:	c7 45 fc 02 00 00 00 	mov    DWORD PTR [rbp-0x4],0x2
    54db:	e9 c1 03 00 00       	jmp    58a1 <ocall_ioctl_ReadTitleKey+0x651>
    54e0:	31 ff                	xor    edi,edi
    54e2:	e8 b9 6c 00 00       	call   c1a0 <_Z7tracebrPv>
    54e7:	48 8d 05 82 6f 00 00 	lea    rax,[rip+0x6f82]        # c470 <sgx_ocalloc>
    54ee:	48 8b 7d a8          	mov    rdi,QWORD PTR [rbp-0x58]
    54f2:	48 89 bd 40 ff ff ff 	mov    QWORD PTR [rbp-0xc0],rdi
    54f9:	48 89 c7             	mov    rdi,rax
    54fc:	e8 2f 69 00 00       	call   be30 <_Z10traceedgecPv>
    5501:	48 8b bd 40 ff ff ff 	mov    rdi,QWORD PTR [rbp-0xc0]
    5508:	e8 63 6f 00 00       	call   c470 <sgx_ocalloc>
    550d:	48 89 45 a0          	mov    QWORD PTR [rbp-0x60],rax
    5511:	48 83 7d a0 00       	cmp    QWORD PTR [rbp-0x60],0x0
    5516:	0f 85 2a 00 00 00    	jne    5546 <ocall_ioctl_ReadTitleKey+0x2f6>
    551c:	bf 01 00 00 00       	mov    edi,0x1
    5521:	e8 7a 6c 00 00       	call   c1a0 <_Z7tracebrPv>
    5526:	48 8d 05 33 70 00 00 	lea    rax,[rip+0x7033]        # c560 <sgx_ocfree>
    552d:	48 89 c7             	mov    rdi,rax
    5530:	e8 fb 68 00 00       	call   be30 <_Z10traceedgecPv>
    5535:	e8 26 70 00 00       	call   c560 <sgx_ocfree>
    553a:	c7 45 fc 01 00 00 00 	mov    DWORD PTR [rbp-0x4],0x1
    5541:	e9 5b 03 00 00       	jmp    58a1 <ocall_ioctl_ReadTitleKey+0x651>
    5546:	31 ff                	xor    edi,edi
    5548:	e8 53 6c 00 00       	call   c1a0 <_Z7tracebrPv>
    554d:	48 8b 45 a0          	mov    rax,QWORD PTR [rbp-0x60]
    5551:	48 89 45 b0          	mov    QWORD PTR [rbp-0x50],rax
    5555:	48 8b 45 a0          	mov    rax,QWORD PTR [rbp-0x60]
    5559:	48 05 20 00 00 00    	add    rax,0x20
    555f:	48 89 45 a0          	mov    QWORD PTR [rbp-0x60],rax
    5563:	48 8b 45 a8          	mov    rax,QWORD PTR [rbp-0x58]
    5567:	48 2d 20 00 00 00    	sub    rax,0x20
    556d:	48 89 45 a8          	mov    QWORD PTR [rbp-0x58],rax
    5571:	8b 4d ec             	mov    ecx,DWORD PTR [rbp-0x14]
    5574:	48 8b 45 b0          	mov    rax,QWORD PTR [rbp-0x50]
    5578:	89 48 04             	mov    DWORD PTR [rax+0x4],ecx
    557b:	48 83 7d e0 00       	cmp    QWORD PTR [rbp-0x20],0x0
    5580:	0f 84 11 01 00 00    	je     5697 <ocall_ioctl_ReadTitleKey+0x447>
    5586:	bf 01 00 00 00       	mov    edi,0x1
    558b:	e8 10 6c 00 00       	call   c1a0 <_Z7tracebrPv>
    5590:	48 8b 45 a0          	mov    rax,QWORD PTR [rbp-0x60]
    5594:	48 8b 4d b0          	mov    rcx,QWORD PTR [rbp-0x50]
    5598:	48 89 41 08          	mov    QWORD PTR [rcx+0x8],rax
    559c:	48 8b 45 c0          	mov    rax,QWORD PTR [rbp-0x40]
    55a0:	48 25 03 00 00 00    	and    rax,0x3
    55a6:	48 83 f8 00          	cmp    rax,0x0
    55aa:	0f 84 2a 00 00 00    	je     55da <ocall_ioctl_ReadTitleKey+0x38a>
    55b0:	bf 01 00 00 00       	mov    edi,0x1
    55b5:	e8 e6 6b 00 00       	call   c1a0 <_Z7tracebrPv>
    55ba:	48 8d 05 9f 6f 00 00 	lea    rax,[rip+0x6f9f]        # c560 <sgx_ocfree>
    55c1:	48 89 c7             	mov    rdi,rax
    55c4:	e8 67 68 00 00       	call   be30 <_Z10traceedgecPv>
    55c9:	e8 92 6f 00 00       	call   c560 <sgx_ocfree>
    55ce:	c7 45 fc 02 00 00 00 	mov    DWORD PTR [rbp-0x4],0x2
    55d5:	e9 c7 02 00 00       	jmp    58a1 <ocall_ioctl_ReadTitleKey+0x651>
    55da:	31 ff                	xor    edi,edi
    55dc:	e8 bf 6b 00 00       	call   c1a0 <_Z7tracebrPv>
    55e1:	48 8d 05 98 d0 00 00 	lea    rax,[rip+0xd098]        # 12680 <memcpy_s>
    55e8:	48 8b 7d a0          	mov    rdi,QWORD PTR [rbp-0x60]
    55ec:	48 8b 75 a8          	mov    rsi,QWORD PTR [rbp-0x58]
    55f0:	48 8b 4d e0          	mov    rcx,QWORD PTR [rbp-0x20]
    55f4:	48 8b 55 c0          	mov    rdx,QWORD PTR [rbp-0x40]
    55f8:	48 89 bd 38 ff ff ff 	mov    QWORD PTR [rbp-0xc8],rdi
    55ff:	48 89 c7             	mov    rdi,rax
    5602:	48 89 b5 30 ff ff ff 	mov    QWORD PTR [rbp-0xd0],rsi
    5609:	48 89 8d 28 ff ff ff 	mov    QWORD PTR [rbp-0xd8],rcx
    5610:	48 89 95 20 ff ff ff 	mov    QWORD PTR [rbp-0xe0],rdx
    5617:	e8 14 68 00 00       	call   be30 <_Z10traceedgecPv>
    561c:	48 8b bd 38 ff ff ff 	mov    rdi,QWORD PTR [rbp-0xc8]
    5623:	48 8b b5 30 ff ff ff 	mov    rsi,QWORD PTR [rbp-0xd0]
    562a:	48 8b 95 28 ff ff ff 	mov    rdx,QWORD PTR [rbp-0xd8]
    5631:	48 8b 8d 20 ff ff ff 	mov    rcx,QWORD PTR [rbp-0xe0]
    5638:	e8 43 d0 00 00       	call   12680 <memcpy_s>
    563d:	83 f8 00             	cmp    eax,0x0
    5640:	0f 84 2a 00 00 00    	je     5670 <ocall_ioctl_ReadTitleKey+0x420>
    5646:	bf 01 00 00 00       	mov    edi,0x1
    564b:	e8 50 6b 00 00       	call   c1a0 <_Z7tracebrPv>
    5650:	48 8d 05 09 6f 00 00 	lea    rax,[rip+0x6f09]        # c560 <sgx_ocfree>
    5657:	48 89 c7             	mov    rdi,rax
