
../../contactpr_enclave.signed.so:     file format elf64-x86-64


Disassembly of section .plt:

0000000000000c60 <.plt>:
 c60:	ff 35 a2 73 24 00    	push   QWORD PTR [rip+0x2473a2]        # 248008 <_GLOBAL_OFFSET_TABLE_+0x8>
 c66:	ff 25 a4 73 24 00    	jmp    QWORD PTR [rip+0x2473a4]        # 248010 <_GLOBAL_OFFSET_TABLE_+0x10>
 c6c:	0f 1f 40 00          	nop    DWORD PTR [rax+0x0]

Disassembly of section .plt.got:

0000000000000c70 <_Z9pcl_entryPvS_@plt>:
 c70:	ff 25 42 73 24 00    	jmp    QWORD PTR [rip+0x247342]        # 247fb8 <_Z9pcl_entryPvS_>
 c76:	66 90                	xchg   ax,ax

Disassembly of section .text:

0000000000000c80 <trts_access_version_dummy1>:
     c80:	48 8d 05 a9 73 24 00 	lea    rax,[rip+0x2473a9]        # 248030 <sgx_trts_version>
     c87:	c6 00 73             	mov    BYTE PTR [rax],0x73
     c8a:	c3                   	ret    
     c8b:	0f 1f 44 00 00       	nop    DWORD PTR [rax+rax*1+0x0]

0000000000000c90 <tstdc_access_version_dummy1>:
     c90:	c6 05 c9 73 24 00 73 	mov    BYTE PTR [rip+0x2473c9],0x73        # 248060 <sgx_tstdc_version>
     c97:	48 8d 05 c2 73 24 00 	lea    rax,[rip+0x2473c2]        # 248060 <sgx_tstdc_version>
     c9e:	c3                   	ret    
     c9f:	90                   	nop

0000000000000ca0 <tcrypto_access_version_dummy1>:
     ca0:	c6 05 39 7c 24 00 73 	mov    BYTE PTR [rip+0x247c39],0x73        # 2488e0 <sgx_tcrypto_version>
     ca7:	48 8d 05 32 7c 24 00 	lea    rax,[rip+0x247c32]        # 2488e0 <sgx_tcrypto_version>
     cae:	c3                   	ret    
     caf:	90                   	nop

0000000000000cb0 <tservice_access_version_dummy1>:
     cb0:	c6 05 a9 7f 24 00 73 	mov    BYTE PTR [rip+0x247fa9],0x73        # 248c60 <sgx_tservice_version>
     cb7:	48 8d 05 a2 7f 24 00 	lea    rax,[rip+0x247fa2]        # 248c60 <sgx_tservice_version>
     cbe:	c3                   	ret    
     cbf:	90                   	nop

0000000000000cc0 <sgx_sgxsd_enclave_node_init>:
     cc0:	55                   	push   rbp
     cc1:	41 57                	push   r15
     cc3:	41 56                	push   r14
     cc5:	53                   	push   rbx
     cc6:	50                   	push   rax
     cc7:	bd 02 00 00 00       	mov    ebp,0x2
     ccc:	48 85 ff             	test   rdi,rdi
     ccf:	0f 84 63 01 00 00    	je     e38 <sgx_sgxsd_enclave_node_init+0x178>
     cd5:	48 89 fb             	mov    rbx,rdi
     cd8:	bf 01 00 00 00       	mov    edi,0x1
     cdd:	e8 5e 44 01 00       	call   15140 <_Z7tracebrPv>
     ce2:	48 8d 3d d7 46 01 00 	lea    rdi,[rip+0x146d7]        # 153c0 <sgx_is_outside_enclave>
     ce9:	e8 e2 40 01 00       	call   14dd0 <_Z10traceedgecPv>
     cee:	be 10 00 00 00       	mov    esi,0x10
     cf3:	48 89 df             	mov    rdi,rbx
     cf6:	e8 c5 46 01 00       	call   153c0 <sgx_is_outside_enclave>
     cfb:	85 c0                	test   eax,eax
     cfd:	0f 84 35 01 00 00    	je     e38 <sgx_sgxsd_enclave_node_init+0x178>
     d03:	bf 01 00 00 00       	mov    edi,0x1
     d08:	e8 33 44 01 00       	call   15140 <_Z7tracebrPv>
     d0d:	0f ae e8             	lfence 
     d10:	4c 8b 7b 08          	mov    r15,QWORD PTR [rbx+0x8]
     d14:	4d 85 ff             	test   r15,r15
     d17:	0f 84 ab 00 00 00    	je     dc8 <sgx_sgxsd_enclave_node_init+0x108>
     d1d:	bf 01 00 00 00       	mov    edi,0x1
     d22:	e8 19 44 01 00       	call   15140 <_Z7tracebrPv>
     d27:	48 8d 3d 92 46 01 00 	lea    rdi,[rip+0x14692]        # 153c0 <sgx_is_outside_enclave>
     d2e:	e8 9d 40 01 00       	call   14dd0 <_Z10traceedgecPv>
     d33:	be 01 00 00 00       	mov    esi,0x1
     d38:	4c 89 ff             	mov    rdi,r15
     d3b:	e8 80 46 01 00       	call   153c0 <sgx_is_outside_enclave>
     d40:	89 c5                	mov    ebp,eax
     d42:	31 ff                	xor    edi,edi
     d44:	e8 f7 43 01 00       	call   15140 <_Z7tracebrPv>
     d49:	85 ed                	test   ebp,ebp
     d4b:	0f 84 86 00 00 00    	je     dd7 <sgx_sgxsd_enclave_node_init+0x117>
     d51:	0f ae e8             	lfence 
     d54:	bf 01 00 00 00       	mov    edi,0x1
     d59:	e8 e2 43 01 00       	call   15140 <_Z7tracebrPv>
     d5e:	bf 01 00 00 00       	mov    edi,0x1
     d63:	e8 d8 43 01 00       	call   15140 <_Z7tracebrPv>
     d68:	48 8d 3d e1 78 01 00 	lea    rdi,[rip+0x178e1]        # 18650 <dlmalloc>
     d6f:	e8 5c 40 01 00       	call   14dd0 <_Z10traceedgecPv>
     d74:	bf 01 00 00 00       	mov    edi,0x1
     d79:	e8 d2 78 01 00       	call   18650 <dlmalloc>
     d7e:	48 85 c0             	test   rax,rax
     d81:	74 5b                	je     dde <sgx_sgxsd_enclave_node_init+0x11e>
     d83:	49 89 c6             	mov    r14,rax
     d86:	31 ff                	xor    edi,edi
     d88:	e8 b3 43 01 00       	call   15140 <_Z7tracebrPv>
     d8d:	48 8d 3d 9c ac 01 00 	lea    rdi,[rip+0x1ac9c]        # 1ba30 <memcpy_s>
     d94:	e8 37 40 01 00       	call   14dd0 <_Z10traceedgecPv>
     d99:	be 01 00 00 00       	mov    esi,0x1
     d9e:	b9 01 00 00 00       	mov    ecx,0x1
     da3:	4c 89 f7             	mov    rdi,r14
     da6:	4c 89 fa             	mov    rdx,r15
     da9:	e8 82 ac 01 00       	call   1ba30 <memcpy_s>
     dae:	85 c0                	test   eax,eax
     db0:	74 3d                	je     def <sgx_sgxsd_enclave_node_init+0x12f>
     db2:	bd 01 00 00 00       	mov    ebp,0x1
     db7:	bf 01 00 00 00       	mov    edi,0x1
     dbc:	e8 7f 43 01 00       	call   15140 <_Z7tracebrPv>
     dc1:	4d 85 f6             	test   r14,r14
     dc4:	75 54                	jne    e1a <sgx_sgxsd_enclave_node_init+0x15a>
     dc6:	eb 70                	jmp    e38 <sgx_sgxsd_enclave_node_init+0x178>
     dc8:	45 31 f6             	xor    r14d,r14d
     dcb:	31 ff                	xor    edi,edi
     dcd:	e8 6e 43 01 00       	call   15140 <_Z7tracebrPv>
     dd2:	0f ae e8             	lfence 
     dd5:	eb 1f                	jmp    df6 <sgx_sgxsd_enclave_node_init+0x136>
     dd7:	bd 02 00 00 00       	mov    ebp,0x2
     ddc:	eb 61                	jmp    e3f <sgx_sgxsd_enclave_node_init+0x17f>
     dde:	bf 01 00 00 00       	mov    edi,0x1
     de3:	e8 58 43 01 00       	call   15140 <_Z7tracebrPv>
     de8:	bd 03 00 00 00       	mov    ebp,0x3
     ded:	eb 49                	jmp    e38 <sgx_sgxsd_enclave_node_init+0x178>
     def:	31 ff                	xor    edi,edi
     df1:	e8 4a 43 01 00       	call   15140 <_Z7tracebrPv>
     df6:	31 ed                	xor    ebp,ebp
     df8:	31 ff                	xor    edi,edi
     dfa:	e8 41 43 01 00       	call   15140 <_Z7tracebrPv>
     dff:	48 8d 3d 4a 14 00 00 	lea    rdi,[rip+0x144a]        # 2250 <sgxsd_enclave_node_init>
     e06:	e8 c5 3f 01 00       	call   14dd0 <_Z10traceedgecPv>
     e0b:	4c 89 f7             	mov    rdi,r14
     e0e:	e8 3d 14 00 00       	call   2250 <sgxsd_enclave_node_init>
     e13:	89 03                	mov    DWORD PTR [rbx],eax
     e15:	4d 85 f6             	test   r14,r14
     e18:	74 1e                	je     e38 <sgx_sgxsd_enclave_node_init+0x178>
     e1a:	bf 01 00 00 00       	mov    edi,0x1
     e1f:	e8 1c 43 01 00       	call   15140 <_Z7tracebrPv>
     e24:	48 8d 3d 25 92 01 00 	lea    rdi,[rip+0x19225]        # 1a050 <dlfree>
     e2b:	e8 a0 3f 01 00       	call   14dd0 <_Z10traceedgecPv>
     e30:	4c 89 f7             	mov    rdi,r14
     e33:	e8 18 92 01 00       	call   1a050 <dlfree>
     e38:	31 ff                	xor    edi,edi
     e3a:	e8 01 43 01 00       	call   15140 <_Z7tracebrPv>
     e3f:	48 8b 7c 24 28       	mov    rdi,QWORD PTR [rsp+0x28]
     e44:	e8 87 3f 01 00       	call   14dd0 <_Z10traceedgecPv>
     e49:	89 e8                	mov    eax,ebp
     e4b:	48 83 c4 08          	add    rsp,0x8
     e4f:	5b                   	pop    rbx
     e50:	41 5e                	pop    r14
     e52:	41 5f                	pop    r15
     e54:	5d                   	pop    rbp
     e55:	c3                   	ret    
     e56:	66 2e 0f 1f 84 00 00 	nop    WORD PTR cs:[rax+rax*1+0x0]
     e5d:	00 00 00 

0000000000000e60 <sgx_sgxsd_enclave_get_next_report>:
     e60:	55                   	push   rbp
     e61:	41 57                	push   r15
     e63:	41 56                	push   r14
     e65:	41 54                	push   r12
     e67:	53                   	push   rbx
     e68:	48 81 ec 00 02 00 00 	sub    rsp,0x200
     e6f:	41 bf 02 00 00 00    	mov    r15d,0x2
     e75:	48 85 ff             	test   rdi,rdi
     e78:	0f 84 fa 01 00 00    	je     1078 <sgx_sgxsd_enclave_get_next_report+0x218>
     e7e:	48 89 fb             	mov    rbx,rdi
     e81:	bf 01 00 00 00       	mov    edi,0x1
     e86:	e8 b5 42 01 00       	call   15140 <_Z7tracebrPv>
     e8b:	48 8d 3d 2e 45 01 00 	lea    rdi,[rip+0x1452e]        # 153c0 <sgx_is_outside_enclave>
     e92:	e8 39 3f 01 00       	call   14dd0 <_Z10traceedgecPv>
     e97:	be 10 02 00 00       	mov    esi,0x210
     e9c:	48 89 df             	mov    rdi,rbx
     e9f:	e8 1c 45 01 00       	call   153c0 <sgx_is_outside_enclave>
     ea4:	85 c0                	test   eax,eax
     ea6:	0f 84 cc 01 00 00    	je     1078 <sgx_sgxsd_enclave_get_next_report+0x218>
     eac:	bf 01 00 00 00       	mov    edi,0x1
     eb1:	e8 8a 42 01 00       	call   15140 <_Z7tracebrPv>
     eb6:	0f ae e8             	lfence 
     eb9:	4c 8b b3 08 02 00 00 	mov    r14,QWORD PTR [rbx+0x208]
     ec0:	4d 85 f6             	test   r14,r14
     ec3:	0f 84 de 00 00 00    	je     fa7 <sgx_sgxsd_enclave_get_next_report+0x147>
     ec9:	bf 01 00 00 00       	mov    edi,0x1
     ece:	e8 6d 42 01 00       	call   15140 <_Z7tracebrPv>
     ed3:	48 8d 3d e6 44 01 00 	lea    rdi,[rip+0x144e6]        # 153c0 <sgx_is_outside_enclave>
     eda:	e8 f1 3e 01 00       	call   14dd0 <_Z10traceedgecPv>
     edf:	be b0 01 00 00       	mov    esi,0x1b0
     ee4:	4c 89 f7             	mov    rdi,r14
     ee7:	e8 d4 44 01 00       	call   153c0 <sgx_is_outside_enclave>
     eec:	89 c5                	mov    ebp,eax
     eee:	31 ff                	xor    edi,edi
     ef0:	e8 4b 42 01 00       	call   15140 <_Z7tracebrPv>
     ef5:	85 ed                	test   ebp,ebp
     ef7:	0f 84 5a 01 00 00    	je     1057 <sgx_sgxsd_enclave_get_next_report+0x1f7>
     efd:	0f ae e8             	lfence 
     f00:	bf 01 00 00 00       	mov    edi,0x1
     f05:	e8 36 42 01 00       	call   15140 <_Z7tracebrPv>
     f0a:	bf 01 00 00 00       	mov    edi,0x1
     f0f:	e8 2c 42 01 00       	call   15140 <_Z7tracebrPv>
     f14:	48 8d 3d 35 77 01 00 	lea    rdi,[rip+0x17735]        # 18650 <dlmalloc>
     f1b:	e8 b0 3e 01 00       	call   14dd0 <_Z10traceedgecPv>
     f20:	bf b0 01 00 00       	mov    edi,0x1b0
     f25:	e8 26 77 01 00       	call   18650 <dlmalloc>
     f2a:	48 85 c0             	test   rax,rax
     f2d:	0f 84 35 01 00 00    	je     1068 <sgx_sgxsd_enclave_get_next_report+0x208>
     f33:	48 89 c5             	mov    rbp,rax
     f36:	31 ff                	xor    edi,edi
     f38:	e8 03 42 01 00       	call   15140 <_Z7tracebrPv>
     f3d:	c5 f8 57 c0          	vxorps xmm0,xmm0,xmm0
     f41:	c5 fc 11 85 90 01 00 	vmovups YMMWORD PTR [rbp+0x190],ymm0
     f48:	00 
     f49:	c5 fc 11 85 80 01 00 	vmovups YMMWORD PTR [rbp+0x180],ymm0
     f50:	00 
     f51:	c5 fc 11 85 60 01 00 	vmovups YMMWORD PTR [rbp+0x160],ymm0
     f58:	00 
     f59:	c5 fc 11 85 40 01 00 	vmovups YMMWORD PTR [rbp+0x140],ymm0
     f60:	00 
     f61:	c5 fc 11 85 20 01 00 	vmovups YMMWORD PTR [rbp+0x120],ymm0
     f68:	00 
     f69:	c5 fc 11 85 00 01 00 	vmovups YMMWORD PTR [rbp+0x100],ymm0
     f70:	00 
     f71:	c5 fc 11 85 e0 00 00 	vmovups YMMWORD PTR [rbp+0xe0],ymm0
     f78:	00 
     f79:	c5 fc 11 85 c0 00 00 	vmovups YMMWORD PTR [rbp+0xc0],ymm0
     f80:	00 
     f81:	c5 fc 11 85 a0 00 00 	vmovups YMMWORD PTR [rbp+0xa0],ymm0
     f88:	00 
     f89:	c5 fc 11 85 80 00 00 	vmovups YMMWORD PTR [rbp+0x80],ymm0
     f90:	00 
     f91:	c5 fc 11 45 60       	vmovups YMMWORD PTR [rbp+0x60],ymm0
     f96:	c5 fc 11 45 40       	vmovups YMMWORD PTR [rbp+0x40],ymm0
     f9b:	c5 fc 11 45 20       	vmovups YMMWORD PTR [rbp+0x20],ymm0
     fa0:	c5 fc 11 45 00       	vmovups YMMWORD PTR [rbp+0x0],ymm0
     fa5:	eb 0c                	jmp    fb3 <sgx_sgxsd_enclave_get_next_report+0x153>
     fa7:	31 ed                	xor    ebp,ebp
     fa9:	31 ff                	xor    edi,edi
     fab:	e8 90 41 01 00       	call   15140 <_Z7tracebrPv>
     fb0:	0f ae e8             	lfence 
     fb3:	45 31 ff             	xor    r15d,r15d
     fb6:	31 ff                	xor    edi,edi
     fb8:	c5 f8 77             	vzeroupper 
     fbb:	e8 80 41 01 00       	call   15140 <_Z7tracebrPv>
     fc0:	4c 8d 63 08          	lea    r12,[rbx+0x8]
     fc4:	48 8d 3d 25 20 00 00 	lea    rdi,[rip+0x2025]        # 2ff0 <sgxsd_enclave_get_next_report>
     fcb:	e8 00 3e 01 00       	call   14dd0 <_Z10traceedgecPv>
     fd0:	b9 00 02 00 00       	mov    ecx,0x200
     fd5:	48 89 e7             	mov    rdi,rsp
     fd8:	4c 89 e6             	mov    rsi,r12
     fdb:	f3 a4                	rep movs BYTE PTR es:[rdi],BYTE PTR ds:[rsi]
     fdd:	48 89 ef             	mov    rdi,rbp
     fe0:	e8 0b 20 00 00       	call   2ff0 <sgxsd_enclave_get_next_report>
     fe5:	89 03                	mov    DWORD PTR [rbx],eax
     fe7:	48 85 ed             	test   rbp,rbp
     fea:	74 73                	je     105f <sgx_sgxsd_enclave_get_next_report+0x1ff>
     fec:	41 bf 01 00 00 00    	mov    r15d,0x1
     ff2:	bf 01 00 00 00       	mov    edi,0x1
     ff7:	e8 44 41 01 00       	call   15140 <_Z7tracebrPv>
     ffc:	48 8d 3d 2d aa 01 00 	lea    rdi,[rip+0x1aa2d]        # 1ba30 <memcpy_s>
    1003:	e8 c8 3d 01 00       	call   14dd0 <_Z10traceedgecPv>
    1008:	be b0 01 00 00       	mov    esi,0x1b0
    100d:	b9 b0 01 00 00       	mov    ecx,0x1b0
    1012:	4c 89 f7             	mov    rdi,r14
    1015:	48 89 ea             	mov    rdx,rbp
    1018:	e8 13 aa 01 00       	call   1ba30 <memcpy_s>
    101d:	b3 01                	mov    bl,0x1
    101f:	85 c0                	test   eax,eax
    1021:	75 0c                	jne    102f <sgx_sgxsd_enclave_get_next_report+0x1cf>
    1023:	31 db                	xor    ebx,ebx
    1025:	31 ff                	xor    edi,edi
    1027:	e8 14 41 01 00       	call   15140 <_Z7tracebrPv>
    102c:	45 31 ff             	xor    r15d,r15d
    102f:	0f b6 fb             	movzx  edi,bl
    1032:	e8 09 41 01 00       	call   15140 <_Z7tracebrPv>
    1037:	bf 01 00 00 00       	mov    edi,0x1
    103c:	e8 ff 40 01 00       	call   15140 <_Z7tracebrPv>
    1041:	48 8d 3d 08 90 01 00 	lea    rdi,[rip+0x19008]        # 1a050 <dlfree>
    1048:	e8 83 3d 01 00       	call   14dd0 <_Z10traceedgecPv>
    104d:	48 89 ef             	mov    rdi,rbp
    1050:	e8 fb 8f 01 00       	call   1a050 <dlfree>
    1055:	eb 21                	jmp    1078 <sgx_sgxsd_enclave_get_next_report+0x218>
    1057:	41 bf 02 00 00 00    	mov    r15d,0x2
    105d:	eb 20                	jmp    107f <sgx_sgxsd_enclave_get_next_report+0x21f>
    105f:	31 ff                	xor    edi,edi
    1061:	e8 da 40 01 00       	call   15140 <_Z7tracebrPv>
    1066:	eb 10                	jmp    1078 <sgx_sgxsd_enclave_get_next_report+0x218>
    1068:	bf 01 00 00 00       	mov    edi,0x1
    106d:	e8 ce 40 01 00       	call   15140 <_Z7tracebrPv>
    1072:	41 bf 03 00 00 00    	mov    r15d,0x3
    1078:	31 ff                	xor    edi,edi
    107a:	e8 c1 40 01 00       	call   15140 <_Z7tracebrPv>
    107f:	48 8b bc 24 28 02 00 	mov    rdi,QWORD PTR [rsp+0x228]
    1086:	00 
    1087:	e8 44 3d 01 00       	call   14dd0 <_Z10traceedgecPv>
    108c:	44 89 f8             	mov    eax,r15d
    108f:	48 81 c4 00 02 00 00 	add    rsp,0x200
    1096:	5b                   	pop    rbx
    1097:	41 5c                	pop    r12
    1099:	41 5e                	pop    r14
    109b:	41 5f                	pop    r15
    109d:	5d                   	pop    rbp
    109e:	c3                   	ret    
    109f:	90                   	nop

00000000000010a0 <sgx_sgxsd_enclave_set_current_quote>:
    10a0:	53                   	push   rbx
    10a1:	48 85 ff             	test   rdi,rdi
    10a4:	74 4e                	je     10f4 <sgx_sgxsd_enclave_set_current_quote+0x54>
    10a6:	48 89 fb             	mov    rbx,rdi
    10a9:	bf 01 00 00 00       	mov    edi,0x1
    10ae:	e8 8d 40 01 00       	call   15140 <_Z7tracebrPv>
    10b3:	48 8d 3d 06 43 01 00 	lea    rdi,[rip+0x14306]        # 153c0 <sgx_is_outside_enclave>
    10ba:	e8 11 3d 01 00       	call   14dd0 <_Z10traceedgecPv>
    10bf:	be 04 00 00 00       	mov    esi,0x4
    10c4:	48 89 df             	mov    rdi,rbx
    10c7:	e8 f4 42 01 00       	call   153c0 <sgx_is_outside_enclave>
    10cc:	85 c0                	test   eax,eax
    10ce:	74 24                	je     10f4 <sgx_sgxsd_enclave_set_current_quote+0x54>
    10d0:	bf 01 00 00 00       	mov    edi,0x1
    10d5:	e8 66 40 01 00       	call   15140 <_Z7tracebrPv>
    10da:	0f ae e8             	lfence 
    10dd:	48 8d 3d cc 20 00 00 	lea    rdi,[rip+0x20cc]        # 31b0 <sgxsd_enclave_set_current_quote>
    10e4:	e8 e7 3c 01 00       	call   14dd0 <_Z10traceedgecPv>
    10e9:	e8 c2 20 00 00       	call   31b0 <sgxsd_enclave_set_current_quote>
    10ee:	89 03                	mov    DWORD PTR [rbx],eax
    10f0:	31 db                	xor    ebx,ebx
    10f2:	eb 0c                	jmp    1100 <sgx_sgxsd_enclave_set_current_quote+0x60>
    10f4:	31 ff                	xor    edi,edi
    10f6:	e8 45 40 01 00       	call   15140 <_Z7tracebrPv>
    10fb:	bb 02 00 00 00       	mov    ebx,0x2
    1100:	48 8b 7c 24 08       	mov    rdi,QWORD PTR [rsp+0x8]
    1105:	e8 c6 3c 01 00       	call   14dd0 <_Z10traceedgecPv>
    110a:	89 d8                	mov    eax,ebx
    110c:	5b                   	pop    rbx
    110d:	c3                   	ret    
    110e:	66 90                	xchg   ax,ax

0000000000001110 <sgx_sgxsd_enclave_negotiate_request>:
    1110:	55                   	push   rbp
    1111:	41 57                	push   r15
    1113:	41 56                	push   r14
    1115:	41 55                	push   r13
    1117:	41 54                	push   r12
    1119:	53                   	push   rbx
    111a:	50                   	push   rax
    111b:	41 be 02 00 00 00    	mov    r14d,0x2
    1121:	48 85 ff             	test   rdi,rdi
    1124:	0f 84 8f 02 00 00    	je     13b9 <sgx_sgxsd_enclave_negotiate_request+0x2a9>
    112a:	48 89 fb             	mov    rbx,rdi
    112d:	bf 01 00 00 00       	mov    edi,0x1
    1132:	e8 09 40 01 00       	call   15140 <_Z7tracebrPv>
    1137:	48 8d 3d 82 42 01 00 	lea    rdi,[rip+0x14282]        # 153c0 <sgx_is_outside_enclave>
    113e:	e8 8d 3c 01 00       	call   14dd0 <_Z10traceedgecPv>
    1143:	be 18 00 00 00       	mov    esi,0x18
    1148:	48 89 df             	mov    rdi,rbx
    114b:	e8 70 42 01 00       	call   153c0 <sgx_is_outside_enclave>
    1150:	85 c0                	test   eax,eax
    1152:	0f 84 61 02 00 00    	je     13b9 <sgx_sgxsd_enclave_negotiate_request+0x2a9>
    1158:	bf 01 00 00 00       	mov    edi,0x1
    115d:	e8 de 3f 01 00       	call   15140 <_Z7tracebrPv>
    1162:	0f ae e8             	lfence 
    1165:	48 8b 6b 08          	mov    rbp,QWORD PTR [rbx+0x8]
    1169:	4c 8b 7b 10          	mov    r15,QWORD PTR [rbx+0x10]
    116d:	48 85 ed             	test   rbp,rbp
    1170:	74 2b                	je     119d <sgx_sgxsd_enclave_negotiate_request+0x8d>
    1172:	bf 01 00 00 00       	mov    edi,0x1
    1177:	e8 c4 3f 01 00       	call   15140 <_Z7tracebrPv>
    117c:	48 8d 3d 3d 42 01 00 	lea    rdi,[rip+0x1423d]        # 153c0 <sgx_is_outside_enclave>
    1183:	e8 48 3c 01 00       	call   14dd0 <_Z10traceedgecPv>
    1188:	be 20 00 00 00       	mov    esi,0x20
    118d:	48 89 ef             	mov    rdi,rbp
    1190:	e8 2b 42 01 00       	call   153c0 <sgx_is_outside_enclave>
    1195:	85 c0                	test   eax,eax
    1197:	0f 84 1c 02 00 00    	je     13b9 <sgx_sgxsd_enclave_negotiate_request+0x2a9>
    119d:	31 ff                	xor    edi,edi
    119f:	e8 9c 3f 01 00       	call   15140 <_Z7tracebrPv>
    11a4:	4d 85 ff             	test   r15,r15
    11a7:	74 2b                	je     11d4 <sgx_sgxsd_enclave_negotiate_request+0xc4>
    11a9:	bf 01 00 00 00       	mov    edi,0x1
    11ae:	e8 8d 3f 01 00       	call   15140 <_Z7tracebrPv>
    11b3:	48 8d 3d 06 42 01 00 	lea    rdi,[rip+0x14206]        # 153c0 <sgx_is_outside_enclave>
    11ba:	e8 11 3c 01 00       	call   14dd0 <_Z10traceedgecPv>
    11bf:	be 80 00 00 00       	mov    esi,0x80
    11c4:	4c 89 ff             	mov    rdi,r15
    11c7:	e8 f4 41 01 00       	call   153c0 <sgx_is_outside_enclave>
    11cc:	85 c0                	test   eax,eax
    11ce:	0f 84 e5 01 00 00    	je     13b9 <sgx_sgxsd_enclave_negotiate_request+0x2a9>
    11d4:	45 31 e4             	xor    r12d,r12d
    11d7:	31 ff                	xor    edi,edi
    11d9:	e8 62 3f 01 00       	call   15140 <_Z7tracebrPv>
    11de:	0f ae e8             	lfence 
    11e1:	48 85 ed             	test   rbp,rbp
    11e4:	0f 84 91 00 00 00    	je     127b <sgx_sgxsd_enclave_negotiate_request+0x16b>
    11ea:	41 be 01 00 00 00    	mov    r14d,0x1
    11f0:	bf 01 00 00 00       	mov    edi,0x1
    11f5:	e8 46 3f 01 00       	call   15140 <_Z7tracebrPv>
    11fa:	bf 01 00 00 00       	mov    edi,0x1
    11ff:	e8 3c 3f 01 00       	call   15140 <_Z7tracebrPv>
    1204:	48 8d 3d 45 74 01 00 	lea    rdi,[rip+0x17445]        # 18650 <dlmalloc>
    120b:	e8 c0 3b 01 00       	call   14dd0 <_Z10traceedgecPv>
    1210:	bf 20 00 00 00       	mov    edi,0x20
    1215:	e8 36 74 01 00       	call   18650 <dlmalloc>
    121a:	48 85 c0             	test   rax,rax
    121d:	74 39                	je     1258 <sgx_sgxsd_enclave_negotiate_request+0x148>
    121f:	49 89 c4             	mov    r12,rax
    1222:	45 31 ed             	xor    r13d,r13d
    1225:	31 ff                	xor    edi,edi
    1227:	e8 14 3f 01 00       	call   15140 <_Z7tracebrPv>
    122c:	48 8d 3d fd a7 01 00 	lea    rdi,[rip+0x1a7fd]        # 1ba30 <memcpy_s>
    1233:	e8 98 3b 01 00       	call   14dd0 <_Z10traceedgecPv>
    1238:	be 20 00 00 00       	mov    esi,0x20
    123d:	b9 20 00 00 00       	mov    ecx,0x20
    1242:	4c 89 e7             	mov    rdi,r12
    1245:	48 89 ea             	mov    rdx,rbp
    1248:	e8 e3 a7 01 00       	call   1ba30 <memcpy_s>
    124d:	85 c0                	test   eax,eax
    124f:	74 23                	je     1274 <sgx_sgxsd_enclave_negotiate_request+0x164>
    1251:	b3 01                	mov    bl,0x1
    1253:	e9 0c 01 00 00       	jmp    1364 <sgx_sgxsd_enclave_negotiate_request+0x254>
    1258:	bf 01 00 00 00       	mov    edi,0x1
    125d:	e8 de 3e 01 00       	call   15140 <_Z7tracebrPv>
    1262:	31 ff                	xor    edi,edi
    1264:	e8 d7 3e 01 00       	call   15140 <_Z7tracebrPv>
    1269:	41 be 03 00 00 00    	mov    r14d,0x3
    126f:	e9 45 01 00 00       	jmp    13b9 <sgx_sgxsd_enclave_negotiate_request+0x2a9>
    1274:	31 ff                	xor    edi,edi
    1276:	e8 c5 3e 01 00       	call   15140 <_Z7tracebrPv>
    127b:	45 31 f6             	xor    r14d,r14d
    127e:	31 ff                	xor    edi,edi
    1280:	e8 bb 3e 01 00       	call   15140 <_Z7tracebrPv>
    1285:	4d 85 ff             	test   r15,r15
    1288:	74 5b                	je     12e5 <sgx_sgxsd_enclave_negotiate_request+0x1d5>
    128a:	bf 01 00 00 00       	mov    edi,0x1
    128f:	e8 ac 3e 01 00       	call   15140 <_Z7tracebrPv>
    1294:	bf 01 00 00 00       	mov    edi,0x1
    1299:	e8 a2 3e 01 00       	call   15140 <_Z7tracebrPv>
    129e:	48 8d 3d ab 73 01 00 	lea    rdi,[rip+0x173ab]        # 18650 <dlmalloc>
    12a5:	e8 26 3b 01 00       	call   14dd0 <_Z10traceedgecPv>
    12aa:	bf 80 00 00 00       	mov    edi,0x80
    12af:	e8 9c 73 01 00       	call   18650 <dlmalloc>
    12b4:	48 85 c0             	test   rax,rax
    12b7:	0f 84 9c 00 00 00    	je     1359 <sgx_sgxsd_enclave_negotiate_request+0x249>
    12bd:	49 89 c5             	mov    r13,rax
    12c0:	31 ff                	xor    edi,edi
    12c2:	e8 79 3e 01 00       	call   15140 <_Z7tracebrPv>
    12c7:	c5 f8 57 c0          	vxorps xmm0,xmm0,xmm0
    12cb:	c4 c1 7c 11 45 60    	vmovups YMMWORD PTR [r13+0x60],ymm0
    12d1:	c4 c1 7c 11 45 40    	vmovups YMMWORD PTR [r13+0x40],ymm0
    12d7:	c4 c1 7c 11 45 20    	vmovups YMMWORD PTR [r13+0x20],ymm0
    12dd:	c4 c1 7c 11 45 00    	vmovups YMMWORD PTR [r13+0x0],ymm0
    12e3:	eb 03                	jmp    12e8 <sgx_sgxsd_enclave_negotiate_request+0x1d8>
    12e5:	45 31 ed             	xor    r13d,r13d
    12e8:	31 ff                	xor    edi,edi
    12ea:	c5 f8 77             	vzeroupper 
    12ed:	e8 4e 3e 01 00       	call   15140 <_Z7tracebrPv>
    12f2:	48 8d 3d 67 24 00 00 	lea    rdi,[rip+0x2467]        # 3760 <sgxsd_enclave_negotiate_request>
    12f9:	e8 d2 3a 01 00       	call   14dd0 <_Z10traceedgecPv>
    12fe:	4c 89 e7             	mov    rdi,r12
    1301:	4c 89 ee             	mov    rsi,r13
    1304:	e8 57 24 00 00       	call   3760 <sgxsd_enclave_negotiate_request>
    1309:	89 03                	mov    DWORD PTR [rbx],eax
    130b:	4d 85 ed             	test   r13,r13
    130e:	74 45                	je     1355 <sgx_sgxsd_enclave_negotiate_request+0x245>
    1310:	41 be 01 00 00 00    	mov    r14d,0x1
    1316:	bf 01 00 00 00       	mov    edi,0x1
    131b:	e8 20 3e 01 00       	call   15140 <_Z7tracebrPv>
    1320:	48 8d 3d 09 a7 01 00 	lea    rdi,[rip+0x1a709]        # 1ba30 <memcpy_s>
    1327:	e8 a4 3a 01 00       	call   14dd0 <_Z10traceedgecPv>
    132c:	be 80 00 00 00       	mov    esi,0x80
    1331:	b9 80 00 00 00       	mov    ecx,0x80
    1336:	4c 89 ff             	mov    rdi,r15
    1339:	4c 89 ea             	mov    rdx,r13
    133c:	e8 ef a6 01 00       	call   1ba30 <memcpy_s>
    1341:	b3 01                	mov    bl,0x1
    1343:	85 c0                	test   eax,eax
    1345:	75 1d                	jne    1364 <sgx_sgxsd_enclave_negotiate_request+0x254>
    1347:	31 db                	xor    ebx,ebx
    1349:	31 ff                	xor    edi,edi
    134b:	e8 f0 3d 01 00       	call   15140 <_Z7tracebrPv>
    1350:	45 31 f6             	xor    r14d,r14d
    1353:	eb 0f                	jmp    1364 <sgx_sgxsd_enclave_negotiate_request+0x254>
    1355:	31 db                	xor    ebx,ebx
    1357:	eb 0b                	jmp    1364 <sgx_sgxsd_enclave_negotiate_request+0x254>
    1359:	41 be 03 00 00 00    	mov    r14d,0x3
    135f:	b3 01                	mov    bl,0x1
    1361:	45 31 ed             	xor    r13d,r13d
    1364:	0f b6 fb             	movzx  edi,bl
    1367:	e8 d4 3d 01 00       	call   15140 <_Z7tracebrPv>
    136c:	4d 85 e4             	test   r12,r12
    136f:	74 1e                	je     138f <sgx_sgxsd_enclave_negotiate_request+0x27f>
    1371:	bf 01 00 00 00       	mov    edi,0x1
    1376:	e8 c5 3d 01 00       	call   15140 <_Z7tracebrPv>
    137b:	48 8d 3d ce 8c 01 00 	lea    rdi,[rip+0x18cce]        # 1a050 <dlfree>
    1382:	e8 49 3a 01 00       	call   14dd0 <_Z10traceedgecPv>
    1387:	4c 89 e7             	mov    rdi,r12
    138a:	e8 c1 8c 01 00       	call   1a050 <dlfree>
    138f:	31 ff                	xor    edi,edi
    1391:	e8 aa 3d 01 00       	call   15140 <_Z7tracebrPv>
    1396:	4d 85 ed             	test   r13,r13
    1399:	74 1e                	je     13b9 <sgx_sgxsd_enclave_negotiate_request+0x2a9>
    139b:	bf 01 00 00 00       	mov    edi,0x1
    13a0:	e8 9b 3d 01 00       	call   15140 <_Z7tracebrPv>
    13a5:	48 8d 3d a4 8c 01 00 	lea    rdi,[rip+0x18ca4]        # 1a050 <dlfree>
    13ac:	e8 1f 3a 01 00       	call   14dd0 <_Z10traceedgecPv>
    13b1:	4c 89 ef             	mov    rdi,r13
    13b4:	e8 97 8c 01 00       	call   1a050 <dlfree>
    13b9:	31 ff                	xor    edi,edi
    13bb:	e8 80 3d 01 00       	call   15140 <_Z7tracebrPv>
    13c0:	48 8b 7c 24 38       	mov    rdi,QWORD PTR [rsp+0x38]
    13c5:	e8 06 3a 01 00       	call   14dd0 <_Z10traceedgecPv>
    13ca:	44 89 f0             	mov    eax,r14d
    13cd:	48 83 c4 08          	add    rsp,0x8
    13d1:	5b                   	pop    rbx
    13d2:	41 5c                	pop    r12
    13d4:	41 5d                	pop    r13
    13d6:	41 5e                	pop    r14
    13d8:	41 5f                	pop    r15
    13da:	5d                   	pop    rbp
    13db:	c3                   	ret    
    13dc:	0f 1f 40 00          	nop    DWORD PTR [rax+0x0]

00000000000013e0 <sgx_sgxsd_enclave_server_start>:
    13e0:	55                   	push   rbp
    13e1:	41 57                	push   r15
    13e3:	41 56                	push   r14
    13e5:	53                   	push   rbx
    13e6:	50                   	push   rax
    13e7:	bd 02 00 00 00       	mov    ebp,0x2
    13ec:	48 85 ff             	test   rdi,rdi
    13ef:	0f 84 6a 01 00 00    	je     155f <sgx_sgxsd_enclave_server_start+0x17f>
    13f5:	48 89 fb             	mov    rbx,rdi
    13f8:	bf 01 00 00 00       	mov    edi,0x1
    13fd:	e8 3e 3d 01 00       	call   15140 <_Z7tracebrPv>
    1402:	48 8d 3d b7 3f 01 00 	lea    rdi,[rip+0x13fb7]        # 153c0 <sgx_is_outside_enclave>
    1409:	e8 c2 39 01 00       	call   14dd0 <_Z10traceedgecPv>
    140e:	be 18 00 00 00       	mov    esi,0x18
    1413:	48 89 df             	mov    rdi,rbx
    1416:	e8 a5 3f 01 00       	call   153c0 <sgx_is_outside_enclave>
    141b:	85 c0                	test   eax,eax
    141d:	0f 84 3c 01 00 00    	je     155f <sgx_sgxsd_enclave_server_start+0x17f>
    1423:	bf 01 00 00 00       	mov    edi,0x1
    1428:	e8 13 3d 01 00       	call   15140 <_Z7tracebrPv>
    142d:	0f ae e8             	lfence 
    1430:	4c 8b 7b 08          	mov    r15,QWORD PTR [rbx+0x8]
    1434:	4d 85 ff             	test   r15,r15
    1437:	0f 84 ab 00 00 00    	je     14e8 <sgx_sgxsd_enclave_server_start+0x108>
    143d:	bf 01 00 00 00       	mov    edi,0x1
    1442:	e8 f9 3c 01 00       	call   15140 <_Z7tracebrPv>
    1447:	48 8d 3d 72 3f 01 00 	lea    rdi,[rip+0x13f72]        # 153c0 <sgx_is_outside_enclave>
    144e:	e8 7d 39 01 00       	call   14dd0 <_Z10traceedgecPv>
    1453:	be 04 00 00 00       	mov    esi,0x4
    1458:	4c 89 ff             	mov    rdi,r15
    145b:	e8 60 3f 01 00       	call   153c0 <sgx_is_outside_enclave>
    1460:	89 c5                	mov    ebp,eax
    1462:	31 ff                	xor    edi,edi
    1464:	e8 d7 3c 01 00       	call   15140 <_Z7tracebrPv>
    1469:	85 ed                	test   ebp,ebp
    146b:	0f 84 86 00 00 00    	je     14f7 <sgx_sgxsd_enclave_server_start+0x117>
    1471:	0f ae e8             	lfence 
    1474:	bf 01 00 00 00       	mov    edi,0x1
    1479:	e8 c2 3c 01 00       	call   15140 <_Z7tracebrPv>
    147e:	bf 01 00 00 00       	mov    edi,0x1
    1483:	e8 b8 3c 01 00       	call   15140 <_Z7tracebrPv>
    1488:	48 8d 3d c1 71 01 00 	lea    rdi,[rip+0x171c1]        # 18650 <dlmalloc>
    148f:	e8 3c 39 01 00       	call   14dd0 <_Z10traceedgecPv>
    1494:	bf 04 00 00 00       	mov    edi,0x4
    1499:	e8 b2 71 01 00       	call   18650 <dlmalloc>
    149e:	48 85 c0             	test   rax,rax
    14a1:	74 5b                	je     14fe <sgx_sgxsd_enclave_server_start+0x11e>
    14a3:	49 89 c6             	mov    r14,rax
    14a6:	31 ff                	xor    edi,edi
    14a8:	e8 93 3c 01 00       	call   15140 <_Z7tracebrPv>
    14ad:	48 8d 3d 7c a5 01 00 	lea    rdi,[rip+0x1a57c]        # 1ba30 <memcpy_s>
    14b4:	e8 17 39 01 00       	call   14dd0 <_Z10traceedgecPv>
    14b9:	be 04 00 00 00       	mov    esi,0x4
    14be:	b9 04 00 00 00       	mov    ecx,0x4
    14c3:	4c 89 f7             	mov    rdi,r14
    14c6:	4c 89 fa             	mov    rdx,r15
    14c9:	e8 62 a5 01 00       	call   1ba30 <memcpy_s>
    14ce:	85 c0                	test   eax,eax
    14d0:	74 3d                	je     150f <sgx_sgxsd_enclave_server_start+0x12f>
    14d2:	bd 01 00 00 00       	mov    ebp,0x1
    14d7:	bf 01 00 00 00       	mov    edi,0x1
    14dc:	e8 5f 3c 01 00       	call   15140 <_Z7tracebrPv>
    14e1:	4d 85 f6             	test   r14,r14
    14e4:	75 5b                	jne    1541 <sgx_sgxsd_enclave_server_start+0x161>
    14e6:	eb 77                	jmp    155f <sgx_sgxsd_enclave_server_start+0x17f>
    14e8:	45 31 f6             	xor    r14d,r14d
    14eb:	31 ff                	xor    edi,edi
    14ed:	e8 4e 3c 01 00       	call   15140 <_Z7tracebrPv>
    14f2:	0f ae e8             	lfence 
    14f5:	eb 1f                	jmp    1516 <sgx_sgxsd_enclave_server_start+0x136>
    14f7:	bd 02 00 00 00       	mov    ebp,0x2
    14fc:	eb 68                	jmp    1566 <sgx_sgxsd_enclave_server_start+0x186>
    14fe:	bf 01 00 00 00       	mov    edi,0x1
    1503:	e8 38 3c 01 00       	call   15140 <_Z7tracebrPv>
    1508:	bd 03 00 00 00       	mov    ebp,0x3
    150d:	eb 50                	jmp    155f <sgx_sgxsd_enclave_server_start+0x17f>
    150f:	31 ff                	xor    edi,edi
    1511:	e8 2a 3c 01 00       	call   15140 <_Z7tracebrPv>
    1516:	31 ed                	xor    ebp,ebp
    1518:	31 ff                	xor    edi,edi
    151a:	e8 21 3c 01 00       	call   15140 <_Z7tracebrPv>
    151f:	4c 8b 7b 10          	mov    r15,QWORD PTR [rbx+0x10]
    1523:	48 8d 3d b6 28 00 00 	lea    rdi,[rip+0x28b6]        # 3de0 <sgxsd_enclave_server_start>
    152a:	e8 a1 38 01 00       	call   14dd0 <_Z10traceedgecPv>
    152f:	4c 89 f7             	mov    rdi,r14
    1532:	4c 89 fe             	mov    rsi,r15
    1535:	e8 a6 28 00 00       	call   3de0 <sgxsd_enclave_server_start>
    153a:	89 03                	mov    DWORD PTR [rbx],eax
    153c:	4d 85 f6             	test   r14,r14
    153f:	74 1e                	je     155f <sgx_sgxsd_enclave_server_start+0x17f>
    1541:	bf 01 00 00 00       	mov    edi,0x1
    1546:	e8 f5 3b 01 00       	call   15140 <_Z7tracebrPv>
    154b:	48 8d 3d fe 8a 01 00 	lea    rdi,[rip+0x18afe]        # 1a050 <dlfree>
    1552:	e8 79 38 01 00       	call   14dd0 <_Z10traceedgecPv>
    1557:	4c 89 f7             	mov    rdi,r14
    155a:	e8 f1 8a 01 00       	call   1a050 <dlfree>
    155f:	31 ff                	xor    edi,edi
    1561:	e8 da 3b 01 00       	call   15140 <_Z7tracebrPv>
    1566:	48 8b 7c 24 28       	mov    rdi,QWORD PTR [rsp+0x28]
    156b:	e8 60 38 01 00       	call   14dd0 <_Z10traceedgecPv>
    1570:	89 e8                	mov    eax,ebp
    1572:	48 83 c4 08          	add    rsp,0x8
    1576:	5b                   	pop    rbx
    1577:	41 5e                	pop    r14
    1579:	41 5f                	pop    r15
    157b:	5d                   	pop    rbp
    157c:	c3                   	ret    
    157d:	0f 1f 00             	nop    DWORD PTR [rax]

0000000000001580 <sgx_sgxsd_enclave_server_call>:
    1580:	55                   	push   rbp
    1581:	41 57                	push   r15
    1583:	41 56                	push   r14
    1585:	41 55                	push   r13
    1587:	41 54                	push   r12
    1589:	53                   	push   rbx
    158a:	48 83 ec 18          	sub    rsp,0x18
    158e:	41 be 02 00 00 00    	mov    r14d,0x2
    1594:	48 85 ff             	test   rdi,rdi
    1597:	0f 84 bd 02 00 00    	je     185a <sgx_sgxsd_enclave_server_call+0x2da>
    159d:	48 89 fb             	mov    rbx,rdi
    15a0:	bf 01 00 00 00       	mov    edi,0x1
    15a5:	e8 96 3b 01 00       	call   15140 <_Z7tracebrPv>
    15aa:	48 8d 3d 0f 3e 01 00 	lea    rdi,[rip+0x13e0f]        # 153c0 <sgx_is_outside_enclave>
    15b1:	e8 1a 38 01 00       	call   14dd0 <_Z10traceedgecPv>
    15b6:	be 38 00 00 00       	mov    esi,0x38
    15bb:	48 89 df             	mov    rdi,rbx
    15be:	e8 fd 3d 01 00       	call   153c0 <sgx_is_outside_enclave>
    15c3:	85 c0                	test   eax,eax
    15c5:	0f 84 8f 02 00 00    	je     185a <sgx_sgxsd_enclave_server_call+0x2da>
    15cb:	bf 01 00 00 00       	mov    edi,0x1
    15d0:	e8 6b 3b 01 00       	call   15140 <_Z7tracebrPv>
    15d5:	0f ae e8             	lfence 
    15d8:	48 8b 6b 08          	mov    rbp,QWORD PTR [rbx+0x8]
    15dc:	4c 8b 63 10          	mov    r12,QWORD PTR [rbx+0x10]
    15e0:	4c 8b 6b 18          	mov    r13,QWORD PTR [rbx+0x18]
    15e4:	4c 8b 7b 20          	mov    r15,QWORD PTR [rbx+0x20]
    15e8:	48 85 ed             	test   rbp,rbp
    15eb:	74 2b                	je     1618 <sgx_sgxsd_enclave_server_call+0x98>
    15ed:	bf 01 00 00 00       	mov    edi,0x1
    15f2:	e8 49 3b 01 00       	call   15140 <_Z7tracebrPv>
    15f7:	48 8d 3d c2 3d 01 00 	lea    rdi,[rip+0x13dc2]        # 153c0 <sgx_is_outside_enclave>
    15fe:	e8 cd 37 01 00       	call   14dd0 <_Z10traceedgecPv>
    1603:	be 04 00 00 00       	mov    esi,0x4
    1608:	48 89 ef             	mov    rdi,rbp
    160b:	e8 b0 3d 01 00       	call   153c0 <sgx_is_outside_enclave>
    1610:	85 c0                	test   eax,eax
    1612:	0f 84 42 02 00 00    	je     185a <sgx_sgxsd_enclave_server_call+0x2da>
    1618:	31 ff                	xor    edi,edi
    161a:	e8 21 3b 01 00       	call   15140 <_Z7tracebrPv>
    161f:	4d 85 e4             	test   r12,r12
    1622:	74 2b                	je     164f <sgx_sgxsd_enclave_server_call+0xcf>
    1624:	bf 01 00 00 00       	mov    edi,0x1
    1629:	e8 12 3b 01 00       	call   15140 <_Z7tracebrPv>
    162e:	48 8d 3d 8b 3d 01 00 	lea    rdi,[rip+0x13d8b]        # 153c0 <sgx_is_outside_enclave>
    1635:	e8 96 37 01 00       	call   14dd0 <_Z10traceedgecPv>
    163a:	be 40 00 00 00       	mov    esi,0x40
    163f:	4c 89 e7             	mov    rdi,r12
    1642:	e8 79 3d 01 00       	call   153c0 <sgx_is_outside_enclave>
    1647:	85 c0                	test   eax,eax
    1649:	0f 84 0b 02 00 00    	je     185a <sgx_sgxsd_enclave_server_call+0x2da>
    164f:	31 ff                	xor    edi,edi
    1651:	e8 ea 3a 01 00       	call   15140 <_Z7tracebrPv>
    1656:	4d 85 ed             	test   r13,r13
    1659:	74 29                	je     1684 <sgx_sgxsd_enclave_server_call+0x104>
    165b:	bf 01 00 00 00       	mov    edi,0x1
    1660:	e8 db 3a 01 00       	call   15140 <_Z7tracebrPv>
    1665:	48 8d 3d 54 3d 01 00 	lea    rdi,[rip+0x13d54]        # 153c0 <sgx_is_outside_enclave>
    166c:	e8 5f 37 01 00       	call   14dd0 <_Z10traceedgecPv>
    1671:	4c 89 ef             	mov    rdi,r13
    1674:	4c 89 fe             	mov    rsi,r15
    1677:	e8 44 3d 01 00       	call   153c0 <sgx_is_outside_enclave>
    167c:	85 c0                	test   eax,eax
    167e:	0f 84 d6 01 00 00    	je     185a <sgx_sgxsd_enclave_server_call+0x2da>
    1684:	4c 89 7c 24 08       	mov    QWORD PTR [rsp+0x8],r15
    1689:	45 31 ff             	xor    r15d,r15d
    168c:	31 ff                	xor    edi,edi
    168e:	e8 ad 3a 01 00       	call   15140 <_Z7tracebrPv>
    1693:	0f ae e8             	lfence 
    1696:	48 85 ed             	test   rbp,rbp
    1699:	0f 84 9d 00 00 00    	je     173c <sgx_sgxsd_enclave_server_call+0x1bc>
    169f:	bf 01 00 00 00       	mov    edi,0x1
    16a4:	e8 97 3a 01 00       	call   15140 <_Z7tracebrPv>
    16a9:	bf 01 00 00 00       	mov    edi,0x1
    16ae:	e8 8d 3a 01 00       	call   15140 <_Z7tracebrPv>
    16b3:	48 8d 3d 96 6f 01 00 	lea    rdi,[rip+0x16f96]        # 18650 <dlmalloc>
    16ba:	e8 11 37 01 00       	call   14dd0 <_Z10traceedgecPv>
    16bf:	bf 04 00 00 00       	mov    edi,0x4
    16c4:	e8 87 6f 01 00       	call   18650 <dlmalloc>
    16c9:	48 85 c0             	test   rax,rax
    16cc:	74 44                	je     1712 <sgx_sgxsd_enclave_server_call+0x192>
    16ce:	49 89 c7             	mov    r15,rax
    16d1:	31 ff                	xor    edi,edi
    16d3:	e8 68 3a 01 00       	call   15140 <_Z7tracebrPv>
    16d8:	48 8d 3d 51 a3 01 00 	lea    rdi,[rip+0x1a351]        # 1ba30 <memcpy_s>
    16df:	e8 ec 36 01 00       	call   14dd0 <_Z10traceedgecPv>
    16e4:	be 04 00 00 00       	mov    esi,0x4
    16e9:	b9 04 00 00 00       	mov    ecx,0x4
    16ee:	4c 89 ff             	mov    rdi,r15
    16f1:	48 89 ea             	mov    rdx,rbp
    16f4:	e8 37 a3 01 00       	call   1ba30 <memcpy_s>
    16f9:	85 c0                	test   eax,eax
    16fb:	74 38                	je     1735 <sgx_sgxsd_enclave_server_call+0x1b5>
    16fd:	41 be 01 00 00 00    	mov    r14d,0x1
    1703:	bf 01 00 00 00       	mov    edi,0x1
    1708:	e8 33 3a 01 00       	call   15140 <_Z7tracebrPv>
    170d:	e9 cc 00 00 00       	jmp    17de <sgx_sgxsd_enclave_server_call+0x25e>
    1712:	bf 01 00 00 00       	mov    edi,0x1
    1717:	e8 24 3a 01 00       	call   15140 <_Z7tracebrPv>
    171c:	31 ff                	xor    edi,edi
    171e:	e8 1d 3a 01 00       	call   15140 <_Z7tracebrPv>
    1723:	31 ff                	xor    edi,edi
    1725:	e8 16 3a 01 00       	call   15140 <_Z7tracebrPv>
    172a:	41 be 03 00 00 00    	mov    r14d,0x3
    1730:	e9 25 01 00 00       	jmp    185a <sgx_sgxsd_enclave_server_call+0x2da>
    1735:	31 ff                	xor    edi,edi
    1737:	e8 04 3a 01 00       	call   15140 <_Z7tracebrPv>
    173c:	31 ff                	xor    edi,edi
    173e:	e8 fd 39 01 00       	call   15140 <_Z7tracebrPv>
    1743:	4d 85 e4             	test   r12,r12
    1746:	74 7b                	je     17c3 <sgx_sgxsd_enclave_server_call+0x243>
    1748:	bf 01 00 00 00       	mov    edi,0x1
    174d:	e8 ee 39 01 00       	call   15140 <_Z7tracebrPv>
    1752:	bf 01 00 00 00       	mov    edi,0x1
    1757:	e8 e4 39 01 00       	call   15140 <_Z7tracebrPv>
    175c:	48 8d 3d ed 6e 01 00 	lea    rdi,[rip+0x16eed]        # 18650 <dlmalloc>
    1763:	e8 68 36 01 00       	call   14dd0 <_Z10traceedgecPv>
    1768:	bf 40 00 00 00       	mov    edi,0x40
    176d:	e8 de 6e 01 00       	call   18650 <dlmalloc>
    1772:	48 85 c0             	test   rax,rax
    1775:	74 57                	je     17ce <sgx_sgxsd_enclave_server_call+0x24e>
    1777:	48 89 c5             	mov    rbp,rax
    177a:	31 ff                	xor    edi,edi
    177c:	e8 bf 39 01 00       	call   15140 <_Z7tracebrPv>
    1781:	48 8d 3d a8 a2 01 00 	lea    rdi,[rip+0x1a2a8]        # 1ba30 <memcpy_s>
    1788:	e8 43 36 01 00       	call   14dd0 <_Z10traceedgecPv>
    178d:	be 40 00 00 00       	mov    esi,0x40
    1792:	b9 40 00 00 00       	mov    ecx,0x40
    1797:	48 89 2c 24          	mov    QWORD PTR [rsp],rbp
    179b:	48 89 ef             	mov    rdi,rbp
    179e:	4c 89 e2             	mov    rdx,r12
    17a1:	e8 8a a2 01 00       	call   1ba30 <memcpy_s>
    17a6:	85 c0                	test   eax,eax
    17a8:	0f 84 cf 00 00 00    	je     187d <sgx_sgxsd_enclave_server_call+0x2fd>
    17ae:	41 be 01 00 00 00    	mov    r14d,0x1
    17b4:	bf 01 00 00 00       	mov    edi,0x1
    17b9:	e8 82 39 01 00       	call   15140 <_Z7tracebrPv>
    17be:	e9 b8 01 00 00       	jmp    197b <sgx_sgxsd_enclave_server_call+0x3fb>
    17c3:	31 c0                	xor    eax,eax
    17c5:	48 89 04 24          	mov    QWORD PTR [rsp],rax
    17c9:	e9 b6 00 00 00       	jmp    1884 <sgx_sgxsd_enclave_server_call+0x304>
    17ce:	bf 01 00 00 00       	mov    edi,0x1
    17d3:	e8 68 39 01 00       	call   15140 <_Z7tracebrPv>
    17d8:	41 be 03 00 00 00    	mov    r14d,0x3
    17de:	45 31 e4             	xor    r12d,r12d
    17e1:	31 ed                	xor    ebp,ebp
    17e3:	4d 85 ff             	test   r15,r15
    17e6:	74 1e                	je     1806 <sgx_sgxsd_enclave_server_call+0x286>
    17e8:	bf 01 00 00 00       	mov    edi,0x1
    17ed:	e8 4e 39 01 00       	call   15140 <_Z7tracebrPv>
    17f2:	48 8d 3d 57 88 01 00 	lea    rdi,[rip+0x18857]        # 1a050 <dlfree>
    17f9:	e8 d2 35 01 00       	call   14dd0 <_Z10traceedgecPv>
    17fe:	4c 89 ff             	mov    rdi,r15
    1801:	e8 4a 88 01 00       	call   1a050 <dlfree>
    1806:	31 ff                	xor    edi,edi
    1808:	e8 33 39 01 00       	call   15140 <_Z7tracebrPv>
    180d:	4d 85 e4             	test   r12,r12
    1810:	74 1e                	je     1830 <sgx_sgxsd_enclave_server_call+0x2b0>
    1812:	bf 01 00 00 00       	mov    edi,0x1
    1817:	e8 24 39 01 00       	call   15140 <_Z7tracebrPv>
    181c:	48 8d 3d 2d 88 01 00 	lea    rdi,[rip+0x1882d]        # 1a050 <dlfree>
    1823:	e8 a8 35 01 00       	call   14dd0 <_Z10traceedgecPv>
    1828:	4c 89 e7             	mov    rdi,r12
    182b:	e8 20 88 01 00       	call   1a050 <dlfree>
    1830:	31 ff                	xor    edi,edi
    1832:	e8 09 39 01 00       	call   15140 <_Z7tracebrPv>
    1837:	48 85 ed             	test   rbp,rbp
    183a:	74 1e                	je     185a <sgx_sgxsd_enclave_server_call+0x2da>
    183c:	bf 01 00 00 00       	mov    edi,0x1
    1841:	e8 fa 38 01 00       	call   15140 <_Z7tracebrPv>
    1846:	48 8d 3d 03 88 01 00 	lea    rdi,[rip+0x18803]        # 1a050 <dlfree>
    184d:	e8 7e 35 01 00       	call   14dd0 <_Z10traceedgecPv>
    1852:	48 89 ef             	mov    rdi,rbp
    1855:	e8 f6 87 01 00       	call   1a050 <dlfree>
    185a:	31 ff                	xor    edi,edi
    185c:	e8 df 38 01 00       	call   15140 <_Z7tracebrPv>
    1861:	48 8b 7c 24 48       	mov    rdi,QWORD PTR [rsp+0x48]
    1866:	e8 65 35 01 00       	call   14dd0 <_Z10traceedgecPv>
    186b:	44 89 f0             	mov    eax,r14d
    186e:	48 83 c4 18          	add    rsp,0x18
    1872:	5b                   	pop    rbx
    1873:	41 5c                	pop    r12
    1875:	41 5d                	pop    r13
    1877:	41 5e                	pop    r14
    1879:	41 5f                	pop    r15
    187b:	5d                   	pop    rbp
    187c:	c3                   	ret    
    187d:	31 ff                	xor    edi,edi
    187f:	e8 bc 38 01 00       	call   15140 <_Z7tracebrPv>
    1884:	45 31 f6             	xor    r14d,r14d
    1887:	31 ff                	xor    edi,edi
    1889:	e8 b2 38 01 00       	call   15140 <_Z7tracebrPv>
    188e:	4d 85 ed             	test   r13,r13
    1891:	0f 84 83 00 00 00    	je     191a <sgx_sgxsd_enclave_server_call+0x39a>
    1897:	bf 01 00 00 00       	mov    edi,0x1
    189c:	e8 9f 38 01 00       	call   15140 <_Z7tracebrPv>
    18a1:	4c 8b 64 24 08       	mov    r12,QWORD PTR [rsp+0x8]
    18a6:	4d 85 e4             	test   r12,r12
    18a9:	74 6f                	je     191a <sgx_sgxsd_enclave_server_call+0x39a>
    18ab:	bf 01 00 00 00       	mov    edi,0x1
    18b0:	e8 8b 38 01 00       	call   15140 <_Z7tracebrPv>
    18b5:	31 ff                	xor    edi,edi
    18b7:	e8 84 38 01 00       	call   15140 <_Z7tracebrPv>
    18bc:	48 8d 3d 8d 6d 01 00 	lea    rdi,[rip+0x16d8d]        # 18650 <dlmalloc>
    18c3:	e8 08 35 01 00       	call   14dd0 <_Z10traceedgecPv>
    18c8:	4c 89 e7             	mov    rdi,r12
    18cb:	e8 80 6d 01 00       	call   18650 <dlmalloc>
    18d0:	48 85 c0             	test   rax,rax
    18d3:	0f 84 92 00 00 00    	je     196b <sgx_sgxsd_enclave_server_call+0x3eb>
    18d9:	48 89 c5             	mov    rbp,rax
    18dc:	31 ff                	xor    edi,edi
    18de:	e8 5d 38 01 00       	call   15140 <_Z7tracebrPv>
    18e3:	48 8d 3d 46 a1 01 00 	lea    rdi,[rip+0x1a146]        # 1ba30 <memcpy_s>
    18ea:	e8 e1 34 01 00       	call   14dd0 <_Z10traceedgecPv>
    18ef:	48 89 ef             	mov    rdi,rbp
    18f2:	4c 89 e6             	mov    rsi,r12
    18f5:	4c 89 ea             	mov    rdx,r13
    18f8:	4c 89 e1             	mov    rcx,r12
    18fb:	e8 30 a1 01 00       	call   1ba30 <memcpy_s>
    1900:	85 c0                	test   eax,eax
    1902:	0f 84 87 00 00 00    	je     198f <sgx_sgxsd_enclave_server_call+0x40f>
    1908:	41 be 01 00 00 00    	mov    r14d,0x1
    190e:	bf 01 00 00 00       	mov    edi,0x1
    1913:	e8 28 38 01 00       	call   15140 <_Z7tracebrPv>
    1918:	eb 63                	jmp    197d <sgx_sgxsd_enclave_server_call+0x3fd>
    191a:	31 ed                	xor    ebp,ebp
    191c:	31 ff                	xor    edi,edi
    191e:	e8 1d 38 01 00       	call   15140 <_Z7tracebrPv>
    1923:	48 8b 43 28          	mov    rax,QWORD PTR [rbx+0x28]
    1927:	48 89 44 24 10       	mov    QWORD PTR [rsp+0x10],rax
    192c:	4c 8b 6b 30          	mov    r13,QWORD PTR [rbx+0x30]
    1930:	48 8d 3d 29 26 00 00 	lea    rdi,[rip+0x2629]        # 3f60 <sgxsd_enclave_server_call>
    1937:	e8 94 34 01 00       	call   14dd0 <_Z10traceedgecPv>
    193c:	4c 89 ff             	mov    rdi,r15
    193f:	4c 8b 24 24          	mov    r12,QWORD PTR [rsp]
    1943:	4c 89 e6             	mov    rsi,r12
    1946:	48 89 ea             	mov    rdx,rbp
    1949:	48 8b 4c 24 08       	mov    rcx,QWORD PTR [rsp+0x8]
    194e:	4c 8b 44 24 10       	mov    r8,QWORD PTR [rsp+0x10]
    1953:	4d 89 e9             	mov    r9,r13
    1956:	e8 05 26 00 00       	call   3f60 <sgxsd_enclave_server_call>
    195b:	89 03                	mov    DWORD PTR [rbx],eax
    195d:	4d 85 ff             	test   r15,r15
    1960:	0f 85 82 fe ff ff    	jne    17e8 <sgx_sgxsd_enclave_server_call+0x268>
    1966:	e9 9b fe ff ff       	jmp    1806 <sgx_sgxsd_enclave_server_call+0x286>
    196b:	bf 01 00 00 00       	mov    edi,0x1
    1970:	e8 cb 37 01 00       	call   15140 <_Z7tracebrPv>
    1975:	41 be 03 00 00 00    	mov    r14d,0x3
    197b:	31 ed                	xor    ebp,ebp
    197d:	4c 8b 24 24          	mov    r12,QWORD PTR [rsp]
    1981:	4d 85 ff             	test   r15,r15
    1984:	0f 85 5e fe ff ff    	jne    17e8 <sgx_sgxsd_enclave_server_call+0x268>
    198a:	e9 77 fe ff ff       	jmp    1806 <sgx_sgxsd_enclave_server_call+0x286>
    198f:	31 ff                	xor    edi,edi
    1991:	e8 aa 37 01 00       	call   15140 <_Z7tracebrPv>
    1996:	eb 84                	jmp    191c <sgx_sgxsd_enclave_server_call+0x39c>
    1998:	0f 1f 84 00 00 00 00 	nop    DWORD PTR [rax+rax*1+0x0]
    199f:	00 

00000000000019a0 <sgx_sgxsd_enclave_server_stop>:
    19a0:	55                   	push   rbp
    19a1:	41 57                	push   r15
    19a3:	41 56                	push   r14
    19a5:	53                   	push   rbx
    19a6:	50                   	push   rax
    19a7:	bd 02 00 00 00       	mov    ebp,0x2
    19ac:	48 85 ff             	test   rdi,rdi
    19af:	0f 84 6a 01 00 00    	je     1b1f <sgx_sgxsd_enclave_server_stop+0x17f>
    19b5:	48 89 fb             	mov    rbx,rdi
    19b8:	bf 01 00 00 00       	mov    edi,0x1
    19bd:	e8 7e 37 01 00       	call   15140 <_Z7tracebrPv>
    19c2:	48 8d 3d f7 39 01 00 	lea    rdi,[rip+0x139f7]        # 153c0 <sgx_is_outside_enclave>
    19c9:	e8 02 34 01 00       	call   14dd0 <_Z10traceedgecPv>
    19ce:	be 18 00 00 00       	mov    esi,0x18
    19d3:	48 89 df             	mov    rdi,rbx
    19d6:	e8 e5 39 01 00       	call   153c0 <sgx_is_outside_enclave>
    19db:	85 c0                	test   eax,eax
    19dd:	0f 84 3c 01 00 00    	je     1b1f <sgx_sgxsd_enclave_server_stop+0x17f>
    19e3:	bf 01 00 00 00       	mov    edi,0x1
    19e8:	e8 53 37 01 00       	call   15140 <_Z7tracebrPv>
    19ed:	0f ae e8             	lfence 
    19f0:	4c 8b 7b 08          	mov    r15,QWORD PTR [rbx+0x8]
    19f4:	4d 85 ff             	test   r15,r15
    19f7:	0f 84 ab 00 00 00    	je     1aa8 <sgx_sgxsd_enclave_server_stop+0x108>
    19fd:	bf 01 00 00 00       	mov    edi,0x1
    1a02:	e8 39 37 01 00       	call   15140 <_Z7tracebrPv>
    1a07:	48 8d 3d b2 39 01 00 	lea    rdi,[rip+0x139b2]        # 153c0 <sgx_is_outside_enclave>
    1a0e:	e8 bd 33 01 00       	call   14dd0 <_Z10traceedgecPv>
    1a13:	be 10 00 00 00       	mov    esi,0x10
    1a18:	4c 89 ff             	mov    rdi,r15
    1a1b:	e8 a0 39 01 00       	call   153c0 <sgx_is_outside_enclave>
    1a20:	89 c5                	mov    ebp,eax
    1a22:	31 ff                	xor    edi,edi
    1a24:	e8 17 37 01 00       	call   15140 <_Z7tracebrPv>
    1a29:	85 ed                	test   ebp,ebp
    1a2b:	0f 84 86 00 00 00    	je     1ab7 <sgx_sgxsd_enclave_server_stop+0x117>
    1a31:	0f ae e8             	lfence 
    1a34:	bf 01 00 00 00       	mov    edi,0x1
    1a39:	e8 02 37 01 00       	call   15140 <_Z7tracebrPv>
    1a3e:	bf 01 00 00 00       	mov    edi,0x1
    1a43:	e8 f8 36 01 00       	call   15140 <_Z7tracebrPv>
    1a48:	48 8d 3d 01 6c 01 00 	lea    rdi,[rip+0x16c01]        # 18650 <dlmalloc>
    1a4f:	e8 7c 33 01 00       	call   14dd0 <_Z10traceedgecPv>
    1a54:	bf 10 00 00 00       	mov    edi,0x10
    1a59:	e8 f2 6b 01 00       	call   18650 <dlmalloc>
    1a5e:	48 85 c0             	test   rax,rax
    1a61:	74 5b                	je     1abe <sgx_sgxsd_enclave_server_stop+0x11e>
    1a63:	49 89 c6             	mov    r14,rax
    1a66:	31 ff                	xor    edi,edi
    1a68:	e8 d3 36 01 00       	call   15140 <_Z7tracebrPv>
    1a6d:	48 8d 3d bc 9f 01 00 	lea    rdi,[rip+0x19fbc]        # 1ba30 <memcpy_s>
    1a74:	e8 57 33 01 00       	call   14dd0 <_Z10traceedgecPv>
    1a79:	be 10 00 00 00       	mov    esi,0x10
    1a7e:	b9 10 00 00 00       	mov    ecx,0x10
    1a83:	4c 89 f7             	mov    rdi,r14
    1a86:	4c 89 fa             	mov    rdx,r15
    1a89:	e8 a2 9f 01 00       	call   1ba30 <memcpy_s>
    1a8e:	85 c0                	test   eax,eax
    1a90:	74 3d                	je     1acf <sgx_sgxsd_enclave_server_stop+0x12f>
    1a92:	bd 01 00 00 00       	mov    ebp,0x1
    1a97:	bf 01 00 00 00       	mov    edi,0x1
    1a9c:	e8 9f 36 01 00       	call   15140 <_Z7tracebrPv>
    1aa1:	4d 85 f6             	test   r14,r14
    1aa4:	75 5b                	jne    1b01 <sgx_sgxsd_enclave_server_stop+0x161>
    1aa6:	eb 77                	jmp    1b1f <sgx_sgxsd_enclave_server_stop+0x17f>
    1aa8:	45 31 f6             	xor    r14d,r14d
    1aab:	31 ff                	xor    edi,edi
    1aad:	e8 8e 36 01 00       	call   15140 <_Z7tracebrPv>
    1ab2:	0f ae e8             	lfence 
    1ab5:	eb 1f                	jmp    1ad6 <sgx_sgxsd_enclave_server_stop+0x136>
    1ab7:	bd 02 00 00 00       	mov    ebp,0x2
    1abc:	eb 68                	jmp    1b26 <sgx_sgxsd_enclave_server_stop+0x186>
    1abe:	bf 01 00 00 00       	mov    edi,0x1
    1ac3:	e8 78 36 01 00       	call   15140 <_Z7tracebrPv>
    1ac8:	bd 03 00 00 00       	mov    ebp,0x3
    1acd:	eb 50                	jmp    1b1f <sgx_sgxsd_enclave_server_stop+0x17f>
    1acf:	31 ff                	xor    edi,edi
    1ad1:	e8 6a 36 01 00       	call   15140 <_Z7tracebrPv>
    1ad6:	31 ed                	xor    ebp,ebp
    1ad8:	31 ff                	xor    edi,edi
    1ada:	e8 61 36 01 00       	call   15140 <_Z7tracebrPv>
    1adf:	4c 8b 7b 10          	mov    r15,QWORD PTR [rbx+0x10]
    1ae3:	48 8d 3d 46 28 00 00 	lea    rdi,[rip+0x2846]        # 4330 <sgxsd_enclave_server_stop>
    1aea:	e8 e1 32 01 00       	call   14dd0 <_Z10traceedgecPv>
    1aef:	4c 89 f7             	mov    rdi,r14
    1af2:	4c 89 fe             	mov    rsi,r15
    1af5:	e8 36 28 00 00       	call   4330 <sgxsd_enclave_server_stop>
    1afa:	89 03                	mov    DWORD PTR [rbx],eax
    1afc:	4d 85 f6             	test   r14,r14
    1aff:	74 1e                	je     1b1f <sgx_sgxsd_enclave_server_stop+0x17f>
    1b01:	bf 01 00 00 00       	mov    edi,0x1
    1b06:	e8 35 36 01 00       	call   15140 <_Z7tracebrPv>
    1b0b:	48 8d 3d 3e 85 01 00 	lea    rdi,[rip+0x1853e]        # 1a050 <dlfree>
    1b12:	e8 b9 32 01 00       	call   14dd0 <_Z10traceedgecPv>
    1b17:	4c 89 f7             	mov    rdi,r14
    1b1a:	e8 31 85 01 00       	call   1a050 <dlfree>
    1b1f:	31 ff                	xor    edi,edi
    1b21:	e8 1a 36 01 00       	call   15140 <_Z7tracebrPv>
    1b26:	48 8b 7c 24 28       	mov    rdi,QWORD PTR [rsp+0x28]
    1b2b:	e8 a0 32 01 00       	call   14dd0 <_Z10traceedgecPv>
    1b30:	89 e8                	mov    eax,ebp
    1b32:	48 83 c4 08          	add    rsp,0x8
    1b36:	5b                   	pop    rbx
    1b37:	41 5e                	pop    r14
    1b39:	41 5f                	pop    r15
    1b3b:	5d                   	pop    rbp
    1b3c:	c3                   	ret    
    1b3d:	0f 1f 00             	nop    DWORD PTR [rax]

0000000000001b40 <sgx_hello>:
    1b40:	53                   	push   rbx
    1b41:	48 85 ff             	test   rdi,rdi
    1b44:	74 11                	je     1b57 <sgx_hello+0x17>
    1b46:	bf 01 00 00 00       	mov    edi,0x1
    1b4b:	e8 f0 35 01 00       	call   15140 <_Z7tracebrPv>
    1b50:	bb 02 00 00 00       	mov    ebx,0x2
    1b55:	eb 1a                	jmp    1b71 <sgx_hello+0x31>
    1b57:	31 db                	xor    ebx,ebx
    1b59:	31 ff                	xor    edi,edi
    1b5b:	e8 e0 35 01 00       	call   15140 <_Z7tracebrPv>
    1b60:	48 8d 3d 69 2a 00 00 	lea    rdi,[rip+0x2a69]        # 45d0 <hello>
    1b67:	e8 64 32 01 00       	call   14dd0 <_Z10traceedgecPv>
    1b6c:	e8 5f 2a 00 00       	call   45d0 <hello>
    1b71:	48 8b 7c 24 08       	mov    rdi,QWORD PTR [rsp+0x8]
    1b76:	e8 55 32 01 00       	call   14dd0 <_Z10traceedgecPv>
    1b7b:	89 d8                	mov    eax,ebx
    1b7d:	5b                   	pop    rbx
    1b7e:	c3                   	ret    
    1b7f:	90                   	nop

0000000000001b80 <sgx_setBucket>:
    1b80:	55                   	push   rbp
    1b81:	53                   	push   rbx
    1b82:	50                   	push   rax
    1b83:	bd 02 00 00 00       	mov    ebp,0x2
    1b88:	48 85 ff             	test   rdi,rdi
    1b8b:	74 1e                	je     1bab <sgx_setBucket+0x2b>
    1b8d:	48 89 fb             	mov    rbx,rdi
    1b90:	be 08 00 00 00       	mov    esi,0x8
    1b95:	e8 26 38 01 00       	call   153c0 <sgx_is_outside_enclave>
    1b9a:	85 c0                	test   eax,eax
    1b9c:	74 0d                	je     1bab <sgx_setBucket+0x2b>
    1b9e:	0f ae e8             	lfence 
    1ba1:	48 8b 3b             	mov    rdi,QWORD PTR [rbx]
    1ba4:	e8 a7 30 01 00       	call   14c50 <setBucket>
    1ba9:	31 ed                	xor    ebp,ebp
    1bab:	89 e8                	mov    eax,ebp
    1bad:	48 83 c4 08          	add    rsp,0x8
    1bb1:	5b                   	pop    rbx
    1bb2:	5d                   	pop    rbp
    1bb3:	c3                   	ret    
    1bb4:	66 2e 0f 1f 84 00 00 	nop    WORD PTR cs:[rax+rax*1+0x0]
    1bbb:	00 00 00 
    1bbe:	66 90                	xchg   ax,ax

0000000000001bc0 <sgx_setActionCounter>:
    1bc0:	53                   	push   rbx
    1bc1:	48 85 ff             	test   rdi,rdi
    1bc4:	74 52                	je     1c18 <sgx_setActionCounter+0x58>
    1bc6:	48 89 fb             	mov    rbx,rdi
    1bc9:	bf 01 00 00 00       	mov    edi,0x1
    1bce:	e8 6d 35 01 00       	call   15140 <_Z7tracebrPv>
    1bd3:	48 8d 3d e6 37 01 00 	lea    rdi,[rip+0x137e6]        # 153c0 <sgx_is_outside_enclave>
    1bda:	e8 f1 31 01 00       	call   14dd0 <_Z10traceedgecPv>
    1bdf:	be 08 00 00 00       	mov    esi,0x8
    1be4:	48 89 df             	mov    rdi,rbx
    1be7:	e8 d4 37 01 00       	call   153c0 <sgx_is_outside_enclave>
    1bec:	85 c0                	test   eax,eax
    1bee:	74 28                	je     1c18 <sgx_setActionCounter+0x58>
    1bf0:	bf 01 00 00 00       	mov    edi,0x1
    1bf5:	e8 46 35 01 00       	call   15140 <_Z7tracebrPv>
    1bfa:	0f ae e8             	lfence 
    1bfd:	48 8b 1b             	mov    rbx,QWORD PTR [rbx]
    1c00:	48 8d 3d 69 30 01 00 	lea    rdi,[rip+0x13069]        # 14c70 <setActionCounter>
    1c07:	e8 c4 31 01 00       	call   14dd0 <_Z10traceedgecPv>
    1c0c:	48 89 df             	mov    rdi,rbx
    1c0f:	e8 5c 30 01 00       	call   14c70 <setActionCounter>
    1c14:	31 db                	xor    ebx,ebx
    1c16:	eb 0c                	jmp    1c24 <sgx_setActionCounter+0x64>
    1c18:	31 ff                	xor    edi,edi
    1c1a:	e8 21 35 01 00       	call   15140 <_Z7tracebrPv>
    1c1f:	bb 02 00 00 00       	mov    ebx,0x2
    1c24:	48 8b 7c 24 08       	mov    rdi,QWORD PTR [rsp+0x8]
    1c29:	e8 a2 31 01 00       	call   14dd0 <_Z10traceedgecPv>
    1c2e:	89 d8                	mov    eax,ebx
    1c30:	5b                   	pop    rbx
    1c31:	c3                   	ret    
    1c32:	66 2e 0f 1f 84 00 00 	nop    WORD PTR cs:[rax+rax*1+0x0]
    1c39:	00 00 00 
    1c3c:	0f 1f 40 00          	nop    DWORD PTR [rax+0x0]

0000000000001c40 <sgx_bootSecureCommunication>:
    1c40:	b8 02 00 00 00       	mov    eax,0x2
    1c45:	48 85 ff             	test   rdi,rdi
    1c48:	74 01                	je     1c4b <sgx_bootSecureCommunication+0xb>
    1c4a:	c3                   	ret    
    1c4b:	50                   	push   rax
    1c4c:	e8 3f 30 01 00       	call   14c90 <bootSecureCommunication>
    1c51:	31 c0                	xor    eax,eax
    1c53:	48 83 c4 08          	add    rsp,0x8
    1c57:	c3                   	ret    
    1c58:	0f 1f 84 00 00 00 00 	nop    DWORD PTR [rax+rax*1+0x0]
    1c5f:	00 

0000000000001c60 <sgx_makeEndMsg>:
    1c60:	b8 02 00 00 00       	mov    eax,0x2
    1c65:	48 85 ff             	test   rdi,rdi
    1c68:	74 01                	je     1c6b <sgx_makeEndMsg+0xb>
    1c6a:	c3                   	ret    
    1c6b:	50                   	push   rax
    1c6c:	e8 1f 2c 01 00       	call   14890 <makeEndMsg>
    1c71:	31 c0                	xor    eax,eax
    1c73:	48 83 c4 08          	add    rsp,0x8
    1c77:	c3                   	ret    
    1c78:	0f 1f 84 00 00 00 00 	nop    DWORD PTR [rax+rax*1+0x0]
    1c7f:	00 

0000000000001c80 <sgxsd_ocall_reply>:
    1c80:	55                   	push   rbp
    1c81:	41 57                	push   r15
    1c83:	41 56                	push   r14
    1c85:	41 55                	push   r13
    1c87:	41 54                	push   r12
    1c89:	53                   	push   rbx
    1c8a:	48 83 ec 28          	sub    rsp,0x28
    1c8e:	4d 89 c6             	mov    r14,r8
    1c91:	48 89 cd             	mov    rbp,rcx
    1c94:	49 89 d5             	mov    r13,rdx
    1c97:	48 89 f3             	mov    rbx,rsi
    1c9a:	49 89 fc             	mov    r12,rdi
    1c9d:	48 85 f6             	test   rsi,rsi
    1ca0:	74 2b                	je     1ccd <sgxsd_ocall_reply+0x4d>
    1ca2:	bf 01 00 00 00       	mov    edi,0x1
    1ca7:	e8 94 34 01 00       	call   15140 <_Z7tracebrPv>
    1cac:	48 8d 3d bd 36 01 00 	lea    rdi,[rip+0x136bd]        # 15370 <sgx_is_within_enclave>
    1cb3:	e8 18 31 01 00       	call   14dd0 <_Z10traceedgecPv>
    1cb8:	be 40 00 00 00       	mov    esi,0x40
    1cbd:	48 89 df             	mov    rdi,rbx
    1cc0:	e8 ab 36 01 00       	call   15370 <sgx_is_within_enclave>
    1cc5:	85 c0                	test   eax,eax
    1cc7:	0f 84 8d 00 00 00    	je     1d5a <sgxsd_ocall_reply+0xda>
    1ccd:	31 ff                	xor    edi,edi
    1ccf:	e8 6c 34 01 00       	call   15140 <_Z7tracebrPv>
    1cd4:	4d 85 ed             	test   r13,r13
    1cd7:	74 25                	je     1cfe <sgxsd_ocall_reply+0x7e>
    1cd9:	bf 01 00 00 00       	mov    edi,0x1
    1cde:	e8 5d 34 01 00       	call   15140 <_Z7tracebrPv>
    1ce3:	48 8d 3d 86 36 01 00 	lea    rdi,[rip+0x13686]        # 15370 <sgx_is_within_enclave>
    1cea:	e8 e1 30 01 00       	call   14dd0 <_Z10traceedgecPv>
    1cef:	4c 89 ef             	mov    rdi,r13
    1cf2:	48 89 ee             	mov    rsi,rbp
    1cf5:	e8 76 36 01 00       	call   15370 <sgx_is_within_enclave>
    1cfa:	85 c0                	test   eax,eax
    1cfc:	74 5c                	je     1d5a <sgxsd_ocall_reply+0xda>
    1cfe:	48 89 6c 24 08       	mov    QWORD PTR [rsp+0x8],rbp
    1d03:	31 ed                	xor    ebp,ebp
    1d05:	48 85 db             	test   rbx,rbx
    1d08:	40 0f 95 c5          	setne  bpl
    1d0c:	31 ff                	xor    edi,edi
    1d0e:	e8 2d 34 01 00       	call   15140 <_Z7tracebrPv>
    1d13:	49 89 ef             	mov    r15,rbp
    1d16:	49 c1 e7 06          	shl    r15,0x6
    1d1a:	49 83 cf 28          	or     r15,0x28
    1d1e:	89 ef                	mov    edi,ebp
    1d20:	e8 1b 34 01 00       	call   15140 <_Z7tracebrPv>
    1d25:	89 ef                	mov    edi,ebp
    1d27:	e8 14 34 01 00       	call   15140 <_Z7tracebrPv>
    1d2c:	31 ff                	xor    edi,edi
    1d2e:	e8 0d 34 01 00       	call   15140 <_Z7tracebrPv>
    1d33:	4d 85 ed             	test   r13,r13
    1d36:	74 33                	je     1d6b <sgxsd_ocall_reply+0xeb>
    1d38:	bf 01 00 00 00       	mov    edi,0x1
    1d3d:	e8 fe 33 01 00       	call   15140 <_Z7tracebrPv>
    1d42:	bf 01 00 00 00       	mov    edi,0x1
    1d47:	e8 f4 33 01 00       	call   15140 <_Z7tracebrPv>
    1d4c:	4c 03 7c 24 08       	add    r15,QWORD PTR [rsp+0x8]
    1d51:	73 26                	jae    1d79 <sgxsd_ocall_reply+0xf9>
    1d53:	bf 01 00 00 00       	mov    edi,0x1
    1d58:	eb 02                	jmp    1d5c <sgxsd_ocall_reply+0xdc>
    1d5a:	31 ff                	xor    edi,edi
    1d5c:	e8 df 33 01 00       	call   15140 <_Z7tracebrPv>
    1d61:	bd 02 00 00 00       	mov    ebp,0x2
    1d66:	e9 a0 01 00 00       	jmp    1f0b <sgxsd_ocall_reply+0x28b>
    1d6b:	31 ff                	xor    edi,edi
    1d6d:	e8 ce 33 01 00       	call   15140 <_Z7tracebrPv>
    1d72:	31 ff                	xor    edi,edi
    1d74:	e8 c7 33 01 00       	call   15140 <_Z7tracebrPv>
    1d79:	4c 89 74 24 20       	mov    QWORD PTR [rsp+0x20],r14
    1d7e:	31 ff                	xor    edi,edi
    1d80:	e8 bb 33 01 00       	call   15140 <_Z7tracebrPv>
    1d85:	48 8d 3d 84 36 01 00 	lea    rdi,[rip+0x13684]        # 15410 <sgx_ocalloc>
    1d8c:	e8 3f 30 01 00       	call   14dd0 <_Z10traceedgecPv>
    1d91:	4c 89 ff             	mov    rdi,r15
    1d94:	e8 77 36 01 00       	call   15410 <sgx_ocalloc>
    1d99:	48 85 c0             	test   rax,rax
    1d9c:	0f 84 8a 00 00 00    	je     1e2c <sgxsd_ocall_reply+0x1ac>
    1da2:	49 89 c6             	mov    r14,rax
    1da5:	4c 89 64 24 18       	mov    QWORD PTR [rsp+0x18],r12
    1daa:	31 ff                	xor    edi,edi
    1dac:	e8 8f 33 01 00       	call   15140 <_Z7tracebrPv>
    1db1:	4d 8d 66 28          	lea    r12,[r14+0x28]
    1db5:	49 8d 6f d8          	lea    rbp,[r15-0x28]
    1db9:	48 85 db             	test   rbx,rbx
    1dbc:	74 7d                	je     1e3b <sgxsd_ocall_reply+0x1bb>
    1dbe:	48 89 6c 24 10       	mov    QWORD PTR [rsp+0x10],rbp
    1dc3:	bd 01 00 00 00       	mov    ebp,0x1
    1dc8:	bf 01 00 00 00       	mov    edi,0x1
    1dcd:	e8 6e 33 01 00       	call   15140 <_Z7tracebrPv>
    1dd2:	4d 89 66 08          	mov    QWORD PTR [r14+0x8],r12
    1dd6:	48 8d 3d 53 9c 01 00 	lea    rdi,[rip+0x19c53]        # 1ba30 <memcpy_s>
    1ddd:	e8 ee 2f 01 00       	call   14dd0 <_Z10traceedgecPv>
    1de2:	b9 40 00 00 00       	mov    ecx,0x40
    1de7:	4c 89 e7             	mov    rdi,r12
    1dea:	48 8b 74 24 10       	mov    rsi,QWORD PTR [rsp+0x10]
    1def:	48 89 da             	mov    rdx,rbx
    1df2:	e8 39 9c 01 00       	call   1ba30 <memcpy_s>
    1df7:	85 c0                	test   eax,eax
    1df9:	0f 85 93 00 00 00    	jne    1e92 <sgxsd_ocall_reply+0x212>
    1dff:	31 ff                	xor    edi,edi
    1e01:	e8 3a 33 01 00       	call   15140 <_Z7tracebrPv>
    1e06:	4d 89 f4             	mov    r12,r14
    1e09:	49 83 c4 68          	add    r12,0x68
    1e0d:	49 83 c7 98          	add    r15,0xffffffffffffff98
    1e11:	48 8b 5c 24 08       	mov    rbx,QWORD PTR [rsp+0x8]
    1e16:	4d 85 ed             	test   r13,r13
    1e19:	75 3c                	jne    1e57 <sgxsd_ocall_reply+0x1d7>
    1e1b:	31 ff                	xor    edi,edi
    1e1d:	e8 1e 33 01 00       	call   15140 <_Z7tracebrPv>
    1e22:	49 c7 46 10 00 00 00 	mov    QWORD PTR [r14+0x10],0x0
    1e29:	00 
    1e2a:	eb 74                	jmp    1ea0 <sgxsd_ocall_reply+0x220>
    1e2c:	bd 01 00 00 00       	mov    ebp,0x1
    1e31:	bf 01 00 00 00       	mov    edi,0x1
    1e36:	e9 ba 00 00 00       	jmp    1ef5 <sgxsd_ocall_reply+0x275>
    1e3b:	31 ff                	xor    edi,edi
    1e3d:	e8 fe 32 01 00       	call   15140 <_Z7tracebrPv>
    1e42:	49 c7 46 08 00 00 00 	mov    QWORD PTR [r14+0x8],0x0
    1e49:	00 
    1e4a:	48 8b 5c 24 08       	mov    rbx,QWORD PTR [rsp+0x8]
    1e4f:	49 89 ef             	mov    r15,rbp
    1e52:	4d 85 ed             	test   r13,r13
    1e55:	74 c4                	je     1e1b <sgxsd_ocall_reply+0x19b>
    1e57:	bd 01 00 00 00       	mov    ebp,0x1
    1e5c:	bf 01 00 00 00       	mov    edi,0x1
    1e61:	e8 da 32 01 00       	call   15140 <_Z7tracebrPv>
    1e66:	4d 89 66 10          	mov    QWORD PTR [r14+0x10],r12
    1e6a:	31 ff                	xor    edi,edi
    1e6c:	e8 cf 32 01 00       	call   15140 <_Z7tracebrPv>
    1e71:	48 8d 3d b8 9b 01 00 	lea    rdi,[rip+0x19bb8]        # 1ba30 <memcpy_s>
    1e78:	e8 53 2f 01 00       	call   14dd0 <_Z10traceedgecPv>
    1e7d:	4c 89 e7             	mov    rdi,r12
    1e80:	4c 89 fe             	mov    rsi,r15
    1e83:	4c 89 ea             	mov    rdx,r13
    1e86:	48 89 d9             	mov    rcx,rbx
    1e89:	e8 a2 9b 01 00       	call   1ba30 <memcpy_s>
    1e8e:	85 c0                	test   eax,eax
    1e90:	74 07                	je     1e99 <sgxsd_ocall_reply+0x219>
    1e92:	bf 01 00 00 00       	mov    edi,0x1
    1e97:	eb 5c                	jmp    1ef5 <sgxsd_ocall_reply+0x275>
    1e99:	31 ff                	xor    edi,edi
    1e9b:	e8 a0 32 01 00       	call   15140 <_Z7tracebrPv>
    1ea0:	49 89 5e 18          	mov    QWORD PTR [r14+0x18],rbx
    1ea4:	48 8b 44 24 20       	mov    rax,QWORD PTR [rsp+0x20]
    1ea9:	49 89 46 20          	mov    QWORD PTR [r14+0x20],rax
    1ead:	48 8d 3d 9c 4b 01 00 	lea    rdi,[rip+0x14b9c]        # 16a50 <sgx_ocall>
    1eb4:	e8 17 2f 01 00       	call   14dd0 <_Z10traceedgecPv>
    1eb9:	31 ff                	xor    edi,edi
    1ebb:	4c 89 f6             	mov    rsi,r14
    1ebe:	e8 8d 4b 01 00       	call   16a50 <sgx_ocall>
    1ec3:	89 c5                	mov    ebp,eax
    1ec5:	85 c0                	test   eax,eax
    1ec7:	48 8b 5c 24 18       	mov    rbx,QWORD PTR [rsp+0x18]
    1ecc:	75 25                	jne    1ef3 <sgxsd_ocall_reply+0x273>
    1ece:	bf 01 00 00 00       	mov    edi,0x1
    1ed3:	e8 68 32 01 00       	call   15140 <_Z7tracebrPv>
    1ed8:	48 85 db             	test   rbx,rbx
    1edb:	74 0f                	je     1eec <sgxsd_ocall_reply+0x26c>
    1edd:	bf 01 00 00 00       	mov    edi,0x1
    1ee2:	e8 59 32 01 00       	call   15140 <_Z7tracebrPv>
    1ee7:	41 8b 06             	mov    eax,DWORD PTR [r14]
    1eea:	89 03                	mov    DWORD PTR [rbx],eax
    1eec:	31 ff                	xor    edi,edi
    1eee:	e8 4d 32 01 00       	call   15140 <_Z7tracebrPv>
    1ef3:	31 ff                	xor    edi,edi
    1ef5:	e8 46 32 01 00       	call   15140 <_Z7tracebrPv>
    1efa:	48 8d 3d ff 35 01 00 	lea    rdi,[rip+0x135ff]        # 15500 <sgx_ocfree>
    1f01:	e8 ca 2e 01 00       	call   14dd0 <_Z10traceedgecPv>
    1f06:	e8 f5 35 01 00       	call   15500 <sgx_ocfree>
    1f0b:	48 8b 7c 24 58       	mov    rdi,QWORD PTR [rsp+0x58]
    1f10:	e8 bb 2e 01 00       	call   14dd0 <_Z10traceedgecPv>
    1f15:	89 e8                	mov    eax,ebp
    1f17:	48 83 c4 28          	add    rsp,0x28
    1f1b:	5b                   	pop    rbx
    1f1c:	41 5c                	pop    r12
    1f1e:	41 5d                	pop    r13
    1f20:	41 5e                	pop    r14
    1f22:	41 5f                	pop    r15
    1f24:	5d                   	pop    rbp
    1f25:	c3                   	ret    
    1f26:	66 2e 0f 1f 84 00 00 	nop    WORD PTR cs:[rax+rax*1+0x0]
    1f2d:	00 00 00 

0000000000001f30 <ocall_print_string>:
    1f30:	55                   	push   rbp
    1f31:	41 57                	push   r15
    1f33:	41 56                	push   r14
    1f35:	41 54                	push   r12
    1f37:	53                   	push   rbx
    1f38:	49 89 fc             	mov    r12,rdi
    1f3b:	48 85 ff             	test   rdi,rdi
    1f3e:	0f 84 89 00 00 00    	je     1fcd <ocall_print_string+0x9d>
    1f44:	bf 01 00 00 00       	mov    edi,0x1
    1f49:	e8 f2 31 01 00       	call   15140 <_Z7tracebrPv>
    1f4e:	48 8d 3d fb 99 01 00 	lea    rdi,[rip+0x199fb]        # 1b950 <strlen>
    1f55:	e8 76 2e 01 00       	call   14dd0 <_Z10traceedgecPv>
    1f5a:	4c 89 e7             	mov    rdi,r12
    1f5d:	e8 ee 99 01 00       	call   1b950 <strlen>
    1f62:	48 89 c5             	mov    rbp,rax
    1f65:	4c 8d 70 01          	lea    r14,[rax+0x1]
    1f69:	bf 01 00 00 00       	mov    edi,0x1
    1f6e:	e8 cd 31 01 00       	call   15140 <_Z7tracebrPv>
    1f73:	48 8d 3d f6 33 01 00 	lea    rdi,[rip+0x133f6]        # 15370 <sgx_is_within_enclave>
    1f7a:	e8 51 2e 01 00       	call   14dd0 <_Z10traceedgecPv>
    1f7f:	4c 89 e7             	mov    rdi,r12
    1f82:	4c 89 f6             	mov    rsi,r14
    1f85:	e8 e6 33 01 00       	call   15370 <sgx_is_within_enclave>
    1f8a:	89 c3                	mov    ebx,eax
    1f8c:	31 ff                	xor    edi,edi
    1f8e:	e8 ad 31 01 00       	call   15140 <_Z7tracebrPv>
    1f93:	41 bf 02 00 00 00    	mov    r15d,0x2
    1f99:	85 db                	test   ebx,ebx
    1f9b:	0f 84 30 01 00 00    	je     20d1 <ocall_print_string+0x1a1>
    1fa1:	bf 01 00 00 00       	mov    edi,0x1
    1fa6:	e8 95 31 01 00       	call   15140 <_Z7tracebrPv>
    1fab:	48 83 c5 09          	add    rbp,0x9
    1faf:	bf 01 00 00 00       	mov    edi,0x1
    1fb4:	e8 87 31 01 00       	call   15140 <_Z7tracebrPv>
    1fb9:	4c 39 f5             	cmp    rbp,r14
    1fbc:	73 33                	jae    1ff1 <ocall_print_string+0xc1>
    1fbe:	bf 01 00 00 00       	mov    edi,0x1
    1fc3:	e8 78 31 01 00       	call   15140 <_Z7tracebrPv>
    1fc8:	e9 04 01 00 00       	jmp    20d1 <ocall_print_string+0x1a1>
    1fcd:	45 31 f6             	xor    r14d,r14d
    1fd0:	31 ff                	xor    edi,edi
    1fd2:	e8 69 31 01 00       	call   15140 <_Z7tracebrPv>
    1fd7:	31 ff                	xor    edi,edi
    1fd9:	e8 62 31 01 00       	call   15140 <_Z7tracebrPv>
    1fde:	31 ff                	xor    edi,edi
    1fe0:	e8 5b 31 01 00       	call   15140 <_Z7tracebrPv>
    1fe5:	31 ff                	xor    edi,edi
    1fe7:	e8 54 31 01 00       	call   15140 <_Z7tracebrPv>
    1fec:	bd 08 00 00 00       	mov    ebp,0x8
    1ff1:	31 ff                	xor    edi,edi
    1ff3:	e8 48 31 01 00       	call   15140 <_Z7tracebrPv>
    1ff8:	48 8d 3d 11 34 01 00 	lea    rdi,[rip+0x13411]        # 15410 <sgx_ocalloc>
    1fff:	e8 cc 2d 01 00       	call   14dd0 <_Z10traceedgecPv>
    2004:	48 89 ef             	mov    rdi,rbp
    2007:	e8 04 34 01 00       	call   15410 <sgx_ocalloc>
    200c:	48 85 c0             	test   rax,rax
    200f:	74 59                	je     206a <ocall_print_string+0x13a>
    2011:	48 89 c5             	mov    rbp,rax
    2014:	31 ff                	xor    edi,edi
    2016:	e8 25 31 01 00       	call   15140 <_Z7tracebrPv>
    201b:	4d 85 e4             	test   r12,r12
    201e:	74 57                	je     2077 <ocall_print_string+0x147>
    2020:	48 89 eb             	mov    rbx,rbp
    2023:	48 83 c3 08          	add    rbx,0x8
    2027:	41 bf 01 00 00 00    	mov    r15d,0x1
    202d:	bf 01 00 00 00       	mov    edi,0x1
    2032:	e8 09 31 01 00       	call   15140 <_Z7tracebrPv>
    2037:	48 89 5d 00          	mov    QWORD PTR [rbp+0x0],rbx
    203b:	31 ff                	xor    edi,edi
    203d:	e8 fe 30 01 00       	call   15140 <_Z7tracebrPv>
    2042:	48 8d 3d e7 99 01 00 	lea    rdi,[rip+0x199e7]        # 1ba30 <memcpy_s>
    2049:	e8 82 2d 01 00       	call   14dd0 <_Z10traceedgecPv>
    204e:	48 89 df             	mov    rdi,rbx
    2051:	4c 89 f6             	mov    rsi,r14
    2054:	4c 89 e2             	mov    rdx,r12
    2057:	4c 89 f1             	mov    rcx,r14
    205a:	e8 d1 99 01 00       	call   1ba30 <memcpy_s>
    205f:	85 c0                	test   eax,eax
    2061:	74 25                	je     2088 <ocall_print_string+0x158>
    2063:	bf 01 00 00 00       	mov    edi,0x1
    2068:	eb 51                	jmp    20bb <ocall_print_string+0x18b>
    206a:	41 bf 01 00 00 00    	mov    r15d,0x1
    2070:	bf 01 00 00 00       	mov    edi,0x1
    2075:	eb 44                	jmp    20bb <ocall_print_string+0x18b>
    2077:	31 ff                	xor    edi,edi
    2079:	e8 c2 30 01 00       	call   15140 <_Z7tracebrPv>
    207e:	48 c7 45 00 00 00 00 	mov    QWORD PTR [rbp+0x0],0x0
    2085:	00 
    2086:	eb 07                	jmp    208f <ocall_print_string+0x15f>
    2088:	31 ff                	xor    edi,edi
    208a:	e8 b1 30 01 00       	call   15140 <_Z7tracebrPv>
    208f:	48 8d 3d ba 49 01 00 	lea    rdi,[rip+0x149ba]        # 16a50 <sgx_ocall>
    2096:	e8 35 2d 01 00       	call   14dd0 <_Z10traceedgecPv>
    209b:	bf 01 00 00 00       	mov    edi,0x1
    20a0:	48 89 ee             	mov    rsi,rbp
    20a3:	e8 a8 49 01 00       	call   16a50 <sgx_ocall>
    20a8:	41 89 c7             	mov    r15d,eax
    20ab:	85 c0                	test   eax,eax
    20ad:	75 0a                	jne    20b9 <ocall_print_string+0x189>
    20af:	bf 01 00 00 00       	mov    edi,0x1
    20b4:	e8 87 30 01 00       	call   15140 <_Z7tracebrPv>
    20b9:	31 ff                	xor    edi,edi
    20bb:	e8 80 30 01 00       	call   15140 <_Z7tracebrPv>
    20c0:	48 8d 3d 39 34 01 00 	lea    rdi,[rip+0x13439]        # 15500 <sgx_ocfree>
    20c7:	e8 04 2d 01 00       	call   14dd0 <_Z10traceedgecPv>
    20cc:	e8 2f 34 01 00       	call   15500 <sgx_ocfree>
    20d1:	48 8b 7c 24 28       	mov    rdi,QWORD PTR [rsp+0x28]
    20d6:	e8 f5 2c 01 00       	call   14dd0 <_Z10traceedgecPv>
    20db:	44 89 f8             	mov    eax,r15d
    20de:	5b                   	pop    rbx
    20df:	41 5c                	pop    r12
    20e1:	41 5e                	pop    r14
    20e3:	41 5f                	pop    r15
    20e5:	5d                   	pop    rbp
    20e6:	c3                   	ret    
    20e7:	66 0f 1f 84 00 00 00 	nop    WORD PTR [rax+rax*1+0x0]
    20ee:	00 00 

00000000000020f0 <ocall_monitorgatewayu>:
    20f0:	55                   	push   rbp
    20f1:	41 57                	push   r15
    20f3:	41 56                	push   r14
    20f5:	41 55                	push   r13
    20f7:	41 54                	push   r12
    20f9:	53                   	push   rbx
    20fa:	48 83 ec 18          	sub    rsp,0x18
    20fe:	49 89 ce             	mov    r14,rcx
    2101:	48 89 d5             	mov    rbp,rdx
    2104:	49 89 f4             	mov    r12,rsi
    2107:	48 89 fb             	mov    rbx,rdi
    210a:	48 85 ff             	test   rdi,rdi
    210d:	74 13                	je     2122 <ocall_monitorgatewayu+0x32>
    210f:	48 89 df             	mov    rdi,rbx
    2112:	4c 89 e6             	mov    rsi,r12
    2115:	e8 56 32 01 00       	call   15370 <sgx_is_within_enclave>
    211a:	85 c0                	test   eax,eax
    211c:	0f 84 8d 00 00 00    	je     21af <ocall_monitorgatewayu+0xbf>
    2122:	48 85 ed             	test   rbp,rbp
    2125:	74 0f                	je     2136 <ocall_monitorgatewayu+0x46>
    2127:	48 89 ef             	mov    rdi,rbp
    212a:	4c 89 f6             	mov    rsi,r14
    212d:	e8 3e 32 01 00       	call   15370 <sgx_is_within_enclave>
    2132:	85 c0                	test   eax,eax
    2134:	74 79                	je     21af <ocall_monitorgatewayu+0xbf>
    2136:	48 85 db             	test   rbx,rbx
    2139:	4d 89 e5             	mov    r13,r12
    213c:	4c 0f 44 eb          	cmove  r13,rbx
    2140:	41 bf 02 00 00 00    	mov    r15d,0x2
    2146:	49 83 fd df          	cmp    r13,0xffffffffffffffdf
    214a:	0f 87 ea 00 00 00    	ja     223a <ocall_monitorgatewayu+0x14a>
    2150:	48 85 ed             	test   rbp,rbp
    2153:	4c 89 74 24 10       	mov    QWORD PTR [rsp+0x10],r14
    2158:	48 89 6c 24 08       	mov    QWORD PTR [rsp+0x8],rbp
    215d:	4c 0f 44 f5          	cmove  r14,rbp
    2161:	4b 8d 3c 2e          	lea    rdi,[r14+r13*1]
    2165:	48 83 c7 20          	add    rdi,0x20
    2169:	4c 39 f7             	cmp    rdi,r14
    216c:	0f 82 c8 00 00 00    	jb     223a <ocall_monitorgatewayu+0x14a>
    2172:	e8 99 32 01 00       	call   15410 <sgx_ocalloc>
    2177:	48 85 c0             	test   rax,rax
    217a:	0f 84 a8 00 00 00    	je     2228 <ocall_monitorgatewayu+0x138>
    2180:	49 89 c7             	mov    r15,rax
    2183:	48 89 c5             	mov    rbp,rax
    2186:	48 83 c5 20          	add    rbp,0x20
    218a:	48 85 db             	test   rbx,rbx
    218d:	74 2b                	je     21ba <ocall_monitorgatewayu+0xca>
    218f:	4d 01 ee             	add    r14,r13
    2192:	49 89 2f             	mov    QWORD PTR [r15],rbp
    2195:	48 89 ef             	mov    rdi,rbp
    2198:	4c 89 f6             	mov    rsi,r14
    219b:	48 89 da             	mov    rdx,rbx
    219e:	4c 89 e1             	mov    rcx,r12
    21a1:	e8 8a 98 01 00       	call   1ba30 <memcpy_s>
    21a6:	85 c0                	test   eax,eax
    21a8:	75 7e                	jne    2228 <ocall_monitorgatewayu+0x138>
    21aa:	4c 01 e5             	add    rbp,r12
    21ad:	eb 12                	jmp    21c1 <ocall_monitorgatewayu+0xd1>
    21af:	41 bf 02 00 00 00    	mov    r15d,0x2
    21b5:	e9 80 00 00 00       	jmp    223a <ocall_monitorgatewayu+0x14a>
    21ba:	49 c7 07 00 00 00 00 	mov    QWORD PTR [r15],0x0
    21c1:	4c 8b 74 24 10       	mov    r14,QWORD PTR [rsp+0x10]
    21c6:	48 8b 5c 24 08       	mov    rbx,QWORD PTR [rsp+0x8]
    21cb:	4d 89 67 08          	mov    QWORD PTR [r15+0x8],r12
    21cf:	48 85 db             	test   rbx,rbx
    21d2:	74 16                	je     21ea <ocall_monitorgatewayu+0xfa>
    21d4:	49 89 6f 10          	mov    QWORD PTR [r15+0x10],rbp
    21d8:	49 89 ec             	mov    r12,rbp
    21db:	48 89 ef             	mov    rdi,rbp
    21de:	31 f6                	xor    esi,esi
    21e0:	4c 89 f2             	mov    rdx,r14
    21e3:	e8 88 93 01 00       	call   1b570 <memset>
    21e8:	eb 0b                	jmp    21f5 <ocall_monitorgatewayu+0x105>
    21ea:	49 c7 47 10 00 00 00 	mov    QWORD PTR [r15+0x10],0x0
    21f1:	00 
    21f2:	45 31 e4             	xor    r12d,r12d
    21f5:	4d 89 77 18          	mov    QWORD PTR [r15+0x18],r14
    21f9:	bf 02 00 00 00       	mov    edi,0x2
    21fe:	4c 89 fe             	mov    rsi,r15
    2201:	e8 4a 48 01 00       	call   16a50 <sgx_ocall>
    2206:	41 89 c7             	mov    r15d,eax
    2209:	48 85 db             	test   rbx,rbx
    220c:	74 27                	je     2235 <ocall_monitorgatewayu+0x145>
    220e:	45 85 ff             	test   r15d,r15d
    2211:	75 22                	jne    2235 <ocall_monitorgatewayu+0x145>
    2213:	48 89 df             	mov    rdi,rbx
    2216:	4c 89 f6             	mov    rsi,r14
    2219:	4c 89 e2             	mov    rdx,r12
    221c:	4c 89 f1             	mov    rcx,r14
    221f:	e8 0c 98 01 00       	call   1ba30 <memcpy_s>
    2224:	85 c0                	test   eax,eax
    2226:	74 0d                	je     2235 <ocall_monitorgatewayu+0x145>
    2228:	e8 d3 32 01 00       	call   15500 <sgx_ocfree>
    222d:	41 bf 01 00 00 00    	mov    r15d,0x1
    2233:	eb 05                	jmp    223a <ocall_monitorgatewayu+0x14a>
    2235:	e8 c6 32 01 00       	call   15500 <sgx_ocfree>
    223a:	44 89 f8             	mov    eax,r15d
    223d:	48 83 c4 18          	add    rsp,0x18
    2241:	5b                   	pop    rbx
    2242:	41 5c                	pop    r12
    2244:	41 5d                	pop    r13
    2246:	41 5e                	pop    r14
    2248:	41 5f                	pop    r15
    224a:	5d                   	pop    rbp
    224b:	c3                   	ret    
    224c:	0f 1f 40 00          	nop    DWORD PTR [rax+0x0]

0000000000002250 <sgxsd_enclave_node_init>:
    2250:	55                   	push   rbp
    2251:	41 57                	push   r15
    2253:	41 56                	push   r14
    2255:	53                   	push   rbx
    2256:	50                   	push   rax
    2257:	49 89 ff             	mov    r15,rdi
    225a:	48 8d 3d 8f 00 00 00 	lea    rdi,[rip+0x8f]        # 22f0 <sgxsd_spin_lock>
    2261:	e8 6a 2b 01 00       	call   14dd0 <_Z10traceedgecPv>
    2266:	48 8d 3d 73 96 01 00 	lea    rdi,[rip+0x19673]        # 1b8e0 <sgx_spin_lock>
    226d:	e8 5e 2b 01 00       	call   14dd0 <_Z10traceedgecPv>
    2272:	4c 8d 35 7b 8b 24 00 	lea    r14,[rip+0x248b7b]        # 24adf4 <g_sgxsd_enclave_node_init_lock>
    2279:	4c 89 f7             	mov    rdi,r14
    227c:	e8 5f 96 01 00       	call   1b8e0 <sgx_spin_lock>
    2281:	0f ae e8             	lfence 
    2284:	48 8b 5c 24 28       	mov    rbx,QWORD PTR [rsp+0x28]
    2289:	48 89 df             	mov    rdi,rbx
    228c:	e8 3f 2b 01 00       	call   14dd0 <_Z10traceedgecPv>
    2291:	48 8d 3d 88 00 00 00 	lea    rdi,[rip+0x88]        # 2320 <sgxsd_enclave_node_init_locked>
    2298:	e8 33 2b 01 00       	call   14dd0 <_Z10traceedgecPv>
    229d:	4c 89 ff             	mov    rdi,r15
    22a0:	e8 7b 00 00 00       	call   2320 <sgxsd_enclave_node_init_locked>
    22a5:	89 c5                	mov    ebp,eax
    22a7:	48 8d 3d 12 02 00 00 	lea    rdi,[rip+0x212]        # 24c0 <sgxsd_spin_unlock>
    22ae:	e8 1d 2b 01 00       	call   14dd0 <_Z10traceedgecPv>
    22b3:	48 8d 3d 86 96 01 00 	lea    rdi,[rip+0x19686]        # 1b940 <sgx_spin_unlock>
    22ba:	e8 11 2b 01 00       	call   14dd0 <_Z10traceedgecPv>
    22bf:	4c 89 f7             	mov    rdi,r14
    22c2:	e8 79 96 01 00       	call   1b940 <sgx_spin_unlock>
    22c7:	48 89 df             	mov    rdi,rbx
    22ca:	e8 01 2b 01 00       	call   14dd0 <_Z10traceedgecPv>
    22cf:	48 89 df             	mov    rdi,rbx
    22d2:	e8 f9 2a 01 00       	call   14dd0 <_Z10traceedgecPv>
    22d7:	89 e8                	mov    eax,ebp
    22d9:	48 83 c4 08          	add    rsp,0x8
    22dd:	5b                   	pop    rbx
    22de:	41 5e                	pop    r14
    22e0:	41 5f                	pop    r15
    22e2:	5d                   	pop    rbp
    22e3:	c3                   	ret    
    22e4:	66 2e 0f 1f 84 00 00 	nop    WORD PTR cs:[rax+rax*1+0x0]
    22eb:	00 00 00 
    22ee:	66 90                	xchg   ax,ax

00000000000022f0 <sgxsd_spin_lock>:
    22f0:	53                   	push   rbx
    22f1:	48 89 fb             	mov    rbx,rdi
    22f4:	48 8d 3d e5 95 01 00 	lea    rdi,[rip+0x195e5]        # 1b8e0 <sgx_spin_lock>
    22fb:	e8 d0 2a 01 00       	call   14dd0 <_Z10traceedgecPv>
    2300:	48 89 df             	mov    rdi,rbx
    2303:	e8 d8 95 01 00       	call   1b8e0 <sgx_spin_lock>
    2308:	0f ae e8             	lfence 
    230b:	48 8b 7c 24 08       	mov    rdi,QWORD PTR [rsp+0x8]
    2310:	5b                   	pop    rbx
    2311:	e9 ba 2a 01 00       	jmp    14dd0 <_Z10traceedgecPv>
    2316:	66 2e 0f 1f 84 00 00 	nop    WORD PTR cs:[rax+rax*1+0x0]
    231d:	00 00 00 

0000000000002320 <sgxsd_enclave_node_init_locked>:
    2320:	55                   	push   rbp
    2321:	53                   	push   rbx
    2322:	50                   	push   rax
    2323:	80 3d 76 69 24 00 00 	cmp    BYTE PTR [rip+0x246976],0x0        # 248ca0 <g_sgxsd_enclave_node_initialized>
    232a:	74 14                	je     2340 <sgxsd_enclave_node_init_locked+0x20>
    232c:	bf 01 00 00 00       	mov    edi,0x1
    2331:	e8 0a 2e 01 00       	call   15140 <_Z7tracebrPv>
    2336:	bd 05 00 00 00       	mov    ebp,0x5
    233b:	e9 82 00 00 00       	jmp    23c2 <sgxsd_enclave_node_init_locked+0xa2>
    2340:	48 89 fb             	mov    rbx,rdi
    2343:	31 ff                	xor    edi,edi
    2345:	e8 f6 2d 01 00       	call   15140 <_Z7tracebrPv>
    234a:	48 8d 3d 6f 30 01 00 	lea    rdi,[rip+0x1306f]        # 153c0 <sgx_is_outside_enclave>
    2351:	e8 7a 2a 01 00       	call   14dd0 <_Z10traceedgecPv>
    2356:	31 ff                	xor    edi,edi
    2358:	31 f6                	xor    esi,esi
    235a:	e8 61 30 01 00       	call   153c0 <sgx_is_outside_enclave>
    235f:	83 f8 01             	cmp    eax,0x1
    2362:	75 4f                	jne    23b3 <sgxsd_enclave_node_init_locked+0x93>
    2364:	31 ff                	xor    edi,edi
    2366:	e8 d5 2d 01 00       	call   15140 <_Z7tracebrPv>
    236b:	48 8d 3d 4e 30 01 00 	lea    rdi,[rip+0x1304e]        # 153c0 <sgx_is_outside_enclave>
    2372:	e8 59 2a 01 00       	call   14dd0 <_Z10traceedgecPv>
    2377:	48 c7 c7 ff ff ff ff 	mov    rdi,0xffffffffffffffff
    237e:	31 f6                	xor    esi,esi
    2380:	e8 3b 30 01 00       	call   153c0 <sgx_is_outside_enclave>
    2385:	83 f8 01             	cmp    eax,0x1
    2388:	75 29                	jne    23b3 <sgxsd_enclave_node_init_locked+0x93>
    238a:	31 ff                	xor    edi,edi
    238c:	e8 af 2d 01 00       	call   15140 <_Z7tracebrPv>
    2391:	48 85 db             	test   rbx,rbx
    2394:	74 0c                	je     23a2 <sgxsd_enclave_node_init_locked+0x82>
    2396:	31 ff                	xor    edi,edi
    2398:	e8 a3 2d 01 00       	call   15140 <_Z7tracebrPv>
    239d:	80 3b 40             	cmp    BYTE PTR [rbx],0x40
    23a0:	72 33                	jb     23d5 <sgxsd_enclave_node_init_locked+0xb5>
    23a2:	bf 01 00 00 00       	mov    edi,0x1
    23a7:	e8 94 2d 01 00       	call   15140 <_Z7tracebrPv>
    23ac:	bd 02 00 00 00       	mov    ebp,0x2
    23b1:	eb 0f                	jmp    23c2 <sgxsd_enclave_node_init_locked+0xa2>
    23b3:	bd 01 00 00 00       	mov    ebp,0x1
    23b8:	bf 01 00 00 00       	mov    edi,0x1
    23bd:	e8 7e 2d 01 00       	call   15140 <_Z7tracebrPv>
    23c2:	48 8b 7c 24 18       	mov    rdi,QWORD PTR [rsp+0x18]
    23c7:	e8 04 2a 01 00       	call   14dd0 <_Z10traceedgecPv>
    23cc:	89 e8                	mov    eax,ebp
    23ce:	48 83 c4 08          	add    rsp,0x8
    23d2:	5b                   	pop    rbx
    23d3:	5d                   	pop    rbp
    23d4:	c3                   	ret    
    23d5:	31 ff                	xor    edi,edi
    23d7:	e8 64 2d 01 00       	call   15140 <_Z7tracebrPv>
    23dc:	48 8d 3d 0d 01 00 00 	lea    rdi,[rip+0x10d]        # 24f0 <sgxsd_enclave_generate_curve25519_keypair>
    23e3:	e8 e8 29 01 00       	call   14dd0 <_Z10traceedgecPv>
    23e8:	48 8d 3d 21 79 24 00 	lea    rdi,[rip+0x247921]        # 249d10 <g_sgxsd_enclave_dh_keypair>
    23ef:	e8 fc 00 00 00       	call   24f0 <sgxsd_enclave_generate_curve25519_keypair>
    23f4:	85 c0                	test   eax,eax
    23f6:	75 4b                	jne    2443 <sgxsd_enclave_node_init_locked+0x123>
    23f8:	31 ff                	xor    edi,edi
    23fa:	e8 41 2d 01 00       	call   15140 <_Z7tracebrPv>
    23ff:	48 8d 3d ea 00 00 00 	lea    rdi,[rip+0xea]        # 24f0 <sgxsd_enclave_generate_curve25519_keypair>
    2406:	e8 c5 29 01 00       	call   14dd0 <_Z10traceedgecPv>
    240b:	48 8d 3d 66 79 24 00 	lea    rdi,[rip+0x247966]        # 249d78 <g_sgxsd_enclave_new_dh_keypair>
    2412:	e8 d9 00 00 00       	call   24f0 <sgxsd_enclave_generate_curve25519_keypair>
    2417:	85 c0                	test   eax,eax
    2419:	75 28                	jne    2443 <sgxsd_enclave_node_init_locked+0x123>
    241b:	31 ff                	xor    edi,edi
    241d:	e8 1e 2d 01 00       	call   15140 <_Z7tracebrPv>
    2422:	48 8d 3d 27 31 01 00 	lea    rdi,[rip+0x13127]        # 15550 <sgx_read_rand>
    2429:	e8 a2 29 01 00       	call   14dd0 <_Z10traceedgecPv>
    242e:	48 8d 3d 23 79 24 00 	lea    rdi,[rip+0x247923]        # 249d58 <g_sgxsd_enclave_pending_request_id_key>
    2435:	be 20 00 00 00       	mov    esi,0x20
    243a:	e8 11 31 01 00       	call   15550 <sgx_read_rand>
    243f:	85 c0                	test   eax,eax
    2441:	74 07                	je     244a <sgxsd_enclave_node_init_locked+0x12a>
    2443:	89 c5                	mov    ebp,eax
    2445:	e9 6e ff ff ff       	jmp    23b8 <sgxsd_enclave_node_init_locked+0x98>
    244a:	31 ed                	xor    ebp,ebp
    244c:	31 ff                	xor    edi,edi
    244e:	e8 ed 2c 01 00       	call   15140 <_Z7tracebrPv>
    2453:	8a 03                	mov    al,BYTE PTR [rbx]
    2455:	88 05 89 79 24 00    	mov    BYTE PTR [rip+0x247989],al        # 249de4 <g_sgxsd_enclave_pending_requests_table_order>
    245b:	b9 01 00 00 00       	mov    ecx,0x1
    2460:	c4 e2 f9 f7 d9       	shlx   rbx,rcx,rax
    2465:	48 8d 3d 44 85 01 00 	lea    rdi,[rip+0x18544]        # 1a9b0 <calloc>
    246c:	e8 5f 29 01 00       	call   14dd0 <_Z10traceedgecPv>
    2471:	be 28 00 00 00       	mov    esi,0x28
    2476:	48 89 df             	mov    rdi,rbx
    2479:	e8 32 85 01 00       	call   1a9b0 <calloc>
    247e:	48 89 05 cb 78 24 00 	mov    QWORD PTR [rip+0x2478cb],rax        # 249d50 <g_sgxsd_enclave_pending_requests>
    2485:	48 85 c0             	test   rax,rax
    2488:	74 13                	je     249d <sgxsd_enclave_node_init_locked+0x17d>
    248a:	31 ff                	xor    edi,edi
    248c:	e8 af 2c 01 00       	call   15140 <_Z7tracebrPv>
    2491:	c6 05 08 68 24 00 01 	mov    BYTE PTR [rip+0x246808],0x1        # 248ca0 <g_sgxsd_enclave_node_initialized>
    2498:	e9 25 ff ff ff       	jmp    23c2 <sgxsd_enclave_node_init_locked+0xa2>
    249d:	bf 01 00 00 00       	mov    edi,0x1
    24a2:	e8 99 2c 01 00       	call   15140 <_Z7tracebrPv>
    24a7:	bd 03 00 00 00       	mov    ebp,0x3
    24ac:	e9 11 ff ff ff       	jmp    23c2 <sgxsd_enclave_node_init_locked+0xa2>
    24b1:	66 2e 0f 1f 84 00 00 	nop    WORD PTR cs:[rax+rax*1+0x0]
    24b8:	00 00 00 
    24bb:	0f 1f 44 00 00       	nop    DWORD PTR [rax+rax*1+0x0]

00000000000024c0 <sgxsd_spin_unlock>:
    24c0:	53                   	push   rbx
    24c1:	48 89 fb             	mov    rbx,rdi
    24c4:	48 8d 3d 75 94 01 00 	lea    rdi,[rip+0x19475]        # 1b940 <sgx_spin_unlock>
    24cb:	e8 00 29 01 00       	call   14dd0 <_Z10traceedgecPv>
    24d0:	48 89 df             	mov    rdi,rbx
    24d3:	e8 68 94 01 00       	call   1b940 <sgx_spin_unlock>
    24d8:	48 8b 7c 24 08       	mov    rdi,QWORD PTR [rsp+0x8]
    24dd:	5b                   	pop    rbx
    24de:	e9 ed 28 01 00       	jmp    14dd0 <_Z10traceedgecPv>
    24e3:	66 2e 0f 1f 84 00 00 	nop    WORD PTR cs:[rax+rax*1+0x0]
    24ea:	00 00 00 
    24ed:	0f 1f 00             	nop    DWORD PTR [rax]

00000000000024f0 <sgxsd_enclave_generate_curve25519_keypair>:
    24f0:	55                   	push   rbp
    24f1:	41 56                	push   r14
    24f3:	53                   	push   rbx
    24f4:	48 89 fb             	mov    rbx,rdi
    24f7:	48 8d 3d 62 08 00 00 	lea    rdi,[rip+0x862]        # 2d60 <sgxsd_enclave_generate_curve25519_privkey>
    24fe:	e8 cd 28 01 00       	call   14dd0 <_Z10traceedgecPv>
    2503:	48 89 df             	mov    rdi,rbx
    2506:	e8 55 08 00 00       	call   2d60 <sgxsd_enclave_generate_curve25519_privkey>
    250b:	89 c5                	mov    ebp,eax
    250d:	85 c0                	test   eax,eax
    250f:	74 0c                	je     251d <sgxsd_enclave_generate_curve25519_keypair+0x2d>
    2511:	bf 01 00 00 00       	mov    edi,0x1
    2516:	e8 25 2c 01 00       	call   15140 <_Z7tracebrPv>
    251b:	eb 36                	jmp    2553 <sgxsd_enclave_generate_curve25519_keypair+0x63>
    251d:	31 ff                	xor    edi,edi
    251f:	e8 1c 2c 01 00       	call   15140 <_Z7tracebrPv>
    2524:	80 23 f8             	and    BYTE PTR [rbx],0xf8
    2527:	8a 43 1f             	mov    al,BYTE PTR [rbx+0x1f]
    252a:	24 3f                	and    al,0x3f
    252c:	0c 40                	or     al,0x40
    252e:	88 43 1f             	mov    BYTE PTR [rbx+0x1f],al
    2531:	4c 8d 73 20          	lea    r14,[rbx+0x20]
    2535:	48 8d 3d 54 88 00 00 	lea    rdi,[rip+0x8854]        # ad90 <curve25519_donna>
    253c:	e8 8f 28 01 00       	call   14dd0 <_Z10traceedgecPv>
    2541:	48 8d 15 d8 de 03 00 	lea    rdx,[rip+0x3ded8]        # 40420 <sgxsd_enclave_generate_curve25519_keypair.BASEPOINT>
    2548:	4c 89 f7             	mov    rdi,r14
    254b:	48 89 de             	mov    rsi,rbx
    254e:	e8 3d 88 00 00       	call   ad90 <curve25519_donna>
    2553:	48 8b 7c 24 18       	mov    rdi,QWORD PTR [rsp+0x18]
    2558:	e8 73 28 01 00       	call   14dd0 <_Z10traceedgecPv>
    255d:	89 e8                	mov    eax,ebp
    255f:	5b                   	pop    rbx
    2560:	41 5e                	pop    r14
    2562:	5d                   	pop    rbp
    2563:	c3                   	ret    
    2564:	66 2e 0f 1f 84 00 00 	nop    WORD PTR cs:[rax+rax*1+0x0]
    256b:	00 00 00 
    256e:	66 90                	xchg   ax,ax

0000000000002570 <sgxsd_aes_gcm_encrypt>:
    2570:	55                   	push   rbp
    2571:	41 57                	push   r15
    2573:	41 56                	push   r14
    2575:	41 55                	push   r13
    2577:	41 54                	push   r12
    2579:	53                   	push   rbx
    257a:	50                   	push   rax
    257b:	4d 89 ce             	mov    r14,r9
    257e:	4d 89 c7             	mov    r15,r8
    2581:	49 89 cc             	mov    r12,rcx
    2584:	41 89 d5             	mov    r13d,edx
    2587:	48 89 f3             	mov    rbx,rsi
    258a:	48 89 fd             	mov    rbp,rdi
    258d:	48 8d 3d 5c 00 00 00 	lea    rdi,[rip+0x5c]        # 25f0 <sgxsd_aes_gcm_run>
    2594:	e8 37 28 01 00       	call   14dd0 <_Z10traceedgecPv>
    2599:	48 83 ec 08          	sub    rsp,0x8
    259d:	bf 01 00 00 00       	mov    edi,0x1
    25a2:	48 89 ee             	mov    rsi,rbp
    25a5:	48 89 da             	mov    rdx,rbx
    25a8:	44 89 e9             	mov    ecx,r13d
    25ab:	4d 89 e0             	mov    r8,r12
    25ae:	4d 89 f9             	mov    r9,r15
    25b1:	ff 74 24 50          	push   QWORD PTR [rsp+0x50]
    25b5:	8b 44 24 50          	mov    eax,DWORD PTR [rsp+0x50]
    25b9:	50                   	push   rax
    25ba:	41 56                	push   r14
    25bc:	e8 2f 00 00 00       	call   25f0 <sgxsd_aes_gcm_run>
    25c1:	48 83 c4 20          	add    rsp,0x20
    25c5:	89 c3                	mov    ebx,eax
    25c7:	48 8b 7c 24 38       	mov    rdi,QWORD PTR [rsp+0x38]
    25cc:	e8 ff 27 01 00       	call   14dd0 <_Z10traceedgecPv>
    25d1:	89 d8                	mov    eax,ebx
    25d3:	48 83 c4 08          	add    rsp,0x8
    25d7:	5b                   	pop    rbx
    25d8:	41 5c                	pop    r12
    25da:	41 5d                	pop    r13
    25dc:	41 5e                	pop    r14
    25de:	41 5f                	pop    r15
    25e0:	5d                   	pop    rbp
    25e1:	c3                   	ret    
    25e2:	66 2e 0f 1f 84 00 00 	nop    WORD PTR cs:[rax+rax*1+0x0]
    25e9:	00 00 00 
    25ec:	0f 1f 40 00          	nop    DWORD PTR [rax+0x0]

00000000000025f0 <sgxsd_aes_gcm_run>:
    25f0:	55                   	push   rbp
    25f1:	41 57                	push   r15
    25f3:	41 56                	push   r14
    25f5:	41 55                	push   r13
    25f7:	41 54                	push   r12
    25f9:	53                   	push   rbx
    25fa:	48 81 ec 78 01 00 00 	sub    rsp,0x178
    2601:	64 48 8b 04 25 28 00 	mov    rax,QWORD PTR fs:0x28
    2608:	00 00 
    260a:	48 89 84 24 70 01 00 	mov    QWORD PTR [rsp+0x170],rax
    2611:	00 
    2612:	48 85 f6             	test   rsi,rsi
    2615:	0f 84 0c 02 00 00    	je     2827 <sgxsd_aes_gcm_run+0x237>
    261b:	4c 89 cd             	mov    rbp,r9
    261e:	4d 89 c6             	mov    r14,r8
    2621:	41 89 cd             	mov    r13d,ecx
    2624:	48 89 d3             	mov    rbx,rdx
    2627:	49 89 f4             	mov    r12,rsi
    262a:	41 89 ff             	mov    r15d,edi
    262d:	31 ff                	xor    edi,edi
    262f:	e8 0c 2b 01 00       	call   15140 <_Z7tracebrPv>
    2634:	48 85 db             	test   rbx,rbx
    2637:	74 0c                	je     2645 <sgxsd_aes_gcm_run+0x55>
    2639:	31 ff                	xor    edi,edi
    263b:	e8 00 2b 01 00       	call   15140 <_Z7tracebrPv>
    2640:	4d 85 f6             	test   r14,r14
    2643:	75 13                	jne    2658 <sgxsd_aes_gcm_run+0x68>
    2645:	bf 01 00 00 00       	mov    edi,0x1
    264a:	e8 f1 2a 01 00       	call   15140 <_Z7tracebrPv>
    264f:	45 85 ed             	test   r13d,r13d
    2652:	0f 85 cf 01 00 00    	jne    2827 <sgxsd_aes_gcm_run+0x237>
    2658:	31 ff                	xor    edi,edi
    265a:	e8 e1 2a 01 00       	call   15140 <_Z7tracebrPv>
    265f:	48 85 ed             	test   rbp,rbp
    2662:	0f 84 bf 01 00 00    	je     2827 <sgxsd_aes_gcm_run+0x237>
    2668:	31 ff                	xor    edi,edi
    266a:	e8 d1 2a 01 00       	call   15140 <_Z7tracebrPv>
    266f:	48 83 bc 24 b0 01 00 	cmp    QWORD PTR [rsp+0x1b0],0x0
    2676:	00 00 
    2678:	0f 84 91 01 00 00    	je     280f <sgxsd_aes_gcm_run+0x21f>
    267e:	31 ff                	xor    edi,edi
    2680:	e8 bb 2a 01 00       	call   15140 <_Z7tracebrPv>
    2685:	48 83 bc 24 c0 01 00 	cmp    QWORD PTR [rsp+0x1c0],0x0
    268c:	00 00 
    268e:	0f 84 93 01 00 00    	je     2827 <sgxsd_aes_gcm_run+0x237>
    2694:	31 ff                	xor    edi,edi
    2696:	e8 a5 2a 01 00       	call   15140 <_Z7tracebrPv>
    269b:	48 8d 3d 7e 6c 00 00 	lea    rdi,[rip+0x6c7e]        # 9320 <br_aes_x86ni_ctr_init>
    26a2:	e8 29 27 01 00       	call   14dd0 <_Z10traceedgecPv>
    26a7:	48 8d 7c 24 70       	lea    rdi,[rsp+0x70]
    26ac:	ba 20 00 00 00       	mov    edx,0x20
    26b1:	4c 89 e6             	mov    rsi,r12
    26b4:	e8 67 6c 00 00       	call   9320 <br_aes_x86ni_ctr_init>
    26b9:	48 8d 3d 90 7a 00 00 	lea    rdi,[rip+0x7a90]        # a150 <br_gcm_init>
    26c0:	e8 0b 27 01 00       	call   14dd0 <_Z10traceedgecPv>
    26c5:	48 8d 15 94 29 00 00 	lea    rdx,[rip+0x2994]        # 5060 <br_ghash_pclmul>
    26cc:	49 89 e4             	mov    r12,rsp
    26cf:	4c 89 e7             	mov    rdi,r12
    26d2:	48 8d 74 24 70       	lea    rsi,[rsp+0x70]
    26d7:	e8 74 7a 00 00       	call   a150 <br_gcm_init>
    26dc:	48 8d 3d fd 7a 00 00 	lea    rdi,[rip+0x7afd]        # a1e0 <br_gcm_reset>
    26e3:	e8 e8 26 01 00       	call   14dd0 <_Z10traceedgecPv>
    26e8:	ba 0c 00 00 00       	mov    edx,0xc
    26ed:	4c 89 e7             	mov    rdi,r12
    26f0:	48 89 ee             	mov    rsi,rbp
    26f3:	e8 e8 7a 00 00       	call   a1e0 <br_gcm_reset>
    26f8:	8b ac 24 b8 01 00 00 	mov    ebp,DWORD PTR [rsp+0x1b8]
    26ff:	85 ed                	test   ebp,ebp
    2701:	74 2b                	je     272e <sgxsd_aes_gcm_run+0x13e>
    2703:	bf 01 00 00 00       	mov    edi,0x1
    2708:	e8 33 2a 01 00       	call   15140 <_Z7tracebrPv>
    270d:	89 ed                	mov    ebp,ebp
    270f:	48 8d 3d 2a 7d 00 00 	lea    rdi,[rip+0x7d2a]        # a440 <br_gcm_aad_inject>
    2716:	e8 b5 26 01 00       	call   14dd0 <_Z10traceedgecPv>
    271b:	48 89 e7             	mov    rdi,rsp
    271e:	48 8b b4 24 b0 01 00 	mov    rsi,QWORD PTR [rsp+0x1b0]
    2725:	00 
    2726:	48 89 ea             	mov    rdx,rbp
    2729:	e8 12 7d 00 00       	call   a440 <br_gcm_aad_inject>
    272e:	31 ff                	xor    edi,edi
    2730:	e8 0b 2a 01 00       	call   15140 <_Z7tracebrPv>
    2735:	48 8d 3d 34 7e 00 00 	lea    rdi,[rip+0x7e34]        # a570 <br_gcm_flip>
    273c:	e8 8f 26 01 00       	call   14dd0 <_Z10traceedgecPv>
    2741:	48 89 e7             	mov    rdi,rsp
    2744:	e8 27 7e 00 00       	call   a570 <br_gcm_flip>
    2749:	45 85 ed             	test   r13d,r13d
    274c:	74 3b                	je     2789 <sgxsd_aes_gcm_run+0x199>
    274e:	bf 01 00 00 00       	mov    edi,0x1
    2753:	e8 e8 29 01 00       	call   15140 <_Z7tracebrPv>
    2758:	44 89 ed             	mov    ebp,r13d
    275b:	4c 89 f7             	mov    rdi,r14
    275e:	48 89 de             	mov    rsi,rbx
    2761:	48 89 ea             	mov    rdx,rbp
    2764:	e8 07 8c 01 00       	call   1b370 <memmove>
    2769:	41 0f b6 df          	movzx  ebx,r15b
    276d:	48 8d 3d 6c 7e 00 00 	lea    rdi,[rip+0x7e6c]        # a5e0 <br_gcm_run>
    2774:	e8 57 26 01 00       	call   14dd0 <_Z10traceedgecPv>
    2779:	48 89 e7             	mov    rdi,rsp
    277c:	89 de                	mov    esi,ebx
    277e:	4c 89 f2             	mov    rdx,r14
    2781:	48 89 e9             	mov    rcx,rbp
    2784:	e8 57 7e 00 00       	call   a5e0 <br_gcm_run>
    2789:	31 db                	xor    ebx,ebx
    278b:	31 ff                	xor    edi,edi
    278d:	e8 ae 29 01 00       	call   15140 <_Z7tracebrPv>
    2792:	45 84 ff             	test   r15b,r15b
    2795:	0f 84 d3 00 00 00    	je     286e <sgxsd_aes_gcm_run+0x27e>
    279b:	bf 01 00 00 00       	mov    edi,0x1
    27a0:	e8 9b 29 01 00       	call   15140 <_Z7tracebrPv>
    27a5:	48 8d 3d 74 81 00 00 	lea    rdi,[rip+0x8174]        # a920 <br_gcm_get_tag>
    27ac:	e8 1f 26 01 00       	call   14dd0 <_Z10traceedgecPv>
    27b1:	49 89 e6             	mov    r14,rsp
    27b4:	4c 89 f7             	mov    rdi,r14
    27b7:	48 8b b4 24 c0 01 00 	mov    rsi,QWORD PTR [rsp+0x1c0]
    27be:	00 
    27bf:	e8 5c 81 00 00       	call   a920 <br_gcm_get_tag>
    27c4:	48 8d 2d b5 8d 01 00 	lea    rbp,[rip+0x18db5]        # 1b580 <memset_s>
    27cb:	48 89 ef             	mov    rdi,rbp
    27ce:	e8 fd 25 01 00       	call   14dd0 <_Z10traceedgecPv>
    27d3:	48 8d 7c 24 70       	lea    rdi,[rsp+0x70]
    27d8:	31 db                	xor    ebx,ebx
    27da:	be 00 01 00 00       	mov    esi,0x100
    27df:	b9 00 01 00 00       	mov    ecx,0x100
    27e4:	31 d2                	xor    edx,edx
    27e6:	e8 95 8d 01 00       	call   1b580 <memset_s>
    27eb:	48 89 ef             	mov    rdi,rbp
    27ee:	e8 dd 25 01 00       	call   14dd0 <_Z10traceedgecPv>
    27f3:	be 70 00 00 00       	mov    esi,0x70
    27f8:	b9 70 00 00 00       	mov    ecx,0x70
    27fd:	4c 89 f7             	mov    rdi,r14
    2800:	31 d2                	xor    edx,edx
    2802:	e8 79 8d 01 00       	call   1b580 <memset_s>
    2807:	40 b5 01             	mov    bpl,0x1
    280a:	e9 0f 01 00 00       	jmp    291e <sgxsd_aes_gcm_run+0x32e>
    280f:	bf 01 00 00 00       	mov    edi,0x1
    2814:	e8 27 29 01 00       	call   15140 <_Z7tracebrPv>
    2819:	83 bc 24 b8 01 00 00 	cmp    DWORD PTR [rsp+0x1b8],0x0
    2820:	00 
    2821:	0f 84 57 fe ff ff    	je     267e <sgxsd_aes_gcm_run+0x8e>
    2827:	bf 01 00 00 00       	mov    edi,0x1
    282c:	e8 0f 29 01 00       	call   15140 <_Z7tracebrPv>
    2831:	bb 02 00 00 00       	mov    ebx,0x2
    2836:	48 8b bc 24 a8 01 00 	mov    rdi,QWORD PTR [rsp+0x1a8]
    283d:	00 
    283e:	e8 8d 25 01 00       	call   14dd0 <_Z10traceedgecPv>
    2843:	64 48 8b 04 25 28 00 	mov    rax,QWORD PTR fs:0x28
    284a:	00 00 
    284c:	48 3b 84 24 70 01 00 	cmp    rax,QWORD PTR [rsp+0x170]
    2853:	00 
    2854:	0f 85 d2 00 00 00    	jne    292c <sgxsd_aes_gcm_run+0x33c>
    285a:	89 d8                	mov    eax,ebx
    285c:	48 81 c4 78 01 00 00 	add    rsp,0x178
    2863:	5b                   	pop    rbx
    2864:	41 5c                	pop    r12
    2866:	41 5d                	pop    r13
    2868:	41 5e                	pop    r14
    286a:	41 5f                	pop    r15
    286c:	5d                   	pop    rbp
    286d:	c3                   	ret    
    286e:	31 ff                	xor    edi,edi
    2870:	e8 cb 28 01 00       	call   15140 <_Z7tracebrPv>
    2875:	48 8d 3d c4 82 00 00 	lea    rdi,[rip+0x82c4]        # ab40 <br_gcm_check_tag>
    287c:	e8 4f 25 01 00       	call   14dd0 <_Z10traceedgecPv>
    2881:	49 89 e7             	mov    r15,rsp
    2884:	4c 89 ff             	mov    rdi,r15
    2887:	48 8b b4 24 c0 01 00 	mov    rsi,QWORD PTR [rsp+0x1c0]
    288e:	00 
    288f:	e8 ac 82 00 00       	call   ab40 <br_gcm_check_tag>
    2894:	41 89 c4             	mov    r12d,eax
    2897:	48 8d 2d e2 8c 01 00 	lea    rbp,[rip+0x18ce2]        # 1b580 <memset_s>
    289e:	48 89 ef             	mov    rdi,rbp
    28a1:	e8 2a 25 01 00       	call   14dd0 <_Z10traceedgecPv>
    28a6:	48 8d 7c 24 70       	lea    rdi,[rsp+0x70]
    28ab:	be 00 01 00 00       	mov    esi,0x100
    28b0:	b9 00 01 00 00       	mov    ecx,0x100
    28b5:	31 d2                	xor    edx,edx
    28b7:	e8 c4 8c 01 00       	call   1b580 <memset_s>
    28bc:	48 89 ef             	mov    rdi,rbp
    28bf:	e8 0c 25 01 00       	call   14dd0 <_Z10traceedgecPv>
    28c4:	be 70 00 00 00       	mov    esi,0x70
    28c9:	b9 70 00 00 00       	mov    ecx,0x70
    28ce:	4c 89 ff             	mov    rdi,r15
    28d1:	31 d2                	xor    edx,edx
    28d3:	e8 a8 8c 01 00       	call   1b580 <memset_s>
    28d8:	40 b5 01             	mov    bpl,0x1
    28db:	45 85 e4             	test   r12d,r12d
    28de:	75 3e                	jne    291e <sgxsd_aes_gcm_run+0x32e>
    28e0:	31 ed                	xor    ebp,ebp
    28e2:	31 ff                	xor    edi,edi
    28e4:	e8 57 28 01 00       	call   15140 <_Z7tracebrPv>
    28e9:	bb 01 30 00 00       	mov    ebx,0x3001
    28ee:	4d 85 f6             	test   r14,r14
    28f1:	74 2b                	je     291e <sgxsd_aes_gcm_run+0x32e>
    28f3:	bf 01 00 00 00       	mov    edi,0x1
    28f8:	e8 43 28 01 00       	call   15140 <_Z7tracebrPv>
    28fd:	45 89 ef             	mov    r15d,r13d
    2900:	48 8d 3d 79 8c 01 00 	lea    rdi,[rip+0x18c79]        # 1b580 <memset_s>
    2907:	e8 c4 24 01 00       	call   14dd0 <_Z10traceedgecPv>
    290c:	31 ed                	xor    ebp,ebp
    290e:	4c 89 f7             	mov    rdi,r14
    2911:	4c 89 fe             	mov    rsi,r15
    2914:	31 d2                	xor    edx,edx
    2916:	4c 89 f9             	mov    rcx,r15
    2919:	e8 62 8c 01 00       	call   1b580 <memset_s>
    291e:	40 0f b6 fd          	movzx  edi,bpl
    2922:	e8 19 28 01 00       	call   15140 <_Z7tracebrPv>
    2927:	e9 0a ff ff ff       	jmp    2836 <sgxsd_aes_gcm_run+0x246>
    292c:	e8 bf 54 01 00       	call   17df0 <__stack_chk_fail>
    2931:	66 2e 0f 1f 84 00 00 	nop    WORD PTR cs:[rax+rax*1+0x0]
    2938:	00 00 00 
    293b:	0f 1f 44 00 00       	nop    DWORD PTR [rax+rax*1+0x0]

0000000000002940 <sgxsd_aes_gcm_decrypt>:
    2940:	55                   	push   rbp
    2941:	41 57                	push   r15
    2943:	41 56                	push   r14
    2945:	41 55                	push   r13
    2947:	41 54                	push   r12
    2949:	53                   	push   rbx
    294a:	50                   	push   rax
    294b:	4d 89 ce             	mov    r14,r9
    294e:	4d 89 c7             	mov    r15,r8
    2951:	49 89 cc             	mov    r12,rcx
    2954:	41 89 d5             	mov    r13d,edx
    2957:	48 89 f3             	mov    rbx,rsi
    295a:	48 89 fd             	mov    rbp,rdi
    295d:	48 8d 3d 8c fc ff ff 	lea    rdi,[rip+0xfffffffffffffc8c]        # 25f0 <sgxsd_aes_gcm_run>
    2964:	e8 67 24 01 00       	call   14dd0 <_Z10traceedgecPv>
    2969:	48 83 ec 08          	sub    rsp,0x8
    296d:	31 ff                	xor    edi,edi
    296f:	48 89 ee             	mov    rsi,rbp
    2972:	48 89 da             	mov    rdx,rbx
    2975:	44 89 e9             	mov    ecx,r13d
    2978:	4d 89 e0             	mov    r8,r12
    297b:	4d 89 f9             	mov    r9,r15
    297e:	ff 74 24 50          	push   QWORD PTR [rsp+0x50]
    2982:	8b 44 24 50          	mov    eax,DWORD PTR [rsp+0x50]
    2986:	50                   	push   rax
    2987:	41 56                	push   r14
    2989:	e8 62 fc ff ff       	call   25f0 <sgxsd_aes_gcm_run>
    298e:	48 83 c4 20          	add    rsp,0x20
    2992:	89 c3                	mov    ebx,eax
    2994:	48 8b 7c 24 38       	mov    rdi,QWORD PTR [rsp+0x38]
    2999:	e8 32 24 01 00       	call   14dd0 <_Z10traceedgecPv>
    299e:	89 d8                	mov    eax,ebx
    29a0:	48 83 c4 08          	add    rsp,0x8
    29a4:	5b                   	pop    rbx
    29a5:	41 5c                	pop    r12
    29a7:	41 5d                	pop    r13
    29a9:	41 5e                	pop    r14
    29ab:	41 5f                	pop    r15
    29ad:	5d                   	pop    rbp
    29ae:	c3                   	ret    
    29af:	90                   	nop

00000000000029b0 <sgxsd_enclave_sha256>:
    29b0:	55                   	push   rbp
    29b1:	41 57                	push   r15
    29b3:	41 56                	push   r14
    29b5:	41 55                	push   r13
    29b7:	41 54                	push   r12
    29b9:	53                   	push   rbx
    29ba:	48 81 ec 88 00 00 00 	sub    rsp,0x88
    29c1:	49 89 d5             	mov    r13,rdx
    29c4:	89 f5                	mov    ebp,esi
    29c6:	48 89 7c 24 08       	mov    QWORD PTR [rsp+0x8],rdi
    29cb:	64 48 8b 04 25 28 00 	mov    rax,QWORD PTR fs:0x28
    29d2:	00 00 
    29d4:	48 89 84 24 80 00 00 	mov    QWORD PTR [rsp+0x80],rax
    29db:	00 
    29dc:	48 8d 3d ed 24 00 00 	lea    rdi,[rip+0x24ed]        # 4ed0 <br_sha256_init>
    29e3:	e8 e8 23 01 00       	call   14dd0 <_Z10traceedgecPv>
    29e8:	48 8d 7c 24 10       	lea    rdi,[rsp+0x10]
    29ed:	e8 de 24 00 00       	call   4ed0 <br_sha256_init>
    29f2:	85 ed                	test   ebp,ebp
    29f4:	74 51                	je     2a47 <sgxsd_enclave_sha256+0x97>
    29f6:	41 89 ee             	mov    r14d,ebp
    29f9:	49 c1 e6 04          	shl    r14,0x4
    29fd:	45 31 ff             	xor    r15d,r15d
    2a00:	4c 8d 64 24 10       	lea    r12,[rsp+0x10]
    2a05:	66 2e 0f 1f 84 00 00 	nop    WORD PTR cs:[rax+rax*1+0x0]
    2a0c:	00 00 00 
    2a0f:	90                   	nop
    2a10:	bf 01 00 00 00       	mov    edi,0x1
    2a15:	e8 26 27 01 00       	call   15140 <_Z7tracebrPv>
    2a1a:	4b 8b 6c 3d 00       	mov    rbp,QWORD PTR [r13+r15*1+0x0]
    2a1f:	43 8b 5c 3d 08       	mov    ebx,DWORD PTR [r13+r15*1+0x8]
    2a24:	48 8d 3d f5 20 00 00 	lea    rdi,[rip+0x20f5]        # 4b20 <br_sha224_update>
    2a2b:	e8 a0 23 01 00       	call   14dd0 <_Z10traceedgecPv>
    2a30:	4c 89 e7             	mov    rdi,r12
    2a33:	48 89 ee             	mov    rsi,rbp
    2a36:	48 89 da             	mov    rdx,rbx
    2a39:	e8 e2 20 00 00       	call   4b20 <br_sha224_update>
    2a3e:	49 83 c7 10          	add    r15,0x10
    2a42:	4d 39 fe             	cmp    r14,r15
    2a45:	75 c9                	jne    2a10 <sgxsd_enclave_sha256+0x60>
    2a47:	31 ff                	xor    edi,edi
    2a49:	e8 f2 26 01 00       	call   15140 <_Z7tracebrPv>
    2a4e:	48 8d 3d ab 24 00 00 	lea    rdi,[rip+0x24ab]        # 4f00 <br_sha256_out>
    2a55:	e8 76 23 01 00       	call   14dd0 <_Z10traceedgecPv>
    2a5a:	48 8d 5c 24 10       	lea    rbx,[rsp+0x10]
    2a5f:	48 89 df             	mov    rdi,rbx
    2a62:	48 8b 74 24 08       	mov    rsi,QWORD PTR [rsp+0x8]
    2a67:	e8 94 24 00 00       	call   4f00 <br_sha256_out>
    2a6c:	48 8d 3d 0d 8b 01 00 	lea    rdi,[rip+0x18b0d]        # 1b580 <memset_s>
    2a73:	e8 58 23 01 00       	call   14dd0 <_Z10traceedgecPv>
    2a78:	be 70 00 00 00       	mov    esi,0x70
    2a7d:	b9 70 00 00 00       	mov    ecx,0x70
    2a82:	48 89 df             	mov    rdi,rbx
    2a85:	31 d2                	xor    edx,edx
    2a87:	e8 f4 8a 01 00       	call   1b580 <memset_s>
    2a8c:	48 8b bc 24 b8 00 00 	mov    rdi,QWORD PTR [rsp+0xb8]
    2a93:	00 
    2a94:	e8 37 23 01 00       	call   14dd0 <_Z10traceedgecPv>
    2a99:	64 48 8b 04 25 28 00 	mov    rax,QWORD PTR fs:0x28
    2aa0:	00 00 
    2aa2:	48 3b 84 24 80 00 00 	cmp    rax,QWORD PTR [rsp+0x80]
    2aa9:	00 
    2aaa:	75 12                	jne    2abe <sgxsd_enclave_sha256+0x10e>
    2aac:	48 81 c4 88 00 00 00 	add    rsp,0x88
    2ab3:	5b                   	pop    rbx
    2ab4:	41 5c                	pop    r12
    2ab6:	41 5d                	pop    r13
    2ab8:	41 5e                	pop    r14
    2aba:	41 5f                	pop    r15
    2abc:	5d                   	pop    rbp
    2abd:	c3                   	ret    
    2abe:	e8 2d 53 01 00       	call   17df0 <__stack_chk_fail>
    2ac3:	66 2e 0f 1f 84 00 00 	nop    WORD PTR cs:[rax+rax*1+0x0]
    2aca:	00 00 00 
    2acd:	0f 1f 00             	nop    DWORD PTR [rax]

0000000000002ad0 <sgxsd_enclave_hmac_sha256>:
    2ad0:	55                   	push   rbp
    2ad1:	41 57                	push   r15
    2ad3:	41 56                	push   r14
    2ad5:	41 55                	push   r13
    2ad7:	41 54                	push   r12
    2ad9:	53                   	push   rbx
    2ada:	48 81 ec c8 00 00 00 	sub    rsp,0xc8
    2ae1:	48 89 d3             	mov    rbx,rdx
    2ae4:	41 89 f5             	mov    r13d,esi
    2ae7:	49 89 fc             	mov    r12,rdi
    2aea:	64 48 8b 04 25 28 00 	mov    rax,QWORD PTR fs:0x28
    2af1:	00 00 
    2af3:	48 89 84 24 c0 00 00 	mov    QWORD PTR [rsp+0xc0],rax
    2afa:	00 
    2afb:	48 8d 2d 7e 8a 01 00 	lea    rbp,[rip+0x18a7e]        # 1b580 <memset_s>
    2b02:	48 89 ef             	mov    rdi,rbp
    2b05:	e8 c6 22 01 00       	call   14dd0 <_Z10traceedgecPv>
    2b0a:	4c 8d bc 24 80 00 00 	lea    r15,[rsp+0x80]
    2b11:	00 
    2b12:	be 40 00 00 00       	mov    esi,0x40
    2b17:	b9 40 00 00 00       	mov    ecx,0x40
    2b1c:	4c 89 ff             	mov    rdi,r15
    2b1f:	ba 36 00 00 00       	mov    edx,0x36
    2b24:	e8 57 8a 01 00       	call   1b580 <memset_s>
    2b29:	48 89 ef             	mov    rdi,rbp
    2b2c:	e8 9f 22 01 00       	call   14dd0 <_Z10traceedgecPv>
    2b31:	48 8d 7c 24 40       	lea    rdi,[rsp+0x40]
    2b36:	be 40 00 00 00       	mov    esi,0x40
    2b3b:	b9 40 00 00 00       	mov    ecx,0x40
    2b40:	ba 5c 00 00 00       	mov    edx,0x5c
    2b45:	e8 36 8a 01 00       	call   1b580 <memset_s>
    2b4a:	83 7b 08 41          	cmp    DWORD PTR [rbx+0x8],0x41
    2b4e:	72 35                	jb     2b85 <sgxsd_enclave_hmac_sha256+0xb5>
    2b50:	bf 01 00 00 00       	mov    edi,0x1
    2b55:	e8 e6 25 01 00       	call   15140 <_Z7tracebrPv>
    2b5a:	48 8d 3d 4f fe ff ff 	lea    rdi,[rip+0xfffffffffffffe4f]        # 29b0 <sgxsd_enclave_sha256>
    2b61:	e8 6a 22 01 00       	call   14dd0 <_Z10traceedgecPv>
    2b66:	48 8d 6c 24 20       	lea    rbp,[rsp+0x20]
    2b6b:	48 89 ef             	mov    rdi,rbp
    2b6e:	be 01 00 00 00       	mov    esi,0x1
    2b73:	48 89 da             	mov    rdx,rbx
    2b76:	e8 35 fe ff ff       	call   29b0 <sgxsd_enclave_sha256>
    2b7b:	48 89 2b             	mov    QWORD PTR [rbx],rbp
    2b7e:	c7 43 08 20 00 00 00 	mov    DWORD PTR [rbx+0x8],0x20
    2b85:	31 ff                	xor    edi,edi
    2b87:	e8 b4 25 01 00       	call   15140 <_Z7tracebrPv>
    2b8c:	83 7b 08 00          	cmp    DWORD PTR [rbx+0x8],0x0
    2b90:	74 39                	je     2bcb <sgxsd_enclave_hmac_sha256+0xfb>
    2b92:	31 ed                	xor    ebp,ebp
    2b94:	66 2e 0f 1f 84 00 00 	nop    WORD PTR cs:[rax+rax*1+0x0]
    2b9b:	00 00 00 
    2b9e:	66 90                	xchg   ax,ax
    2ba0:	bf 01 00 00 00       	mov    edi,0x1
    2ba5:	e8 96 25 01 00       	call   15140 <_Z7tracebrPv>
    2baa:	48 8b 03             	mov    rax,QWORD PTR [rbx]
    2bad:	0f b6 0c 28          	movzx  ecx,BYTE PTR [rax+rbp*1]
    2bb1:	30 8c 2c 80 00 00 00 	xor    BYTE PTR [rsp+rbp*1+0x80],cl
    2bb8:	0f b6 04 28          	movzx  eax,BYTE PTR [rax+rbp*1]
    2bbc:	30 44 2c 40          	xor    BYTE PTR [rsp+rbp*1+0x40],al
    2bc0:	48 ff c5             	inc    rbp
    2bc3:	8b 43 08             	mov    eax,DWORD PTR [rbx+0x8]
    2bc6:	48 39 c5             	cmp    rbp,rax
    2bc9:	72 d5                	jb     2ba0 <sgxsd_enclave_hmac_sha256+0xd0>
    2bcb:	31 ff                	xor    edi,edi
    2bcd:	e8 6e 25 01 00       	call   15140 <_Z7tracebrPv>
    2bd2:	48 8d 2d a7 89 01 00 	lea    rbp,[rip+0x189a7]        # 1b580 <memset_s>
    2bd9:	48 89 ef             	mov    rdi,rbp
    2bdc:	e8 ef 21 01 00       	call   14dd0 <_Z10traceedgecPv>
    2be1:	48 8d 7c 24 20       	lea    rdi,[rsp+0x20]
    2be6:	be 20 00 00 00       	mov    esi,0x20
    2beb:	b9 20 00 00 00       	mov    ecx,0x20
    2bf0:	31 d2                	xor    edx,edx
    2bf2:	e8 89 89 01 00       	call   1b580 <memset_s>
    2bf7:	4c 89 3b             	mov    QWORD PTR [rbx],r15
    2bfa:	c7 43 08 40 00 00 00 	mov    DWORD PTR [rbx+0x8],0x40
    2c01:	4c 8d 35 a8 fd ff ff 	lea    r14,[rip+0xfffffffffffffda8]        # 29b0 <sgxsd_enclave_sha256>
    2c08:	4c 89 f7             	mov    rdi,r14
    2c0b:	e8 c0 21 01 00       	call   14dd0 <_Z10traceedgecPv>
    2c10:	4c 89 e7             	mov    rdi,r12
    2c13:	44 89 ee             	mov    esi,r13d
    2c16:	48 89 da             	mov    rdx,rbx
    2c19:	e8 92 fd ff ff       	call   29b0 <sgxsd_enclave_sha256>
    2c1e:	48 8d 5c 24 40       	lea    rbx,[rsp+0x40]
    2c23:	48 89 1c 24          	mov    QWORD PTR [rsp],rbx
    2c27:	c7 44 24 08 40 00 00 	mov    DWORD PTR [rsp+0x8],0x40
    2c2e:	00 
    2c2f:	4c 89 64 24 10       	mov    QWORD PTR [rsp+0x10],r12
    2c34:	c7 44 24 18 20 00 00 	mov    DWORD PTR [rsp+0x18],0x20
    2c3b:	00 
    2c3c:	4c 89 f7             	mov    rdi,r14
    2c3f:	e8 8c 21 01 00       	call   14dd0 <_Z10traceedgecPv>
    2c44:	48 89 e2             	mov    rdx,rsp
    2c47:	4c 89 e7             	mov    rdi,r12
    2c4a:	be 02 00 00 00       	mov    esi,0x2
    2c4f:	e8 5c fd ff ff       	call   29b0 <sgxsd_enclave_sha256>
    2c54:	48 89 ef             	mov    rdi,rbp
    2c57:	e8 74 21 01 00       	call   14dd0 <_Z10traceedgecPv>
    2c5c:	be 40 00 00 00       	mov    esi,0x40
    2c61:	b9 40 00 00 00       	mov    ecx,0x40
    2c66:	4c 89 ff             	mov    rdi,r15
    2c69:	31 d2                	xor    edx,edx
    2c6b:	e8 10 89 01 00       	call   1b580 <memset_s>
    2c70:	48 89 ef             	mov    rdi,rbp
    2c73:	e8 58 21 01 00       	call   14dd0 <_Z10traceedgecPv>
    2c78:	be 40 00 00 00       	mov    esi,0x40
    2c7d:	b9 40 00 00 00       	mov    ecx,0x40
    2c82:	48 89 df             	mov    rdi,rbx
    2c85:	31 d2                	xor    edx,edx
    2c87:	e8 f4 88 01 00       	call   1b580 <memset_s>
    2c8c:	48 8b bc 24 f8 00 00 	mov    rdi,QWORD PTR [rsp+0xf8]
    2c93:	00 
    2c94:	e8 37 21 01 00       	call   14dd0 <_Z10traceedgecPv>
    2c99:	64 48 8b 04 25 28 00 	mov    rax,QWORD PTR fs:0x28
    2ca0:	00 00 
    2ca2:	48 3b 84 24 c0 00 00 	cmp    rax,QWORD PTR [rsp+0xc0]
    2ca9:	00 
    2caa:	75 12                	jne    2cbe <sgxsd_enclave_hmac_sha256+0x1ee>
    2cac:	48 81 c4 c8 00 00 00 	add    rsp,0xc8
    2cb3:	5b                   	pop    rbx
    2cb4:	41 5c                	pop    r12
    2cb6:	41 5d                	pop    r13
    2cb8:	41 5e                	pop    r14
    2cba:	41 5f                	pop    r15
    2cbc:	5d                   	pop    rbp
    2cbd:	c3                   	ret    
    2cbe:	e8 2d 51 01 00       	call   17df0 <__stack_chk_fail>
    2cc3:	66 2e 0f 1f 84 00 00 	nop    WORD PTR cs:[rax+rax*1+0x0]
    2cca:	00 00 00 
    2ccd:	0f 1f 00             	nop    DWORD PTR [rax]

0000000000002cd0 <sgxsd_enclave_ra_hkdf_round>:
    2cd0:	55                   	push   rbp
    2cd1:	41 57                	push   r15
    2cd3:	41 56                	push   r14
    2cd5:	53                   	push   rbx
    2cd6:	48 83 ec 28          	sub    rsp,0x28
    2cda:	48 89 f3             	mov    rbx,rsi
    2cdd:	49 89 fe             	mov    r14,rdi
    2ce0:	8a 46 20             	mov    al,BYTE PTR [rsi+0x20]
    2ce3:	8d 48 01             	lea    ecx,[rax+0x1]
    2ce6:	88 4e 20             	mov    BYTE PTR [rsi+0x20],cl
    2ce9:	84 c0                	test   al,al
    2ceb:	74 12                	je     2cff <sgxsd_enclave_ra_hkdf_round+0x2f>
    2ced:	31 ff                	xor    edi,edi
    2cef:	e8 4c 24 01 00       	call   15140 <_Z7tracebrPv>
    2cf4:	41 bf 21 00 00 00    	mov    r15d,0x21
    2cfa:	48 89 dd             	mov    rbp,rbx
    2cfd:	eb 14                	jmp    2d13 <sgxsd_enclave_ra_hkdf_round+0x43>
    2cff:	48 8d 6b 20          	lea    rbp,[rbx+0x20]
    2d03:	41 bf 01 00 00 00    	mov    r15d,0x1
    2d09:	bf 01 00 00 00       	mov    edi,0x1
    2d0e:	e8 2d 24 01 00       	call   15140 <_Z7tracebrPv>
    2d13:	4c 89 74 24 08       	mov    QWORD PTR [rsp+0x8],r14
    2d18:	c7 44 24 10 20 00 00 	mov    DWORD PTR [rsp+0x10],0x20
    2d1f:	00 
    2d20:	48 89 6c 24 18       	mov    QWORD PTR [rsp+0x18],rbp
    2d25:	44 89 7c 24 20       	mov    DWORD PTR [rsp+0x20],r15d
    2d2a:	48 8d 3d 9f fd ff ff 	lea    rdi,[rip+0xfffffffffffffd9f]        # 2ad0 <sgxsd_enclave_hmac_sha256>
    2d31:	e8 9a 20 01 00       	call   14dd0 <_Z10traceedgecPv>
    2d36:	48 8d 54 24 08       	lea    rdx,[rsp+0x8]
    2d3b:	48 89 df             	mov    rdi,rbx
    2d3e:	be 02 00 00 00       	mov    esi,0x2
    2d43:	e8 88 fd ff ff       	call   2ad0 <sgxsd_enclave_hmac_sha256>
    2d48:	48 8b 7c 24 48       	mov    rdi,QWORD PTR [rsp+0x48]
    2d4d:	48 83 c4 28          	add    rsp,0x28
    2d51:	5b                   	pop    rbx
    2d52:	41 5e                	pop    r14
    2d54:	41 5f                	pop    r15
    2d56:	5d                   	pop    rbp
    2d57:	e9 74 20 01 00       	jmp    14dd0 <_Z10traceedgecPv>
    2d5c:	0f 1f 40 00          	nop    DWORD PTR [rax+0x0]

0000000000002d60 <sgxsd_enclave_generate_curve25519_privkey>:
    2d60:	55                   	push   rbp
    2d61:	48 89 e5             	mov    rbp,rsp
    2d64:	41 57                	push   r15
    2d66:	41 56                	push   r14
    2d68:	41 55                	push   r13
    2d6a:	41 54                	push   r12
    2d6c:	53                   	push   rbx
    2d6d:	48 83 e4 e0          	and    rsp,0xffffffffffffffe0
    2d71:	48 81 ec c0 00 00 00 	sub    rsp,0xc0
    2d78:	49 89 ff             	mov    r15,rdi
    2d7b:	64 48 8b 04 25 28 00 	mov    rax,QWORD PTR fs:0x28
    2d82:	00 00 
    2d84:	48 89 84 24 a0 00 00 	mov    QWORD PTR [rsp+0xa0],rax
    2d8b:	00 
    2d8c:	48 8d 3d bd 27 01 00 	lea    rdi,[rip+0x127bd]        # 15550 <sgx_read_rand>
    2d93:	e8 38 20 01 00       	call   14dd0 <_Z10traceedgecPv>
    2d98:	be 20 00 00 00       	mov    esi,0x20
    2d9d:	4c 89 ff             	mov    rdi,r15
    2da0:	e8 ab 27 01 00       	call   15550 <sgx_read_rand>
    2da5:	41 89 c6             	mov    r14d,eax
    2da8:	85 c0                	test   eax,eax
    2daa:	74 13                	je     2dbf <sgxsd_enclave_generate_curve25519_privkey+0x5f>
    2dac:	bf 01 00 00 00       	mov    edi,0x1
    2db1:	e8 8a 23 01 00       	call   15140 <_Z7tracebrPv>
    2db6:	4c 8b 65 08          	mov    r12,QWORD PTR [rbp+0x8]
    2dba:	e9 fa 01 00 00       	jmp    2fb9 <sgxsd_enclave_generate_curve25519_privkey+0x259>
    2dbf:	31 ff                	xor    edi,edi
    2dc1:	e8 7a 23 01 00       	call   15140 <_Z7tracebrPv>
    2dc6:	48 8d 3d 23 f5 ff ff 	lea    rdi,[rip+0xfffffffffffff523]        # 22f0 <sgxsd_spin_lock>
    2dcd:	e8 fe 1f 01 00       	call   14dd0 <_Z10traceedgecPv>
    2dd2:	48 8d 3d 07 8b 01 00 	lea    rdi,[rip+0x18b07]        # 1b8e0 <sgx_spin_lock>
    2dd9:	e8 f2 1f 01 00       	call   14dd0 <_Z10traceedgecPv>
    2dde:	48 8d 3d db 6f 24 00 	lea    rdi,[rip+0x246fdb]        # 249dc0 <g_sgxsd_enclave_read_rand_lock>
    2de5:	e8 f6 8a 01 00       	call   1b8e0 <sgx_spin_lock>
    2dea:	0f ae e8             	lfence 
    2ded:	4c 8b 65 08          	mov    r12,QWORD PTR [rbp+0x8]
    2df1:	4c 89 e7             	mov    rdi,r12
    2df4:	e8 d7 1f 01 00       	call   14dd0 <_Z10traceedgecPv>
    2df9:	48 8d 05 c4 6f 24 00 	lea    rax,[rip+0x246fc4]        # 249dc4 <g_sgxsd_enclave_read_rand_state>
    2e00:	48 89 44 24 20       	mov    QWORD PTR [rsp+0x20],rax
    2e05:	c7 44 24 28 20 00 00 	mov    DWORD PTR [rsp+0x28],0x20
    2e0c:	00 
    2e0d:	4c 89 7c 24 30       	mov    QWORD PTR [rsp+0x30],r15
    2e12:	c7 44 24 38 20 00 00 	mov    DWORD PTR [rsp+0x38],0x20
    2e19:	00 
    2e1a:	48 8d 3d af fc ff ff 	lea    rdi,[rip+0xfffffffffffffcaf]        # 2ad0 <sgxsd_enclave_hmac_sha256>
    2e21:	e8 aa 1f 01 00       	call   14dd0 <_Z10traceedgecPv>
    2e26:	48 8d 9c 24 80 00 00 	lea    rbx,[rsp+0x80]
    2e2d:	00 
    2e2e:	48 8d 54 24 20       	lea    rdx,[rsp+0x20]
    2e33:	48 89 df             	mov    rdi,rbx
    2e36:	be 02 00 00 00       	mov    esi,0x2
    2e3b:	e8 90 fc ff ff       	call   2ad0 <sgxsd_enclave_hmac_sha256>
    2e40:	c5 f8 57 c0          	vxorps xmm0,xmm0,xmm0
    2e44:	c5 fc 29 44 24 40    	vmovaps YMMWORD PTR [rsp+0x40],ymm0
    2e4a:	48 8d 3d 7f fe ff ff 	lea    rdi,[rip+0xfffffffffffffe7f]        # 2cd0 <sgxsd_enclave_ra_hkdf_round>
    2e51:	c5 f8 77             	vzeroupper 
    2e54:	e8 77 1f 01 00       	call   14dd0 <_Z10traceedgecPv>
    2e59:	4c 8d 6c 24 60       	lea    r13,[rsp+0x60]
    2e5e:	c6 44 24 60 01       	mov    BYTE PTR [rsp+0x60],0x1
    2e63:	bf 01 00 00 00       	mov    edi,0x1
    2e68:	e8 d3 22 01 00       	call   15140 <_Z7tracebrPv>
    2e6d:	48 89 1c 24          	mov    QWORD PTR [rsp],rbx
    2e71:	c7 44 24 08 20 00 00 	mov    DWORD PTR [rsp+0x8],0x20
    2e78:	00 
    2e79:	4c 89 6c 24 10       	mov    QWORD PTR [rsp+0x10],r13
    2e7e:	c7 44 24 18 01 00 00 	mov    DWORD PTR [rsp+0x18],0x1
    2e85:	00 
    2e86:	48 8d 3d 43 fc ff ff 	lea    rdi,[rip+0xfffffffffffffc43]        # 2ad0 <sgxsd_enclave_hmac_sha256>
    2e8d:	e8 3e 1f 01 00       	call   14dd0 <_Z10traceedgecPv>
    2e92:	48 8d 7c 24 40       	lea    rdi,[rsp+0x40]
    2e97:	48 89 e2             	mov    rdx,rsp
    2e9a:	be 02 00 00 00       	mov    esi,0x2
    2e9f:	e8 2c fc ff ff       	call   2ad0 <sgxsd_enclave_hmac_sha256>
    2ea4:	4c 89 e7             	mov    rdi,r12
    2ea7:	e8 24 1f 01 00       	call   14dd0 <_Z10traceedgecPv>
    2eac:	c5 fc 28 44 24 40    	vmovaps ymm0,YMMWORD PTR [rsp+0x40]
    2eb2:	c5 fc 11 05 0a 6f 24 	vmovups YMMWORD PTR [rip+0x246f0a],ymm0        # 249dc4 <g_sgxsd_enclave_read_rand_state>
    2eb9:	00 
    2eba:	48 8d 3d 0f fe ff ff 	lea    rdi,[rip+0xfffffffffffffe0f]        # 2cd0 <sgxsd_enclave_ra_hkdf_round>
    2ec1:	c5 f8 77             	vzeroupper 
    2ec4:	e8 07 1f 01 00       	call   14dd0 <_Z10traceedgecPv>
    2ec9:	8a 44 24 60          	mov    al,BYTE PTR [rsp+0x60]
    2ecd:	8d 48 01             	lea    ecx,[rax+0x1]
    2ed0:	88 4c 24 60          	mov    BYTE PTR [rsp+0x60],cl
    2ed4:	31 ff                	xor    edi,edi
    2ed6:	31 db                	xor    ebx,ebx
    2ed8:	84 c0                	test   al,al
    2eda:	40 0f 94 c7          	sete   dil
    2ede:	0f 95 c3             	setne  bl
    2ee1:	48 8d 44 24 40       	lea    rax,[rsp+0x40]
    2ee6:	4c 0f 45 e8          	cmovne r13,rax
    2eea:	c1 e3 05             	shl    ebx,0x5
    2eed:	83 cb 01             	or     ebx,0x1
    2ef0:	e8 4b 22 01 00       	call   15140 <_Z7tracebrPv>
    2ef5:	48 8d 84 24 80 00 00 	lea    rax,[rsp+0x80]
    2efc:	00 
    2efd:	48 89 04 24          	mov    QWORD PTR [rsp],rax
    2f01:	c7 44 24 08 20 00 00 	mov    DWORD PTR [rsp+0x8],0x20
    2f08:	00 
    2f09:	4c 89 6c 24 10       	mov    QWORD PTR [rsp+0x10],r13
    2f0e:	89 5c 24 18          	mov    DWORD PTR [rsp+0x18],ebx
    2f12:	48 8d 3d b7 fb ff ff 	lea    rdi,[rip+0xfffffffffffffbb7]        # 2ad0 <sgxsd_enclave_hmac_sha256>
    2f19:	e8 b2 1e 01 00       	call   14dd0 <_Z10traceedgecPv>
    2f1e:	48 8d 5c 24 40       	lea    rbx,[rsp+0x40]
    2f23:	48 89 df             	mov    rdi,rbx
    2f26:	be 02 00 00 00       	mov    esi,0x2
    2f2b:	48 89 e2             	mov    rdx,rsp
    2f2e:	e8 9d fb ff ff       	call   2ad0 <sgxsd_enclave_hmac_sha256>
    2f33:	4c 89 e7             	mov    rdi,r12
    2f36:	e8 95 1e 01 00       	call   14dd0 <_Z10traceedgecPv>
    2f3b:	c5 fc 28 44 24 40    	vmovaps ymm0,YMMWORD PTR [rsp+0x40]
    2f41:	c4 c1 7c 11 07       	vmovups YMMWORD PTR [r15],ymm0
    2f46:	48 8d 3d 73 f5 ff ff 	lea    rdi,[rip+0xfffffffffffff573]        # 24c0 <sgxsd_spin_unlock>
    2f4d:	c5 f8 77             	vzeroupper 
    2f50:	e8 7b 1e 01 00       	call   14dd0 <_Z10traceedgecPv>
    2f55:	48 8d 3d e4 89 01 00 	lea    rdi,[rip+0x189e4]        # 1b940 <sgx_spin_unlock>
    2f5c:	e8 6f 1e 01 00       	call   14dd0 <_Z10traceedgecPv>
    2f61:	48 8d 3d 58 6e 24 00 	lea    rdi,[rip+0x246e58]        # 249dc0 <g_sgxsd_enclave_read_rand_lock>
    2f68:	e8 d3 89 01 00       	call   1b940 <sgx_spin_unlock>
    2f6d:	4c 89 e7             	mov    rdi,r12
    2f70:	e8 5b 1e 01 00       	call   14dd0 <_Z10traceedgecPv>
    2f75:	4c 8d 3d 04 86 01 00 	lea    r15,[rip+0x18604]        # 1b580 <memset_s>
    2f7c:	4c 89 ff             	mov    rdi,r15
    2f7f:	e8 4c 1e 01 00       	call   14dd0 <_Z10traceedgecPv>
    2f84:	be 21 00 00 00       	mov    esi,0x21
    2f89:	b9 21 00 00 00       	mov    ecx,0x21
    2f8e:	48 89 df             	mov    rdi,rbx
    2f91:	31 d2                	xor    edx,edx
    2f93:	e8 e8 85 01 00       	call   1b580 <memset_s>
    2f98:	4c 89 ff             	mov    rdi,r15
    2f9b:	e8 30 1e 01 00       	call   14dd0 <_Z10traceedgecPv>
    2fa0:	be 20 00 00 00       	mov    esi,0x20
    2fa5:	b9 20 00 00 00       	mov    ecx,0x20
    2faa:	48 8d bc 24 80 00 00 	lea    rdi,[rsp+0x80]
    2fb1:	00 
    2fb2:	31 d2                	xor    edx,edx
    2fb4:	e8 c7 85 01 00       	call   1b580 <memset_s>
    2fb9:	4c 89 e7             	mov    rdi,r12
    2fbc:	e8 0f 1e 01 00       	call   14dd0 <_Z10traceedgecPv>
    2fc1:	64 48 8b 04 25 28 00 	mov    rax,QWORD PTR fs:0x28
    2fc8:	00 00 
    2fca:	48 3b 84 24 a0 00 00 	cmp    rax,QWORD PTR [rsp+0xa0]
    2fd1:	00 
    2fd2:	75 12                	jne    2fe6 <sgxsd_enclave_generate_curve25519_privkey+0x286>
    2fd4:	44 89 f0             	mov    eax,r14d
    2fd7:	48 8d 65 d8          	lea    rsp,[rbp-0x28]
    2fdb:	5b                   	pop    rbx
    2fdc:	41 5c                	pop    r12
    2fde:	41 5d                	pop    r13
    2fe0:	41 5e                	pop    r14
    2fe2:	41 5f                	pop    r15
    2fe4:	5d                   	pop    rbp
    2fe5:	c3                   	ret    
    2fe6:	e8 05 4e 01 00       	call   17df0 <__stack_chk_fail>
    2feb:	0f 1f 44 00 00       	nop    DWORD PTR [rax+rax*1+0x0]

0000000000002ff0 <sgxsd_enclave_get_next_report>:
    2ff0:	55                   	push   rbp
    2ff1:	41 56                	push   r14
    2ff3:	53                   	push   rbx
    2ff4:	48 81 ec 90 00 00 00 	sub    rsp,0x90
    2ffb:	64 48 8b 04 25 28 00 	mov    rax,QWORD PTR fs:0x28
    3002:	00 00 
    3004:	48 89 84 24 88 00 00 	mov    QWORD PTR [rsp+0x88],rax
    300b:	00 
    300c:	80 3d 8d 5c 24 00 00 	cmp    BYTE PTR [rip+0x245c8d],0x0        # 248ca0 <g_sgxsd_enclave_node_initialized>
    3013:	74 37                	je     304c <sgxsd_enclave_get_next_report+0x5c>
    3015:	48 89 fb             	mov    rbx,rdi
    3018:	bf 01 00 00 00       	mov    edi,0x1
    301d:	e8 1e 21 01 00       	call   15140 <_Z7tracebrPv>
    3022:	48 85 db             	test   rbx,rbx
    3025:	74 33                	je     305a <sgxsd_enclave_get_next_report+0x6a>
    3027:	31 ff                	xor    edi,edi
    3029:	e8 12 21 01 00       	call   15140 <_Z7tracebrPv>
    302e:	48 8d 3d bb f4 ff ff 	lea    rdi,[rip+0xfffffffffffff4bb]        # 24f0 <sgxsd_enclave_generate_curve25519_keypair>
    3035:	e8 96 1d 01 00       	call   14dd0 <_Z10traceedgecPv>
    303a:	48 8d 7c 24 48       	lea    rdi,[rsp+0x48]
    303f:	e8 ac f4 ff ff       	call   24f0 <sgxsd_enclave_generate_curve25519_keypair>
    3044:	85 c0                	test   eax,eax
    3046:	74 23                	je     306b <sgxsd_enclave_get_next_report+0x7b>
    3048:	89 c5                	mov    ebp,eax
    304a:	eb 66                	jmp    30b2 <sgxsd_enclave_get_next_report+0xc2>
    304c:	31 ff                	xor    edi,edi
    304e:	e8 ed 20 01 00       	call   15140 <_Z7tracebrPv>
    3053:	bd 05 00 00 00       	mov    ebp,0x5
    3058:	eb 62                	jmp    30bc <sgxsd_enclave_get_next_report+0xcc>
    305a:	bf 01 00 00 00       	mov    edi,0x1
    305f:	e8 dc 20 01 00       	call   15140 <_Z7tracebrPv>
    3064:	bd 02 00 00 00       	mov    ebp,0x2
    3069:	eb 51                	jmp    30bc <sgxsd_enclave_get_next_report+0xcc>
    306b:	48 8d ac 24 b0 00 00 	lea    rbp,[rsp+0xb0]
    3072:	00 
    3073:	31 ff                	xor    edi,edi
    3075:	e8 c6 20 01 00       	call   15140 <_Z7tracebrPv>
    307a:	c5 f8 57 c0          	vxorps xmm0,xmm0,xmm0
    307e:	c5 fc 11 44 24 20    	vmovups YMMWORD PTR [rsp+0x20],ymm0
    3084:	c5 fc 10 44 24 68    	vmovups ymm0,YMMWORD PTR [rsp+0x68]
    308a:	c5 fc 11 04 24       	vmovups YMMWORD PTR [rsp],ymm0
    308f:	48 8d 3d 8a c7 03 00 	lea    rdi,[rip+0x3c78a]        # 3f820 <sgx_create_report>
    3096:	c5 f8 77             	vzeroupper 
    3099:	e8 32 1d 01 00       	call   14dd0 <_Z10traceedgecPv>
    309e:	48 89 e6             	mov    rsi,rsp
    30a1:	48 89 ef             	mov    rdi,rbp
    30a4:	48 89 da             	mov    rdx,rbx
    30a7:	e8 74 c7 03 00       	call   3f820 <sgx_create_report>
    30ac:	89 c5                	mov    ebp,eax
    30ae:	85 c0                	test   eax,eax
    30b0:	74 3c                	je     30ee <sgxsd_enclave_get_next_report+0xfe>
    30b2:	bf 01 00 00 00       	mov    edi,0x1
    30b7:	e8 84 20 01 00       	call   15140 <_Z7tracebrPv>
    30bc:	48 8b bc 24 a8 00 00 	mov    rdi,QWORD PTR [rsp+0xa8]
    30c3:	00 
    30c4:	e8 07 1d 01 00       	call   14dd0 <_Z10traceedgecPv>
    30c9:	64 48 8b 04 25 28 00 	mov    rax,QWORD PTR fs:0x28
    30d0:	00 00 
    30d2:	48 3b 84 24 88 00 00 	cmp    rax,QWORD PTR [rsp+0x88]
    30d9:	00 
    30da:	0f 85 bd 00 00 00    	jne    319d <sgxsd_enclave_get_next_report+0x1ad>
    30e0:	89 e8                	mov    eax,ebp
    30e2:	48 81 c4 90 00 00 00 	add    rsp,0x90
    30e9:	5b                   	pop    rbx
    30ea:	41 5e                	pop    r14
    30ec:	5d                   	pop    rbp
    30ed:	c3                   	ret    
    30ee:	31 ff                	xor    edi,edi
    30f0:	e8 4b 20 01 00       	call   15140 <_Z7tracebrPv>
    30f5:	48 8d 3d f4 f1 ff ff 	lea    rdi,[rip+0xfffffffffffff1f4]        # 22f0 <sgxsd_spin_lock>
    30fc:	e8 cf 1c 01 00       	call   14dd0 <_Z10traceedgecPv>
    3101:	48 8d 3d d8 87 01 00 	lea    rdi,[rip+0x187d8]        # 1b8e0 <sgx_spin_lock>
    3108:	e8 c3 1c 01 00       	call   14dd0 <_Z10traceedgecPv>
    310d:	4c 8d 35 e4 7c 24 00 	lea    r14,[rip+0x247ce4]        # 24adf8 <g_sgxsd_enclave_dh_keypair_lock>
    3114:	4c 89 f7             	mov    rdi,r14
    3117:	e8 c4 87 01 00       	call   1b8e0 <sgx_spin_lock>
    311c:	0f ae e8             	lfence 
    311f:	48 8b 9c 24 a8 00 00 	mov    rbx,QWORD PTR [rsp+0xa8]
    3126:	00 
    3127:	48 89 df             	mov    rdi,rbx
    312a:	e8 a1 1c 01 00       	call   14dd0 <_Z10traceedgecPv>
    312f:	c5 fc 10 44 24 48    	vmovups ymm0,YMMWORD PTR [rsp+0x48]
    3135:	c5 fc 10 4c 24 68    	vmovups ymm1,YMMWORD PTR [rsp+0x68]
    313b:	c5 fc 11 0d 55 6c 24 	vmovups YMMWORD PTR [rip+0x246c55],ymm1        # 249d98 <g_sgxsd_enclave_new_dh_keypair+0x20>
    3142:	00 
    3143:	c5 fc 11 05 2d 6c 24 	vmovups YMMWORD PTR [rip+0x246c2d],ymm0        # 249d78 <g_sgxsd_enclave_new_dh_keypair>
    314a:	00 
    314b:	48 8d 3d 6e f3 ff ff 	lea    rdi,[rip+0xfffffffffffff36e]        # 24c0 <sgxsd_spin_unlock>
    3152:	c5 f8 77             	vzeroupper 
    3155:	e8 76 1c 01 00       	call   14dd0 <_Z10traceedgecPv>
    315a:	48 8d 3d df 87 01 00 	lea    rdi,[rip+0x187df]        # 1b940 <sgx_spin_unlock>
    3161:	e8 6a 1c 01 00       	call   14dd0 <_Z10traceedgecPv>
    3166:	4c 89 f7             	mov    rdi,r14
    3169:	e8 d2 87 01 00       	call   1b940 <sgx_spin_unlock>
    316e:	48 89 df             	mov    rdi,rbx
    3171:	e8 5a 1c 01 00       	call   14dd0 <_Z10traceedgecPv>
    3176:	48 8d 3d 03 84 01 00 	lea    rdi,[rip+0x18403]        # 1b580 <memset_s>
    317d:	e8 4e 1c 01 00       	call   14dd0 <_Z10traceedgecPv>
    3182:	48 8d 7c 24 48       	lea    rdi,[rsp+0x48]
    3187:	be 40 00 00 00       	mov    esi,0x40
    318c:	b9 40 00 00 00       	mov    ecx,0x40
    3191:	31 d2                	xor    edx,edx
    3193:	e8 e8 83 01 00       	call   1b580 <memset_s>
    3198:	e9 1f ff ff ff       	jmp    30bc <sgxsd_enclave_get_next_report+0xcc>
    319d:	e8 4e 4c 01 00       	call   17df0 <__stack_chk_fail>
    31a2:	66 2e 0f 1f 84 00 00 	nop    WORD PTR cs:[rax+rax*1+0x0]
    31a9:	00 00 00 
    31ac:	0f 1f 40 00          	nop    DWORD PTR [rax+0x0]

00000000000031b0 <sgxsd_enclave_set_current_quote>:
    31b0:	55                   	push   rbp
    31b1:	53                   	push   rbx
    31b2:	50                   	push   rax
    31b3:	80 3d e6 5a 24 00 00 	cmp    BYTE PTR [rip+0x245ae6],0x0        # 248ca0 <g_sgxsd_enclave_node_initialized>
    31ba:	0f 84 90 00 00 00    	je     3250 <sgxsd_enclave_set_current_quote+0xa0>
    31c0:	bf 01 00 00 00       	mov    edi,0x1
    31c5:	e8 76 1f 01 00       	call   15140 <_Z7tracebrPv>
    31ca:	48 8d 3d 1f f1 ff ff 	lea    rdi,[rip+0xfffffffffffff11f]        # 22f0 <sgxsd_spin_lock>
    31d1:	e8 fa 1b 01 00       	call   14dd0 <_Z10traceedgecPv>
    31d6:	48 8d 3d 03 87 01 00 	lea    rdi,[rip+0x18703]        # 1b8e0 <sgx_spin_lock>
    31dd:	e8 ee 1b 01 00       	call   14dd0 <_Z10traceedgecPv>
    31e2:	48 8d 2d 0f 7c 24 00 	lea    rbp,[rip+0x247c0f]        # 24adf8 <g_sgxsd_enclave_dh_keypair_lock>
    31e9:	48 89 ef             	mov    rdi,rbp
    31ec:	e8 ef 86 01 00       	call   1b8e0 <sgx_spin_lock>
    31f1:	0f ae e8             	lfence 
    31f4:	48 8b 5c 24 18       	mov    rbx,QWORD PTR [rsp+0x18]
    31f9:	48 89 df             	mov    rdi,rbx
    31fc:	e8 cf 1b 01 00       	call   14dd0 <_Z10traceedgecPv>
    3201:	c5 fc 10 05 8f 6b 24 	vmovups ymm0,YMMWORD PTR [rip+0x246b8f]        # 249d98 <g_sgxsd_enclave_new_dh_keypair+0x20>
    3208:	00 
    3209:	c5 fc 11 05 1f 6b 24 	vmovups YMMWORD PTR [rip+0x246b1f],ymm0        # 249d30 <g_sgxsd_enclave_dh_keypair+0x20>
    3210:	00 
    3211:	c5 fc 10 05 5f 6b 24 	vmovups ymm0,YMMWORD PTR [rip+0x246b5f]        # 249d78 <g_sgxsd_enclave_new_dh_keypair>
    3218:	00 
    3219:	c5 fc 11 05 ef 6a 24 	vmovups YMMWORD PTR [rip+0x246aef],ymm0        # 249d10 <g_sgxsd_enclave_dh_keypair>
    3220:	00 
    3221:	48 8d 3d 98 f2 ff ff 	lea    rdi,[rip+0xfffffffffffff298]        # 24c0 <sgxsd_spin_unlock>
    3228:	c5 f8 77             	vzeroupper 
    322b:	e8 a0 1b 01 00       	call   14dd0 <_Z10traceedgecPv>
    3230:	48 8d 3d 09 87 01 00 	lea    rdi,[rip+0x18709]        # 1b940 <sgx_spin_unlock>
    3237:	e8 94 1b 01 00       	call   14dd0 <_Z10traceedgecPv>
    323c:	48 89 ef             	mov    rdi,rbp
    323f:	e8 fc 86 01 00       	call   1b940 <sgx_spin_unlock>
    3244:	48 89 df             	mov    rdi,rbx
    3247:	e8 84 1b 01 00       	call   14dd0 <_Z10traceedgecPv>
    324c:	31 ed                	xor    ebp,ebp
    324e:	eb 11                	jmp    3261 <sgxsd_enclave_set_current_quote+0xb1>
    3250:	31 ff                	xor    edi,edi
    3252:	e8 e9 1e 01 00       	call   15140 <_Z7tracebrPv>
    3257:	bd 05 00 00 00       	mov    ebp,0x5
    325c:	48 8b 5c 24 18       	mov    rbx,QWORD PTR [rsp+0x18]
    3261:	48 89 df             	mov    rdi,rbx
    3264:	e8 67 1b 01 00       	call   14dd0 <_Z10traceedgecPv>
    3269:	89 e8                	mov    eax,ebp
    326b:	48 83 c4 08          	add    rsp,0x8
    326f:	5b                   	pop    rbx
    3270:	5d                   	pop    rbp
    3271:	c3                   	ret    
    3272:	66 2e 0f 1f 84 00 00 	nop    WORD PTR cs:[rax+rax*1+0x0]
    3279:	00 00 00 
    327c:	0f 1f 40 00          	nop    DWORD PTR [rax+0x0]

0000000000003280 <sgxsd_enclave_add_pending_request>:
    3280:	55                   	push   rbp
    3281:	41 57                	push   r15
    3283:	41 56                	push   r14
    3285:	41 54                	push   r12
    3287:	53                   	push   rbx
    3288:	48 83 ec 40          	sub    rsp,0x40
    328c:	48 89 f5             	mov    rbp,rsi
    328f:	49 89 fe             	mov    r14,rdi
    3292:	64 48 8b 04 25 28 00 	mov    rax,QWORD PTR fs:0x28
    3299:	00 00 
    329b:	48 89 44 24 38       	mov    QWORD PTR [rsp+0x38],rax
    32a0:	8a 1d 3e 6b 24 00    	mov    bl,BYTE PTR [rip+0x246b3e]        # 249de4 <g_sgxsd_enclave_pending_requests_table_order>
    32a6:	48 8d 3d 43 f0 ff ff 	lea    rdi,[rip+0xfffffffffffff043]        # 22f0 <sgxsd_spin_lock>
    32ad:	e8 1e 1b 01 00       	call   14dd0 <_Z10traceedgecPv>
    32b2:	48 8d 3d 27 86 01 00 	lea    rdi,[rip+0x18627]        # 1b8e0 <sgx_spin_lock>
    32b9:	e8 12 1b 01 00       	call   14dd0 <_Z10traceedgecPv>
    32be:	4c 8d 25 2b 7b 24 00 	lea    r12,[rip+0x247b2b]        # 24adf0 <g_sgxsd_enclave_pending_requests_lock>
    32c5:	4c 89 e7             	mov    rdi,r12
    32c8:	e8 13 86 01 00       	call   1b8e0 <sgx_spin_lock>
    32cd:	0f ae e8             	lfence 
    32d0:	4c 8b 7c 24 68       	mov    r15,QWORD PTR [rsp+0x68]
    32d5:	4c 89 ff             	mov    rdi,r15
    32d8:	e8 f3 1a 01 00       	call   14dd0 <_Z10traceedgecPv>
    32dd:	48 8b 05 d4 6a 24 00 	mov    rax,QWORD PTR [rip+0x246ad4]        # 249db8 <g_sgxsd_enclave_last_pending_request_id_val>
    32e4:	48 ff c0             	inc    rax
    32e7:	48 89 05 ca 6a 24 00 	mov    QWORD PTR [rip+0x246aca],rax        # 249db8 <g_sgxsd_enclave_last_pending_request_id_val>
    32ee:	48 89 44 24 08       	mov    QWORD PTR [rsp+0x8],rax
    32f3:	48 8b 0d 56 6a 24 00 	mov    rcx,QWORD PTR [rip+0x246a56]        # 249d50 <g_sgxsd_enclave_pending_requests>
    32fa:	c5 fc 10 45 08       	vmovups ymm0,YMMWORD PTR [rbp+0x8]
    32ff:	c5 fc 11 44 24 10    	vmovups YMMWORD PTR [rsp+0x10],ymm0
    3305:	c4 e2 e0 f5 d0       	bzhi   rdx,rax,rbx
    330a:	48 8d 14 92          	lea    rdx,[rdx+rdx*4]
    330e:	48 89 04 d1          	mov    QWORD PTR [rcx+rdx*8],rax
    3312:	c5 fc 10 44 24 10    	vmovups ymm0,YMMWORD PTR [rsp+0x10]
    3318:	c5 fc 11 44 d1 08    	vmovups YMMWORD PTR [rcx+rdx*8+0x8],ymm0
    331e:	48 8d 3d 9b f1 ff ff 	lea    rdi,[rip+0xfffffffffffff19b]        # 24c0 <sgxsd_spin_unlock>
    3325:	c5 f8 77             	vzeroupper 
    3328:	e8 a3 1a 01 00       	call   14dd0 <_Z10traceedgecPv>
    332d:	48 8d 3d 0c 86 01 00 	lea    rdi,[rip+0x1860c]        # 1b940 <sgx_spin_unlock>
    3334:	e8 97 1a 01 00       	call   14dd0 <_Z10traceedgecPv>
    3339:	4c 89 e7             	mov    rdi,r12
    333c:	e8 ff 85 01 00       	call   1b940 <sgx_spin_unlock>
    3341:	4c 89 ff             	mov    rdi,r15
    3344:	e8 87 1a 01 00       	call   14dd0 <_Z10traceedgecPv>
    3349:	49 8d 5e 08          	lea    rbx,[r14+0x8]
    334d:	48 8d 3d fc 21 01 00 	lea    rdi,[rip+0x121fc]        # 15550 <sgx_read_rand>
    3354:	e8 77 1a 01 00       	call   14dd0 <_Z10traceedgecPv>
    3359:	be 0c 00 00 00       	mov    esi,0xc
    335e:	48 89 df             	mov    rdi,rbx
    3361:	e8 ea 21 01 00       	call   15550 <sgx_read_rand>
    3366:	85 c0                	test   eax,eax
    3368:	74 04                	je     336e <sgxsd_enclave_add_pending_request+0xee>
    336a:	89 c5                	mov    ebp,eax
    336c:	eb 64                	jmp    33d2 <sgxsd_enclave_add_pending_request+0x152>
    336e:	31 ff                	xor    edi,edi
    3370:	e8 cb 1d 01 00       	call   15140 <_Z7tracebrPv>
    3375:	48 8d 3d f4 f1 ff ff 	lea    rdi,[rip+0xfffffffffffff1f4]        # 2570 <sgxsd_aes_gcm_encrypt>
    337c:	e8 4f 1a 01 00       	call   14dd0 <_Z10traceedgecPv>
    3381:	48 8d 3d 68 f2 ff ff 	lea    rdi,[rip+0xfffffffffffff268]        # 25f0 <sgxsd_aes_gcm_run>
    3388:	e8 43 1a 01 00       	call   14dd0 <_Z10traceedgecPv>
    338d:	48 83 ec 08          	sub    rsp,0x8
    3391:	48 8d 35 c0 69 24 00 	lea    rsi,[rip+0x2469c0]        # 249d58 <g_sgxsd_enclave_pending_request_id_key>
    3398:	bd 01 00 00 00       	mov    ebp,0x1
    339d:	48 8d 54 24 10       	lea    rdx,[rsp+0x10]
    33a2:	49 8d 46 14          	lea    rax,[r14+0x14]
    33a6:	bf 01 00 00 00       	mov    edi,0x1
    33ab:	4d 89 f0             	mov    r8,r14
    33ae:	b9 08 00 00 00       	mov    ecx,0x8
    33b3:	49 89 d9             	mov    r9,rbx
    33b6:	50                   	push   rax
    33b7:	6a 00                	push   0x0
    33b9:	6a 00                	push   0x0
    33bb:	e8 30 f2 ff ff       	call   25f0 <sgxsd_aes_gcm_run>
    33c0:	48 83 c4 20          	add    rsp,0x20
    33c4:	89 c3                	mov    ebx,eax
    33c6:	4c 89 ff             	mov    rdi,r15
    33c9:	e8 02 1a 01 00       	call   14dd0 <_Z10traceedgecPv>
    33ce:	85 db                	test   ebx,ebx
    33d0:	74 31                	je     3403 <sgxsd_enclave_add_pending_request+0x183>
    33d2:	bf 01 00 00 00       	mov    edi,0x1
    33d7:	e8 64 1d 01 00       	call   15140 <_Z7tracebrPv>
    33dc:	4c 89 ff             	mov    rdi,r15
    33df:	e8 ec 19 01 00       	call   14dd0 <_Z10traceedgecPv>
    33e4:	64 48 8b 04 25 28 00 	mov    rax,QWORD PTR fs:0x28
    33eb:	00 00 
    33ed:	48 3b 44 24 38       	cmp    rax,QWORD PTR [rsp+0x38]
    33f2:	75 1a                	jne    340e <sgxsd_enclave_add_pending_request+0x18e>
    33f4:	89 e8                	mov    eax,ebp
    33f6:	48 83 c4 40          	add    rsp,0x40
    33fa:	5b                   	pop    rbx
    33fb:	41 5c                	pop    r12
    33fd:	41 5e                	pop    r14
    33ff:	41 5f                	pop    r15
    3401:	5d                   	pop    rbp
    3402:	c3                   	ret    
    3403:	31 ff                	xor    edi,edi
    3405:	e8 36 1d 01 00       	call   15140 <_Z7tracebrPv>
    340a:	31 ed                	xor    ebp,ebp
    340c:	eb ce                	jmp    33dc <sgxsd_enclave_add_pending_request+0x15c>
    340e:	e8 dd 49 01 00       	call   17df0 <__stack_chk_fail>
    3413:	66 2e 0f 1f 84 00 00 	nop    WORD PTR cs:[rax+rax*1+0x0]
    341a:	00 00 00 
    341d:	0f 1f 00             	nop    DWORD PTR [rax]

0000000000003420 <sgxsd_enclave_remove_pending_request>:
    3420:	55                   	push   rbp
    3421:	41 57                	push   r15
    3423:	41 56                	push   r14
    3425:	41 54                	push   r12
    3427:	53                   	push   rbx
    3428:	48 83 ec 10          	sub    rsp,0x10
    342c:	49 89 f6             	mov    r14,rsi
    342f:	48 89 fb             	mov    rbx,rdi
    3432:	48 c7 44 24 08 00 00 	mov    QWORD PTR [rsp+0x8],0x0
    3439:	00 00 
    343b:	48 8d 3d fe f4 ff ff 	lea    rdi,[rip+0xfffffffffffff4fe]        # 2940 <sgxsd_aes_gcm_decrypt>
    3442:	e8 89 19 01 00       	call   14dd0 <_Z10traceedgecPv>
    3447:	48 8d 3d a2 f1 ff ff 	lea    rdi,[rip+0xfffffffffffff1a2]        # 25f0 <sgxsd_aes_gcm_run>
    344e:	e8 7d 19 01 00       	call   14dd0 <_Z10traceedgecPv>
    3453:	48 83 ec 08          	sub    rsp,0x8
    3457:	48 8d 35 fa 68 24 00 	lea    rsi,[rip+0x2468fa]        # 249d58 <g_sgxsd_enclave_pending_request_id_key>
    345e:	4c 8d 44 24 10       	lea    r8,[rsp+0x10]
    3463:	4c 8d 4b 08          	lea    r9,[rbx+0x8]
    3467:	48 8d 43 14          	lea    rax,[rbx+0x14]
    346b:	31 ff                	xor    edi,edi
    346d:	48 89 da             	mov    rdx,rbx
    3470:	b9 08 00 00 00       	mov    ecx,0x8
    3475:	50                   	push   rax
    3476:	6a 00                	push   0x0
    3478:	6a 00                	push   0x0
    347a:	e8 71 f1 ff ff       	call   25f0 <sgxsd_aes_gcm_run>
    347f:	48 83 c4 20          	add    rsp,0x20
    3483:	89 c5                	mov    ebp,eax
    3485:	48 8b 5c 24 38       	mov    rbx,QWORD PTR [rsp+0x38]
    348a:	48 89 df             	mov    rdi,rbx
    348d:	e8 3e 19 01 00       	call   14dd0 <_Z10traceedgecPv>
    3492:	85 ed                	test   ebp,ebp
    3494:	74 0f                	je     34a5 <sgxsd_enclave_remove_pending_request+0x85>
    3496:	bf 01 00 00 00       	mov    edi,0x1
    349b:	e8 a0 1c 01 00       	call   15140 <_Z7tracebrPv>
    34a0:	e9 d8 00 00 00       	jmp    357d <sgxsd_enclave_remove_pending_request+0x15d>
    34a5:	31 ed                	xor    ebp,ebp
    34a7:	31 ff                	xor    edi,edi
    34a9:	e8 92 1c 01 00       	call   15140 <_Z7tracebrPv>
    34ae:	8a 05 30 69 24 00    	mov    al,BYTE PTR [rip+0x246930]        # 249de4 <g_sgxsd_enclave_pending_requests_table_order>
    34b4:	4c 8b 3d 95 68 24 00 	mov    r15,QWORD PTR [rip+0x246895]        # 249d50 <g_sgxsd_enclave_pending_requests>
    34bb:	c4 e2 f8 f5 44 24 08 	bzhi   rax,QWORD PTR [rsp+0x8],rax
    34c2:	4c 8d 24 80          	lea    r12,[rax+rax*4]
    34c6:	48 8d 3d 23 ee ff ff 	lea    rdi,[rip+0xffffffffffffee23]        # 22f0 <sgxsd_spin_lock>
    34cd:	e8 fe 18 01 00       	call   14dd0 <_Z10traceedgecPv>
    34d2:	48 8d 3d 07 84 01 00 	lea    rdi,[rip+0x18407]        # 1b8e0 <sgx_spin_lock>
    34d9:	e8 f2 18 01 00       	call   14dd0 <_Z10traceedgecPv>
    34de:	48 8d 3d 0b 79 24 00 	lea    rdi,[rip+0x24790b]        # 24adf0 <g_sgxsd_enclave_pending_requests_lock>
    34e5:	e8 f6 83 01 00       	call   1b8e0 <sgx_spin_lock>
    34ea:	0f ae e8             	lfence 
    34ed:	48 89 df             	mov    rdi,rbx
    34f0:	e8 db 18 01 00       	call   14dd0 <_Z10traceedgecPv>
    34f5:	4b 8b 04 e7          	mov    rax,QWORD PTR [r15+r12*8]
    34f9:	48 3b 44 24 08       	cmp    rax,QWORD PTR [rsp+0x8]
    34fe:	75 45                	jne    3545 <sgxsd_enclave_remove_pending_request+0x125>
    3500:	4f 8d 3c e7          	lea    r15,[r15+r12*8]
    3504:	bf 01 00 00 00       	mov    edi,0x1
    3509:	e8 32 1c 01 00       	call   15140 <_Z7tracebrPv>
    350e:	49 8b 47 20          	mov    rax,QWORD PTR [r15+0x20]
    3512:	49 89 46 20          	mov    QWORD PTR [r14+0x20],rax
    3516:	c4 c1 7c 10 07       	vmovups ymm0,YMMWORD PTR [r15]
    351b:	c4 c1 7c 11 06       	vmovups YMMWORD PTR [r14],ymm0
    3520:	48 8d 3d 59 80 01 00 	lea    rdi,[rip+0x18059]        # 1b580 <memset_s>
    3527:	c5 f8 77             	vzeroupper 
    352a:	e8 a1 18 01 00       	call   14dd0 <_Z10traceedgecPv>
    352f:	be 28 00 00 00       	mov    esi,0x28
    3534:	b9 28 00 00 00       	mov    ecx,0x28
    3539:	4c 89 ff             	mov    rdi,r15
    353c:	31 d2                	xor    edx,edx
    353e:	e8 3d 80 01 00       	call   1b580 <memset_s>
    3543:	eb 0c                	jmp    3551 <sgxsd_enclave_remove_pending_request+0x131>
    3545:	31 ff                	xor    edi,edi
    3547:	e8 f4 1b 01 00       	call   15140 <_Z7tracebrPv>
    354c:	bd 01 00 01 00       	mov    ebp,0x10001
    3551:	48 8d 3d 68 ef ff ff 	lea    rdi,[rip+0xffffffffffffef68]        # 24c0 <sgxsd_spin_unlock>
    3558:	e8 73 18 01 00       	call   14dd0 <_Z10traceedgecPv>
    355d:	48 8d 3d dc 83 01 00 	lea    rdi,[rip+0x183dc]        # 1b940 <sgx_spin_unlock>
    3564:	e8 67 18 01 00       	call   14dd0 <_Z10traceedgecPv>
    3569:	48 8d 3d 80 78 24 00 	lea    rdi,[rip+0x247880]        # 24adf0 <g_sgxsd_enclave_pending_requests_lock>
    3570:	e8 cb 83 01 00       	call   1b940 <sgx_spin_unlock>
    3575:	48 89 df             	mov    rdi,rbx
    3578:	e8 53 18 01 00       	call   14dd0 <_Z10traceedgecPv>
    357d:	48 89 df             	mov    rdi,rbx
    3580:	e8 4b 18 01 00       	call   14dd0 <_Z10traceedgecPv>
    3585:	89 e8                	mov    eax,ebp
    3587:	48 83 c4 10          	add    rsp,0x10
    358b:	5b                   	pop    rbx
    358c:	41 5c                	pop    r12
    358e:	41 5e                	pop    r14
    3590:	41 5f                	pop    r15
    3592:	5d                   	pop    rbp
    3593:	c3                   	ret    
    3594:	66 2e 0f 1f 84 00 00 	nop    WORD PTR cs:[rax+rax*1+0x0]
    359b:	00 00 00 
    359e:	66 90                	xchg   ax,ax

00000000000035a0 <sgxsd_enclave_derive_request_keys>:
    35a0:	55                   	push   rbp
    35a1:	48 89 e5             	mov    rbp,rsp
    35a4:	41 57                	push   r15
    35a6:	41 56                	push   r14
    35a8:	41 55                	push   r13
    35aa:	41 54                	push   r12
    35ac:	53                   	push   rbx
    35ad:	48 83 e4 e0          	and    rsp,0xffffffffffffffe0
    35b1:	48 81 ec a0 00 00 00 	sub    rsp,0xa0
    35b8:	48 89 54 24 38       	mov    QWORD PTR [rsp+0x38],rdx
    35bd:	49 89 f5             	mov    r13,rsi
    35c0:	49 89 fc             	mov    r12,rdi
    35c3:	64 48 8b 04 25 28 00 	mov    rax,QWORD PTR fs:0x28
    35ca:	00 00 
    35cc:	48 89 84 24 80 00 00 	mov    QWORD PTR [rsp+0x80],rax
    35d3:	00 
    35d4:	c5 f8 57 c0          	vxorps xmm0,xmm0,xmm0
    35d8:	c5 fc 29 44 24 40    	vmovaps YMMWORD PTR [rsp+0x40],ymm0
    35de:	48 8d 3d eb f6 ff ff 	lea    rdi,[rip+0xfffffffffffff6eb]        # 2cd0 <sgxsd_enclave_ra_hkdf_round>
    35e5:	c5 f8 77             	vzeroupper 
    35e8:	e8 e3 17 01 00       	call   14dd0 <_Z10traceedgecPv>
    35ed:	4c 8d 74 24 60       	lea    r14,[rsp+0x60]
    35f2:	c6 44 24 60 01       	mov    BYTE PTR [rsp+0x60],0x1
    35f7:	bf 01 00 00 00       	mov    edi,0x1
    35fc:	e8 3f 1b 01 00       	call   15140 <_Z7tracebrPv>
    3601:	49 83 c4 08          	add    r12,0x8
    3605:	4c 89 64 24 18       	mov    QWORD PTR [rsp+0x18],r12
    360a:	c7 44 24 20 20 00 00 	mov    DWORD PTR [rsp+0x20],0x20
    3611:	00 
    3612:	4c 89 74 24 28       	mov    QWORD PTR [rsp+0x28],r14
    3617:	c7 44 24 30 01 00 00 	mov    DWORD PTR [rsp+0x30],0x1
    361e:	00 
    361f:	48 8d 3d aa f4 ff ff 	lea    rdi,[rip+0xfffffffffffff4aa]        # 2ad0 <sgxsd_enclave_hmac_sha256>
    3626:	e8 a5 17 01 00       	call   14dd0 <_Z10traceedgecPv>
    362b:	48 8d 7c 24 40       	lea    rdi,[rsp+0x40]
    3630:	48 8d 54 24 18       	lea    rdx,[rsp+0x18]
    3635:	be 02 00 00 00       	mov    esi,0x2
    363a:	e8 91 f4 ff ff       	call   2ad0 <sgxsd_enclave_hmac_sha256>
    363f:	4c 8b 7d 08          	mov    r15,QWORD PTR [rbp+0x8]
    3643:	4c 89 ff             	mov    rdi,r15
    3646:	e8 85 17 01 00       	call   14dd0 <_Z10traceedgecPv>
    364b:	4d 85 ed             	test   r13,r13
    364e:	74 16                	je     3666 <sgxsd_enclave_derive_request_keys+0xc6>
    3650:	bf 01 00 00 00       	mov    edi,0x1
    3655:	e8 e6 1a 01 00       	call   15140 <_Z7tracebrPv>
    365a:	c5 fc 28 44 24 40    	vmovaps ymm0,YMMWORD PTR [rsp+0x40]
    3660:	c4 c1 7c 11 45 00    	vmovups YMMWORD PTR [r13+0x0],ymm0
    3666:	31 ff                	xor    edi,edi
    3668:	c5 f8 77             	vzeroupper 
    366b:	e8 d0 1a 01 00       	call   15140 <_Z7tracebrPv>
    3670:	48 8d 3d 59 f6 ff ff 	lea    rdi,[rip+0xfffffffffffff659]        # 2cd0 <sgxsd_enclave_ra_hkdf_round>
    3677:	e8 54 17 01 00       	call   14dd0 <_Z10traceedgecPv>
    367c:	8a 44 24 60          	mov    al,BYTE PTR [rsp+0x60]
    3680:	8d 48 01             	lea    ecx,[rax+0x1]
    3683:	88 4c 24 60          	mov    BYTE PTR [rsp+0x60],cl
    3687:	31 ff                	xor    edi,edi
    3689:	31 db                	xor    ebx,ebx
    368b:	84 c0                	test   al,al
    368d:	40 0f 94 c7          	sete   dil
    3691:	0f 95 c3             	setne  bl
    3694:	4c 8d 6c 24 40       	lea    r13,[rsp+0x40]
    3699:	4d 0f 45 f5          	cmovne r14,r13
    369d:	c1 e3 05             	shl    ebx,0x5
    36a0:	83 cb 01             	or     ebx,0x1
    36a3:	e8 98 1a 01 00       	call   15140 <_Z7tracebrPv>
    36a8:	4c 89 64 24 18       	mov    QWORD PTR [rsp+0x18],r12
    36ad:	c7 44 24 20 20 00 00 	mov    DWORD PTR [rsp+0x20],0x20
    36b4:	00 
    36b5:	4c 89 74 24 28       	mov    QWORD PTR [rsp+0x28],r14
    36ba:	89 5c 24 30          	mov    DWORD PTR [rsp+0x30],ebx
    36be:	48 8d 3d 0b f4 ff ff 	lea    rdi,[rip+0xfffffffffffff40b]        # 2ad0 <sgxsd_enclave_hmac_sha256>
    36c5:	e8 06 17 01 00       	call   14dd0 <_Z10traceedgecPv>
    36ca:	48 8d 54 24 18       	lea    rdx,[rsp+0x18]
    36cf:	4c 89 ef             	mov    rdi,r13
    36d2:	be 02 00 00 00       	mov    esi,0x2
    36d7:	e8 f4 f3 ff ff       	call   2ad0 <sgxsd_enclave_hmac_sha256>
    36dc:	4c 89 ff             	mov    rdi,r15
    36df:	e8 ec 16 01 00       	call   14dd0 <_Z10traceedgecPv>
    36e4:	48 8b 5c 24 38       	mov    rbx,QWORD PTR [rsp+0x38]
    36e9:	48 85 db             	test   rbx,rbx
    36ec:	74 14                	je     3702 <sgxsd_enclave_derive_request_keys+0x162>
    36ee:	bf 01 00 00 00       	mov    edi,0x1
    36f3:	e8 48 1a 01 00       	call   15140 <_Z7tracebrPv>
    36f8:	c5 fc 28 44 24 40    	vmovaps ymm0,YMMWORD PTR [rsp+0x40]
    36fe:	c5 fc 11 03          	vmovups YMMWORD PTR [rbx],ymm0
    3702:	31 ff                	xor    edi,edi
    3704:	c5 f8 77             	vzeroupper 
    3707:	e8 34 1a 01 00       	call   15140 <_Z7tracebrPv>
    370c:	48 8d 3d 6d 7e 01 00 	lea    rdi,[rip+0x17e6d]        # 1b580 <memset_s>
    3713:	e8 b8 16 01 00       	call   14dd0 <_Z10traceedgecPv>
    3718:	48 8d 7c 24 40       	lea    rdi,[rsp+0x40]
    371d:	be 21 00 00 00       	mov    esi,0x21
    3722:	b9 21 00 00 00       	mov    ecx,0x21
    3727:	31 d2                	xor    edx,edx
    3729:	e8 52 7e 01 00       	call   1b580 <memset_s>
    372e:	4c 89 ff             	mov    rdi,r15
    3731:	e8 9a 16 01 00       	call   14dd0 <_Z10traceedgecPv>
    3736:	64 48 8b 04 25 28 00 	mov    rax,QWORD PTR fs:0x28
    373d:	00 00 
    373f:	48 3b 84 24 80 00 00 	cmp    rax,QWORD PTR [rsp+0x80]
    3746:	00 
    3747:	75 0f                	jne    3758 <sgxsd_enclave_derive_request_keys+0x1b8>
    3749:	48 8d 65 d8          	lea    rsp,[rbp-0x28]
    374d:	5b                   	pop    rbx
    374e:	41 5c                	pop    r12
    3750:	41 5d                	pop    r13
    3752:	41 5e                	pop    r14
    3754:	41 5f                	pop    r15
    3756:	5d                   	pop    rbp
    3757:	c3                   	ret    
    3758:	e8 93 46 01 00       	call   17df0 <__stack_chk_fail>
    375d:	0f 1f 00             	nop    DWORD PTR [rax]

0000000000003760 <sgxsd_enclave_negotiate_request>:
    3760:	55                   	push   rbp
    3761:	41 57                	push   r15
    3763:	41 56                	push   r14
    3765:	41 55                	push   r13
    3767:	41 54                	push   r12
    3769:	53                   	push   rbx
    376a:	48 81 ec c8 01 00 00 	sub    rsp,0x1c8
    3771:	64 48 8b 04 25 28 00 	mov    rax,QWORD PTR fs:0x28
    3778:	00 00 
    377a:	48 89 84 24 c0 01 00 	mov    QWORD PTR [rsp+0x1c0],rax
    3781:	00 
    3782:	80 3d 17 55 24 00 00 	cmp    BYTE PTR [rip+0x245517],0x0        # 248ca0 <g_sgxsd_enclave_node_initialized>
    3789:	0f 84 f6 02 00 00    	je     3a85 <sgxsd_enclave_negotiate_request+0x325>
    378f:	49 89 f7             	mov    r15,rsi
    3792:	48 89 fb             	mov    rbx,rdi
    3795:	bf 01 00 00 00       	mov    edi,0x1
    379a:	e8 a1 19 01 00       	call   15140 <_Z7tracebrPv>
    379f:	48 85 db             	test   rbx,rbx
    37a2:	0f 84 cc 02 00 00    	je     3a74 <sgxsd_enclave_negotiate_request+0x314>
    37a8:	31 ff                	xor    edi,edi
    37aa:	e8 91 19 01 00       	call   15140 <_Z7tracebrPv>
    37af:	4d 85 ff             	test   r15,r15
    37b2:	0f 84 bc 02 00 00    	je     3a74 <sgxsd_enclave_negotiate_request+0x314>
    37b8:	31 ff                	xor    edi,edi
    37ba:	e8 81 19 01 00       	call   15140 <_Z7tracebrPv>
    37bf:	48 8d 3d 2a ed ff ff 	lea    rdi,[rip+0xffffffffffffed2a]        # 24f0 <sgxsd_enclave_generate_curve25519_keypair>
    37c6:	e8 05 16 01 00       	call   14dd0 <_Z10traceedgecPv>
    37cb:	48 8d bc 24 80 01 00 	lea    rdi,[rsp+0x180]
    37d2:	00 
    37d3:	e8 18 ed ff ff       	call   24f0 <sgxsd_enclave_generate_curve25519_keypair>
    37d8:	85 c0                	test   eax,eax
    37da:	0f 85 86 02 00 00    	jne    3a66 <sgxsd_enclave_negotiate_request+0x306>
    37e0:	31 ff                	xor    edi,edi
    37e2:	e8 59 19 01 00       	call   15140 <_Z7tracebrPv>
    37e7:	48 8d 3d 02 eb ff ff 	lea    rdi,[rip+0xffffffffffffeb02]        # 22f0 <sgxsd_spin_lock>
    37ee:	e8 dd 15 01 00       	call   14dd0 <_Z10traceedgecPv>
    37f3:	48 8d 3d e6 80 01 00 	lea    rdi,[rip+0x180e6]        # 1b8e0 <sgx_spin_lock>
    37fa:	e8 d1 15 01 00       	call   14dd0 <_Z10traceedgecPv>
    37ff:	4c 8d 35 f2 75 24 00 	lea    r14,[rip+0x2475f2]        # 24adf8 <g_sgxsd_enclave_dh_keypair_lock>
    3806:	4c 89 f7             	mov    rdi,r14
    3809:	e8 d2 80 01 00       	call   1b8e0 <sgx_spin_lock>
    380e:	0f ae e8             	lfence 
    3811:	48 8b ac 24 f8 01 00 	mov    rbp,QWORD PTR [rsp+0x1f8]
    3818:	00 
    3819:	48 89 ef             	mov    rdi,rbp
    381c:	e8 af 15 01 00       	call   14dd0 <_Z10traceedgecPv>
    3821:	c5 fc 10 05 07 65 24 	vmovups ymm0,YMMWORD PTR [rip+0x246507]        # 249d30 <g_sgxsd_enclave_dh_keypair+0x20>
    3828:	00 
    3829:	c5 fc 11 84 24 60 01 	vmovups YMMWORD PTR [rsp+0x160],ymm0
    3830:	00 00 
    3832:	c5 fc 10 05 d6 64 24 	vmovups ymm0,YMMWORD PTR [rip+0x2464d6]        # 249d10 <g_sgxsd_enclave_dh_keypair>
    3839:	00 
    383a:	c5 fc 11 84 24 40 01 	vmovups YMMWORD PTR [rsp+0x140],ymm0
    3841:	00 00 
    3843:	48 8d 3d 76 ec ff ff 	lea    rdi,[rip+0xffffffffffffec76]        # 24c0 <sgxsd_spin_unlock>
    384a:	c5 f8 77             	vzeroupper 
    384d:	e8 7e 15 01 00       	call   14dd0 <_Z10traceedgecPv>
    3852:	48 8d 3d e7 80 01 00 	lea    rdi,[rip+0x180e7]        # 1b940 <sgx_spin_unlock>
    3859:	e8 72 15 01 00       	call   14dd0 <_Z10traceedgecPv>
    385e:	4c 89 f7             	mov    rdi,r14
    3861:	e8 da 80 01 00       	call   1b940 <sgx_spin_unlock>
    3866:	48 89 6c 24 08       	mov    QWORD PTR [rsp+0x8],rbp
    386b:	48 89 ef             	mov    rdi,rbp
    386e:	e8 5d 15 01 00       	call   14dd0 <_Z10traceedgecPv>
    3873:	4c 8d 2d 16 75 00 00 	lea    r13,[rip+0x7516]        # ad90 <curve25519_donna>
    387a:	4c 89 ef             	mov    rdi,r13
    387d:	e8 4e 15 01 00       	call   14dd0 <_Z10traceedgecPv>
    3882:	4c 8d b4 24 20 01 00 	lea    r14,[rsp+0x120]
    3889:	00 
    388a:	48 8d ac 24 80 01 00 	lea    rbp,[rsp+0x180]
    3891:	00 
    3892:	4c 89 f7             	mov    rdi,r14
    3895:	48 89 ee             	mov    rsi,rbp
    3898:	48 89 da             	mov    rdx,rbx
    389b:	e8 f0 74 00 00       	call   ad90 <curve25519_donna>
    38a0:	4c 8d 25 d9 7c 01 00 	lea    r12,[rip+0x17cd9]        # 1b580 <memset_s>
    38a7:	4c 89 e7             	mov    rdi,r12
    38aa:	e8 21 15 01 00       	call   14dd0 <_Z10traceedgecPv>
    38af:	be 20 00 00 00       	mov    esi,0x20
    38b4:	b9 20 00 00 00       	mov    ecx,0x20
    38b9:	48 89 ef             	mov    rdi,rbp
    38bc:	31 d2                	xor    edx,edx
    38be:	e8 bd 7c 01 00       	call   1b580 <memset_s>
    38c3:	4c 89 ef             	mov    rdi,r13
    38c6:	e8 05 15 01 00       	call   14dd0 <_Z10traceedgecPv>
    38cb:	4c 8d ac 24 00 01 00 	lea    r13,[rsp+0x100]
    38d2:	00 
    38d3:	48 8d ac 24 40 01 00 	lea    rbp,[rsp+0x140]
    38da:	00 
    38db:	4c 89 ef             	mov    rdi,r13
    38de:	48 89 ee             	mov    rsi,rbp
    38e1:	48 89 da             	mov    rdx,rbx
    38e4:	e8 a7 74 00 00       	call   ad90 <curve25519_donna>
    38e9:	4c 89 e7             	mov    rdi,r12
    38ec:	e8 df 14 01 00       	call   14dd0 <_Z10traceedgecPv>
    38f1:	be 20 00 00 00       	mov    esi,0x20
    38f6:	b9 20 00 00 00       	mov    ecx,0x20
    38fb:	48 89 ef             	mov    rdi,rbp
    38fe:	31 d2                	xor    edx,edx
    3900:	e8 7b 7c 01 00       	call   1b580 <memset_s>
    3905:	48 89 5c 24 40       	mov    QWORD PTR [rsp+0x40],rbx
    390a:	c7 44 24 48 20 00 00 	mov    DWORD PTR [rsp+0x48],0x20
    3911:	00 
    3912:	48 8d 84 24 a0 01 00 	lea    rax,[rsp+0x1a0]
    3919:	00 
    391a:	48 89 44 24 50       	mov    QWORD PTR [rsp+0x50],rax
    391f:	c7 44 24 58 20 00 00 	mov    DWORD PTR [rsp+0x58],0x20
    3926:	00 
    3927:	48 8d 84 24 60 01 00 	lea    rax,[rsp+0x160]
    392e:	00 
    392f:	48 89 44 24 60       	mov    QWORD PTR [rsp+0x60],rax
    3934:	c7 44 24 68 20 00 00 	mov    DWORD PTR [rsp+0x68],0x20
    393b:	00 
    393c:	48 8d 3d 6d f0 ff ff 	lea    rdi,[rip+0xfffffffffffff06d]        # 29b0 <sgxsd_enclave_sha256>
    3943:	e8 88 14 01 00       	call   14dd0 <_Z10traceedgecPv>
    3948:	48 8d 9c 24 e0 00 00 	lea    rbx,[rsp+0xe0]
    394f:	00 
    3950:	48 8d 54 24 40       	lea    rdx,[rsp+0x40]
    3955:	48 89 df             	mov    rdi,rbx
    3958:	be 03 00 00 00       	mov    esi,0x3
    395d:	e8 4e f0 ff ff       	call   29b0 <sgxsd_enclave_sha256>
    3962:	48 8d ac 24 c0 00 00 	lea    rbp,[rsp+0xc0]
    3969:	00 
    396a:	48 89 5c 24 10       	mov    QWORD PTR [rsp+0x10],rbx
    396f:	c7 44 24 18 20 00 00 	mov    DWORD PTR [rsp+0x18],0x20
    3976:	00 
    3977:	4c 89 74 24 20       	mov    QWORD PTR [rsp+0x20],r14
    397c:	c7 44 24 28 20 00 00 	mov    DWORD PTR [rsp+0x28],0x20
    3983:	00 
    3984:	4c 89 6c 24 30       	mov    QWORD PTR [rsp+0x30],r13
    3989:	c7 44 24 38 20 00 00 	mov    DWORD PTR [rsp+0x38],0x20
    3990:	00 
    3991:	48 8d 3d 38 f1 ff ff 	lea    rdi,[rip+0xfffffffffffff138]        # 2ad0 <sgxsd_enclave_hmac_sha256>
    3998:	e8 33 14 01 00       	call   14dd0 <_Z10traceedgecPv>
    399d:	48 8d 54 24 10       	lea    rdx,[rsp+0x10]
    39a2:	48 89 ef             	mov    rdi,rbp
    39a5:	be 03 00 00 00       	mov    esi,0x3
    39aa:	e8 21 f1 ff ff       	call   2ad0 <sgxsd_enclave_hmac_sha256>
    39af:	4c 89 e7             	mov    rdi,r12
    39b2:	e8 19 14 01 00       	call   14dd0 <_Z10traceedgecPv>
    39b7:	be 20 00 00 00       	mov    esi,0x20
    39bc:	b9 20 00 00 00       	mov    ecx,0x20
    39c1:	4c 89 f7             	mov    rdi,r14
    39c4:	31 d2                	xor    edx,edx
    39c6:	e8 b5 7b 01 00       	call   1b580 <memset_s>
    39cb:	4c 89 e7             	mov    rdi,r12
    39ce:	e8 fd 13 01 00       	call   14dd0 <_Z10traceedgecPv>
    39d3:	be 20 00 00 00       	mov    esi,0x20
    39d8:	b9 20 00 00 00       	mov    ecx,0x20
    39dd:	4c 89 ef             	mov    rdi,r13
    39e0:	31 d2                	xor    edx,edx
    39e2:	e8 99 7b 01 00       	call   1b580 <memset_s>
    39e7:	4c 89 e7             	mov    rdi,r12
    39ea:	e8 e1 13 01 00       	call   14dd0 <_Z10traceedgecPv>
    39ef:	be 20 00 00 00       	mov    esi,0x20
    39f4:	b9 20 00 00 00       	mov    ecx,0x20
    39f9:	48 89 df             	mov    rdi,rbx
    39fc:	31 d2                	xor    edx,edx
    39fe:	e8 7d 7b 01 00       	call   1b580 <memset_s>
    3a03:	49 8d 5f 64          	lea    rbx,[r15+0x64]
    3a07:	4c 89 e7             	mov    rdi,r12
    3a0a:	e8 c1 13 01 00       	call   14dd0 <_Z10traceedgecPv>
    3a0f:	be 0c 00 00 00       	mov    esi,0xc
    3a14:	b9 0c 00 00 00       	mov    ecx,0xc
    3a19:	48 89 df             	mov    rdi,rbx
    3a1c:	31 d2                	xor    edx,edx
    3a1e:	e8 5d 7b 01 00       	call   1b580 <memset_s>
    3a23:	48 8d 3d 76 fb ff ff 	lea    rdi,[rip+0xfffffffffffffb76]        # 35a0 <sgxsd_enclave_derive_request_keys>
    3a2a:	e8 a1 13 01 00       	call   14dd0 <_Z10traceedgecPv>
    3a2f:	48 8d ac 24 b8 00 00 	lea    rbp,[rsp+0xb8]
    3a36:	00 
    3a37:	48 8d 94 24 98 00 00 	lea    rdx,[rsp+0x98]
    3a3e:	00 
    3a3f:	48 89 ef             	mov    rdi,rbp
    3a42:	31 f6                	xor    esi,esi
    3a44:	e8 57 fb ff ff       	call   35a0 <sgxsd_enclave_derive_request_keys>
    3a49:	48 8d 3d 30 f8 ff ff 	lea    rdi,[rip+0xfffffffffffff830]        # 3280 <sgxsd_enclave_add_pending_request>
    3a50:	e8 7b 13 01 00       	call   14dd0 <_Z10traceedgecPv>
    3a55:	48 8d 7c 24 70       	lea    rdi,[rsp+0x70]
    3a5a:	48 89 ee             	mov    rsi,rbp
    3a5d:	e8 1e f8 ff ff       	call   3280 <sgxsd_enclave_add_pending_request>
    3a62:	85 c0                	test   eax,eax
    3a64:	74 66                	je     3acc <sgxsd_enclave_negotiate_request+0x36c>
    3a66:	89 c5                	mov    ebp,eax
    3a68:	bf 01 00 00 00       	mov    edi,0x1
    3a6d:	e8 ce 16 01 00       	call   15140 <_Z7tracebrPv>
    3a72:	eb 1d                	jmp    3a91 <sgxsd_enclave_negotiate_request+0x331>
    3a74:	bf 01 00 00 00       	mov    edi,0x1
    3a79:	e8 c2 16 01 00       	call   15140 <_Z7tracebrPv>
    3a7e:	bd 02 00 00 00       	mov    ebp,0x2
    3a83:	eb 0c                	jmp    3a91 <sgxsd_enclave_negotiate_request+0x331>
    3a85:	31 ff                	xor    edi,edi
    3a87:	e8 b4 16 01 00       	call   15140 <_Z7tracebrPv>
    3a8c:	bd 05 00 00 00       	mov    ebp,0x5
    3a91:	48 8b bc 24 f8 01 00 	mov    rdi,QWORD PTR [rsp+0x1f8]
    3a98:	00 
    3a99:	c5 f8 77             	vzeroupper 
    3a9c:	e8 2f 13 01 00       	call   14dd0 <_Z10traceedgecPv>
    3aa1:	64 48 8b 04 25 28 00 	mov    rax,QWORD PTR fs:0x28
    3aa8:	00 00 
    3aaa:	48 3b 84 24 c0 01 00 	cmp    rax,QWORD PTR [rsp+0x1c0]
    3ab1:	00 
    3ab2:	0f 85 fd 00 00 00    	jne    3bb5 <sgxsd_enclave_negotiate_request+0x455>
    3ab8:	89 e8                	mov    eax,ebp
    3aba:	48 81 c4 c8 01 00 00 	add    rsp,0x1c8
    3ac1:	5b                   	pop    rbx
    3ac2:	41 5c                	pop    r12
    3ac4:	41 5d                	pop    r13
    3ac6:	41 5e                	pop    r14
    3ac8:	41 5f                	pop    r15
    3aca:	5d                   	pop    rbp
    3acb:	c3                   	ret    
    3acc:	31 ff                	xor    edi,edi
    3ace:	e8 6d 16 01 00       	call   15140 <_Z7tracebrPv>
    3ad3:	48 8d 3d a6 7a 01 00 	lea    rdi,[rip+0x17aa6]        # 1b580 <memset_s>
    3ada:	e8 f1 12 01 00       	call   14dd0 <_Z10traceedgecPv>
    3adf:	be 20 00 00 00       	mov    esi,0x20
    3ae4:	b9 20 00 00 00       	mov    ecx,0x20
    3ae9:	48 8d bc 24 c0 00 00 	lea    rdi,[rsp+0xc0]
    3af0:	00 
    3af1:	31 d2                	xor    edx,edx
    3af3:	e8 88 7a 01 00       	call   1b580 <memset_s>
    3af8:	4d 8d 77 40          	lea    r14,[r15+0x40]
    3afc:	4d 8d 67 70          	lea    r12,[r15+0x70]
    3b00:	48 8d 3d 69 ea ff ff 	lea    rdi,[rip+0xffffffffffffea69]        # 2570 <sgxsd_aes_gcm_encrypt>
    3b07:	e8 c4 12 01 00       	call   14dd0 <_Z10traceedgecPv>
    3b0c:	48 8d 3d dd ea ff ff 	lea    rdi,[rip+0xffffffffffffeadd]        # 25f0 <sgxsd_aes_gcm_run>
    3b13:	e8 b8 12 01 00       	call   14dd0 <_Z10traceedgecPv>
    3b18:	48 83 ec 08          	sub    rsp,0x8
    3b1c:	bd 01 00 00 00       	mov    ebp,0x1
    3b21:	4c 8d ac 24 a0 00 00 	lea    r13,[rsp+0xa0]
    3b28:	00 
    3b29:	48 8d 54 24 78       	lea    rdx,[rsp+0x78]
    3b2e:	bf 01 00 00 00       	mov    edi,0x1
    3b33:	4c 89 ee             	mov    rsi,r13
    3b36:	b9 24 00 00 00       	mov    ecx,0x24
    3b3b:	4d 89 f0             	mov    r8,r14
    3b3e:	49 89 d9             	mov    r9,rbx
    3b41:	41 54                	push   r12
    3b43:	6a 00                	push   0x0
    3b45:	6a 00                	push   0x0
    3b47:	e8 a4 ea ff ff       	call   25f0 <sgxsd_aes_gcm_run>
    3b4c:	48 83 c4 20          	add    rsp,0x20
    3b50:	89 c3                	mov    ebx,eax
    3b52:	48 8b 7c 24 08       	mov    rdi,QWORD PTR [rsp+0x8]
    3b57:	e8 74 12 01 00       	call   14dd0 <_Z10traceedgecPv>
    3b5c:	48 8d 3d 1d 7a 01 00 	lea    rdi,[rip+0x17a1d]        # 1b580 <memset_s>
    3b63:	e8 68 12 01 00       	call   14dd0 <_Z10traceedgecPv>
    3b68:	be 20 00 00 00       	mov    esi,0x20
    3b6d:	b9 20 00 00 00       	mov    ecx,0x20
    3b72:	4c 89 ef             	mov    rdi,r13
    3b75:	31 d2                	xor    edx,edx
    3b77:	e8 04 7a 01 00       	call   1b580 <memset_s>
    3b7c:	85 db                	test   ebx,ebx
    3b7e:	0f 85 e4 fe ff ff    	jne    3a68 <sgxsd_enclave_negotiate_request+0x308>
    3b84:	31 ff                	xor    edi,edi
    3b86:	e8 b5 15 01 00       	call   15140 <_Z7tracebrPv>
    3b8b:	48 8d 84 24 60 01 00 	lea    rax,[rsp+0x160]
    3b92:	00 
    3b93:	c5 fc 10 00          	vmovups ymm0,YMMWORD PTR [rax]
    3b97:	c4 c1 7c 11 07       	vmovups YMMWORD PTR [r15],ymm0
    3b9c:	48 8d 84 24 a0 01 00 	lea    rax,[rsp+0x1a0]
    3ba3:	00 
    3ba4:	c5 fc 10 00          	vmovups ymm0,YMMWORD PTR [rax]
    3ba8:	c4 c1 7c 11 47 20    	vmovups YMMWORD PTR [r15+0x20],ymm0
    3bae:	31 ed                	xor    ebp,ebp
    3bb0:	e9 dc fe ff ff       	jmp    3a91 <sgxsd_enclave_negotiate_request+0x331>
    3bb5:	e8 36 42 01 00       	call   17df0 <__stack_chk_fail>
    3bba:	66 0f 1f 44 00 00    	nop    WORD PTR [rax+rax*1+0x0]

0000000000003bc0 <sgxsd_enclave_server_reply>:
    3bc0:	55                   	push   rbp
    3bc1:	41 57                	push   r15
    3bc3:	41 56                	push   r14
    3bc5:	53                   	push   rbx
    3bc6:	50                   	push   rax
    3bc7:	89 f5                	mov    ebp,esi
    3bc9:	48 89 fb             	mov    rbx,rdi
    3bcc:	4c 8d 74 24 30       	lea    r14,[rsp+0x30]
    3bd1:	48 8d 3d 88 00 00 00 	lea    rdi,[rip+0x88]        # 3c60 <sgxsd_enclave_server_reply_noerase>
    3bd8:	e8 f3 11 01 00       	call   14dd0 <_Z10traceedgecPv>
    3bdd:	48 89 df             	mov    rdi,rbx
    3be0:	89 ee                	mov    esi,ebp
    3be2:	4c 89 f2             	mov    rdx,r14
    3be5:	e8 76 00 00 00       	call   3c60 <sgxsd_enclave_server_reply_noerase>
    3bea:	41 89 c7             	mov    r15d,eax
    3bed:	48 85 db             	test   rbx,rbx
    3bf0:	74 28                	je     3c1a <sgxsd_enclave_server_reply+0x5a>
    3bf2:	bf 01 00 00 00       	mov    edi,0x1
    3bf7:	e8 44 15 01 00       	call   15140 <_Z7tracebrPv>
    3bfc:	89 ed                	mov    ebp,ebp
    3bfe:	48 8d 3d 7b 79 01 00 	lea    rdi,[rip+0x1797b]        # 1b580 <memset_s>
    3c05:	e8 c6 11 01 00       	call   14dd0 <_Z10traceedgecPv>
    3c0a:	48 89 df             	mov    rdi,rbx
    3c0d:	48 89 ee             	mov    rsi,rbp
    3c10:	31 d2                	xor    edx,edx
    3c12:	48 89 e9             	mov    rcx,rbp
    3c15:	e8 66 79 01 00       	call   1b580 <memset_s>
    3c1a:	31 ff                	xor    edi,edi
    3c1c:	e8 1f 15 01 00       	call   15140 <_Z7tracebrPv>
    3c21:	48 8d 3d 58 79 01 00 	lea    rdi,[rip+0x17958]        # 1b580 <memset_s>
    3c28:	e8 a3 11 01 00       	call   14dd0 <_Z10traceedgecPv>
    3c2d:	be 28 00 00 00       	mov    esi,0x28
    3c32:	b9 28 00 00 00       	mov    ecx,0x28
    3c37:	4c 89 f7             	mov    rdi,r14
    3c3a:	31 d2                	xor    edx,edx
    3c3c:	e8 3f 79 01 00       	call   1b580 <memset_s>
    3c41:	48 8b 7c 24 28       	mov    rdi,QWORD PTR [rsp+0x28]
    3c46:	e8 85 11 01 00       	call   14dd0 <_Z10traceedgecPv>
    3c4b:	44 89 f8             	mov    eax,r15d
    3c4e:	48 83 c4 08          	add    rsp,0x8
    3c52:	5b                   	pop    rbx
    3c53:	41 5e                	pop    r14
    3c55:	41 5f                	pop    r15
    3c57:	5d                   	pop    rbp
    3c58:	c3                   	ret    
    3c59:	0f 1f 80 00 00 00 00 	nop    DWORD PTR [rax+0x0]

0000000000003c60 <sgxsd_enclave_server_reply_noerase>:
    3c60:	55                   	push   rbp
    3c61:	41 57                	push   r15
    3c63:	41 56                	push   r14
    3c65:	41 55                	push   r13
    3c67:	41 54                	push   r12
    3c69:	53                   	push   rbx
    3c6a:	48 83 ec 58          	sub    rsp,0x58
    3c6e:	49 89 d6             	mov    r14,rdx
    3c71:	41 89 f7             	mov    r15d,esi
    3c74:	48 89 fb             	mov    rbx,rdi
    3c77:	64 48 8b 04 25 28 00 	mov    rax,QWORD PTR fs:0x28
    3c7e:	00 00 
    3c80:	48 89 44 24 50       	mov    QWORD PTR [rsp+0x50],rax
    3c85:	48 85 ff             	test   rdi,rdi
    3c88:	74 32                	je     3cbc <sgxsd_enclave_server_reply_noerase+0x5c>
    3c8a:	31 ff                	xor    edi,edi
    3c8c:	e8 af 14 01 00       	call   15140 <_Z7tracebrPv>
    3c91:	48 8d 3d b8 18 01 00 	lea    rdi,[rip+0x118b8]        # 15550 <sgx_read_rand>
    3c98:	e8 33 11 01 00       	call   14dd0 <_Z10traceedgecPv>
    3c9d:	48 8d 7c 24 10       	lea    rdi,[rsp+0x10]
    3ca2:	be 0c 00 00 00       	mov    esi,0xc
    3ca7:	e8 a4 18 01 00       	call   15550 <sgx_read_rand>
    3cac:	85 c0                	test   eax,eax
    3cae:	74 2f                	je     3cdf <sgxsd_enclave_server_reply_noerase+0x7f>
    3cb0:	89 c5                	mov    ebp,eax
    3cb2:	bf 01 00 00 00       	mov    edi,0x1
    3cb7:	e9 d3 00 00 00       	jmp    3d8f <sgxsd_enclave_server_reply_noerase+0x12f>
    3cbc:	bf 01 00 00 00       	mov    edi,0x1
    3cc1:	e8 7a 14 01 00       	call   15140 <_Z7tracebrPv>
    3cc6:	45 85 ff             	test   r15d,r15d
    3cc9:	74 bf                	je     3c8a <sgxsd_enclave_server_reply_noerase+0x2a>
    3ccb:	bf 01 00 00 00       	mov    edi,0x1
    3cd0:	e8 6b 14 01 00       	call   15140 <_Z7tracebrPv>
    3cd5:	bd 02 00 00 00       	mov    ebp,0x2
    3cda:	e9 b5 00 00 00       	jmp    3d94 <sgxsd_enclave_server_reply_noerase+0x134>
    3cdf:	31 ff                	xor    edi,edi
    3ce1:	e8 5a 14 01 00       	call   15140 <_Z7tracebrPv>
    3ce6:	80 4c 24 10 01       	or     BYTE PTR [rsp+0x10],0x1
    3ceb:	4d 8d 66 08          	lea    r12,[r14+0x8]
    3cef:	4c 8d 6c 24 1c       	lea    r13,[rsp+0x1c]
    3cf4:	48 8d 3d 75 e8 ff ff 	lea    rdi,[rip+0xffffffffffffe875]        # 2570 <sgxsd_aes_gcm_encrypt>
    3cfb:	e8 d0 10 01 00       	call   14dd0 <_Z10traceedgecPv>
    3d00:	48 8d 3d e9 e8 ff ff 	lea    rdi,[rip+0xffffffffffffe8e9]        # 25f0 <sgxsd_aes_gcm_run>
    3d07:	e8 c4 10 01 00       	call   14dd0 <_Z10traceedgecPv>
    3d0c:	48 83 ec 08          	sub    rsp,0x8
    3d10:	bd 01 00 00 00       	mov    ebp,0x1
    3d15:	4c 8d 4c 24 18       	lea    r9,[rsp+0x18]
    3d1a:	bf 01 00 00 00       	mov    edi,0x1
    3d1f:	4c 89 e6             	mov    rsi,r12
    3d22:	48 89 da             	mov    rdx,rbx
    3d25:	44 89 f9             	mov    ecx,r15d
    3d28:	49 89 d8             	mov    r8,rbx
    3d2b:	41 55                	push   r13
    3d2d:	6a 00                	push   0x0
    3d2f:	6a 00                	push   0x0
    3d31:	e8 ba e8 ff ff       	call   25f0 <sgxsd_aes_gcm_run>
    3d36:	48 83 c4 20          	add    rsp,0x20
    3d3a:	41 89 c4             	mov    r12d,eax
    3d3d:	48 8b bc 24 88 00 00 	mov    rdi,QWORD PTR [rsp+0x88]
    3d44:	00 
    3d45:	e8 86 10 01 00       	call   14dd0 <_Z10traceedgecPv>
    3d4a:	45 85 e4             	test   r12d,r12d
    3d4d:	74 07                	je     3d56 <sgxsd_enclave_server_reply_noerase+0xf6>
    3d4f:	bf 01 00 00 00       	mov    edi,0x1
    3d54:	eb 39                	jmp    3d8f <sgxsd_enclave_server_reply_noerase+0x12f>
    3d56:	31 ff                	xor    edi,edi
    3d58:	e8 e3 13 01 00       	call   15140 <_Z7tracebrPv>
    3d5d:	45 89 ff             	mov    r15d,r15d
    3d60:	49 8b 2e             	mov    rbp,QWORD PTR [r14]
    3d63:	48 8d 3d 16 df ff ff 	lea    rdi,[rip+0xffffffffffffdf16]        # 1c80 <sgxsd_ocall_reply>
    3d6a:	e8 61 10 01 00       	call   14dd0 <_Z10traceedgecPv>
    3d6f:	48 8d 7c 24 0c       	lea    rdi,[rsp+0xc]
    3d74:	48 8d 74 24 10       	lea    rsi,[rsp+0x10]
    3d79:	48 89 da             	mov    rdx,rbx
    3d7c:	4c 89 f9             	mov    rcx,r15
    3d7f:	49 89 e8             	mov    r8,rbp
    3d82:	e8 f9 de ff ff       	call   1c80 <sgxsd_ocall_reply>
    3d87:	85 c0                	test   eax,eax
    3d89:	74 37                	je     3dc2 <sgxsd_enclave_server_reply_noerase+0x162>
    3d8b:	89 c5                	mov    ebp,eax
    3d8d:	31 ff                	xor    edi,edi
    3d8f:	e8 ac 13 01 00       	call   15140 <_Z7tracebrPv>
    3d94:	48 8b bc 24 88 00 00 	mov    rdi,QWORD PTR [rsp+0x88]
    3d9b:	00 
    3d9c:	e8 2f 10 01 00       	call   14dd0 <_Z10traceedgecPv>
    3da1:	64 48 8b 04 25 28 00 	mov    rax,QWORD PTR fs:0x28
    3da8:	00 00 
    3daa:	48 3b 44 24 50       	cmp    rax,QWORD PTR [rsp+0x50]
    3daf:	75 21                	jne    3dd2 <sgxsd_enclave_server_reply_noerase+0x172>
    3db1:	89 e8                	mov    eax,ebp
    3db3:	48 83 c4 58          	add    rsp,0x58
    3db7:	5b                   	pop    rbx
    3db8:	41 5c                	pop    r12
    3dba:	41 5d                	pop    r13
    3dbc:	41 5e                	pop    r14
    3dbe:	41 5f                	pop    r15
    3dc0:	5d                   	pop    rbp
    3dc1:	c3                   	ret    
    3dc2:	bf 01 00 00 00       	mov    edi,0x1
    3dc7:	e8 74 13 01 00       	call   15140 <_Z7tracebrPv>
    3dcc:	8b 6c 24 0c          	mov    ebp,DWORD PTR [rsp+0xc]
    3dd0:	eb c2                	jmp    3d94 <sgxsd_enclave_server_reply_noerase+0x134>
    3dd2:	e8 19 40 01 00       	call   17df0 <__stack_chk_fail>
    3dd7:	66 0f 1f 84 00 00 00 	nop    WORD PTR [rax+rax*1+0x0]
    3dde:	00 00 

0000000000003de0 <sgxsd_enclave_server_start>:
    3de0:	41 57                	push   r15
    3de2:	41 56                	push   r14
    3de4:	41 55                	push   r13
    3de6:	41 54                	push   r12
    3de8:	53                   	push   rbx
    3de9:	80 3d b0 4e 24 00 00 	cmp    BYTE PTR [rip+0x244eb0],0x0        # 248ca0 <g_sgxsd_enclave_node_initialized>
    3df0:	74 2d                	je     3e1f <sgxsd_enclave_server_start+0x3f>
    3df2:	48 89 f3             	mov    rbx,rsi
    3df5:	49 89 ff             	mov    r15,rdi
    3df8:	bf 01 00 00 00       	mov    edi,0x1
    3dfd:	e8 3e 13 01 00       	call   15140 <_Z7tracebrPv>
    3e02:	48 81 fb 00 01 00 00 	cmp    rbx,0x100
    3e09:	72 25                	jb     3e30 <sgxsd_enclave_server_start+0x50>
    3e0b:	bf 01 00 00 00       	mov    edi,0x1
    3e10:	e8 2b 13 01 00       	call   15140 <_Z7tracebrPv>
    3e15:	bb 02 00 00 00       	mov    ebx,0x2
    3e1a:	e9 a0 00 00 00       	jmp    3ebf <sgxsd_enclave_server_start+0xdf>
    3e1f:	31 ff                	xor    edi,edi
    3e21:	e8 1a 13 01 00       	call   15140 <_Z7tracebrPv>
    3e26:	bb 05 00 00 00       	mov    ebx,0x5
    3e2b:	e9 8f 00 00 00       	jmp    3ebf <sgxsd_enclave_server_start+0xdf>
    3e30:	31 ff                	xor    edi,edi
    3e32:	e8 09 13 01 00       	call   15140 <_Z7tracebrPv>
    3e37:	48 c1 e3 04          	shl    rbx,0x4
    3e3b:	48 8d 05 ae 5f 24 00 	lea    rax,[rip+0x245fae]        # 249df0 <g_sgxsd_enclave_server_states>
    3e42:	4c 8d 24 18          	lea    r12,[rax+rbx*1]
    3e46:	4c 8d 34 03          	lea    r14,[rbx+rax*1]
    3e4a:	49 83 c6 04          	add    r14,0x4
    3e4e:	48 8d 3d 9b e4 ff ff 	lea    rdi,[rip+0xffffffffffffe49b]        # 22f0 <sgxsd_spin_lock>
    3e55:	e8 76 0f 01 00       	call   14dd0 <_Z10traceedgecPv>
    3e5a:	48 8d 3d 7f 7a 01 00 	lea    rdi,[rip+0x17a7f]        # 1b8e0 <sgx_spin_lock>
    3e61:	e8 6a 0f 01 00       	call   14dd0 <_Z10traceedgecPv>
    3e66:	4c 89 f7             	mov    rdi,r14
    3e69:	e8 72 7a 01 00       	call   1b8e0 <sgx_spin_lock>
    3e6e:	0f ae e8             	lfence 
    3e71:	4c 8b 6c 24 28       	mov    r13,QWORD PTR [rsp+0x28]
    3e76:	4c 89 ef             	mov    rdi,r13
    3e79:	e8 52 0f 01 00       	call   14dd0 <_Z10traceedgecPv>
    3e7e:	48 8d 3d 5b 00 00 00 	lea    rdi,[rip+0x5b]        # 3ee0 <sgxsd_enclave_server_start_locked>
    3e85:	e8 46 0f 01 00       	call   14dd0 <_Z10traceedgecPv>
    3e8a:	4c 89 ff             	mov    rdi,r15
    3e8d:	4c 89 e6             	mov    rsi,r12
    3e90:	e8 4b 00 00 00       	call   3ee0 <sgxsd_enclave_server_start_locked>
    3e95:	89 c3                	mov    ebx,eax
    3e97:	48 8d 3d 22 e6 ff ff 	lea    rdi,[rip+0xffffffffffffe622]        # 24c0 <sgxsd_spin_unlock>
    3e9e:	e8 2d 0f 01 00       	call   14dd0 <_Z10traceedgecPv>
    3ea3:	48 8d 3d 96 7a 01 00 	lea    rdi,[rip+0x17a96]        # 1b940 <sgx_spin_unlock>
    3eaa:	e8 21 0f 01 00       	call   14dd0 <_Z10traceedgecPv>
    3eaf:	4c 89 f7             	mov    rdi,r14
    3eb2:	e8 89 7a 01 00       	call   1b940 <sgx_spin_unlock>
    3eb7:	4c 89 ef             	mov    rdi,r13
    3eba:	e8 11 0f 01 00       	call   14dd0 <_Z10traceedgecPv>
    3ebf:	48 8b 7c 24 28       	mov    rdi,QWORD PTR [rsp+0x28]
    3ec4:	e8 07 0f 01 00       	call   14dd0 <_Z10traceedgecPv>
    3ec9:	89 d8                	mov    eax,ebx
    3ecb:	5b                   	pop    rbx
    3ecc:	41 5c                	pop    r12
    3ece:	41 5d                	pop    r13
    3ed0:	41 5e                	pop    r14
    3ed2:	41 5f                	pop    r15
    3ed4:	c3                   	ret    
    3ed5:	66 2e 0f 1f 84 00 00 	nop    WORD PTR cs:[rax+rax*1+0x0]
    3edc:	00 00 00 
    3edf:	90                   	nop

0000000000003ee0 <sgxsd_enclave_server_start_locked>:
    3ee0:	55                   	push   rbp
    3ee1:	41 57                	push   r15
    3ee3:	41 56                	push   r14
    3ee5:	53                   	push   rbx
    3ee6:	50                   	push   rax
    3ee7:	80 3e 00             	cmp    BYTE PTR [rsi],0x0
    3eea:	74 11                	je     3efd <sgxsd_enclave_server_start_locked+0x1d>
    3eec:	bf 01 00 00 00       	mov    edi,0x1
    3ef1:	e8 4a 12 01 00       	call   15140 <_Z7tracebrPv>
    3ef6:	bd 05 00 00 00       	mov    ebp,0x5
    3efb:	eb 4a                	jmp    3f47 <sgxsd_enclave_server_start_locked+0x67>
    3efd:	48 89 f3             	mov    rbx,rsi
    3f00:	49 89 fe             	mov    r14,rdi
    3f03:	31 ed                	xor    ebp,ebp
    3f05:	31 ff                	xor    edi,edi
    3f07:	e8 34 12 01 00       	call   15140 <_Z7tracebrPv>
    3f0c:	4c 8d 7b 08          	lea    r15,[rbx+0x8]
    3f10:	48 8d 3d 89 00 01 00 	lea    rdi,[rip+0x10089]        # 13fa0 <sgxsd_enclave_server_init>
    3f17:	e8 b4 0e 01 00       	call   14dd0 <_Z10traceedgecPv>
    3f1c:	4c 89 f7             	mov    rdi,r14
    3f1f:	4c 89 fe             	mov    rsi,r15
    3f22:	e8 79 00 01 00       	call   13fa0 <sgxsd_enclave_server_init>
    3f27:	85 c0                	test   eax,eax
    3f29:	74 0f                	je     3f3a <sgxsd_enclave_server_start_locked+0x5a>
    3f2b:	41 89 c6             	mov    r14d,eax
    3f2e:	31 ff                	xor    edi,edi
    3f30:	e8 0b 12 01 00       	call   15140 <_Z7tracebrPv>
    3f35:	44 89 f5             	mov    ebp,r14d
    3f38:	eb 0d                	jmp    3f47 <sgxsd_enclave_server_start_locked+0x67>
    3f3a:	bf 01 00 00 00       	mov    edi,0x1
    3f3f:	e8 fc 11 01 00       	call   15140 <_Z7tracebrPv>
    3f44:	c6 03 01             	mov    BYTE PTR [rbx],0x1
    3f47:	48 8b 7c 24 28       	mov    rdi,QWORD PTR [rsp+0x28]
    3f4c:	e8 7f 0e 01 00       	call   14dd0 <_Z10traceedgecPv>
    3f51:	89 e8                	mov    eax,ebp
    3f53:	48 83 c4 08          	add    rsp,0x8
    3f57:	5b                   	pop    rbx
    3f58:	41 5e                	pop    r14
    3f5a:	41 5f                	pop    r15
    3f5c:	5d                   	pop    rbp
    3f5d:	c3                   	ret    
    3f5e:	66 90                	xchg   ax,ax

0000000000003f60 <sgxsd_enclave_server_call>:
    3f60:	55                   	push   rbp
    3f61:	41 57                	push   r15
    3f63:	41 56                	push   r14
    3f65:	41 55                	push   r13
    3f67:	41 54                	push   r12
    3f69:	53                   	push   rbx
    3f6a:	48 83 ec 18          	sub    rsp,0x18
    3f6e:	80 3d 2b 4d 24 00 00 	cmp    BYTE PTR [rip+0x244d2b],0x0        # 248ca0 <g_sgxsd_enclave_node_initialized>
    3f75:	74 39                	je     3fb0 <sgxsd_enclave_server_call+0x50>
    3f77:	4c 89 cd             	mov    rbp,r9
    3f7a:	4d 89 c6             	mov    r14,r8
    3f7d:	49 89 cf             	mov    r15,rcx
    3f80:	49 89 d4             	mov    r12,rdx
    3f83:	49 89 f5             	mov    r13,rsi
    3f86:	48 89 fb             	mov    rbx,rdi
    3f89:	bf 01 00 00 00       	mov    edi,0x1
    3f8e:	e8 ad 11 01 00       	call   15140 <_Z7tracebrPv>
    3f93:	48 81 fd 00 01 00 00 	cmp    rbp,0x100
    3f9a:	72 25                	jb     3fc1 <sgxsd_enclave_server_call+0x61>
    3f9c:	bf 01 00 00 00       	mov    edi,0x1
    3fa1:	e8 9a 11 01 00       	call   15140 <_Z7tracebrPv>
    3fa6:	bb 02 00 00 00       	mov    ebx,0x2
    3fab:	e9 b9 00 00 00       	jmp    4069 <sgxsd_enclave_server_call+0x109>
    3fb0:	31 ff                	xor    edi,edi
    3fb2:	e8 89 11 01 00       	call   15140 <_Z7tracebrPv>
    3fb7:	bb 05 00 00 00       	mov    ebx,0x5
    3fbc:	e9 a8 00 00 00       	jmp    4069 <sgxsd_enclave_server_call+0x109>
    3fc1:	31 ff                	xor    edi,edi
    3fc3:	e8 78 11 01 00       	call   15140 <_Z7tracebrPv>
    3fc8:	48 c1 e5 04          	shl    rbp,0x4
    3fcc:	48 8d 05 1d 5e 24 00 	lea    rax,[rip+0x245e1d]        # 249df0 <g_sgxsd_enclave_server_states>
    3fd3:	48 8d 0c 28          	lea    rcx,[rax+rbp*1]
    3fd7:	48 89 4c 24 08       	mov    QWORD PTR [rsp+0x8],rcx
    3fdc:	48 01 c5             	add    rbp,rax
    3fdf:	48 83 c5 04          	add    rbp,0x4
    3fe3:	48 89 6c 24 10       	mov    QWORD PTR [rsp+0x10],rbp
    3fe8:	48 8d 3d 01 e3 ff ff 	lea    rdi,[rip+0xffffffffffffe301]        # 22f0 <sgxsd_spin_lock>
    3fef:	e8 dc 0d 01 00       	call   14dd0 <_Z10traceedgecPv>
    3ff4:	48 8d 3d e5 78 01 00 	lea    rdi,[rip+0x178e5]        # 1b8e0 <sgx_spin_lock>
    3ffb:	e8 d0 0d 01 00       	call   14dd0 <_Z10traceedgecPv>
    4000:	48 89 ef             	mov    rdi,rbp
    4003:	e8 d8 78 01 00       	call   1b8e0 <sgx_spin_lock>
    4008:	0f ae e8             	lfence 
    400b:	48 8b 6c 24 48       	mov    rbp,QWORD PTR [rsp+0x48]
    4010:	48 89 ef             	mov    rdi,rbp
    4013:	e8 b8 0d 01 00       	call   14dd0 <_Z10traceedgecPv>
    4018:	48 8d 3d 71 00 00 00 	lea    rdi,[rip+0x71]        # 4090 <sgxsd_enclave_server_call_locked>
    401f:	e8 ac 0d 01 00       	call   14dd0 <_Z10traceedgecPv>
    4024:	48 89 df             	mov    rdi,rbx
    4027:	4c 89 ee             	mov    rsi,r13
    402a:	4c 89 e2             	mov    rdx,r12
    402d:	4c 89 f9             	mov    rcx,r15
    4030:	4d 89 f0             	mov    r8,r14
    4033:	4c 8b 4c 24 08       	mov    r9,QWORD PTR [rsp+0x8]
    4038:	e8 53 00 00 00       	call   4090 <sgxsd_enclave_server_call_locked>
    403d:	89 c3                	mov    ebx,eax
    403f:	48 8d 3d 7a e4 ff ff 	lea    rdi,[rip+0xffffffffffffe47a]        # 24c0 <sgxsd_spin_unlock>
    4046:	e8 85 0d 01 00       	call   14dd0 <_Z10traceedgecPv>
    404b:	48 8d 3d ee 78 01 00 	lea    rdi,[rip+0x178ee]        # 1b940 <sgx_spin_unlock>
    4052:	e8 79 0d 01 00       	call   14dd0 <_Z10traceedgecPv>
    4057:	48 8b 7c 24 10       	mov    rdi,QWORD PTR [rsp+0x10]
    405c:	e8 df 78 01 00       	call   1b940 <sgx_spin_unlock>
    4061:	48 89 ef             	mov    rdi,rbp
    4064:	e8 67 0d 01 00       	call   14dd0 <_Z10traceedgecPv>
    4069:	48 8b 7c 24 48       	mov    rdi,QWORD PTR [rsp+0x48]
    406e:	e8 5d 0d 01 00       	call   14dd0 <_Z10traceedgecPv>
    4073:	89 d8                	mov    eax,ebx
    4075:	48 83 c4 18          	add    rsp,0x18
    4079:	5b                   	pop    rbx
    407a:	41 5c                	pop    r12
    407c:	41 5d                	pop    r13
    407e:	41 5e                	pop    r14
    4080:	41 5f                	pop    r15
    4082:	5d                   	pop    rbp
    4083:	c3                   	ret    
    4084:	66 2e 0f 1f 84 00 00 	nop    WORD PTR cs:[rax+rax*1+0x0]
    408b:	00 00 00 
    408e:	66 90                	xchg   ax,ax

0000000000004090 <sgxsd_enclave_server_call_locked>:
    4090:	55                   	push   rbp
    4091:	41 57                	push   r15
    4093:	41 56                	push   r14
    4095:	41 55                	push   r13
    4097:	41 54                	push   r12
    4099:	53                   	push   rbx
    409a:	48 81 ec b8 00 00 00 	sub    rsp,0xb8
    40a1:	64 48 8b 04 25 28 00 	mov    rax,QWORD PTR fs:0x28
    40a8:	00 00 
    40aa:	48 89 84 24 b0 00 00 	mov    QWORD PTR [rsp+0xb0],rax
    40b1:	00 
    40b2:	41 80 39 00          	cmp    BYTE PTR [r9],0x0
    40b6:	0f 84 8d 00 00 00    	je     4149 <sgxsd_enclave_server_call_locked+0xb9>
    40bc:	4d 89 cd             	mov    r13,r9
    40bf:	4d 89 c4             	mov    r12,r8
    40c2:	49 89 ce             	mov    r14,rcx
    40c5:	49 89 d7             	mov    r15,rdx
    40c8:	48 89 f3             	mov    rbx,rsi
    40cb:	48 89 fd             	mov    rbp,rdi
    40ce:	bf 01 00 00 00       	mov    edi,0x1
    40d3:	e8 68 10 01 00       	call   15140 <_Z7tracebrPv>
    40d8:	48 85 db             	test   rbx,rbx
    40db:	74 5b                	je     4138 <sgxsd_enclave_server_call_locked+0xa8>
    40dd:	31 ff                	xor    edi,edi
    40df:	e8 5c 10 01 00       	call   15140 <_Z7tracebrPv>
    40e4:	4d 85 ff             	test   r15,r15
    40e7:	74 4f                	je     4138 <sgxsd_enclave_server_call_locked+0xa8>
    40e9:	31 ff                	xor    edi,edi
    40eb:	e8 50 10 01 00       	call   15140 <_Z7tracebrPv>
    40f0:	4d 85 f6             	test   r14,r14
    40f3:	74 43                	je     4138 <sgxsd_enclave_server_call_locked+0xa8>
    40f5:	48 89 6c 24 30       	mov    QWORD PTR [rsp+0x30],rbp
    40fa:	31 ff                	xor    edi,edi
    40fc:	e8 3f 10 01 00       	call   15140 <_Z7tracebrPv>
    4101:	48 8d 6b 1c          	lea    rbp,[rbx+0x1c]
    4105:	48 8d 3d 14 f3 ff ff 	lea    rdi,[rip+0xfffffffffffff314]        # 3420 <sgxsd_enclave_remove_pending_request>
    410c:	e8 bf 0c 01 00       	call   14dd0 <_Z10traceedgecPv>
    4111:	48 8d b4 24 88 00 00 	lea    rsi,[rsp+0x88]
    4118:	00 
    4119:	48 89 6c 24 38       	mov    QWORD PTR [rsp+0x38],rbp
    411e:	48 89 ef             	mov    rdi,rbp
    4121:	e8 fa f2 ff ff       	call   3420 <sgxsd_enclave_remove_pending_request>
    4126:	85 c0                	test   eax,eax
    4128:	74 63                	je     418d <sgxsd_enclave_server_call_locked+0xfd>
    412a:	89 c5                	mov    ebp,eax
    412c:	bf 01 00 00 00       	mov    edi,0x1
    4131:	e8 0a 10 01 00       	call   15140 <_Z7tracebrPv>
    4136:	eb 1d                	jmp    4155 <sgxsd_enclave_server_call_locked+0xc5>
    4138:	bf 01 00 00 00       	mov    edi,0x1
    413d:	e8 fe 0f 01 00       	call   15140 <_Z7tracebrPv>
    4142:	bd 02 00 00 00       	mov    ebp,0x2
    4147:	eb 0c                	jmp    4155 <sgxsd_enclave_server_call_locked+0xc5>
    4149:	31 ff                	xor    edi,edi
    414b:	e8 f0 0f 01 00       	call   15140 <_Z7tracebrPv>
    4150:	bd 05 00 00 00       	mov    ebp,0x5
    4155:	48 8b bc 24 e8 00 00 	mov    rdi,QWORD PTR [rsp+0xe8]
    415c:	00 
    415d:	e8 6e 0c 01 00       	call   14dd0 <_Z10traceedgecPv>
    4162:	64 48 8b 04 25 28 00 	mov    rax,QWORD PTR fs:0x28
    4169:	00 00 
    416b:	48 3b 84 24 b0 00 00 	cmp    rax,QWORD PTR [rsp+0xb0]
    4172:	00 
    4173:	0f 85 a8 01 00 00    	jne    4321 <sgxsd_enclave_server_call_locked+0x291>
    4179:	89 e8                	mov    eax,ebp
    417b:	48 81 c4 b8 00 00 00 	add    rsp,0xb8
    4182:	5b                   	pop    rbx
    4183:	41 5c                	pop    r12
    4185:	41 5d                	pop    r13
    4187:	41 5e                	pop    r14
    4189:	41 5f                	pop    r15
    418b:	5d                   	pop    rbp
    418c:	c3                   	ret    
    418d:	31 ff                	xor    edi,edi
    418f:	e8 ac 0f 01 00       	call   15140 <_Z7tracebrPv>
    4194:	48 8d 6c 24 48       	lea    rbp,[rsp+0x48]
    4199:	c5 f8 57 c0          	vxorps xmm0,xmm0,xmm0
    419d:	c5 fc 11 44 24 48    	vmovups YMMWORD PTR [rsp+0x48],ymm0
    41a3:	4c 89 64 24 40       	mov    QWORD PTR [rsp+0x40],r12
    41a8:	48 8d 3d f1 f3 ff ff 	lea    rdi,[rip+0xfffffffffffff3f1]        # 35a0 <sgxsd_enclave_derive_request_keys>
    41af:	c5 f8 77             	vzeroupper 
    41b2:	e8 19 0c 01 00       	call   14dd0 <_Z10traceedgecPv>
    41b7:	4c 8d a4 24 88 00 00 	lea    r12,[rsp+0x88]
    41be:	00 
    41bf:	48 8d 74 24 68       	lea    rsi,[rsp+0x68]
    41c4:	4c 89 e7             	mov    rdi,r12
    41c7:	48 89 ea             	mov    rdx,rbp
    41ca:	e8 d1 f3 ff ff       	call   35a0 <sgxsd_enclave_derive_request_keys>
    41cf:	48 8d 3d aa 73 01 00 	lea    rdi,[rip+0x173aa]        # 1b580 <memset_s>
    41d6:	e8 f5 0b 01 00       	call   14dd0 <_Z10traceedgecPv>
    41db:	be 28 00 00 00       	mov    esi,0x28
    41e0:	b9 28 00 00 00       	mov    ecx,0x28
    41e5:	4c 89 e7             	mov    rdi,r12
    41e8:	31 d2                	xor    edx,edx
    41ea:	e8 91 73 01 00       	call   1b580 <memset_s>
    41ef:	48 8d 6b 0c          	lea    rbp,[rbx+0xc]
    41f3:	48 8d 3d 46 e7 ff ff 	lea    rdi,[rip+0xffffffffffffe746]        # 2940 <sgxsd_aes_gcm_decrypt>
    41fa:	e8 d1 0b 01 00       	call   14dd0 <_Z10traceedgecPv>
    41ff:	48 8d 3d ea e3 ff ff 	lea    rdi,[rip+0xffffffffffffe3ea]        # 25f0 <sgxsd_aes_gcm_run>
    4206:	e8 c5 0b 01 00       	call   14dd0 <_Z10traceedgecPv>
    420b:	48 89 6c 24 10       	mov    QWORD PTR [rsp+0x10],rbp
    4210:	48 8b 44 24 38       	mov    rax,QWORD PTR [rsp+0x38]
    4215:	48 89 04 24          	mov    QWORD PTR [rsp],rax
    4219:	c7 44 24 08 24 00 00 	mov    DWORD PTR [rsp+0x8],0x24
    4220:	00 
    4221:	bf 00 00 00 00       	mov    edi,0x0
    4226:	48 8d 6c 24 68       	lea    rbp,[rsp+0x68]
    422b:	48 89 ee             	mov    rsi,rbp
    422e:	4c 89 fa             	mov    rdx,r15
    4231:	44 89 f1             	mov    ecx,r14d
    4234:	4d 89 f8             	mov    r8,r15
    4237:	49 89 d9             	mov    r9,rbx
    423a:	e8 b1 e3 ff ff       	call   25f0 <sgxsd_aes_gcm_run>
    423f:	89 c3                	mov    ebx,eax
    4241:	48 8b bc 24 e8 00 00 	mov    rdi,QWORD PTR [rsp+0xe8]
    4248:	00 
    4249:	e8 82 0b 01 00       	call   14dd0 <_Z10traceedgecPv>
    424e:	48 8d 3d 2b 73 01 00 	lea    rdi,[rip+0x1732b]        # 1b580 <memset_s>
    4255:	e8 76 0b 01 00       	call   14dd0 <_Z10traceedgecPv>
    425a:	be 20 00 00 00       	mov    esi,0x20
    425f:	b9 20 00 00 00       	mov    ecx,0x20
    4264:	48 89 ef             	mov    rdi,rbp
    4267:	31 d2                	xor    edx,edx
    4269:	e8 12 73 01 00       	call   1b580 <memset_s>
    426e:	85 db                	test   ebx,ebx
    4270:	74 26                	je     4298 <sgxsd_enclave_server_call_locked+0x208>
    4272:	bd 01 00 00 00       	mov    ebp,0x1
    4277:	bf 01 00 00 00       	mov    edi,0x1
    427c:	e8 bf 0e 01 00       	call   15140 <_Z7tracebrPv>
    4281:	83 fb 02             	cmp    ebx,0x2
    4284:	0f 84 a2 fe ff ff    	je     412c <sgxsd_enclave_server_call_locked+0x9c>
    428a:	31 ff                	xor    edi,edi
    428c:	e8 af 0e 01 00       	call   15140 <_Z7tracebrPv>
    4291:	89 dd                	mov    ebp,ebx
    4293:	e9 bd fe ff ff       	jmp    4155 <sgxsd_enclave_server_call_locked+0xc5>
    4298:	31 ff                	xor    edi,edi
    429a:	e8 a1 0e 01 00       	call   15140 <_Z7tracebrPv>
    429f:	49 83 c5 08          	add    r13,0x8
    42a3:	48 8d 3d d6 fd 00 00 	lea    rdi,[rip+0xfdd6]        # 14080 <sgxsd_enclave_server_handle_call>
    42aa:	e8 21 0b 01 00       	call   14dd0 <_Z10traceedgecPv>
    42af:	48 8b 44 24 60       	mov    rax,QWORD PTR [rsp+0x60]
    42b4:	48 89 44 24 20       	mov    QWORD PTR [rsp+0x20],rax
    42b9:	c5 fc 10 44 24 40    	vmovups ymm0,YMMWORD PTR [rsp+0x40]
    42bf:	c5 fc 11 04 24       	vmovups YMMWORD PTR [rsp],ymm0
    42c4:	48 8b 7c 24 30       	mov    rdi,QWORD PTR [rsp+0x30]
    42c9:	4c 89 fe             	mov    rsi,r15
    42cc:	44 89 f2             	mov    edx,r14d
    42cf:	4c 89 e9             	mov    rcx,r13
    42d2:	c5 f8 77             	vzeroupper 
    42d5:	e8 a6 fd 00 00       	call   14080 <sgxsd_enclave_server_handle_call>
    42da:	89 c5                	mov    ebp,eax
    42dc:	44 89 f3             	mov    ebx,r14d
    42df:	4c 8d 35 9a 72 01 00 	lea    r14,[rip+0x1729a]        # 1b580 <memset_s>
    42e6:	4c 89 f7             	mov    rdi,r14
    42e9:	e8 e2 0a 01 00       	call   14dd0 <_Z10traceedgecPv>
    42ee:	4c 89 ff             	mov    rdi,r15
    42f1:	48 89 de             	mov    rsi,rbx
    42f4:	31 d2                	xor    edx,edx
    42f6:	48 89 d9             	mov    rcx,rbx
    42f9:	e8 82 72 01 00       	call   1b580 <memset_s>
    42fe:	4c 89 f7             	mov    rdi,r14
    4301:	e8 ca 0a 01 00       	call   14dd0 <_Z10traceedgecPv>
    4306:	48 8d 7c 24 40       	lea    rdi,[rsp+0x40]
    430b:	be 28 00 00 00       	mov    esi,0x28
    4310:	b9 28 00 00 00       	mov    ecx,0x28
    4315:	31 d2                	xor    edx,edx
    4317:	e8 64 72 01 00       	call   1b580 <memset_s>
    431c:	e9 34 fe ff ff       	jmp    4155 <sgxsd_enclave_server_call_locked+0xc5>
    4321:	e8 ca 3a 01 00       	call   17df0 <__stack_chk_fail>
    4326:	66 2e 0f 1f 84 00 00 	nop    WORD PTR cs:[rax+rax*1+0x0]
    432d:	00 00 00 

0000000000004330 <sgxsd_enclave_server_stop>:
    4330:	41 57                	push   r15
    4332:	41 56                	push   r14
    4334:	41 55                	push   r13
    4336:	41 54                	push   r12
    4338:	53                   	push   rbx
    4339:	80 3d 60 49 24 00 00 	cmp    BYTE PTR [rip+0x244960],0x0        # 248ca0 <g_sgxsd_enclave_node_initialized>
    4340:	74 2d                	je     436f <sgxsd_enclave_server_stop+0x3f>
    4342:	48 89 f3             	mov    rbx,rsi
    4345:	49 89 ff             	mov    r15,rdi
    4348:	bf 01 00 00 00       	mov    edi,0x1
    434d:	e8 ee 0d 01 00       	call   15140 <_Z7tracebrPv>
    4352:	48 81 fb 00 01 00 00 	cmp    rbx,0x100
    4359:	72 25                	jb     4380 <sgxsd_enclave_server_stop+0x50>
    435b:	bf 01 00 00 00       	mov    edi,0x1
    4360:	e8 db 0d 01 00       	call   15140 <_Z7tracebrPv>
    4365:	bb 02 00 00 00       	mov    ebx,0x2
    436a:	e9 a0 00 00 00       	jmp    440f <sgxsd_enclave_server_stop+0xdf>
    436f:	31 ff                	xor    edi,edi
    4371:	e8 ca 0d 01 00       	call   15140 <_Z7tracebrPv>
    4376:	bb 05 00 00 00       	mov    ebx,0x5
    437b:	e9 8f 00 00 00       	jmp    440f <sgxsd_enclave_server_stop+0xdf>
    4380:	31 ff                	xor    edi,edi
    4382:	e8 b9 0d 01 00       	call   15140 <_Z7tracebrPv>
    4387:	48 c1 e3 04          	shl    rbx,0x4
    438b:	48 8d 05 5e 5a 24 00 	lea    rax,[rip+0x245a5e]        # 249df0 <g_sgxsd_enclave_server_states>
    4392:	4c 8d 24 18          	lea    r12,[rax+rbx*1]
    4396:	4c 8d 34 03          	lea    r14,[rbx+rax*1]
    439a:	49 83 c6 04          	add    r14,0x4
    439e:	48 8d 3d 4b df ff ff 	lea    rdi,[rip+0xffffffffffffdf4b]        # 22f0 <sgxsd_spin_lock>
    43a5:	e8 26 0a 01 00       	call   14dd0 <_Z10traceedgecPv>
    43aa:	48 8d 3d 2f 75 01 00 	lea    rdi,[rip+0x1752f]        # 1b8e0 <sgx_spin_lock>
    43b1:	e8 1a 0a 01 00       	call   14dd0 <_Z10traceedgecPv>
    43b6:	4c 89 f7             	mov    rdi,r14
    43b9:	e8 22 75 01 00       	call   1b8e0 <sgx_spin_lock>
    43be:	0f ae e8             	lfence 
    43c1:	4c 8b 6c 24 28       	mov    r13,QWORD PTR [rsp+0x28]
    43c6:	4c 89 ef             	mov    rdi,r13
    43c9:	e8 02 0a 01 00       	call   14dd0 <_Z10traceedgecPv>
    43ce:	48 8d 3d 5b 00 00 00 	lea    rdi,[rip+0x5b]        # 4430 <sgxsd_enclave_server_stop_locked>
    43d5:	e8 f6 09 01 00       	call   14dd0 <_Z10traceedgecPv>
    43da:	4c 89 ff             	mov    rdi,r15
    43dd:	4c 89 e6             	mov    rsi,r12
    43e0:	e8 4b 00 00 00       	call   4430 <sgxsd_enclave_server_stop_locked>
    43e5:	89 c3                	mov    ebx,eax
    43e7:	48 8d 3d d2 e0 ff ff 	lea    rdi,[rip+0xffffffffffffe0d2]        # 24c0 <sgxsd_spin_unlock>
    43ee:	e8 dd 09 01 00       	call   14dd0 <_Z10traceedgecPv>
    43f3:	48 8d 3d 46 75 01 00 	lea    rdi,[rip+0x17546]        # 1b940 <sgx_spin_unlock>
    43fa:	e8 d1 09 01 00       	call   14dd0 <_Z10traceedgecPv>
    43ff:	4c 89 f7             	mov    rdi,r14
    4402:	e8 39 75 01 00       	call   1b940 <sgx_spin_unlock>
    4407:	4c 89 ef             	mov    rdi,r13
    440a:	e8 c1 09 01 00       	call   14dd0 <_Z10traceedgecPv>
    440f:	48 8b 7c 24 28       	mov    rdi,QWORD PTR [rsp+0x28]
    4414:	e8 b7 09 01 00       	call   14dd0 <_Z10traceedgecPv>
    4419:	89 d8                	mov    eax,ebx
    441b:	5b                   	pop    rbx
    441c:	41 5c                	pop    r12
    441e:	41 5d                	pop    r13
    4420:	41 5e                	pop    r14
    4422:	41 5f                	pop    r15
    4424:	c3                   	ret    
    4425:	66 2e 0f 1f 84 00 00 	nop    WORD PTR cs:[rax+rax*1+0x0]
    442c:	00 00 00 
    442f:	90                   	nop

0000000000004430 <sgxsd_enclave_server_stop_locked>:
    4430:	41 57                	push   r15
    4432:	41 56                	push   r14
    4434:	53                   	push   rbx
    4435:	80 3e 00             	cmp    BYTE PTR [rsi],0x0
    4438:	74 4f                	je     4489 <sgxsd_enclave_server_stop_locked+0x59>
    443a:	48 89 f3             	mov    rbx,rsi
    443d:	49 89 fe             	mov    r14,rdi
    4440:	bf 01 00 00 00       	mov    edi,0x1
    4445:	e8 f6 0c 01 00       	call   15140 <_Z7tracebrPv>
    444a:	4c 8b 7b 08          	mov    r15,QWORD PTR [rbx+0x8]
    444e:	48 8d 3d 2b 71 01 00 	lea    rdi,[rip+0x1712b]        # 1b580 <memset_s>
    4455:	e8 76 09 01 00       	call   14dd0 <_Z10traceedgecPv>
    445a:	be 10 00 00 00       	mov    esi,0x10
    445f:	b9 10 00 00 00       	mov    ecx,0x10
    4464:	48 89 df             	mov    rdi,rbx
    4467:	31 d2                	xor    edx,edx
    4469:	e8 12 71 01 00       	call   1b580 <memset_s>
    446e:	48 8d 3d bb fd 00 00 	lea    rdi,[rip+0xfdbb]        # 14230 <sgxsd_enclave_server_terminate>
    4475:	e8 56 09 01 00       	call   14dd0 <_Z10traceedgecPv>
    447a:	4c 89 f7             	mov    rdi,r14
    447d:	4c 89 fe             	mov    rsi,r15
    4480:	e8 ab fd 00 00       	call   14230 <sgxsd_enclave_server_terminate>
    4485:	89 c3                	mov    ebx,eax
    4487:	eb 0c                	jmp    4495 <sgxsd_enclave_server_stop_locked+0x65>
    4489:	31 ff                	xor    edi,edi
    448b:	e8 b0 0c 01 00       	call   15140 <_Z7tracebrPv>
    4490:	bb 05 00 00 00       	mov    ebx,0x5
    4495:	48 8b 7c 24 18       	mov    rdi,QWORD PTR [rsp+0x18]
    449a:	e8 31 09 01 00       	call   14dd0 <_Z10traceedgecPv>
    449f:	89 d8                	mov    eax,ebx
    44a1:	5b                   	pop    rbx
    44a2:	41 5e                	pop    r14
    44a4:	41 5f                	pop    r15
    44a6:	c3                   	ret    
    44a7:	66 0f 1f 84 00 00 00 	nop    WORD PTR [rax+rax*1+0x0]
    44ae:	00 00 

00000000000044b0 <my_printf>:
    44b0:	41 56                	push   r14
    44b2:	53                   	push   rbx
    44b3:	48 81 ec d8 20 00 00 	sub    rsp,0x20d8
    44ba:	49 89 fe             	mov    r14,rdi
    44bd:	84 c0                	test   al,al
    44bf:	74 3f                	je     4500 <my_printf+0x50>
    44c1:	c5 f8 29 44 24 50    	vmovaps XMMWORD PTR [rsp+0x50],xmm0
    44c7:	c5 f8 29 4c 24 60    	vmovaps XMMWORD PTR [rsp+0x60],xmm1
    44cd:	c5 f8 29 54 24 70    	vmovaps XMMWORD PTR [rsp+0x70],xmm2
    44d3:	c5 f8 29 9c 24 80 00 	vmovaps XMMWORD PTR [rsp+0x80],xmm3
    44da:	00 00 
    44dc:	c5 f8 29 a4 24 90 00 	vmovaps XMMWORD PTR [rsp+0x90],xmm4
    44e3:	00 00 
    44e5:	c5 f8 29 ac 24 a0 00 	vmovaps XMMWORD PTR [rsp+0xa0],xmm5
    44ec:	00 00 
    44ee:	c5 f8 29 b4 24 b0 00 	vmovaps XMMWORD PTR [rsp+0xb0],xmm6
    44f5:	00 00 
    44f7:	c5 f8 29 bc 24 c0 00 	vmovaps XMMWORD PTR [rsp+0xc0],xmm7
    44fe:	00 00 
    4500:	48 89 74 24 28       	mov    QWORD PTR [rsp+0x28],rsi
    4505:	48 89 54 24 30       	mov    QWORD PTR [rsp+0x30],rdx
    450a:	48 89 4c 24 38       	mov    QWORD PTR [rsp+0x38],rcx
    450f:	4c 89 44 24 40       	mov    QWORD PTR [rsp+0x40],r8
    4514:	4c 89 4c 24 48       	mov    QWORD PTR [rsp+0x48],r9
    4519:	64 48 8b 04 25 28 00 	mov    rax,QWORD PTR fs:0x28
    4520:	00 00 
    4522:	48 89 84 24 d0 20 00 	mov    QWORD PTR [rsp+0x20d0],rax
    4529:	00 
    452a:	48 8d 9c 24 d0 00 00 	lea    rbx,[rsp+0xd0]
    4531:	00 
    4532:	ba 00 20 00 00       	mov    edx,0x2000
    4537:	48 89 df             	mov    rdi,rbx
    453a:	31 f6                	xor    esi,esi
    453c:	e8 2f 70 01 00       	call   1b570 <memset>
    4541:	48 8d 44 24 20       	lea    rax,[rsp+0x20]
    4546:	48 89 44 24 10       	mov    QWORD PTR [rsp+0x10],rax
    454b:	48 8d 84 24 f0 20 00 	lea    rax,[rsp+0x20f0]
    4552:	00 
    4553:	48 89 44 24 08       	mov    QWORD PTR [rsp+0x8],rax
    4558:	48 b8 08 00 00 00 30 	movabs rax,0x3000000008
    455f:	00 00 00 
    4562:	48 89 04 24          	mov    QWORD PTR [rsp],rax
    4566:	48 8d 3d f3 73 01 00 	lea    rdi,[rip+0x173f3]        # 1b960 <vsnprintf>
    456d:	e8 5e 08 01 00       	call   14dd0 <_Z10traceedgecPv>
    4572:	48 89 e1             	mov    rcx,rsp
    4575:	be 00 20 00 00       	mov    esi,0x2000
    457a:	48 89 df             	mov    rdi,rbx
    457d:	4c 89 f2             	mov    rdx,r14
    4580:	e8 db 73 01 00       	call   1b960 <vsnprintf>
    4585:	48 8d 3d a4 d9 ff ff 	lea    rdi,[rip+0xffffffffffffd9a4]        # 1f30 <ocall_print_string>
    458c:	e8 3f 08 01 00       	call   14dd0 <_Z10traceedgecPv>
    4591:	48 89 df             	mov    rdi,rbx
    4594:	e8 97 d9 ff ff       	call   1f30 <ocall_print_string>
    4599:	48 8b bc 24 e8 20 00 	mov    rdi,QWORD PTR [rsp+0x20e8]
    45a0:	00 
    45a1:	e8 2a 08 01 00       	call   14dd0 <_Z10traceedgecPv>
    45a6:	64 48 8b 04 25 28 00 	mov    rax,QWORD PTR fs:0x28
    45ad:	00 00 
    45af:	48 3b 84 24 d0 20 00 	cmp    rax,QWORD PTR [rsp+0x20d0]
    45b6:	00 
    45b7:	75 0b                	jne    45c4 <my_printf+0x114>
    45b9:	48 81 c4 d8 20 00 00 	add    rsp,0x20d8
    45c0:	5b                   	pop    rbx
    45c1:	41 5e                	pop    r14
    45c3:	c3                   	ret    
    45c4:	e8 27 38 01 00       	call   17df0 <__stack_chk_fail>
    45c9:	0f 1f 80 00 00 00 00 	nop    DWORD PTR [rax+0x0]

00000000000045d0 <hello>:
    45d0:	50                   	push   rax
    45d1:	48 8d 3d d8 fe ff ff 	lea    rdi,[rip+0xfffffffffffffed8]        # 44b0 <my_printf>
    45d8:	e8 f3 07 01 00       	call   14dd0 <_Z10traceedgecPv>
    45dd:	48 8d 3d 5c be 03 00 	lea    rdi,[rip+0x3be5c]        # 40440 <sgxsd_enclave_generate_curve25519_keypair.BASEPOINT+0x20>
    45e4:	31 c0                	xor    eax,eax
    45e6:	e8 c5 fe ff ff       	call   44b0 <my_printf>
    45eb:	48 8b 7c 24 08       	mov    rdi,QWORD PTR [rsp+0x8]
    45f0:	58                   	pop    rax
    45f1:	e9 da 07 01 00       	jmp    14dd0 <_Z10traceedgecPv>
    45f6:	66 2e 0f 1f 84 00 00 	nop    WORD PTR cs:[rax+rax*1+0x0]
    45fd:	00 00 00 

0000000000004600 <br_range_dec32be>:
    4600:	55                   	push   rbp
    4601:	41 57                	push   r15
    4603:	41 56                	push   r14
    4605:	41 55                	push   r13
    4607:	41 54                	push   r12
    4609:	53                   	push   rbx
    460a:	50                   	push   rax
    460b:	48 85 f6             	test   rsi,rsi
    460e:	74 4e                	je     465e <br_range_dec32be+0x5e>
    4610:	49 89 d6             	mov    r14,rdx
    4613:	49 89 f5             	mov    r13,rsi
    4616:	49 89 ff             	mov    r15,rdi
    4619:	31 db                	xor    ebx,ebx
    461b:	4c 8d 25 5e 00 00 00 	lea    r12,[rip+0x5e]        # 4680 <br_dec32be>
    4622:	66 2e 0f 1f 84 00 00 	nop    WORD PTR cs:[rax+rax*1+0x0]
    4629:	00 00 00 
    462c:	0f 1f 40 00          	nop    DWORD PTR [rax+0x0]
    4630:	bf 01 00 00 00       	mov    edi,0x1
    4635:	e8 06 0b 01 00       	call   15140 <_Z7tracebrPv>
    463a:	4c 89 e7             	mov    rdi,r12
    463d:	e8 8e 07 01 00       	call   14dd0 <_Z10traceedgecPv>
    4642:	41 8b 2c 9e          	mov    ebp,DWORD PTR [r14+rbx*4]
    4646:	48 8b 7c 24 38       	mov    rdi,QWORD PTR [rsp+0x38]
    464b:	e8 80 07 01 00       	call   14dd0 <_Z10traceedgecPv>
    4650:	41 0f 38 f1 2c 9f    	movbe  DWORD PTR [r15+rbx*4],ebp
    4656:	48 ff c3             	inc    rbx
    4659:	49 39 dd             	cmp    r13,rbx
    465c:	75 d2                	jne    4630 <br_range_dec32be+0x30>
    465e:	31 ff                	xor    edi,edi
    4660:	e8 db 0a 01 00       	call   15140 <_Z7tracebrPv>
    4665:	48 8b 7c 24 38       	mov    rdi,QWORD PTR [rsp+0x38]
    466a:	48 83 c4 08          	add    rsp,0x8
    466e:	5b                   	pop    rbx
    466f:	41 5c                	pop    r12
    4671:	41 5d                	pop    r13
    4673:	41 5e                	pop    r14
    4675:	41 5f                	pop    r15
    4677:	5d                   	pop    rbp
    4678:	e9 53 07 01 00       	jmp    14dd0 <_Z10traceedgecPv>
    467d:	0f 1f 00             	nop    DWORD PTR [rax]

0000000000004680 <br_dec32be>:
    4680:	53                   	push   rbx
    4681:	0f 38 f0 1f          	movbe  ebx,DWORD PTR [rdi]
    4685:	48 8b 7c 24 08       	mov    rdi,QWORD PTR [rsp+0x8]
    468a:	e8 41 07 01 00       	call   14dd0 <_Z10traceedgecPv>
    468f:	89 d8                	mov    eax,ebx
    4691:	5b                   	pop    rbx
    4692:	c3                   	ret    
    4693:	66 2e 0f 1f 84 00 00 	nop    WORD PTR cs:[rax+rax*1+0x0]
    469a:	00 00 00 
    469d:	0f 1f 00             	nop    DWORD PTR [rax]

00000000000046a0 <br_sha2small_round>:
    46a0:	55                   	push   rbp
    46a1:	41 57                	push   r15
    46a3:	41 56                	push   r14
    46a5:	41 55                	push   r13
    46a7:	41 54                	push   r12
    46a9:	53                   	push   rbx
    46aa:	48 81 ec 28 01 00 00 	sub    rsp,0x128
    46b1:	49 89 f7             	mov    r15,rsi
    46b4:	48 89 fb             	mov    rbx,rdi
    46b7:	48 8d 3d 42 ff ff ff 	lea    rdi,[rip+0xffffffffffffff42]        # 4600 <br_range_dec32be>
    46be:	e8 0d 07 01 00       	call   14dd0 <_Z10traceedgecPv>
    46c3:	48 8d 7c 24 20       	lea    rdi,[rsp+0x20]
    46c8:	bd 10 00 00 00       	mov    ebp,0x10
    46cd:	be 10 00 00 00       	mov    esi,0x10
    46d2:	48 89 da             	mov    rdx,rbx
    46d5:	e8 26 ff ff ff       	call   4600 <br_range_dec32be>
    46da:	66 0f 1f 44 00 00    	nop    WORD PTR [rax+rax*1+0x0]
    46e0:	bf 01 00 00 00       	mov    edi,0x1
    46e5:	e8 56 0a 01 00       	call   15140 <_Z7tracebrPv>
    46ea:	8b 44 ac 18          	mov    eax,DWORD PTR [rsp+rbp*4+0x18]
    46ee:	c4 e3 7b f0 c8 11    	rorx   ecx,eax,0x11
    46f4:	c4 e3 7b f0 d0 13    	rorx   edx,eax,0x13
    46fa:	c1 e8 0a             	shr    eax,0xa
    46fd:	31 d0                	xor    eax,edx
    46ff:	31 c8                	xor    eax,ecx
    4701:	8b 4c ac e0          	mov    ecx,DWORD PTR [rsp+rbp*4-0x20]
    4705:	8b 54 ac e4          	mov    edx,DWORD PTR [rsp+rbp*4-0x1c]
    4709:	c4 e3 7b f0 f2 07    	rorx   esi,edx,0x7
    470f:	c4 e3 7b f0 fa 12    	rorx   edi,edx,0x12
    4715:	c1 ea 03             	shr    edx,0x3
    4718:	31 fa                	xor    edx,edi
    471a:	03 4c ac 04          	add    ecx,DWORD PTR [rsp+rbp*4+0x4]
    471e:	31 f2                	xor    edx,esi
    4720:	01 c1                	add    ecx,eax
    4722:	01 d1                	add    ecx,edx
    4724:	89 4c ac 20          	mov    DWORD PTR [rsp+rbp*4+0x20],ecx
    4728:	48 ff c5             	inc    rbp
    472b:	48 83 fd 40          	cmp    rbp,0x40
    472f:	75 af                	jne    46e0 <br_sha2small_round+0x40>
    4731:	31 c0                	xor    eax,eax
    4733:	48 89 44 24 10       	mov    QWORD PTR [rsp+0x10],rax
    4738:	31 ff                	xor    edi,edi
    473a:	e8 01 0a 01 00       	call   15140 <_Z7tracebrPv>
    473f:	45 8b 37             	mov    r14d,DWORD PTR [r15]
    4742:	45 8b 67 04          	mov    r12d,DWORD PTR [r15+0x4]
    4746:	41 8b 6f 08          	mov    ebp,DWORD PTR [r15+0x8]
    474a:	41 8b 5f 0c          	mov    ebx,DWORD PTR [r15+0xc]
    474e:	41 8b 47 10          	mov    eax,DWORD PTR [r15+0x10]
    4752:	89 44 24 0c          	mov    DWORD PTR [rsp+0xc],eax
    4756:	45 8b 6f 14          	mov    r13d,DWORD PTR [r15+0x14]
    475a:	41 8b 47 18          	mov    eax,DWORD PTR [r15+0x18]
    475e:	89 44 24 08          	mov    DWORD PTR [rsp+0x8],eax
    4762:	4c 89 7c 24 18       	mov    QWORD PTR [rsp+0x18],r15
    4767:	45 8b 7f 1c          	mov    r15d,DWORD PTR [r15+0x1c]
    476b:	0f 1f 44 00 00       	nop    DWORD PTR [rax+rax*1+0x0]
    4770:	bf 01 00 00 00       	mov    edi,0x1
    4775:	e8 c6 09 01 00       	call   15140 <_Z7tracebrPv>
    477a:	44 8b 4c 24 0c       	mov    r9d,DWORD PTR [rsp+0xc]
    477f:	c4 c3 7b f0 c1 06    	rorx   eax,r9d,0x6
    4785:	c4 c3 7b f0 c9 0b    	rorx   ecx,r9d,0xb
    478b:	31 c1                	xor    ecx,eax
    478d:	c4 c3 7b f0 c1 19    	rorx   eax,r9d,0x19
    4793:	31 c8                	xor    eax,ecx
    4795:	8b 7c 24 08          	mov    edi,DWORD PTR [rsp+0x8]
    4799:	c4 e2 30 f2 cf       	andn   ecx,r9d,edi
    479e:	44 89 ea             	mov    edx,r13d
    47a1:	44 21 ca             	and    edx,r9d
    47a4:	09 ca                	or     edx,ecx
    47a6:	44 01 fa             	add    edx,r15d
    47a9:	01 c2                	add    edx,eax
    47ab:	4c 8b 44 24 10       	mov    r8,QWORD PTR [rsp+0x10]
    47b0:	4c 8d 15 b9 bc 03 00 	lea    r10,[rip+0x3bcb9]        # 40470 <K>
    47b7:	43 03 14 82          	add    edx,DWORD PTR [r10+r8*4]
    47bb:	42 03 54 84 20       	add    edx,DWORD PTR [rsp+r8*4+0x20]
    47c0:	c4 c3 7b f0 c6 02    	rorx   eax,r14d,0x2
    47c6:	c4 c3 7b f0 ce 0d    	rorx   ecx,r14d,0xd
    47cc:	31 c1                	xor    ecx,eax
    47ce:	c4 c3 7b f0 c6 16    	rorx   eax,r14d,0x16
    47d4:	31 c8                	xor    eax,ecx
    47d6:	44 89 e1             	mov    ecx,r12d
    47d9:	21 e9                	and    ecx,ebp
    47db:	45 89 e7             	mov    r15d,r12d
    47de:	41 09 ef             	or     r15d,ebp
    47e1:	45 21 f7             	and    r15d,r14d
    47e4:	41 09 cf             	or     r15d,ecx
    47e7:	41 01 c7             	add    r15d,eax
    47ea:	01 d3                	add    ebx,edx
    47ec:	41 01 d7             	add    r15d,edx
    47ef:	c4 e3 7b f0 c3 06    	rorx   eax,ebx,0x6
    47f5:	c4 e3 7b f0 cb 0b    	rorx   ecx,ebx,0xb
    47fb:	31 c1                	xor    ecx,eax
    47fd:	c4 e3 7b f0 c3 19    	rorx   eax,ebx,0x19
    4803:	31 c8                	xor    eax,ecx
    4805:	c4 c2 60 f2 cd       	andn   ecx,ebx,r13d
    480a:	44 89 ca             	mov    edx,r9d
    480d:	21 da                	and    edx,ebx
    480f:	09 ca                	or     edx,ecx
    4811:	43 03 7c 82 04       	add    edi,DWORD PTR [r10+r8*4+0x4]
    4816:	42 03 7c 84 24       	add    edi,DWORD PTR [rsp+r8*4+0x24]
    481b:	01 d7                	add    edi,edx
    481d:	01 c7                	add    edi,eax
    481f:	c4 c3 7b f0 c7 02    	rorx   eax,r15d,0x2
    4825:	c4 c3 7b f0 cf 0d    	rorx   ecx,r15d,0xd
    482b:	31 c1                	xor    ecx,eax
    482d:	c4 c3 7b f0 c7 16    	rorx   eax,r15d,0x16
    4833:	31 c8                	xor    eax,ecx
    4835:	44 89 f1             	mov    ecx,r14d
    4838:	44 21 e1             	and    ecx,r12d
    483b:	44 89 f2             	mov    edx,r14d
    483e:	44 09 e2             	or     edx,r12d
    4841:	44 21 fa             	and    edx,r15d
    4844:	09 ca                	or     edx,ecx
    4846:	01 c2                	add    edx,eax
    4848:	01 fd                	add    ebp,edi
    484a:	01 d7                	add    edi,edx
    484c:	c4 e3 7b f0 c5 06    	rorx   eax,ebp,0x6
    4852:	c4 e3 7b f0 cd 0b    	rorx   ecx,ebp,0xb
    4858:	31 c1                	xor    ecx,eax
    485a:	c4 e3 7b f0 c5 19    	rorx   eax,ebp,0x19
    4860:	31 c8                	xor    eax,ecx
    4862:	c4 c2 50 f2 c9       	andn   ecx,ebp,r9d
    4867:	89 da                	mov    edx,ebx
    4869:	21 ea                	and    edx,ebp
    486b:	09 ca                	or     edx,ecx
    486d:	47 03 6c 82 08       	add    r13d,DWORD PTR [r10+r8*4+0x8]
    4872:	46 03 6c 84 28       	add    r13d,DWORD PTR [rsp+r8*4+0x28]
    4877:	41 01 d5             	add    r13d,edx
    487a:	41 01 c5             	add    r13d,eax
    487d:	c4 e3 7b f0 c7 02    	rorx   eax,edi,0x2
    4883:	c4 e3 7b f0 cf 0d    	rorx   ecx,edi,0xd
    4889:	31 c1                	xor    ecx,eax
    488b:	c4 e3 7b f0 c7 16    	rorx   eax,edi,0x16
    4891:	31 c8                	xor    eax,ecx
    4893:	44 89 f9             	mov    ecx,r15d
    4896:	44 21 f1             	and    ecx,r14d
    4899:	44 89 fa             	mov    edx,r15d
    489c:	44 09 f2             	or     edx,r14d
    489f:	21 fa                	and    edx,edi
    48a1:	09 ca                	or     edx,ecx
    48a3:	01 c2                	add    edx,eax
    48a5:	45 01 ec             	add    r12d,r13d
    48a8:	41 01 d5             	add    r13d,edx
    48ab:	c4 c3 7b f0 c4 06    	rorx   eax,r12d,0x6
    48b1:	c4 c3 7b f0 cc 0b    	rorx   ecx,r12d,0xb
    48b7:	31 c1                	xor    ecx,eax
    48b9:	c4 c3 7b f0 c4 19    	rorx   eax,r12d,0x19
    48bf:	31 c8                	xor    eax,ecx
    48c1:	c4 e2 18 f2 cb       	andn   ecx,r12d,ebx
    48c6:	89 ea                	mov    edx,ebp
    48c8:	44 21 e2             	and    edx,r12d
    48cb:	09 ca                	or     edx,ecx
    48cd:	47 03 4c 82 0c       	add    r9d,DWORD PTR [r10+r8*4+0xc]
    48d2:	46 03 4c 84 2c       	add    r9d,DWORD PTR [rsp+r8*4+0x2c]
    48d7:	41 01 d1             	add    r9d,edx
    48da:	41 01 c1             	add    r9d,eax
    48dd:	c4 c3 7b f0 c5 02    	rorx   eax,r13d,0x2
    48e3:	c4 c3 7b f0 cd 0d    	rorx   ecx,r13d,0xd
    48e9:	31 c1                	xor    ecx,eax
    48eb:	c4 c3 7b f0 c5 16    	rorx   eax,r13d,0x16
    48f1:	31 c8                	xor    eax,ecx
    48f3:	89 f9                	mov    ecx,edi
    48f5:	44 21 f9             	and    ecx,r15d
    48f8:	89 fa                	mov    edx,edi
    48fa:	44 09 fa             	or     edx,r15d
    48fd:	44 21 ea             	and    edx,r13d
    4900:	09 ca                	or     edx,ecx
    4902:	01 c2                	add    edx,eax
    4904:	45 01 ce             	add    r14d,r9d
    4907:	41 01 d1             	add    r9d,edx
    490a:	c4 c3 7b f0 c6 06    	rorx   eax,r14d,0x6
    4910:	c4 c3 7b f0 ce 0b    	rorx   ecx,r14d,0xb
    4916:	31 c1                	xor    ecx,eax
    4918:	c4 c3 7b f0 c6 19    	rorx   eax,r14d,0x19
    491e:	31 c8                	xor    eax,ecx
    4920:	c4 e2 08 f2 cd       	andn   ecx,r14d,ebp
    4925:	44 89 e2             	mov    edx,r12d
    4928:	44 21 f2             	and    edx,r14d
    492b:	09 ca                	or     edx,ecx
    492d:	43 03 5c 82 10       	add    ebx,DWORD PTR [r10+r8*4+0x10]
    4932:	42 03 5c 84 30       	add    ebx,DWORD PTR [rsp+r8*4+0x30]
    4937:	01 d3                	add    ebx,edx
    4939:	89 d9                	mov    ecx,ebx
    493b:	01 c1                	add    ecx,eax
    493d:	c4 c3 7b f0 c1 02    	rorx   eax,r9d,0x2
    4943:	c4 c3 7b f0 d1 0d    	rorx   edx,r9d,0xd
    4949:	31 c2                	xor    edx,eax
    494b:	c4 c3 7b f0 c1 16    	rorx   eax,r9d,0x16
    4951:	31 d0                	xor    eax,edx
    4953:	44 89 ea             	mov    edx,r13d
    4956:	21 fa                	and    edx,edi
    4958:	44 89 eb             	mov    ebx,r13d
    495b:	09 fb                	or     ebx,edi
    495d:	44 21 cb             	and    ebx,r9d
    4960:	09 d3                	or     ebx,edx
    4962:	01 c3                	add    ebx,eax
    4964:	41 01 cf             	add    r15d,ecx
    4967:	01 cb                	add    ebx,ecx
    4969:	c4 c3 7b f0 c7 06    	rorx   eax,r15d,0x6
    496f:	c4 c3 7b f0 cf 0b    	rorx   ecx,r15d,0xb
    4975:	31 c1                	xor    ecx,eax
    4977:	c4 c3 7b f0 d7 19    	rorx   edx,r15d,0x19
    497d:	31 ca                	xor    edx,ecx
    497f:	c4 c2 00 f2 c4       	andn   eax,r15d,r12d
    4984:	44 89 f1             	mov    ecx,r14d
    4987:	44 21 f9             	and    ecx,r15d
    498a:	09 c1                	or     ecx,eax
    498c:	42 8b 74 84 34       	mov    esi,DWORD PTR [rsp+r8*4+0x34]
    4991:	42 8b 44 84 38       	mov    eax,DWORD PTR [rsp+r8*4+0x38]
    4996:	43 03 74 82 14       	add    esi,DWORD PTR [r10+r8*4+0x14]
    499b:	01 ee                	add    esi,ebp
    499d:	01 ce                	add    esi,ecx
    499f:	01 d6                	add    esi,edx
    49a1:	c4 e3 7b f0 cb 02    	rorx   ecx,ebx,0x2
    49a7:	c4 e3 7b f0 d3 0d    	rorx   edx,ebx,0xd
    49ad:	31 ca                	xor    edx,ecx
    49af:	c4 e3 7b f0 cb 16    	rorx   ecx,ebx,0x16
    49b5:	31 d1                	xor    ecx,edx
    49b7:	44 89 ca             	mov    edx,r9d
    49ba:	44 21 ea             	and    edx,r13d
    49bd:	44 89 cd             	mov    ebp,r9d
    49c0:	44 09 ed             	or     ebp,r13d
    49c3:	21 dd                	and    ebp,ebx
    49c5:	09 d5                	or     ebp,edx
    49c7:	01 cd                	add    ebp,ecx
    49c9:	01 f7                	add    edi,esi
    49cb:	01 f5                	add    ebp,esi
    49cd:	c4 e3 7b f0 cf 06    	rorx   ecx,edi,0x6
    49d3:	c4 e3 7b f0 d7 0b    	rorx   edx,edi,0xb
    49d9:	31 ca                	xor    edx,ecx
    49db:	c4 e3 7b f0 cf 19    	rorx   ecx,edi,0x19
    49e1:	31 d1                	xor    ecx,edx
    49e3:	c4 c2 40 f2 d6       	andn   edx,edi,r14d
    49e8:	44 89 fe             	mov    esi,r15d
    49eb:	21 fe                	and    esi,edi
    49ed:	09 d6                	or     esi,edx
    49ef:	43 03 44 82 18       	add    eax,DWORD PTR [r10+r8*4+0x18]
    49f4:	44 01 e0             	add    eax,r12d
    49f7:	01 f0                	add    eax,esi
    49f9:	01 c8                	add    eax,ecx
    49fb:	c4 e3 7b f0 cd 02    	rorx   ecx,ebp,0x2
    4a01:	c4 e3 7b f0 d5 0d    	rorx   edx,ebp,0xd
    4a07:	31 ca                	xor    edx,ecx
    4a09:	c4 e3 7b f0 cd 16    	rorx   ecx,ebp,0x16
    4a0f:	31 d1                	xor    ecx,edx
    4a11:	89 da                	mov    edx,ebx
    4a13:	44 21 ca             	and    edx,r9d
    4a16:	41 89 dc             	mov    r12d,ebx
    4a19:	45 09 cc             	or     r12d,r9d
    4a1c:	41 21 ec             	and    r12d,ebp
    4a1f:	41 09 d4             	or     r12d,edx
    4a22:	41 01 cc             	add    r12d,ecx
    4a25:	41 01 c5             	add    r13d,eax
    4a28:	41 01 c4             	add    r12d,eax
    4a2b:	c4 c3 7b f0 c5 06    	rorx   eax,r13d,0x6
    4a31:	c4 c3 7b f0 cd 0b    	rorx   ecx,r13d,0xb
    4a37:	31 c1                	xor    ecx,eax
    4a39:	c4 c3 7b f0 c5 19    	rorx   eax,r13d,0x19
    4a3f:	31 c8                	xor    eax,ecx
    4a41:	c4 c2 10 f2 cf       	andn   ecx,r13d,r15d
    4a46:	89 7c 24 08          	mov    DWORD PTR [rsp+0x8],edi
    4a4a:	89 fa                	mov    edx,edi
    4a4c:	44 21 ea             	and    edx,r13d
    4a4f:	42 8b 74 84 3c       	mov    esi,DWORD PTR [rsp+r8*4+0x3c]
    4a54:	43 03 74 82 1c       	add    esi,DWORD PTR [r10+r8*4+0x1c]
    4a59:	09 ca                	or     edx,ecx
    4a5b:	44 01 f6             	add    esi,r14d
    4a5e:	01 d6                	add    esi,edx
    4a60:	01 c6                	add    esi,eax
    4a62:	c4 c3 7b f0 c4 02    	rorx   eax,r12d,0x2
    4a68:	c4 c3 7b f0 cc 0d    	rorx   ecx,r12d,0xd
    4a6e:	31 c1                	xor    ecx,eax
    4a70:	c4 c3 7b f0 c4 16    	rorx   eax,r12d,0x16
    4a76:	31 c8                	xor    eax,ecx
    4a78:	89 e9                	mov    ecx,ebp
    4a7a:	21 d9                	and    ecx,ebx
    4a7c:	41 89 ee             	mov    r14d,ebp
    4a7f:	41 09 de             	or     r14d,ebx
    4a82:	45 21 e6             	and    r14d,r12d
    4a85:	41 09 ce             	or     r14d,ecx
    4a88:	41 01 c6             	add    r14d,eax
    4a8b:	41 01 f1             	add    r9d,esi
    4a8e:	44 89 4c 24 0c       	mov    DWORD PTR [rsp+0xc],r9d
    4a93:	41 01 f6             	add    r14d,esi
    4a96:	49 83 c0 08          	add    r8,0x8
    4a9a:	4c 89 44 24 10       	mov    QWORD PTR [rsp+0x10],r8
    4a9f:	49 83 f8 40          	cmp    r8,0x40
    4aa3:	0f 82 c7 fc ff ff    	jb     4770 <br_sha2small_round+0xd0>
    4aa9:	31 ff                	xor    edi,edi
    4aab:	e8 90 06 01 00       	call   15140 <_Z7tracebrPv>
    4ab0:	c5 f9 6e 44 24 0c    	vmovd  xmm0,DWORD PTR [rsp+0xc]
    4ab6:	c4 c3 79 22 c5 01    	vpinsrd xmm0,xmm0,r13d,0x1
    4abc:	c4 e3 79 22 44 24 08 	vpinsrd xmm0,xmm0,DWORD PTR [rsp+0x8],0x2
    4ac3:	02 
    4ac4:	c4 c3 79 22 c7 03    	vpinsrd xmm0,xmm0,r15d,0x3
    4aca:	c4 c1 79 6e ce       	vmovd  xmm1,r14d
    4acf:	c4 c3 71 22 cc 01    	vpinsrd xmm1,xmm1,r12d,0x1
    4ad5:	c4 e3 71 22 cd 02    	vpinsrd xmm1,xmm1,ebp,0x2
    4adb:	c4 e3 71 22 cb 03    	vpinsrd xmm1,xmm1,ebx,0x3
    4ae1:	c4 e3 75 38 c0 01    	vinserti128 ymm0,ymm1,xmm0,0x1
    4ae7:	48 8b 44 24 18       	mov    rax,QWORD PTR [rsp+0x18]
    4aec:	c5 fd fe 00          	vpaddd ymm0,ymm0,YMMWORD PTR [rax]
    4af0:	c5 fe 7f 00          	vmovdqu YMMWORD PTR [rax],ymm0
    4af4:	48 8b bc 24 58 01 00 	mov    rdi,QWORD PTR [rsp+0x158]
    4afb:	00 
    4afc:	c5 f8 77             	vzeroupper 
    4aff:	e8 cc 02 01 00       	call   14dd0 <_Z10traceedgecPv>
    4b04:	48 81 c4 28 01 00 00 	add    rsp,0x128
    4b0b:	5b                   	pop    rbx
    4b0c:	41 5c                	pop    r12
    4b0e:	41 5d                	pop    r13
    4b10:	41 5e                	pop    r14
    4b12:	41 5f                	pop    r15
    4b14:	5d                   	pop    rbp
    4b15:	c3                   	ret    
    4b16:	66 2e 0f 1f 84 00 00 	nop    WORD PTR cs:[rax+rax*1+0x0]
    4b1d:	00 00 00 

0000000000004b20 <br_sha224_update>:
    4b20:	41 57                	push   r15
    4b22:	41 56                	push   r14
    4b24:	53                   	push   rbx
    4b25:	49 89 d6             	mov    r14,rdx
    4b28:	49 89 f7             	mov    r15,rsi
    4b2b:	48 89 fb             	mov    rbx,rdi
    4b2e:	48 8d 3d 2b 00 00 00 	lea    rdi,[rip+0x2b]        # 4b60 <sha2small_update>
    4b35:	e8 96 02 01 00       	call   14dd0 <_Z10traceedgecPv>
    4b3a:	48 89 df             	mov    rdi,rbx
    4b3d:	4c 89 fe             	mov    rsi,r15
    4b40:	4c 89 f2             	mov    rdx,r14
    4b43:	e8 18 00 00 00       	call   4b60 <sha2small_update>
    4b48:	48 8b 7c 24 18       	mov    rdi,QWORD PTR [rsp+0x18]
    4b4d:	5b                   	pop    rbx
    4b4e:	41 5e                	pop    r14
    4b50:	41 5f                	pop    r15
    4b52:	e9 79 02 01 00       	jmp    14dd0 <_Z10traceedgecPv>
    4b57:	66 0f 1f 84 00 00 00 	nop    WORD PTR [rax+rax*1+0x0]
    4b5e:	00 00 

0000000000004b60 <sha2small_update>:
    4b60:	55                   	push   rbp
    4b61:	41 57                	push   r15
    4b63:	41 56                	push   r14
    4b65:	41 55                	push   r13
    4b67:	41 54                	push   r12
    4b69:	53                   	push   rbx
    4b6a:	50                   	push   rax
    4b6b:	4c 8b 67 48          	mov    r12,QWORD PTR [rdi+0x48]
    4b6f:	49 8d 04 14          	lea    rax,[r12+rdx*1]
    4b73:	48 89 47 48          	mov    QWORD PTR [rdi+0x48],rax
    4b77:	48 85 d2             	test   rdx,rdx
    4b7a:	0f 84 a4 00 00 00    	je     4c24 <sha2small_update+0xc4>
    4b80:	48 89 d5             	mov    rbp,rdx
    4b83:	48 89 f3             	mov    rbx,rsi
    4b86:	49 89 ff             	mov    r15,rdi
    4b89:	41 83 e4 3f          	and    r12d,0x3f
    4b8d:	48 8d 47 08          	lea    rax,[rdi+0x8]
    4b91:	48 89 04 24          	mov    QWORD PTR [rsp],rax
    4b95:	4c 8d 6f 50          	lea    r13,[rdi+0x50]
    4b99:	eb 14                	jmp    4baf <sha2small_update+0x4f>
    4b9b:	0f 1f 44 00 00       	nop    DWORD PTR [rax+rax*1+0x0]
    4ba0:	4c 01 f3             	add    rbx,r14
    4ba3:	31 ff                	xor    edi,edi
    4ba5:	e8 96 05 01 00       	call   15140 <_Z7tracebrPv>
    4baa:	48 85 ed             	test   rbp,rbp
    4bad:	74 75                	je     4c24 <sha2small_update+0xc4>
    4baf:	bf 01 00 00 00       	mov    edi,0x1
    4bb4:	e8 87 05 01 00       	call   15140 <_Z7tracebrPv>
    4bb9:	41 be 40 00 00 00    	mov    r14d,0x40
    4bbf:	4d 29 e6             	sub    r14,r12
    4bc2:	49 39 ee             	cmp    r14,rbp
    4bc5:	76 0d                	jbe    4bd4 <sha2small_update+0x74>
    4bc7:	bf 01 00 00 00       	mov    edi,0x1
    4bcc:	e8 6f 05 01 00       	call   15140 <_Z7tracebrPv>
    4bd1:	49 89 ee             	mov    r14,rbp
    4bd4:	31 ff                	xor    edi,edi
    4bd6:	e8 65 05 01 00       	call   15140 <_Z7tracebrPv>
    4bdb:	4b 8d 3c 27          	lea    rdi,[r15+r12*1]
    4bdf:	48 83 c7 08          	add    rdi,0x8
    4be3:	48 89 de             	mov    rsi,rbx
    4be6:	4c 89 f2             	mov    rdx,r14
    4be9:	e8 72 67 01 00       	call   1b360 <memcpy>
    4bee:	4d 01 f4             	add    r12,r14
    4bf1:	4c 29 f5             	sub    rbp,r14
    4bf4:	49 83 fc 40          	cmp    r12,0x40
    4bf8:	75 a6                	jne    4ba0 <sha2small_update+0x40>
    4bfa:	bf 01 00 00 00       	mov    edi,0x1
    4bff:	e8 3c 05 01 00       	call   15140 <_Z7tracebrPv>
    4c04:	48 8d 3d 95 fa ff ff 	lea    rdi,[rip+0xfffffffffffffa95]        # 46a0 <br_sha2small_round>
    4c0b:	e8 c0 01 01 00       	call   14dd0 <_Z10traceedgecPv>
    4c10:	48 8b 3c 24          	mov    rdi,QWORD PTR [rsp]
    4c14:	4c 89 ee             	mov    rsi,r13
    4c17:	e8 84 fa ff ff       	call   46a0 <br_sha2small_round>
    4c1c:	45 31 e4             	xor    r12d,r12d
    4c1f:	e9 7c ff ff ff       	jmp    4ba0 <sha2small_update+0x40>
    4c24:	31 ff                	xor    edi,edi
    4c26:	e8 15 05 01 00       	call   15140 <_Z7tracebrPv>
    4c2b:	48 8b 7c 24 38       	mov    rdi,QWORD PTR [rsp+0x38]
    4c30:	48 83 c4 08          	add    rsp,0x8
    4c34:	5b                   	pop    rbx
    4c35:	41 5c                	pop    r12
    4c37:	41 5d                	pop    r13
    4c39:	41 5e                	pop    r14
    4c3b:	41 5f                	pop    r15
    4c3d:	5d                   	pop    rbp
    4c3e:	e9 8d 01 01 00       	jmp    14dd0 <_Z10traceedgecPv>
    4c43:	66 2e 0f 1f 84 00 00 	nop    WORD PTR cs:[rax+rax*1+0x0]
    4c4a:	00 00 00 
    4c4d:	0f 1f 00             	nop    DWORD PTR [rax]

0000000000004c50 <sha2small_out>:
    4c50:	55                   	push   rbp
    4c51:	48 89 e5             	mov    rbp,rsp
    4c54:	41 57                	push   r15
    4c56:	41 56                	push   r14
    4c58:	41 55                	push   r13
    4c5a:	41 54                	push   r12
    4c5c:	53                   	push   rbx
    4c5d:	48 83 e4 e0          	and    rsp,0xffffffffffffffe0
    4c61:	48 81 ec 80 00 00 00 	sub    rsp,0x80
    4c68:	41 89 d7             	mov    r15d,edx
    4c6b:	49 89 f6             	mov    r14,rsi
    4c6e:	49 89 fc             	mov    r12,rdi
    4c71:	64 48 8b 04 25 28 00 	mov    rax,QWORD PTR fs:0x28
    4c78:	00 00 
    4c7a:	48 89 44 24 60       	mov    QWORD PTR [rsp+0x60],rax
    4c7f:	48 8b 5f 48          	mov    rbx,QWORD PTR [rdi+0x48]
    4c83:	83 e3 3f             	and    ebx,0x3f
    4c86:	48 8d 77 08          	lea    rsi,[rdi+0x8]
    4c8a:	48 8d 7c 24 20       	lea    rdi,[rsp+0x20]
    4c8f:	48 89 da             	mov    rdx,rbx
    4c92:	e8 c9 66 01 00       	call   1b360 <memcpy>
    4c97:	c4 c1 7c 10 44 24 50 	vmovups ymm0,YMMWORD PTR [r12+0x50]
    4c9e:	c5 fc 11 04 24       	vmovups YMMWORD PTR [rsp],ymm0
    4ca3:	4c 8d 6b 01          	lea    r13,[rbx+0x1]
    4ca7:	c6 44 1c 20 80       	mov    BYTE PTR [rsp+rbx*1+0x20],0x80
    4cac:	48 83 fb 38          	cmp    rbx,0x38
    4cb0:	72 4e                	jb     4d00 <sha2small_out+0xb0>
    4cb2:	bf 01 00 00 00       	mov    edi,0x1
    4cb7:	c5 f8 77             	vzeroupper 
    4cba:	e8 81 04 01 00       	call   15140 <_Z7tracebrPv>
    4cbf:	4a 8d 3c 2c          	lea    rdi,[rsp+r13*1]
    4cc3:	48 83 c7 20          	add    rdi,0x20
    4cc7:	48 83 f3 3f          	xor    rbx,0x3f
    4ccb:	31 f6                	xor    esi,esi
    4ccd:	48 89 da             	mov    rdx,rbx
    4cd0:	e8 9b 68 01 00       	call   1b570 <memset>
    4cd5:	48 8d 3d c4 f9 ff ff 	lea    rdi,[rip+0xfffffffffffff9c4]        # 46a0 <br_sha2small_round>
    4cdc:	e8 ef 00 01 00       	call   14dd0 <_Z10traceedgecPv>
    4ce1:	48 8d 7c 24 20       	lea    rdi,[rsp+0x20]
    4ce6:	48 89 e6             	mov    rsi,rsp
    4ce9:	e8 b2 f9 ff ff       	call   46a0 <br_sha2small_round>
    4cee:	c5 f8 57 c0          	vxorps xmm0,xmm0,xmm0
    4cf2:	c5 fc 11 44 24 38    	vmovups YMMWORD PTR [rsp+0x38],ymm0
    4cf8:	c5 fc 29 44 24 20    	vmovaps YMMWORD PTR [rsp+0x20],ymm0
    4cfe:	eb 21                	jmp    4d21 <sha2small_out+0xd1>
    4d00:	31 ff                	xor    edi,edi
    4d02:	c5 f8 77             	vzeroupper 
    4d05:	e8 36 04 01 00       	call   15140 <_Z7tracebrPv>
    4d0a:	4a 8d 3c 2c          	lea    rdi,[rsp+r13*1]
    4d0e:	48 83 c7 20          	add    rdi,0x20
    4d12:	ba 37 00 00 00       	mov    edx,0x37
    4d17:	48 29 da             	sub    rdx,rbx
    4d1a:	31 f6                	xor    esi,esi
    4d1c:	e8 4f 68 01 00       	call   1b570 <memset>
    4d21:	49 8b 5c 24 48       	mov    rbx,QWORD PTR [r12+0x48]
    4d26:	48 8d 3d 13 02 00 00 	lea    rdi,[rip+0x213]        # 4f40 <br_enc64be>
    4d2d:	c5 f8 77             	vzeroupper 
    4d30:	e8 9b 00 01 00       	call   14dd0 <_Z10traceedgecPv>
    4d35:	49 89 dd             	mov    r13,rbx
    4d38:	49 c1 ed 1d          	shr    r13,0x1d
    4d3c:	4c 8d 25 7d 02 00 00 	lea    r12,[rip+0x27d]        # 4fc0 <br_enc32be>
    4d43:	4c 89 e7             	mov    rdi,r12
    4d46:	e8 85 00 01 00       	call   14dd0 <_Z10traceedgecPv>
    4d4b:	48 89 d8             	mov    rax,rbx
    4d4e:	48 c1 e8 35          	shr    rax,0x35
    4d52:	88 44 24 58          	mov    BYTE PTR [rsp+0x58],al
    4d56:	48 89 d8             	mov    rax,rbx
    4d59:	48 c1 e8 2d          	shr    rax,0x2d
    4d5d:	88 44 24 59          	mov    BYTE PTR [rsp+0x59],al
    4d61:	48 89 d8             	mov    rax,rbx
    4d64:	48 c1 e8 25          	shr    rax,0x25
    4d68:	88 44 24 5a          	mov    BYTE PTR [rsp+0x5a],al
    4d6c:	44 88 6c 24 5b       	mov    BYTE PTR [rsp+0x5b],r13b
    4d71:	4c 8b 6d 08          	mov    r13,QWORD PTR [rbp+0x8]
    4d75:	4c 89 ef             	mov    rdi,r13
    4d78:	e8 53 00 01 00       	call   14dd0 <_Z10traceedgecPv>
    4d7d:	4c 89 e7             	mov    rdi,r12
    4d80:	e8 4b 00 01 00       	call   14dd0 <_Z10traceedgecPv>
    4d85:	48 89 d8             	mov    rax,rbx
    4d88:	48 c1 e8 15          	shr    rax,0x15
    4d8c:	88 44 24 5c          	mov    BYTE PTR [rsp+0x5c],al
    4d90:	48 89 d8             	mov    rax,rbx
    4d93:	48 c1 e8 0d          	shr    rax,0xd
    4d97:	88 44 24 5d          	mov    BYTE PTR [rsp+0x5d],al
    4d9b:	48 89 d8             	mov    rax,rbx
    4d9e:	48 c1 e8 05          	shr    rax,0x5
    4da2:	88 44 24 5e          	mov    BYTE PTR [rsp+0x5e],al
    4da6:	c0 e3 03             	shl    bl,0x3
    4da9:	88 5c 24 5f          	mov    BYTE PTR [rsp+0x5f],bl
    4dad:	4c 89 ef             	mov    rdi,r13
    4db0:	e8 1b 00 01 00       	call   14dd0 <_Z10traceedgecPv>
    4db5:	4c 89 ef             	mov    rdi,r13
    4db8:	e8 13 00 01 00       	call   14dd0 <_Z10traceedgecPv>
    4dbd:	48 8d 3d dc f8 ff ff 	lea    rdi,[rip+0xfffffffffffff8dc]        # 46a0 <br_sha2small_round>
    4dc4:	e8 07 00 01 00       	call   14dd0 <_Z10traceedgecPv>
    4dc9:	48 8d 7c 24 20       	lea    rdi,[rsp+0x20]
    4dce:	49 89 e4             	mov    r12,rsp
    4dd1:	4c 89 e6             	mov    rsi,r12
    4dd4:	e8 c7 f8 ff ff       	call   46a0 <br_sha2small_round>
    4dd9:	4d 63 ff             	movsxd r15,r15d
    4ddc:	48 8d 3d ed 01 00 00 	lea    rdi,[rip+0x1ed]        # 4fd0 <br_range_enc32be>
    4de3:	e8 e8 ff 00 00       	call   14dd0 <_Z10traceedgecPv>
    4de8:	4c 89 f7             	mov    rdi,r14
    4deb:	4c 89 e6             	mov    rsi,r12
    4dee:	4c 89 fa             	mov    rdx,r15
    4df1:	e8 da 01 00 00       	call   4fd0 <br_range_enc32be>
    4df6:	4c 89 ef             	mov    rdi,r13
    4df9:	e8 d2 ff 00 00       	call   14dd0 <_Z10traceedgecPv>
    4dfe:	64 48 8b 04 25 28 00 	mov    rax,QWORD PTR fs:0x28
    4e05:	00 00 
    4e07:	48 3b 44 24 60       	cmp    rax,QWORD PTR [rsp+0x60]
    4e0c:	75 0f                	jne    4e1d <sha2small_out+0x1cd>
    4e0e:	48 8d 65 d8          	lea    rsp,[rbp-0x28]
    4e12:	5b                   	pop    rbx
    4e13:	41 5c                	pop    r12
    4e15:	41 5d                	pop    r13
    4e17:	41 5e                	pop    r14
    4e19:	41 5f                	pop    r15
    4e1b:	5d                   	pop    rbp
    4e1c:	c3                   	ret    
    4e1d:	e8 ce 2f 01 00       	call   17df0 <__stack_chk_fail>
    4e22:	66 2e 0f 1f 84 00 00 	nop    WORD PTR cs:[rax+rax*1+0x0]
    4e29:	00 00 00 
    4e2c:	0f 1f 40 00          	nop    DWORD PTR [rax+0x0]

0000000000004e30 <br_sha224_state>:
    4e30:	41 57                	push   r15
    4e32:	41 56                	push   r14
    4e34:	53                   	push   rbx
    4e35:	49 89 f6             	mov    r14,rsi
    4e38:	48 89 fb             	mov    rbx,rdi
    4e3b:	4c 8d 7f 50          	lea    r15,[rdi+0x50]
    4e3f:	48 8d 3d 8a 01 00 00 	lea    rdi,[rip+0x18a]        # 4fd0 <br_range_enc32be>
    4e46:	e8 85 ff 00 00       	call   14dd0 <_Z10traceedgecPv>
    4e4b:	ba 08 00 00 00       	mov    edx,0x8
    4e50:	4c 89 f7             	mov    rdi,r14
    4e53:	4c 89 fe             	mov    rsi,r15
    4e56:	e8 75 01 00 00       	call   4fd0 <br_range_enc32be>
    4e5b:	48 8b 5b 48          	mov    rbx,QWORD PTR [rbx+0x48]
    4e5f:	48 8b 7c 24 18       	mov    rdi,QWORD PTR [rsp+0x18]
    4e64:	e8 67 ff 00 00       	call   14dd0 <_Z10traceedgecPv>
    4e69:	48 89 d8             	mov    rax,rbx
    4e6c:	5b                   	pop    rbx
    4e6d:	41 5e                	pop    r14
    4e6f:	41 5f                	pop    r15
    4e71:	c3                   	ret    
    4e72:	66 2e 0f 1f 84 00 00 	nop    WORD PTR cs:[rax+rax*1+0x0]
    4e79:	00 00 00 
    4e7c:	0f 1f 40 00          	nop    DWORD PTR [rax+0x0]

0000000000004e80 <br_sha224_set_state>:
    4e80:	41 57                	push   r15
    4e82:	41 56                	push   r14
    4e84:	41 54                	push   r12
    4e86:	53                   	push   rbx
    4e87:	50                   	push   rax
    4e88:	49 89 d6             	mov    r14,rdx
    4e8b:	49 89 f7             	mov    r15,rsi
    4e8e:	48 89 fb             	mov    rbx,rdi
    4e91:	4c 8d 67 50          	lea    r12,[rdi+0x50]
    4e95:	48 8d 3d 64 f7 ff ff 	lea    rdi,[rip+0xfffffffffffff764]        # 4600 <br_range_dec32be>
    4e9c:	e8 2f ff 00 00       	call   14dd0 <_Z10traceedgecPv>
    4ea1:	be 08 00 00 00       	mov    esi,0x8
    4ea6:	4c 89 e7             	mov    rdi,r12
    4ea9:	4c 89 fa             	mov    rdx,r15
    4eac:	e8 4f f7 ff ff       	call   4600 <br_range_dec32be>
    4eb1:	4c 89 73 48          	mov    QWORD PTR [rbx+0x48],r14
    4eb5:	48 8b 7c 24 28       	mov    rdi,QWORD PTR [rsp+0x28]
    4eba:	48 83 c4 08          	add    rsp,0x8
    4ebe:	5b                   	pop    rbx
    4ebf:	41 5c                	pop    r12
    4ec1:	41 5e                	pop    r14
    4ec3:	41 5f                	pop    r15
    4ec5:	e9 06 ff 00 00       	jmp    14dd0 <_Z10traceedgecPv>
    4eca:	66 0f 1f 44 00 00    	nop    WORD PTR [rax+rax*1+0x0]

0000000000004ed0 <br_sha256_init>:
    4ed0:	48 8d 05 81 2e 24 00 	lea    rax,[rip+0x242e81]        # 247d58 <br_sha256_vtable>
    4ed7:	48 89 07             	mov    QWORD PTR [rdi],rax
    4eda:	c5 fc 10 05 6e b5 03 	vmovups ymm0,YMMWORD PTR [rip+0x3b56e]        # 40450 <br_sha256_IV>
    4ee1:	00 
    4ee2:	c5 fc 11 47 50       	vmovups YMMWORD PTR [rdi+0x50],ymm0
    4ee7:	48 c7 47 48 00 00 00 	mov    QWORD PTR [rdi+0x48],0x0
    4eee:	00 
    4eef:	48 8b 3c 24          	mov    rdi,QWORD PTR [rsp]
    4ef3:	c5 f8 77             	vzeroupper 
    4ef6:	e9 d5 fe 00 00       	jmp    14dd0 <_Z10traceedgecPv>
    4efb:	0f 1f 44 00 00       	nop    DWORD PTR [rax+rax*1+0x0]

0000000000004f00 <br_sha256_out>:
    4f00:	41 56                	push   r14
    4f02:	53                   	push   rbx
    4f03:	50                   	push   rax
    4f04:	49 89 f6             	mov    r14,rsi
    4f07:	48 89 fb             	mov    rbx,rdi
    4f0a:	48 8d 3d 3f fd ff ff 	lea    rdi,[rip+0xfffffffffffffd3f]        # 4c50 <sha2small_out>
    4f11:	e8 ba fe 00 00       	call   14dd0 <_Z10traceedgecPv>
    4f16:	48 89 df             	mov    rdi,rbx
    4f19:	4c 89 f6             	mov    rsi,r14
    4f1c:	ba 08 00 00 00       	mov    edx,0x8
    4f21:	e8 2a fd ff ff       	call   4c50 <sha2small_out>
    4f26:	48 8b 7c 24 18       	mov    rdi,QWORD PTR [rsp+0x18]
    4f2b:	48 83 c4 08          	add    rsp,0x8
    4f2f:	5b                   	pop    rbx
    4f30:	41 5e                	pop    r14
    4f32:	e9 99 fe 00 00       	jmp    14dd0 <_Z10traceedgecPv>
    4f37:	66 0f 1f 84 00 00 00 	nop    WORD PTR [rax+rax*1+0x0]
    4f3e:	00 00 

0000000000004f40 <br_enc64be>:
    4f40:	41 57                	push   r15
    4f42:	41 56                	push   r14
    4f44:	41 54                	push   r12
    4f46:	53                   	push   rbx
    4f47:	50                   	push   rax
    4f48:	49 89 f6             	mov    r14,rsi
    4f4b:	48 89 fb             	mov    rbx,rdi
    4f4e:	49 89 f4             	mov    r12,rsi
    4f51:	49 c1 ec 20          	shr    r12,0x20
    4f55:	4c 8d 3d 64 00 00 00 	lea    r15,[rip+0x64]        # 4fc0 <br_enc32be>
    4f5c:	4c 89 ff             	mov    rdi,r15
    4f5f:	e8 6c fe 00 00       	call   14dd0 <_Z10traceedgecPv>
    4f64:	4c 89 f0             	mov    rax,r14
    4f67:	48 c1 e8 38          	shr    rax,0x38
    4f6b:	88 03                	mov    BYTE PTR [rbx],al
    4f6d:	4c 89 f0             	mov    rax,r14
    4f70:	48 c1 e8 30          	shr    rax,0x30
    4f74:	88 43 01             	mov    BYTE PTR [rbx+0x1],al
    4f77:	4c 89 f0             	mov    rax,r14
    4f7a:	48 c1 e8 28          	shr    rax,0x28
    4f7e:	88 43 02             	mov    BYTE PTR [rbx+0x2],al
